ARM GAS  C:\Users\91458\AppData\Local\Temp\ccYoNCPK.s 			page 1


   1              		.cpu cortex-m4
   2              		.eabi_attribute 27, 1
   3              		.eabi_attribute 28, 1
   4              		.eabi_attribute 20, 1
   5              		.eabi_attribute 21, 1
   6              		.eabi_attribute 23, 3
   7              		.eabi_attribute 24, 1
   8              		.eabi_attribute 25, 1
   9              		.eabi_attribute 26, 1
  10              		.eabi_attribute 30, 6
  11              		.eabi_attribute 34, 1
  12              		.eabi_attribute 18, 4
  13              		.file	"agenttiny.c"
  14              		.text
  15              	.Ltext0:
  16              		.cfi_sections	.debug_frame
  17              		.section	.text.dm_isUriOpaqueHandle,"ax",%progbits
  18              		.align	1
  19              		.syntax unified
  20              		.thumb
  21              		.thumb_func
  22              		.fpu fpv4-sp-d16
  24              	dm_isUriOpaqueHandle:
  25              	.LFB133:
  26              		.file 1 "D:/iot/felix2/components/connectivity/lwm2m/core/internals.h"
   1:D:/iot/felix2/components/connectivity/lwm2m/core\internals.h **** /*----------------------------------------------------------------------------
   2:D:/iot/felix2/components/connectivity/lwm2m/core\internals.h ****  * Copyright (c) <2016-2018>, <Huawei Technologies Co., Ltd>
   3:D:/iot/felix2/components/connectivity/lwm2m/core\internals.h ****  * All rights reserved.
   4:D:/iot/felix2/components/connectivity/lwm2m/core\internals.h ****  * Redistribution and use in source and binary forms, with or without modification,
   5:D:/iot/felix2/components/connectivity/lwm2m/core\internals.h ****  * are permitted provided that the following conditions are met:
   6:D:/iot/felix2/components/connectivity/lwm2m/core\internals.h ****  * 1. Redistributions of source code must retain the above copyright notice, this list of
   7:D:/iot/felix2/components/connectivity/lwm2m/core\internals.h ****  * conditions and the following disclaimer.
   8:D:/iot/felix2/components/connectivity/lwm2m/core\internals.h ****  * 2. Redistributions in binary form must reproduce the above copyright notice, this list
   9:D:/iot/felix2/components/connectivity/lwm2m/core\internals.h ****  * of conditions and the following disclaimer in the documentation and/or other materials
  10:D:/iot/felix2/components/connectivity/lwm2m/core\internals.h ****  * provided with the distribution.
  11:D:/iot/felix2/components/connectivity/lwm2m/core\internals.h ****  * 3. Neither the name of the copyright holder nor the names of its contributors may be used
  12:D:/iot/felix2/components/connectivity/lwm2m/core\internals.h ****  * to endorse or promote products derived from this software without specific prior written
  13:D:/iot/felix2/components/connectivity/lwm2m/core\internals.h ****  * permission.
  14:D:/iot/felix2/components/connectivity/lwm2m/core\internals.h ****  * THIS SOFTWARE IS PROVIDED BY THE COPYRIGHT HOLDERS AND CONTRIBUTORS
  15:D:/iot/felix2/components/connectivity/lwm2m/core\internals.h ****  * "AS IS" AND ANY EXPRESS OR IMPLIED WARRANTIES, INCLUDING, BUT NOT LIMITED TO,
  16:D:/iot/felix2/components/connectivity/lwm2m/core\internals.h ****  * THE IMPLIED WARRANTIES OF MERCHANTABILITY AND FITNESS FOR A PARTICULAR
  17:D:/iot/felix2/components/connectivity/lwm2m/core\internals.h ****  * PURPOSE ARE DISCLAIMED. IN NO EVENT SHALL THE COPYRIGHT HOLDER OR
  18:D:/iot/felix2/components/connectivity/lwm2m/core\internals.h ****  * CONTRIBUTORS BE LIABLE FOR ANY DIRECT, INDIRECT, INCIDENTAL, SPECIAL,
  19:D:/iot/felix2/components/connectivity/lwm2m/core\internals.h ****  * EXEMPLARY, OR CONSEQUENTIAL DAMAGES (INCLUDING, BUT NOT LIMITED TO,
  20:D:/iot/felix2/components/connectivity/lwm2m/core\internals.h ****  * PROCUREMENT OF SUBSTITUTE GOODS OR SERVICES; LOSS OF USE, DATA, OR PROFITS;
  21:D:/iot/felix2/components/connectivity/lwm2m/core\internals.h ****  * OR BUSINESS INTERRUPTION) HOWEVER CAUSED AND ON ANY THEORY OF LIABILITY,
  22:D:/iot/felix2/components/connectivity/lwm2m/core\internals.h ****  * WHETHER IN CONTRACT, STRICT LIABILITY, OR TORT (INCLUDING NEGLIGENCE OR
  23:D:/iot/felix2/components/connectivity/lwm2m/core\internals.h ****  * OTHERWISE) ARISING IN ANY WAY OUT OF THE USE OF THIS SOFTWARE, EVEN IF
  24:D:/iot/felix2/components/connectivity/lwm2m/core\internals.h ****  * ADVISED OF THE POSSIBILITY OF SUCH DAMAGE.
  25:D:/iot/felix2/components/connectivity/lwm2m/core\internals.h ****  *---------------------------------------------------------------------------*/
  26:D:/iot/felix2/components/connectivity/lwm2m/core\internals.h **** /*----------------------------------------------------------------------------
  27:D:/iot/felix2/components/connectivity/lwm2m/core\internals.h ****  * Notice of Export Control Law
  28:D:/iot/felix2/components/connectivity/lwm2m/core\internals.h ****  * ===============================================
  29:D:/iot/felix2/components/connectivity/lwm2m/core\internals.h ****  * Huawei LiteOS may be subject to applicable export control laws and regulations, which might
  30:D:/iot/felix2/components/connectivity/lwm2m/core\internals.h ****  * include those applicable to Huawei LiteOS of U.S. and the country in which you are located.
  31:D:/iot/felix2/components/connectivity/lwm2m/core\internals.h ****  * Import, export and usage of Huawei LiteOS in any manner by you shall be in compliance with such
  32:D:/iot/felix2/components/connectivity/lwm2m/core\internals.h ****  * applicable export control laws and regulations.
ARM GAS  C:\Users\91458\AppData\Local\Temp\ccYoNCPK.s 			page 2


  33:D:/iot/felix2/components/connectivity/lwm2m/core\internals.h ****  *---------------------------------------------------------------------------*/
  34:D:/iot/felix2/components/connectivity/lwm2m/core\internals.h **** 
  35:D:/iot/felix2/components/connectivity/lwm2m/core\internals.h **** /*******************************************************************************
  36:D:/iot/felix2/components/connectivity/lwm2m/core\internals.h ****  *
  37:D:/iot/felix2/components/connectivity/lwm2m/core\internals.h ****  * Copyright (c) 2013, 2014 Intel Corporation and others.
  38:D:/iot/felix2/components/connectivity/lwm2m/core\internals.h ****  * All rights reserved. This program and the accompanying materials
  39:D:/iot/felix2/components/connectivity/lwm2m/core\internals.h ****  * are made available under the terms of the Eclipse Public License v1.0
  40:D:/iot/felix2/components/connectivity/lwm2m/core\internals.h ****  * and Eclipse Distribution License v1.0 which accompany this distribution.
  41:D:/iot/felix2/components/connectivity/lwm2m/core\internals.h ****  *
  42:D:/iot/felix2/components/connectivity/lwm2m/core\internals.h ****  * The Eclipse Public License is available at
  43:D:/iot/felix2/components/connectivity/lwm2m/core\internals.h ****  *    http://www.eclipse.org/legal/epl-v10.html
  44:D:/iot/felix2/components/connectivity/lwm2m/core\internals.h ****  * The Eclipse Distribution License is available at
  45:D:/iot/felix2/components/connectivity/lwm2m/core\internals.h ****  *    http://www.eclipse.org/org/documents/edl-v10.php.
  46:D:/iot/felix2/components/connectivity/lwm2m/core\internals.h ****  *
  47:D:/iot/felix2/components/connectivity/lwm2m/core\internals.h ****  * Contributors:
  48:D:/iot/felix2/components/connectivity/lwm2m/core\internals.h ****  *    David Navarro, Intel Corporation - initial API and implementation
  49:D:/iot/felix2/components/connectivity/lwm2m/core\internals.h ****  *    Fabien Fleutot - Please refer to git log
  50:D:/iot/felix2/components/connectivity/lwm2m/core\internals.h ****  *    Toby Jaffey - Please refer to git log
  51:D:/iot/felix2/components/connectivity/lwm2m/core\internals.h ****  *    Bosch Software Innovations GmbH - Please refer to git log
  52:D:/iot/felix2/components/connectivity/lwm2m/core\internals.h ****  *    Pascal Rieux - Please refer to git log
  53:D:/iot/felix2/components/connectivity/lwm2m/core\internals.h ****  *    Scott Bertin - Please refer to git log
  54:D:/iot/felix2/components/connectivity/lwm2m/core\internals.h ****  *
  55:D:/iot/felix2/components/connectivity/lwm2m/core\internals.h ****  *******************************************************************************/
  56:D:/iot/felix2/components/connectivity/lwm2m/core\internals.h **** /*
  57:D:/iot/felix2/components/connectivity/lwm2m/core\internals.h ****  Copyright (c) 2013, 2014 Intel Corporation
  58:D:/iot/felix2/components/connectivity/lwm2m/core\internals.h **** 
  59:D:/iot/felix2/components/connectivity/lwm2m/core\internals.h ****  Redistribution and use in source and binary forms, with or without modification,
  60:D:/iot/felix2/components/connectivity/lwm2m/core\internals.h ****  are permitted provided that the following conditions are met:
  61:D:/iot/felix2/components/connectivity/lwm2m/core\internals.h **** 
  62:D:/iot/felix2/components/connectivity/lwm2m/core\internals.h ****      * Redistributions of source code must retain the above copyright notice,
  63:D:/iot/felix2/components/connectivity/lwm2m/core\internals.h ****        this list of conditions and the following disclaimer.
  64:D:/iot/felix2/components/connectivity/lwm2m/core\internals.h ****      * Redistributions in binary form must reproduce the above copyright notice,
  65:D:/iot/felix2/components/connectivity/lwm2m/core\internals.h ****        this list of conditions and the following disclaimer in the documentation
  66:D:/iot/felix2/components/connectivity/lwm2m/core\internals.h ****        and/or other materials provided with the distribution.
  67:D:/iot/felix2/components/connectivity/lwm2m/core\internals.h ****      * Neither the name of Intel Corporation nor the names of its contributors
  68:D:/iot/felix2/components/connectivity/lwm2m/core\internals.h ****        may be used to endorse or promote products derived from this software
  69:D:/iot/felix2/components/connectivity/lwm2m/core\internals.h ****        without specific prior written permission.
  70:D:/iot/felix2/components/connectivity/lwm2m/core\internals.h **** 
  71:D:/iot/felix2/components/connectivity/lwm2m/core\internals.h ****  THIS SOFTWARE IS PROVIDED BY THE COPYRIGHT HOLDERS AND CONTRIBUTORS "AS IS" AND
  72:D:/iot/felix2/components/connectivity/lwm2m/core\internals.h ****  ANY EXPRESS OR IMPLIED WARRANTIES, INCLUDING, BUT NOT LIMITED TO, THE IMPLIED
  73:D:/iot/felix2/components/connectivity/lwm2m/core\internals.h ****  WARRANTIES OF MERCHANTABILITY AND FITNESS FOR A PARTICULAR PURPOSE ARE DISCLAIMED.
  74:D:/iot/felix2/components/connectivity/lwm2m/core\internals.h ****  IN NO EVENT SHALL THE COPYRIGHT OWNER OR CONTRIBUTORS BE LIABLE FOR ANY DIRECT,
  75:D:/iot/felix2/components/connectivity/lwm2m/core\internals.h ****  INDIRECT, INCIDENTAL, SPECIAL, EXEMPLARY, OR CONSEQUENTIAL DAMAGES (INCLUDING,
  76:D:/iot/felix2/components/connectivity/lwm2m/core\internals.h ****  BUT NOT LIMITED TO, PROCUREMENT OF SUBSTITUTE GOODS OR SERVICES; LOSS OF USE,
  77:D:/iot/felix2/components/connectivity/lwm2m/core\internals.h ****  DATA, OR PROFITS; OR BUSINESS INTERRUPTION) HOWEVER CAUSED AND ON ANY THEORY OF
  78:D:/iot/felix2/components/connectivity/lwm2m/core\internals.h ****  LIABILITY, WHETHER IN CONTRACT, STRICT LIABILITY, OR TORT (INCLUDING NEGLIGENCE OR
  79:D:/iot/felix2/components/connectivity/lwm2m/core\internals.h ****  OTHERWISE) ARISING IN ANY WAY OUT OF THE USE OF THIS SOFTWARE, EVEN IF ADVISED OF
  80:D:/iot/felix2/components/connectivity/lwm2m/core\internals.h ****  THE POSSIBILITY OF SUCH DAMAGE.
  81:D:/iot/felix2/components/connectivity/lwm2m/core\internals.h **** 
  82:D:/iot/felix2/components/connectivity/lwm2m/core\internals.h ****  David Navarro <david.navarro@intel.com>
  83:D:/iot/felix2/components/connectivity/lwm2m/core\internals.h **** 
  84:D:/iot/felix2/components/connectivity/lwm2m/core\internals.h **** */
  85:D:/iot/felix2/components/connectivity/lwm2m/core\internals.h **** 
  86:D:/iot/felix2/components/connectivity/lwm2m/core\internals.h **** #ifndef _LWM2M_INTERNALS_H_
  87:D:/iot/felix2/components/connectivity/lwm2m/core\internals.h **** #define _LWM2M_INTERNALS_H_
  88:D:/iot/felix2/components/connectivity/lwm2m/core\internals.h **** 
  89:D:/iot/felix2/components/connectivity/lwm2m/core\internals.h **** #include "liblwm2m.h"
ARM GAS  C:\Users\91458\AppData\Local\Temp\ccYoNCPK.s 			page 3


  90:D:/iot/felix2/components/connectivity/lwm2m/core\internals.h **** 
  91:D:/iot/felix2/components/connectivity/lwm2m/core\internals.h **** #include <stdlib.h>
  92:D:/iot/felix2/components/connectivity/lwm2m/core\internals.h **** #include <string.h>
  93:D:/iot/felix2/components/connectivity/lwm2m/core\internals.h **** #include <stdio.h>
  94:D:/iot/felix2/components/connectivity/lwm2m/core\internals.h **** #include <ctype.h>
  95:D:/iot/felix2/components/connectivity/lwm2m/core\internals.h **** #include <stdint.h>
  96:D:/iot/felix2/components/connectivity/lwm2m/core\internals.h **** #include <stddef.h>
  97:D:/iot/felix2/components/connectivity/lwm2m/core\internals.h **** #include <stdbool.h>
  98:D:/iot/felix2/components/connectivity/lwm2m/core\internals.h **** 
  99:D:/iot/felix2/components/connectivity/lwm2m/core\internals.h **** #include "er-coap-13/er-coap-13.h"
 100:D:/iot/felix2/components/connectivity/lwm2m/core\internals.h **** #include "connection.h"
 101:D:/iot/felix2/components/connectivity/lwm2m/core\internals.h **** 
 102:D:/iot/felix2/components/connectivity/lwm2m/core\internals.h **** 
 103:D:/iot/felix2/components/connectivity/lwm2m/core\internals.h **** #ifdef LWM2M_WITH_LOGS
 104:D:/iot/felix2/components/connectivity/lwm2m/core\internals.h **** #include <inttypes.h>
 105:D:/iot/felix2/components/connectivity/lwm2m/core\internals.h **** #define LOG(STR) (void)lwm2m_printf("[%d][%s:%d] " STR "\r\n", (uint32_t)lwm2m_gettime(), __func__ 
 106:D:/iot/felix2/components/connectivity/lwm2m/core\internals.h **** #define LOG_ARG(FMT, ...) (void)lwm2m_printf("[%d][%s:%d] " FMT "\r\n", (uint32_t)lwm2m_gettime(), 
 107:D:/iot/felix2/components/connectivity/lwm2m/core\internals.h **** #define LOG_URI(URI)                                                                \
 108:D:/iot/felix2/components/connectivity/lwm2m/core\internals.h **** {                                                                                   \
 109:D:/iot/felix2/components/connectivity/lwm2m/core\internals.h ****     if ((URI) == NULL) (void)lwm2m_printf("[%s:%d] NULL\r\n", __func__ , __LINE__);     \
 110:D:/iot/felix2/components/connectivity/lwm2m/core\internals.h ****     else                                                                            \
 111:D:/iot/felix2/components/connectivity/lwm2m/core\internals.h ****     {                                                                               \
 112:D:/iot/felix2/components/connectivity/lwm2m/core\internals.h ****         (void)lwm2m_printf("[%s:%d] /%d", __func__ , __LINE__ , (URI)->objectId);       \
 113:D:/iot/felix2/components/connectivity/lwm2m/core\internals.h ****         if (LWM2M_URI_IS_SET_INSTANCE(URI)) (void)lwm2m_printf("/%d", (URI)->instanceId); \
 114:D:/iot/felix2/components/connectivity/lwm2m/core\internals.h ****         if (LWM2M_URI_IS_SET_RESOURCE(URI)) (void)lwm2m_printf("/%d", (URI)->resourceId); \
 115:D:/iot/felix2/components/connectivity/lwm2m/core\internals.h ****         (void)lwm2m_printf("\r\n");                                                       \
 116:D:/iot/felix2/components/connectivity/lwm2m/core\internals.h ****     }                                                                               \
 117:D:/iot/felix2/components/connectivity/lwm2m/core\internals.h **** }
 118:D:/iot/felix2/components/connectivity/lwm2m/core\internals.h **** #define UNUSEX(x)
 119:D:/iot/felix2/components/connectivity/lwm2m/core\internals.h **** #define STR_STATUS(S)                                           \
 120:D:/iot/felix2/components/connectivity/lwm2m/core\internals.h **** ((S) == STATE_DEREGISTERED ? "STATE_DEREGISTERED" :             \
 121:D:/iot/felix2/components/connectivity/lwm2m/core\internals.h **** ((S) == STATE_REG_PENDING ? "STATE_REG_PENDING" :               \
 122:D:/iot/felix2/components/connectivity/lwm2m/core\internals.h **** ((S) == STATE_REGISTERED ? "STATE_REGISTERED" :                 \
 123:D:/iot/felix2/components/connectivity/lwm2m/core\internals.h **** ((S) == STATE_REG_FAILED ? "STATE_REG_FAILED" :                 \
 124:D:/iot/felix2/components/connectivity/lwm2m/core\internals.h **** ((S) == STATE_REG_UPDATE_PENDING ? "STATE_REG_UPDATE_PENDING" : \
 125:D:/iot/felix2/components/connectivity/lwm2m/core\internals.h **** ((S) == STATE_REG_UPDATE_NEEDED ? "STATE_REG_UPDATE_NEEDED" :   \
 126:D:/iot/felix2/components/connectivity/lwm2m/core\internals.h **** ((S) == STATE_REG_FULL_UPDATE_NEEDED ? "STATE_REG_FULL_UPDATE_NEEDED" :   \
 127:D:/iot/felix2/components/connectivity/lwm2m/core\internals.h **** ((S) == STATE_DEREG_PENDING ? "STATE_DEREG_PENDING" :           \
 128:D:/iot/felix2/components/connectivity/lwm2m/core\internals.h **** ((S) == STATE_BS_HOLD_OFF ? "STATE_BS_HOLD_OFF" :               \
 129:D:/iot/felix2/components/connectivity/lwm2m/core\internals.h **** ((S) == STATE_BS_INITIATED ? "STATE_BS_INITIATED" :             \
 130:D:/iot/felix2/components/connectivity/lwm2m/core\internals.h **** ((S) == STATE_BS_PENDING ? "STATE_BS_PENDING" :                 \
 131:D:/iot/felix2/components/connectivity/lwm2m/core\internals.h **** ((S) == STATE_BS_FINISHED ? "STATE_BS_FINISHED" :               \
 132:D:/iot/felix2/components/connectivity/lwm2m/core\internals.h **** ((S) == STATE_BS_FINISHING ? "STATE_BS_FINISHING" :             \
 133:D:/iot/felix2/components/connectivity/lwm2m/core\internals.h **** ((S) == STATE_BS_FAILING ? "STATE_BS_FAILING" :                 \
 134:D:/iot/felix2/components/connectivity/lwm2m/core\internals.h **** ((S) == STATE_BS_FAILED ? "STATE_BS_FAILED" :                   \
 135:D:/iot/felix2/components/connectivity/lwm2m/core\internals.h **** "Unknown")))))))))))))))
 136:D:/iot/felix2/components/connectivity/lwm2m/core\internals.h **** #define STR_MEDIA_TYPE(M)                                \
 137:D:/iot/felix2/components/connectivity/lwm2m/core\internals.h **** ((M) == LWM2M_CONTENT_TEXT ? "LWM2M_CONTENT_TEXT" :      \
 138:D:/iot/felix2/components/connectivity/lwm2m/core\internals.h **** ((M) == LWM2M_CONTENT_LINK ? "LWM2M_CONTENT_LINK" :      \
 139:D:/iot/felix2/components/connectivity/lwm2m/core\internals.h **** ((M) == LWM2M_CONTENT_OPAQUE ? "LWM2M_CONTENT_OPAQUE" :  \
 140:D:/iot/felix2/components/connectivity/lwm2m/core\internals.h **** ((M) == LWM2M_CONTENT_TLV ? "LWM2M_CONTENT_TLV" :        \
 141:D:/iot/felix2/components/connectivity/lwm2m/core\internals.h **** ((M) == LWM2M_CONTENT_JSON ? "LWM2M_CONTENT_JSON" :      \
 142:D:/iot/felix2/components/connectivity/lwm2m/core\internals.h **** "Unknown")))))
 143:D:/iot/felix2/components/connectivity/lwm2m/core\internals.h **** #define STR_STATE(S)                                \
 144:D:/iot/felix2/components/connectivity/lwm2m/core\internals.h **** ((S) == STATE_INITIAL ? "STATE_INITIAL" :      \
 145:D:/iot/felix2/components/connectivity/lwm2m/core\internals.h **** ((S) == STATE_BOOTSTRAP_REQUIRED ? "STATE_BOOTSTRAP_REQUIRED" :      \
 146:D:/iot/felix2/components/connectivity/lwm2m/core\internals.h **** ((S) == STATE_BOOTSTRAPPING ? "STATE_BOOTSTRAPPING" :  \
ARM GAS  C:\Users\91458\AppData\Local\Temp\ccYoNCPK.s 			page 4


 147:D:/iot/felix2/components/connectivity/lwm2m/core\internals.h **** ((S) == STATE_REGISTER_REQUIRED ? "STATE_REGISTER_REQUIRED" :        \
 148:D:/iot/felix2/components/connectivity/lwm2m/core\internals.h **** ((S) == STATE_REGISTERING ? "STATE_REGISTERING" :      \
 149:D:/iot/felix2/components/connectivity/lwm2m/core\internals.h **** ((S) == STATE_READY ? "STATE_READY" :      \
 150:D:/iot/felix2/components/connectivity/lwm2m/core\internals.h **** "Unknown"))))))
 151:D:/iot/felix2/components/connectivity/lwm2m/core\internals.h **** #else
 152:D:/iot/felix2/components/connectivity/lwm2m/core\internals.h **** #define UNUSEX(x) (x)=(x)
 153:D:/iot/felix2/components/connectivity/lwm2m/core\internals.h **** #define LOG_ARG(FMT, ...)
 154:D:/iot/felix2/components/connectivity/lwm2m/core\internals.h **** #define LOG(STR)
 155:D:/iot/felix2/components/connectivity/lwm2m/core\internals.h **** #define LOG_URI(URI)
 156:D:/iot/felix2/components/connectivity/lwm2m/core\internals.h **** #endif
 157:D:/iot/felix2/components/connectivity/lwm2m/core\internals.h **** 
 158:D:/iot/felix2/components/connectivity/lwm2m/core\internals.h **** #define LWM2M_DEFAULT_LIFETIME  86400
 159:D:/iot/felix2/components/connectivity/lwm2m/core\internals.h **** 
 160:D:/iot/felix2/components/connectivity/lwm2m/core\internals.h **** #ifdef LWM2M_SUPPORT_JSON
 161:D:/iot/felix2/components/connectivity/lwm2m/core\internals.h **** #define REG_LWM2M_RESOURCE_TYPE     ">;rt=\"oma.lwm2m\";ct=11543,"
 162:D:/iot/felix2/components/connectivity/lwm2m/core\internals.h **** #define REG_LWM2M_RESOURCE_TYPE_LEN 25
 163:D:/iot/felix2/components/connectivity/lwm2m/core\internals.h **** #else
 164:D:/iot/felix2/components/connectivity/lwm2m/core\internals.h **** #define REG_LWM2M_RESOURCE_TYPE     ">;rt=\"oma.lwm2m\","
 165:D:/iot/felix2/components/connectivity/lwm2m/core\internals.h **** #define REG_LWM2M_RESOURCE_TYPE_LEN 17
 166:D:/iot/felix2/components/connectivity/lwm2m/core\internals.h **** #endif
 167:D:/iot/felix2/components/connectivity/lwm2m/core\internals.h **** #define REG_START           "<"
 168:D:/iot/felix2/components/connectivity/lwm2m/core\internals.h **** #define REG_DEFAULT_PATH    "/"
 169:D:/iot/felix2/components/connectivity/lwm2m/core\internals.h **** 
 170:D:/iot/felix2/components/connectivity/lwm2m/core\internals.h **** #define REG_OBJECT_MIN_LEN  5   // "</n>,"
 171:D:/iot/felix2/components/connectivity/lwm2m/core\internals.h **** #define REG_PATH_END        ">,"
 172:D:/iot/felix2/components/connectivity/lwm2m/core\internals.h **** #define REG_PATH_SEPARATOR  "/"
 173:D:/iot/felix2/components/connectivity/lwm2m/core\internals.h **** 
 174:D:/iot/felix2/components/connectivity/lwm2m/core\internals.h **** #define REG_OBJECT_PATH             "<%s/%hu>,"
 175:D:/iot/felix2/components/connectivity/lwm2m/core\internals.h **** #define REG_OBJECT_INSTANCE_PATH    "<%s/%hu/%hu>,"
 176:D:/iot/felix2/components/connectivity/lwm2m/core\internals.h **** 
 177:D:/iot/felix2/components/connectivity/lwm2m/core\internals.h **** #define URI_REGISTRATION_SEGMENT        "rd"
 178:D:/iot/felix2/components/connectivity/lwm2m/core\internals.h **** #define URI_REGISTRATION_SEGMENT_LEN    2
 179:D:/iot/felix2/components/connectivity/lwm2m/core\internals.h **** #define URI_BOOTSTRAP_SEGMENT           "bs"
 180:D:/iot/felix2/components/connectivity/lwm2m/core\internals.h **** #define URI_BOOTSTRAP_SEGMENT_LEN       2
 181:D:/iot/felix2/components/connectivity/lwm2m/core\internals.h **** 
 182:D:/iot/felix2/components/connectivity/lwm2m/core\internals.h **** #define QUERY_STARTER       "?"
 183:D:/iot/felix2/components/connectivity/lwm2m/core\internals.h **** #define QUERY_NAME          "ep="
 184:D:/iot/felix2/components/connectivity/lwm2m/core\internals.h **** #define QUERY_NAME_LEN      3       // strlen("ep=")
 185:D:/iot/felix2/components/connectivity/lwm2m/core\internals.h **** #define QUERY_SMS           "sms="
 186:D:/iot/felix2/components/connectivity/lwm2m/core\internals.h **** #define QUERY_SMS_LEN       4
 187:D:/iot/felix2/components/connectivity/lwm2m/core\internals.h **** #define QUERY_LIFETIME      "lt="
 188:D:/iot/felix2/components/connectivity/lwm2m/core\internals.h **** #define QUERY_LIFETIME_LEN  3
 189:D:/iot/felix2/components/connectivity/lwm2m/core\internals.h **** #define QUERY_VERSION       "lwm2m="
 190:D:/iot/felix2/components/connectivity/lwm2m/core\internals.h **** #define QUERY_VERSION_LEN   6
 191:D:/iot/felix2/components/connectivity/lwm2m/core\internals.h **** #define QUERY_BINDING       "b="
 192:D:/iot/felix2/components/connectivity/lwm2m/core\internals.h **** #define QUERY_BINDING_LEN   2
 193:D:/iot/felix2/components/connectivity/lwm2m/core\internals.h **** #define QUERY_DELIMITER     "&"
 194:D:/iot/felix2/components/connectivity/lwm2m/core\internals.h **** 
 195:D:/iot/felix2/components/connectivity/lwm2m/core\internals.h **** #define LWM2M_VERSION      "1.0"
 196:D:/iot/felix2/components/connectivity/lwm2m/core\internals.h **** #define LWM2M_VERSION_LEN  3
 197:D:/iot/felix2/components/connectivity/lwm2m/core\internals.h **** 
 198:D:/iot/felix2/components/connectivity/lwm2m/core\internals.h **** #define QUERY_VERSION_FULL      QUERY_VERSION LWM2M_VERSION
 199:D:/iot/felix2/components/connectivity/lwm2m/core\internals.h **** #define QUERY_VERSION_FULL_LEN  QUERY_VERSION_LEN+LWM2M_VERSION_LEN
 200:D:/iot/felix2/components/connectivity/lwm2m/core\internals.h **** 
 201:D:/iot/felix2/components/connectivity/lwm2m/core\internals.h **** #define REG_URI_START       '<'
 202:D:/iot/felix2/components/connectivity/lwm2m/core\internals.h **** #define REG_URI_END         '>'
 203:D:/iot/felix2/components/connectivity/lwm2m/core\internals.h **** #define REG_DELIMITER       ','
ARM GAS  C:\Users\91458\AppData\Local\Temp\ccYoNCPK.s 			page 5


 204:D:/iot/felix2/components/connectivity/lwm2m/core\internals.h **** #define REG_ATTR_SEPARATOR  ';'
 205:D:/iot/felix2/components/connectivity/lwm2m/core\internals.h **** #define REG_ATTR_EQUALS     '='
 206:D:/iot/felix2/components/connectivity/lwm2m/core\internals.h **** #define REG_ATTR_TYPE_KEY           "rt"
 207:D:/iot/felix2/components/connectivity/lwm2m/core\internals.h **** #define REG_ATTR_TYPE_KEY_LEN       2
 208:D:/iot/felix2/components/connectivity/lwm2m/core\internals.h **** #define REG_ATTR_TYPE_VALUE         "\"oma.lwm2m\""
 209:D:/iot/felix2/components/connectivity/lwm2m/core\internals.h **** #define REG_ATTR_TYPE_VALUE_LEN     11
 210:D:/iot/felix2/components/connectivity/lwm2m/core\internals.h **** #define REG_ATTR_CONTENT_KEY        "ct"
 211:D:/iot/felix2/components/connectivity/lwm2m/core\internals.h **** #define REG_ATTR_CONTENT_KEY_LEN    2
 212:D:/iot/felix2/components/connectivity/lwm2m/core\internals.h **** #define REG_ATTR_CONTENT_JSON       "11543"   // Temporary value
 213:D:/iot/felix2/components/connectivity/lwm2m/core\internals.h **** #define REG_ATTR_CONTENT_JSON_LEN   5
 214:D:/iot/felix2/components/connectivity/lwm2m/core\internals.h **** 
 215:D:/iot/felix2/components/connectivity/lwm2m/core\internals.h **** #define ATTR_SERVER_ID_STR       "ep="
 216:D:/iot/felix2/components/connectivity/lwm2m/core\internals.h **** #define ATTR_SERVER_ID_LEN       3
 217:D:/iot/felix2/components/connectivity/lwm2m/core\internals.h **** #define ATTR_MIN_PERIOD_STR      "pmin="
 218:D:/iot/felix2/components/connectivity/lwm2m/core\internals.h **** #define ATTR_MIN_PERIOD_LEN      5
 219:D:/iot/felix2/components/connectivity/lwm2m/core\internals.h **** #define ATTR_MAX_PERIOD_STR      "pmax="
 220:D:/iot/felix2/components/connectivity/lwm2m/core\internals.h **** #define ATTR_MAX_PERIOD_LEN      5
 221:D:/iot/felix2/components/connectivity/lwm2m/core\internals.h **** #define ATTR_GREATER_THAN_STR    "gt="
 222:D:/iot/felix2/components/connectivity/lwm2m/core\internals.h **** #define ATTR_GREATER_THAN_LEN    3
 223:D:/iot/felix2/components/connectivity/lwm2m/core\internals.h **** #define ATTR_LESS_THAN_STR       "lt="
 224:D:/iot/felix2/components/connectivity/lwm2m/core\internals.h **** #define ATTR_LESS_THAN_LEN       3
 225:D:/iot/felix2/components/connectivity/lwm2m/core\internals.h **** #define ATTR_STEP_STR            "st="
 226:D:/iot/felix2/components/connectivity/lwm2m/core\internals.h **** #define ATTR_STEP_LEN            3
 227:D:/iot/felix2/components/connectivity/lwm2m/core\internals.h **** #define ATTR_DIMENSION_STR       "dim="
 228:D:/iot/felix2/components/connectivity/lwm2m/core\internals.h **** #define ATTR_DIMENSION_LEN       4
 229:D:/iot/felix2/components/connectivity/lwm2m/core\internals.h **** 
 230:D:/iot/felix2/components/connectivity/lwm2m/core\internals.h **** #define URI_MAX_STRING_LEN    18      // /65535/65535/65535
 231:D:/iot/felix2/components/connectivity/lwm2m/core\internals.h **** #define _PRV_64BIT_BUFFER_SIZE 8
 232:D:/iot/felix2/components/connectivity/lwm2m/core\internals.h **** 
 233:D:/iot/felix2/components/connectivity/lwm2m/core\internals.h **** #define LINK_ITEM_START             "<"
 234:D:/iot/felix2/components/connectivity/lwm2m/core\internals.h **** #define LINK_ITEM_START_SIZE        1
 235:D:/iot/felix2/components/connectivity/lwm2m/core\internals.h **** #define LINK_ITEM_END               ">,"
 236:D:/iot/felix2/components/connectivity/lwm2m/core\internals.h **** #define LINK_ITEM_END_SIZE          2
 237:D:/iot/felix2/components/connectivity/lwm2m/core\internals.h **** #define LINK_ITEM_DIM_START         ">;dim="
 238:D:/iot/felix2/components/connectivity/lwm2m/core\internals.h **** #define LINK_ITEM_DIM_START_SIZE    6
 239:D:/iot/felix2/components/connectivity/lwm2m/core\internals.h **** #define LINK_ITEM_ATTR_END          ","
 240:D:/iot/felix2/components/connectivity/lwm2m/core\internals.h **** #define LINK_ITEM_ATTR_END_SIZE     1
 241:D:/iot/felix2/components/connectivity/lwm2m/core\internals.h **** #define LINK_URI_SEPARATOR          "/"
 242:D:/iot/felix2/components/connectivity/lwm2m/core\internals.h **** #define LINK_URI_SEPARATOR_SIZE     1
 243:D:/iot/felix2/components/connectivity/lwm2m/core\internals.h **** #define LINK_ATTR_SEPARATOR         ";"
 244:D:/iot/felix2/components/connectivity/lwm2m/core\internals.h **** #define LINK_ATTR_SEPARATOR_SIZE    1
 245:D:/iot/felix2/components/connectivity/lwm2m/core\internals.h **** 
 246:D:/iot/felix2/components/connectivity/lwm2m/core\internals.h **** #define ATTR_FLAG_NUMERIC (uint8_t)(LWM2M_ATTR_FLAG_LESS_THAN | LWM2M_ATTR_FLAG_GREATER_THAN | LWM2
 247:D:/iot/felix2/components/connectivity/lwm2m/core\internals.h **** 
 248:D:/iot/felix2/components/connectivity/lwm2m/core\internals.h **** #define LWM2M_URI_FLAG_DM           (uint8_t)0x00
 249:D:/iot/felix2/components/connectivity/lwm2m/core\internals.h **** #define LWM2M_URI_FLAG_DELETE_ALL   (uint8_t)0x10
 250:D:/iot/felix2/components/connectivity/lwm2m/core\internals.h **** #define LWM2M_URI_FLAG_REGISTRATION (uint8_t)0x20
 251:D:/iot/felix2/components/connectivity/lwm2m/core\internals.h **** #define LWM2M_URI_FLAG_BOOTSTRAP    (uint8_t)0x40
 252:D:/iot/felix2/components/connectivity/lwm2m/core\internals.h **** 
 253:D:/iot/felix2/components/connectivity/lwm2m/core\internals.h **** #define LWM2M_URI_MASK_TYPE (uint8_t)0x70
 254:D:/iot/felix2/components/connectivity/lwm2m/core\internals.h **** #define LWM2M_URI_MASK_ID   (uint8_t)0x07
 255:D:/iot/felix2/components/connectivity/lwm2m/core\internals.h **** 
 256:D:/iot/felix2/components/connectivity/lwm2m/core\internals.h **** typedef struct
 257:D:/iot/felix2/components/connectivity/lwm2m/core\internals.h **** {
 258:D:/iot/felix2/components/connectivity/lwm2m/core\internals.h ****     uint16_t clientID;
 259:D:/iot/felix2/components/connectivity/lwm2m/core\internals.h ****     lwm2m_uri_t uri;
 260:D:/iot/felix2/components/connectivity/lwm2m/core\internals.h ****     lwm2m_result_callback_t callback;
ARM GAS  C:\Users\91458\AppData\Local\Temp\ccYoNCPK.s 			page 6


 261:D:/iot/felix2/components/connectivity/lwm2m/core\internals.h ****     void * userData;
 262:D:/iot/felix2/components/connectivity/lwm2m/core\internals.h **** } dm_data_t;
 263:D:/iot/felix2/components/connectivity/lwm2m/core\internals.h **** 
 264:D:/iot/felix2/components/connectivity/lwm2m/core\internals.h **** typedef enum
 265:D:/iot/felix2/components/connectivity/lwm2m/core\internals.h **** {
 266:D:/iot/felix2/components/connectivity/lwm2m/core\internals.h ****     URI_DEPTH_OBJECT,
 267:D:/iot/felix2/components/connectivity/lwm2m/core\internals.h ****     URI_DEPTH_OBJECT_INSTANCE,
 268:D:/iot/felix2/components/connectivity/lwm2m/core\internals.h ****     URI_DEPTH_RESOURCE,
 269:D:/iot/felix2/components/connectivity/lwm2m/core\internals.h ****     URI_DEPTH_RESOURCE_INSTANCE
 270:D:/iot/felix2/components/connectivity/lwm2m/core\internals.h **** } uri_depth_t;
 271:D:/iot/felix2/components/connectivity/lwm2m/core\internals.h **** 
 272:D:/iot/felix2/components/connectivity/lwm2m/core\internals.h **** #ifdef LWM2M_BOOTSTRAP_SERVER_MODE
 273:D:/iot/felix2/components/connectivity/lwm2m/core\internals.h **** typedef struct
 274:D:/iot/felix2/components/connectivity/lwm2m/core\internals.h **** {
 275:D:/iot/felix2/components/connectivity/lwm2m/core\internals.h ****     bool        isUri;
 276:D:/iot/felix2/components/connectivity/lwm2m/core\internals.h ****     lwm2m_uri_t uri;
 277:D:/iot/felix2/components/connectivity/lwm2m/core\internals.h ****     lwm2m_bootstrap_callback_t callback;
 278:D:/iot/felix2/components/connectivity/lwm2m/core\internals.h ****     void *      userData;
 279:D:/iot/felix2/components/connectivity/lwm2m/core\internals.h **** } bs_data_t;
 280:D:/iot/felix2/components/connectivity/lwm2m/core\internals.h **** #endif
 281:D:/iot/felix2/components/connectivity/lwm2m/core\internals.h **** 
 282:D:/iot/felix2/components/connectivity/lwm2m/core\internals.h **** // defined in uri.c
 283:D:/iot/felix2/components/connectivity/lwm2m/core\internals.h **** lwm2m_uri_t * uri_decode(char * altPath, multi_option_t *uriPath);
 284:D:/iot/felix2/components/connectivity/lwm2m/core\internals.h **** int uri_getNumber(uint8_t * uriString, size_t uriLength);
 285:D:/iot/felix2/components/connectivity/lwm2m/core\internals.h **** int uri_toString(lwm2m_uri_t * uriP, uint8_t * buffer, size_t bufferLen, uri_depth_t * depthP);
 286:D:/iot/felix2/components/connectivity/lwm2m/core\internals.h **** 
 287:D:/iot/felix2/components/connectivity/lwm2m/core\internals.h **** // defined in objects.c
 288:D:/iot/felix2/components/connectivity/lwm2m/core\internals.h **** uint8_t object_readData(lwm2m_context_t * contextP, lwm2m_uri_t * uriP, int * sizeP, lwm2m_data_t *
 289:D:/iot/felix2/components/connectivity/lwm2m/core\internals.h **** uint8_t object_read(lwm2m_context_t * contextP, lwm2m_uri_t * uriP, lwm2m_media_type_t * formatP, u
 290:D:/iot/felix2/components/connectivity/lwm2m/core\internals.h **** uint8_t object_write(lwm2m_context_t * contextP, lwm2m_uri_t * uriP, lwm2m_media_type_t format, uin
 291:D:/iot/felix2/components/connectivity/lwm2m/core\internals.h **** uint8_t object_create(lwm2m_context_t * contextP, lwm2m_uri_t * uriP, lwm2m_media_type_t format, ui
 292:D:/iot/felix2/components/connectivity/lwm2m/core\internals.h **** uint8_t object_execute(lwm2m_context_t * contextP, lwm2m_uri_t * uriP, uint8_t * buffer, size_t len
 293:D:/iot/felix2/components/connectivity/lwm2m/core\internals.h **** uint8_t object_delete(lwm2m_context_t * contextP, lwm2m_uri_t * uriP);
 294:D:/iot/felix2/components/connectivity/lwm2m/core\internals.h **** uint8_t object_discover(lwm2m_context_t * contextP, lwm2m_uri_t * uriP, lwm2m_server_t * serverP, u
 295:D:/iot/felix2/components/connectivity/lwm2m/core\internals.h **** uint8_t object_checkReadable(lwm2m_context_t * contextP, lwm2m_uri_t * uriP);
 296:D:/iot/felix2/components/connectivity/lwm2m/core\internals.h **** uint8_t object_checkNumeric(lwm2m_context_t * contextP, lwm2m_uri_t * uriP);
 297:D:/iot/felix2/components/connectivity/lwm2m/core\internals.h **** bool object_isInstanceNew(lwm2m_context_t * contextP, uint16_t objectId, uint16_t instanceId);
 298:D:/iot/felix2/components/connectivity/lwm2m/core\internals.h **** int object_getRegisterPayloadBufferLength(lwm2m_context_t * contextP);
 299:D:/iot/felix2/components/connectivity/lwm2m/core\internals.h **** int object_getRegisterPayload(lwm2m_context_t * contextP, uint8_t * buffer, size_t length);
 300:D:/iot/felix2/components/connectivity/lwm2m/core\internals.h **** int object_getServers(lwm2m_context_t * contextP, bool checkOnly);
 301:D:/iot/felix2/components/connectivity/lwm2m/core\internals.h **** uint8_t object_createInstance(lwm2m_context_t * contextP, lwm2m_uri_t * uriP, lwm2m_data_t * dataP)
 302:D:/iot/felix2/components/connectivity/lwm2m/core\internals.h **** uint8_t object_writeInstance(lwm2m_context_t * contextP, lwm2m_uri_t * uriP, lwm2m_data_t * dataP);
 303:D:/iot/felix2/components/connectivity/lwm2m/core\internals.h **** 
 304:D:/iot/felix2/components/connectivity/lwm2m/core\internals.h **** // defined in transaction.c
 305:D:/iot/felix2/components/connectivity/lwm2m/core\internals.h **** lwm2m_transaction_t * transaction_new(void * sessionH, unsigned char method, char * altPath, lwm2m_
 306:D:/iot/felix2/components/connectivity/lwm2m/core\internals.h **** int transaction_send(lwm2m_context_t * contextP, lwm2m_transaction_t * transacP);
 307:D:/iot/felix2/components/connectivity/lwm2m/core\internals.h **** void transaction_free(lwm2m_transaction_t * transacP);
 308:D:/iot/felix2/components/connectivity/lwm2m/core\internals.h **** void transaction_remove(lwm2m_context_t * contextP, lwm2m_transaction_t * transacP);
 309:D:/iot/felix2/components/connectivity/lwm2m/core\internals.h **** bool transaction_handleResponse(lwm2m_context_t * contextP, void * fromSessionH, coap_packet_t * me
 310:D:/iot/felix2/components/connectivity/lwm2m/core\internals.h **** void transaction_step(lwm2m_context_t * contextP, time_t currentTime, time_t * timeoutP);
 311:D:/iot/felix2/components/connectivity/lwm2m/core\internals.h **** 
 312:D:/iot/felix2/components/connectivity/lwm2m/core\internals.h **** // defined in management.c
 313:D:/iot/felix2/components/connectivity/lwm2m/core\internals.h **** uint8_t dm_handleRequest(lwm2m_context_t * contextP, lwm2m_uri_t * uriP, lwm2m_server_t * serverP, 
 314:D:/iot/felix2/components/connectivity/lwm2m/core\internals.h **** 
 315:D:/iot/felix2/components/connectivity/lwm2m/core\internals.h **** // defined in observe.c
 316:D:/iot/felix2/components/connectivity/lwm2m/core\internals.h **** uint8_t observe_handleRequest(lwm2m_context_t * contextP, lwm2m_uri_t * uriP, lwm2m_server_t * serv
 317:D:/iot/felix2/components/connectivity/lwm2m/core\internals.h **** void observe_cancel(lwm2m_context_t * contextP, uint16_t mid, void * fromSessionH);
ARM GAS  C:\Users\91458\AppData\Local\Temp\ccYoNCPK.s 			page 7


 318:D:/iot/felix2/components/connectivity/lwm2m/core\internals.h **** uint8_t observe_setParameters(lwm2m_context_t * contextP, lwm2m_uri_t * uriP, lwm2m_server_t * serv
 319:D:/iot/felix2/components/connectivity/lwm2m/core\internals.h **** void observe_step(lwm2m_context_t * contextP, time_t currentTime, time_t * timeoutP);
 320:D:/iot/felix2/components/connectivity/lwm2m/core\internals.h **** void observe_clear(lwm2m_context_t * contextP, lwm2m_uri_t * uriP);
 321:D:/iot/felix2/components/connectivity/lwm2m/core\internals.h **** //bool observe_handleNotify(lwm2m_context_t * contextP, void * fromSessionH, coap_packet_t * messag
 322:D:/iot/felix2/components/connectivity/lwm2m/core\internals.h **** void observe_remove(lwm2m_observation_t * observationP);
 323:D:/iot/felix2/components/connectivity/lwm2m/core\internals.h **** lwm2m_observed_t * observe_findByUri(lwm2m_context_t * contextP, lwm2m_uri_t * uriP);
 324:D:/iot/felix2/components/connectivity/lwm2m/core\internals.h **** 
 325:D:/iot/felix2/components/connectivity/lwm2m/core\internals.h **** // defined in registration.c
 326:D:/iot/felix2/components/connectivity/lwm2m/core\internals.h **** //uint8_t registration_handleRequest(lwm2m_context_t * contextP, lwm2m_uri_t * uriP, void * fromSes
 327:D:/iot/felix2/components/connectivity/lwm2m/core\internals.h **** void registration_deregister(lwm2m_context_t * contextP, lwm2m_server_t * serverP);
 328:D:/iot/felix2/components/connectivity/lwm2m/core\internals.h **** void registration_freeClient(lwm2m_client_t * clientP);
 329:D:/iot/felix2/components/connectivity/lwm2m/core\internals.h **** uint8_t registration_start(lwm2m_context_t * contextP);
 330:D:/iot/felix2/components/connectivity/lwm2m/core\internals.h **** void registration_step(lwm2m_context_t * contextP, time_t currentTime, time_t * timeoutP);
 331:D:/iot/felix2/components/connectivity/lwm2m/core\internals.h **** lwm2m_status_t registration_getStatus(lwm2m_context_t * contextP);
 332:D:/iot/felix2/components/connectivity/lwm2m/core\internals.h **** void registration_reset(lwm2m_context_t * contextP, lwm2m_server_t * serverP);
 333:D:/iot/felix2/components/connectivity/lwm2m/core\internals.h **** 
 334:D:/iot/felix2/components/connectivity/lwm2m/core\internals.h **** // defined in packet.c
 335:D:/iot/felix2/components/connectivity/lwm2m/core\internals.h **** uint8_t message_send(lwm2m_context_t * contextP, coap_packet_t * message, void * sessionH);
 336:D:/iot/felix2/components/connectivity/lwm2m/core\internals.h **** 
 337:D:/iot/felix2/components/connectivity/lwm2m/core\internals.h **** // defined in bootstrap.c
 338:D:/iot/felix2/components/connectivity/lwm2m/core\internals.h **** void bootstrap_step(lwm2m_context_t * contextP, uint32_t currentTime, time_t* timeoutP);
 339:D:/iot/felix2/components/connectivity/lwm2m/core\internals.h **** uint8_t bootstrap_handleCommand(lwm2m_context_t * contextP, lwm2m_uri_t * uriP, lwm2m_server_t * se
 340:D:/iot/felix2/components/connectivity/lwm2m/core\internals.h **** uint8_t bootstrap_handleDeleteAll(lwm2m_context_t * context, void * fromSessionH);
 341:D:/iot/felix2/components/connectivity/lwm2m/core\internals.h **** uint8_t bootstrap_handleFinish(lwm2m_context_t * context, void * fromSessionH);
 342:D:/iot/felix2/components/connectivity/lwm2m/core\internals.h **** uint8_t bootstrap_handleRequest(lwm2m_context_t * contextP, lwm2m_uri_t * uriP, void * fromSessionH
 343:D:/iot/felix2/components/connectivity/lwm2m/core\internals.h **** void bootstrap_start(lwm2m_context_t * contextP);
 344:D:/iot/felix2/components/connectivity/lwm2m/core\internals.h **** lwm2m_status_t bootstrap_getStatus(lwm2m_context_t * contextP);
 345:D:/iot/felix2/components/connectivity/lwm2m/core\internals.h **** bool bootstrap_isBsServerIpValid(const lwm2m_context_t *contextP);
 346:D:/iot/felix2/components/connectivity/lwm2m/core\internals.h **** 
 347:D:/iot/felix2/components/connectivity/lwm2m/core\internals.h **** 
 348:D:/iot/felix2/components/connectivity/lwm2m/core\internals.h **** // defined in tlv.c
 349:D:/iot/felix2/components/connectivity/lwm2m/core\internals.h **** int tlv_parse(uint8_t * buffer, size_t bufferLen, lwm2m_data_t ** dataP);
 350:D:/iot/felix2/components/connectivity/lwm2m/core\internals.h **** int tlv_serialize(bool isResourceInstance, int size, lwm2m_data_t * dataP, uint8_t ** bufferP);
 351:D:/iot/felix2/components/connectivity/lwm2m/core\internals.h **** 
 352:D:/iot/felix2/components/connectivity/lwm2m/core\internals.h **** // defined in json.c
 353:D:/iot/felix2/components/connectivity/lwm2m/core\internals.h **** #ifdef LWM2M_SUPPORT_JSON
 354:D:/iot/felix2/components/connectivity/lwm2m/core\internals.h **** int json_parse(lwm2m_uri_t * uriP, uint8_t * buffer, size_t bufferLen, lwm2m_data_t ** dataP);
 355:D:/iot/felix2/components/connectivity/lwm2m/core\internals.h **** int json_serialize(lwm2m_uri_t * uriP, int size, lwm2m_data_t * tlvP, uint8_t ** bufferP);
 356:D:/iot/felix2/components/connectivity/lwm2m/core\internals.h **** #endif
 357:D:/iot/felix2/components/connectivity/lwm2m/core\internals.h **** 
 358:D:/iot/felix2/components/connectivity/lwm2m/core\internals.h **** // defined in discover.c
 359:D:/iot/felix2/components/connectivity/lwm2m/core\internals.h **** int discover_serialize(lwm2m_context_t * contextP, lwm2m_uri_t * uriP, lwm2m_server_t * serverP, in
 360:D:/iot/felix2/components/connectivity/lwm2m/core\internals.h **** 
 361:D:/iot/felix2/components/connectivity/lwm2m/core\internals.h **** // defined in block1.c
 362:D:/iot/felix2/components/connectivity/lwm2m/core\internals.h **** uint8_t coap_block1_handler(lwm2m_block1_data_t ** block1Data, uint16_t mid, uint8_t * buffer, size
 363:D:/iot/felix2/components/connectivity/lwm2m/core\internals.h **** void free_block1_buffer(lwm2m_block1_data_t * block1Data);
 364:D:/iot/felix2/components/connectivity/lwm2m/core\internals.h **** 
 365:D:/iot/felix2/components/connectivity/lwm2m/core\internals.h **** // defined in utils.c
 366:D:/iot/felix2/components/connectivity/lwm2m/core\internals.h **** lwm2m_data_type_t utils_depthToDatatype(uri_depth_t depth);
 367:D:/iot/felix2/components/connectivity/lwm2m/core\internals.h **** lwm2m_binding_t utils_stringToBinding(uint8_t *buffer, size_t length);
 368:D:/iot/felix2/components/connectivity/lwm2m/core\internals.h **** lwm2m_media_type_t utils_convertMediaType(coap_content_type_t type);
 369:D:/iot/felix2/components/connectivity/lwm2m/core\internals.h **** int utils_isAltPathValid(const char * altPath);
 370:D:/iot/felix2/components/connectivity/lwm2m/core\internals.h **** int utils_stringCopy(char * buffer, size_t length, const char * str);
 371:D:/iot/felix2/components/connectivity/lwm2m/core\internals.h **** size_t utils_intToText(int64_t data, uint8_t * string, size_t length);
 372:D:/iot/felix2/components/connectivity/lwm2m/core\internals.h **** size_t utils_floatToText(double data, uint8_t * string, size_t length);
 373:D:/iot/felix2/components/connectivity/lwm2m/core\internals.h **** int utils_textToInt(uint8_t * buffer, int length, int64_t * dataP);
 374:D:/iot/felix2/components/connectivity/lwm2m/core\internals.h **** int utils_textToFloat(uint8_t * buffer, int length, double * dataP);
ARM GAS  C:\Users\91458\AppData\Local\Temp\ccYoNCPK.s 			page 8


 375:D:/iot/felix2/components/connectivity/lwm2m/core\internals.h **** void utils_copyValue(void * dst, const void * src, size_t len);
 376:D:/iot/felix2/components/connectivity/lwm2m/core\internals.h **** size_t utils_base64GetSize(size_t dataLen);
 377:D:/iot/felix2/components/connectivity/lwm2m/core\internals.h **** size_t utils_base64Encode(uint8_t * dataP, size_t dataLen, uint8_t * bufferP, size_t bufferLen);
 378:D:/iot/felix2/components/connectivity/lwm2m/core\internals.h **** #ifdef LWM2M_CLIENT_MODE
 379:D:/iot/felix2/components/connectivity/lwm2m/core\internals.h **** lwm2m_server_t * utils_findServer(lwm2m_context_t * contextP, void * fromSessionH);
 380:D:/iot/felix2/components/connectivity/lwm2m/core\internals.h **** lwm2m_server_t * utils_findBootstrapServer(lwm2m_context_t * contextP, void * fromSessionH);
 381:D:/iot/felix2/components/connectivity/lwm2m/core\internals.h **** #endif
 382:D:/iot/felix2/components/connectivity/lwm2m/core\internals.h **** static inline int dm_isUriOpaqueHandle(const lwm2m_uri_t * uriP)
 383:D:/iot/felix2/components/connectivity/lwm2m/core\internals.h **** {
  27              		.loc 1 383 0
  28              		.cfi_startproc
  29              		@ args = 0, pretend = 0, frame = 8
  30              		@ frame_needed = 1, uses_anonymous_args = 0
  31              		@ link register save eliminated.
  32 0000 80B4     		push	{r7}
  33              	.LCFI0:
  34              		.cfi_def_cfa_offset 4
  35              		.cfi_offset 7, -4
  36 0002 83B0     		sub	sp, sp, #12
  37              	.LCFI1:
  38              		.cfi_def_cfa_offset 16
  39 0004 00AF     		add	r7, sp, #0
  40              	.LCFI2:
  41              		.cfi_def_cfa_register 7
  42 0006 7860     		str	r0, [r7, #4]
 384:D:/iot/felix2/components/connectivity/lwm2m/core\internals.h ****     return (19 == uriP->objectId);
  43              		.loc 1 384 0
  44 0008 7B68     		ldr	r3, [r7, #4]
  45 000a 5B88     		ldrh	r3, [r3, #2]
  46 000c 132B     		cmp	r3, #19
  47 000e 0CBF     		ite	eq
  48 0010 0123     		moveq	r3, #1
  49 0012 0023     		movne	r3, #0
  50 0014 DBB2     		uxtb	r3, r3
 385:D:/iot/felix2/components/connectivity/lwm2m/core\internals.h **** }
  51              		.loc 1 385 0
  52 0016 1846     		mov	r0, r3
  53 0018 0C37     		adds	r7, r7, #12
  54              	.LCFI3:
  55              		.cfi_def_cfa_offset 4
  56 001a BD46     		mov	sp, r7
  57              	.LCFI4:
  58              		.cfi_def_cfa_register 13
  59              		@ sp needed
  60 001c 5DF8047B 		ldr	r7, [sp], #4
  61              	.LCFI5:
  62              		.cfi_restore 7
  63              		.cfi_def_cfa_offset 0
  64 0020 7047     		bx	lr
  65              		.cfi_endproc
  66              	.LFE133:
  68              		.section	.text.get_resource_uri,"ax",%progbits
  69              		.align	1
  70              		.syntax unified
  71              		.thumb
  72              		.thumb_func
  73              		.fpu fpv4-sp-d16
ARM GAS  C:\Users\91458\AppData\Local\Temp\ccYoNCPK.s 			page 9


  75              	get_resource_uri:
  76              	.LFB143:
  77              		.file 2 "D:/iot/felix2/components/connectivity/agent_tiny/atiny_lwm2m/atiny_rpt.h"
   1:D:/iot/felix2/components/connectivity/agent_tiny/atiny_lwm2m\atiny_rpt.h **** /*----------------------------------------------------------------------------
   2:D:/iot/felix2/components/connectivity/agent_tiny/atiny_lwm2m\atiny_rpt.h ****  * Copyright (c) <2016-2018>, <Huawei Technologies Co., Ltd>
   3:D:/iot/felix2/components/connectivity/agent_tiny/atiny_lwm2m\atiny_rpt.h ****  * All rights reserved.
   4:D:/iot/felix2/components/connectivity/agent_tiny/atiny_lwm2m\atiny_rpt.h ****  * Redistribution and use in source and binary forms, with or without modification,
   5:D:/iot/felix2/components/connectivity/agent_tiny/atiny_lwm2m\atiny_rpt.h ****  * are permitted provided that the following conditions are met:
   6:D:/iot/felix2/components/connectivity/agent_tiny/atiny_lwm2m\atiny_rpt.h ****  * 1. Redistributions of source code must retain the above copyright notice, this list of
   7:D:/iot/felix2/components/connectivity/agent_tiny/atiny_lwm2m\atiny_rpt.h ****  * conditions and the following disclaimer.
   8:D:/iot/felix2/components/connectivity/agent_tiny/atiny_lwm2m\atiny_rpt.h ****  * 2. Redistributions in binary form must reproduce the above copyright notice, this list
   9:D:/iot/felix2/components/connectivity/agent_tiny/atiny_lwm2m\atiny_rpt.h ****  * of conditions and the following disclaimer in the documentation and/or other materials
  10:D:/iot/felix2/components/connectivity/agent_tiny/atiny_lwm2m\atiny_rpt.h ****  * provided with the distribution.
  11:D:/iot/felix2/components/connectivity/agent_tiny/atiny_lwm2m\atiny_rpt.h ****  * 3. Neither the name of the copyright holder nor the names of its contributors may be used
  12:D:/iot/felix2/components/connectivity/agent_tiny/atiny_lwm2m\atiny_rpt.h ****  * to endorse or promote products derived from this software without specific prior written
  13:D:/iot/felix2/components/connectivity/agent_tiny/atiny_lwm2m\atiny_rpt.h ****  * permission.
  14:D:/iot/felix2/components/connectivity/agent_tiny/atiny_lwm2m\atiny_rpt.h ****  * THIS SOFTWARE IS PROVIDED BY THE COPYRIGHT HOLDERS AND CONTRIBUTORS
  15:D:/iot/felix2/components/connectivity/agent_tiny/atiny_lwm2m\atiny_rpt.h ****  * "AS IS" AND ANY EXPRESS OR IMPLIED WARRANTIES, INCLUDING, BUT NOT LIMITED TO,
  16:D:/iot/felix2/components/connectivity/agent_tiny/atiny_lwm2m\atiny_rpt.h ****  * THE IMPLIED WARRANTIES OF MERCHANTABILITY AND FITNESS FOR A PARTICULAR
  17:D:/iot/felix2/components/connectivity/agent_tiny/atiny_lwm2m\atiny_rpt.h ****  * PURPOSE ARE DISCLAIMED. IN NO EVENT SHALL THE COPYRIGHT HOLDER OR
  18:D:/iot/felix2/components/connectivity/agent_tiny/atiny_lwm2m\atiny_rpt.h ****  * CONTRIBUTORS BE LIABLE FOR ANY DIRECT, INDIRECT, INCIDENTAL, SPECIAL,
  19:D:/iot/felix2/components/connectivity/agent_tiny/atiny_lwm2m\atiny_rpt.h ****  * EXEMPLARY, OR CONSEQUENTIAL DAMAGES (INCLUDING, BUT NOT LIMITED TO,
  20:D:/iot/felix2/components/connectivity/agent_tiny/atiny_lwm2m\atiny_rpt.h ****  * PROCUREMENT OF SUBSTITUTE GOODS OR SERVICES; LOSS OF USE, DATA, OR PROFITS;
  21:D:/iot/felix2/components/connectivity/agent_tiny/atiny_lwm2m\atiny_rpt.h ****  * OR BUSINESS INTERRUPTION) HOWEVER CAUSED AND ON ANY THEORY OF LIABILITY,
  22:D:/iot/felix2/components/connectivity/agent_tiny/atiny_lwm2m\atiny_rpt.h ****  * WHETHER IN CONTRACT, STRICT LIABILITY, OR TORT (INCLUDING NEGLIGENCE OR
  23:D:/iot/felix2/components/connectivity/agent_tiny/atiny_lwm2m\atiny_rpt.h ****  * OTHERWISE) ARISING IN ANY WAY OUT OF THE USE OF THIS SOFTWARE, EVEN IF
  24:D:/iot/felix2/components/connectivity/agent_tiny/atiny_lwm2m\atiny_rpt.h ****  * ADVISED OF THE POSSIBILITY OF SUCH DAMAGE.
  25:D:/iot/felix2/components/connectivity/agent_tiny/atiny_lwm2m\atiny_rpt.h ****  *---------------------------------------------------------------------------*/
  26:D:/iot/felix2/components/connectivity/agent_tiny/atiny_lwm2m\atiny_rpt.h **** /*----------------------------------------------------------------------------
  27:D:/iot/felix2/components/connectivity/agent_tiny/atiny_lwm2m\atiny_rpt.h ****  * Notice of Export Control Law
  28:D:/iot/felix2/components/connectivity/agent_tiny/atiny_lwm2m\atiny_rpt.h ****  * ===============================================
  29:D:/iot/felix2/components/connectivity/agent_tiny/atiny_lwm2m\atiny_rpt.h ****  * Huawei LiteOS may be subject to applicable export control laws and regulations, which might
  30:D:/iot/felix2/components/connectivity/agent_tiny/atiny_lwm2m\atiny_rpt.h ****  * include those applicable to Huawei LiteOS of U.S. and the country in which you are located.
  31:D:/iot/felix2/components/connectivity/agent_tiny/atiny_lwm2m\atiny_rpt.h ****  * Import, export and usage of Huawei LiteOS in any manner by you shall be in compliance with such
  32:D:/iot/felix2/components/connectivity/agent_tiny/atiny_lwm2m\atiny_rpt.h ****  * applicable export control laws and regulations.
  33:D:/iot/felix2/components/connectivity/agent_tiny/atiny_lwm2m\atiny_rpt.h ****  *---------------------------------------------------------------------------*/
  34:D:/iot/felix2/components/connectivity/agent_tiny/atiny_lwm2m\atiny_rpt.h **** 
  35:D:/iot/felix2/components/connectivity/agent_tiny/atiny_lwm2m\atiny_rpt.h **** #ifndef ATINY_RPT_H
  36:D:/iot/felix2/components/connectivity/agent_tiny/atiny_lwm2m\atiny_rpt.h **** #define ATINY_RPT_H
  37:D:/iot/felix2/components/connectivity/agent_tiny/atiny_lwm2m\atiny_rpt.h **** #include "atiny_lwm2m/agenttiny.h"
  38:D:/iot/felix2/components/connectivity/agent_tiny/atiny_lwm2m\atiny_rpt.h **** #include "agent_list.h"
  39:D:/iot/felix2/components/connectivity/agent_tiny/atiny_lwm2m\atiny_rpt.h **** 
  40:D:/iot/felix2/components/connectivity/agent_tiny/atiny_lwm2m\atiny_rpt.h **** #ifdef __cplusplus
  41:D:/iot/felix2/components/connectivity/agent_tiny/atiny_lwm2m\atiny_rpt.h **** extern "C" {
  42:D:/iot/felix2/components/connectivity/agent_tiny/atiny_lwm2m\atiny_rpt.h **** #endif
  43:D:/iot/felix2/components/connectivity/agent_tiny/atiny_lwm2m\atiny_rpt.h **** 
  44:D:/iot/felix2/components/connectivity/agent_tiny/atiny_lwm2m\atiny_rpt.h **** #define URI_FORMAT "uri(flag:0x%x, objId:%d, instId:%d, resId:%d)"
  45:D:/iot/felix2/components/connectivity/agent_tiny/atiny_lwm2m\atiny_rpt.h **** #define URI_LOG_PARAM(uri) (uri)->flag, (uri)->objectId, (uri)->instanceId, (uri)->resourceId
  46:D:/iot/felix2/components/connectivity/agent_tiny/atiny_lwm2m\atiny_rpt.h **** 
  47:D:/iot/felix2/components/connectivity/agent_tiny/atiny_lwm2m\atiny_rpt.h **** ATINY_INLINE void get_instance_uri(uint16_t object_id, uint16_t instance_id, lwm2m_uri_t* uri)
  48:D:/iot/felix2/components/connectivity/agent_tiny/atiny_lwm2m\atiny_rpt.h **** {
  49:D:/iot/felix2/components/connectivity/agent_tiny/atiny_lwm2m\atiny_rpt.h ****     if (uri == NULL)
  50:D:/iot/felix2/components/connectivity/agent_tiny/atiny_lwm2m\atiny_rpt.h ****     {
  51:D:/iot/felix2/components/connectivity/agent_tiny/atiny_lwm2m\atiny_rpt.h ****         return;
  52:D:/iot/felix2/components/connectivity/agent_tiny/atiny_lwm2m\atiny_rpt.h ****     }
  53:D:/iot/felix2/components/connectivity/agent_tiny/atiny_lwm2m\atiny_rpt.h ****     uri->flag = LWM2M_URI_FLAG_OBJECT_ID | LWM2M_URI_FLAG_INSTANCE_ID;
  54:D:/iot/felix2/components/connectivity/agent_tiny/atiny_lwm2m\atiny_rpt.h ****     uri->objectId = object_id;
ARM GAS  C:\Users\91458\AppData\Local\Temp\ccYoNCPK.s 			page 10


  55:D:/iot/felix2/components/connectivity/agent_tiny/atiny_lwm2m\atiny_rpt.h ****     uri->instanceId = instance_id;
  56:D:/iot/felix2/components/connectivity/agent_tiny/atiny_lwm2m\atiny_rpt.h ****     uri->resourceId = 0;
  57:D:/iot/felix2/components/connectivity/agent_tiny/atiny_lwm2m\atiny_rpt.h **** }
  58:D:/iot/felix2/components/connectivity/agent_tiny/atiny_lwm2m\atiny_rpt.h **** 
  59:D:/iot/felix2/components/connectivity/agent_tiny/atiny_lwm2m\atiny_rpt.h **** ATINY_INLINE void get_resource_uri(uint16_t object_id, uint16_t instance_id, uint16_t resource_id, 
  60:D:/iot/felix2/components/connectivity/agent_tiny/atiny_lwm2m\atiny_rpt.h **** {
  78              		.loc 2 60 0
  79              		.cfi_startproc
  80              		@ args = 0, pretend = 0, frame = 16
  81              		@ frame_needed = 1, uses_anonymous_args = 0
  82              		@ link register save eliminated.
  83 0000 80B4     		push	{r7}
  84              	.LCFI6:
  85              		.cfi_def_cfa_offset 4
  86              		.cfi_offset 7, -4
  87 0002 85B0     		sub	sp, sp, #20
  88              	.LCFI7:
  89              		.cfi_def_cfa_offset 24
  90 0004 00AF     		add	r7, sp, #0
  91              	.LCFI8:
  92              		.cfi_def_cfa_register 7
  93 0006 7B60     		str	r3, [r7, #4]
  94 0008 0346     		mov	r3, r0	@ movhi
  95 000a FB81     		strh	r3, [r7, #14]	@ movhi
  96 000c 0B46     		mov	r3, r1	@ movhi
  97 000e BB81     		strh	r3, [r7, #12]	@ movhi
  98 0010 1346     		mov	r3, r2	@ movhi
  99 0012 7B81     		strh	r3, [r7, #10]	@ movhi
  61:D:/iot/felix2/components/connectivity/agent_tiny/atiny_lwm2m\atiny_rpt.h ****     if (uri == NULL)
 100              		.loc 2 61 0
 101 0014 7B68     		ldr	r3, [r7, #4]
 102 0016 002B     		cmp	r3, #0
 103 0018 0CD0     		beq	.L6
  62:D:/iot/felix2/components/connectivity/agent_tiny/atiny_lwm2m\atiny_rpt.h ****     {
  63:D:/iot/felix2/components/connectivity/agent_tiny/atiny_lwm2m\atiny_rpt.h ****         return;
  64:D:/iot/felix2/components/connectivity/agent_tiny/atiny_lwm2m\atiny_rpt.h ****     }
  65:D:/iot/felix2/components/connectivity/agent_tiny/atiny_lwm2m\atiny_rpt.h ****     uri->flag = LWM2M_URI_FLAG_OBJECT_ID | LWM2M_URI_FLAG_INSTANCE_ID | LWM2M_URI_FLAG_RESOURCE_ID;
 104              		.loc 2 65 0
 105 001a 7B68     		ldr	r3, [r7, #4]
 106 001c 0722     		movs	r2, #7
 107 001e 1A70     		strb	r2, [r3]
  66:D:/iot/felix2/components/connectivity/agent_tiny/atiny_lwm2m\atiny_rpt.h ****     uri->objectId = object_id;
 108              		.loc 2 66 0
 109 0020 7B68     		ldr	r3, [r7, #4]
 110 0022 FA89     		ldrh	r2, [r7, #14]	@ movhi
 111 0024 5A80     		strh	r2, [r3, #2]	@ movhi
  67:D:/iot/felix2/components/connectivity/agent_tiny/atiny_lwm2m\atiny_rpt.h ****     uri->instanceId = instance_id;
 112              		.loc 2 67 0
 113 0026 7B68     		ldr	r3, [r7, #4]
 114 0028 BA89     		ldrh	r2, [r7, #12]	@ movhi
 115 002a 9A80     		strh	r2, [r3, #4]	@ movhi
  68:D:/iot/felix2/components/connectivity/agent_tiny/atiny_lwm2m\atiny_rpt.h ****     uri->resourceId = resource_id;
 116              		.loc 2 68 0
 117 002c 7B68     		ldr	r3, [r7, #4]
 118 002e 7A89     		ldrh	r2, [r7, #10]	@ movhi
 119 0030 DA80     		strh	r2, [r3, #6]	@ movhi
 120 0032 00E0     		b	.L3
ARM GAS  C:\Users\91458\AppData\Local\Temp\ccYoNCPK.s 			page 11


 121              	.L6:
  63:D:/iot/felix2/components/connectivity/agent_tiny/atiny_lwm2m\atiny_rpt.h ****     }
 122              		.loc 2 63 0
 123 0034 00BF     		nop
 124              	.L3:
  69:D:/iot/felix2/components/connectivity/agent_tiny/atiny_lwm2m\atiny_rpt.h **** }
 125              		.loc 2 69 0
 126 0036 1437     		adds	r7, r7, #20
 127              	.LCFI9:
 128              		.cfi_def_cfa_offset 4
 129 0038 BD46     		mov	sp, r7
 130              	.LCFI10:
 131              		.cfi_def_cfa_register 13
 132              		@ sp needed
 133 003a 5DF8047B 		ldr	r7, [sp], #4
 134              	.LCFI11:
 135              		.cfi_restore 7
 136              		.cfi_def_cfa_offset 0
 137 003e 7047     		bx	lr
 138              		.cfi_endproc
 139              	.LFE143:
 141              		.global	g_reboot
 142              		.section	.bss.g_reboot,"aw",%nobits
 143              		.align	2
 146              	g_reboot:
 147 0000 00000000 		.space	4
 148              		.section	.bss.g_atiny_handle,"aw",%nobits
 149              		.align	2
 152              	g_atiny_handle:
 153 0000 00000000 		.space	132
 153      00000000 
 153      00000000 
 153      00000000 
 153      00000000 
 154              		.section	.text.atiny_check_bootstrap_init_param,"ax",%progbits
 155              		.align	1
 156              		.syntax unified
 157              		.thumb
 158              		.thumb_func
 159              		.fpu fpv4-sp-d16
 161              	atiny_check_bootstrap_init_param:
 162              	.LFB144:
 163              		.file 3 "D:/iot/felix2/components/connectivity/agent_tiny/atiny_lwm2m/agenttiny.c"
   1:D:/iot/felix2/components/connectivity/agent_tiny/atiny_lwm2m\agenttiny.c **** /*----------------------------------------------------------------------------
   2:D:/iot/felix2/components/connectivity/agent_tiny/atiny_lwm2m\agenttiny.c ****  * Copyright (c) <2016-2018>, <Huawei Technologies Co., Ltd>
   3:D:/iot/felix2/components/connectivity/agent_tiny/atiny_lwm2m\agenttiny.c ****  * All rights reserved.
   4:D:/iot/felix2/components/connectivity/agent_tiny/atiny_lwm2m\agenttiny.c ****  * Redistribution and use in source and binary forms, with or without modification,
   5:D:/iot/felix2/components/connectivity/agent_tiny/atiny_lwm2m\agenttiny.c ****  * are permitted provided that the following conditions are met:
   6:D:/iot/felix2/components/connectivity/agent_tiny/atiny_lwm2m\agenttiny.c ****  * 1. Redistributions of source code must retain the above copyright notice, this list of
   7:D:/iot/felix2/components/connectivity/agent_tiny/atiny_lwm2m\agenttiny.c ****  * conditions and the following disclaimer.
   8:D:/iot/felix2/components/connectivity/agent_tiny/atiny_lwm2m\agenttiny.c ****  * 2. Redistributions in binary form must reproduce the above copyright notice, this list
   9:D:/iot/felix2/components/connectivity/agent_tiny/atiny_lwm2m\agenttiny.c ****  * of conditions and the following disclaimer in the documentation and/or other materials
  10:D:/iot/felix2/components/connectivity/agent_tiny/atiny_lwm2m\agenttiny.c ****  * provided with the distribution.
  11:D:/iot/felix2/components/connectivity/agent_tiny/atiny_lwm2m\agenttiny.c ****  * 3. Neither the name of the copyright holder nor the names of its contributors may be used
  12:D:/iot/felix2/components/connectivity/agent_tiny/atiny_lwm2m\agenttiny.c ****  * to endorse or promote products derived from this software without specific prior written
  13:D:/iot/felix2/components/connectivity/agent_tiny/atiny_lwm2m\agenttiny.c ****  * permission.
  14:D:/iot/felix2/components/connectivity/agent_tiny/atiny_lwm2m\agenttiny.c ****  * THIS SOFTWARE IS PROVIDED BY THE COPYRIGHT HOLDERS AND CONTRIBUTORS
ARM GAS  C:\Users\91458\AppData\Local\Temp\ccYoNCPK.s 			page 12


  15:D:/iot/felix2/components/connectivity/agent_tiny/atiny_lwm2m\agenttiny.c ****  * "AS IS" AND ANY EXPRESS OR IMPLIED WARRANTIES, INCLUDING, BUT NOT LIMITED TO,
  16:D:/iot/felix2/components/connectivity/agent_tiny/atiny_lwm2m\agenttiny.c ****  * THE IMPLIED WARRANTIES OF MERCHANTABILITY AND FITNESS FOR A PARTICULAR
  17:D:/iot/felix2/components/connectivity/agent_tiny/atiny_lwm2m\agenttiny.c ****  * PURPOSE ARE DISCLAIMED. IN NO EVENT SHALL THE COPYRIGHT HOLDER OR
  18:D:/iot/felix2/components/connectivity/agent_tiny/atiny_lwm2m\agenttiny.c ****  * CONTRIBUTORS BE LIABLE FOR ANY DIRECT, INDIRECT, INCIDENTAL, SPECIAL,
  19:D:/iot/felix2/components/connectivity/agent_tiny/atiny_lwm2m\agenttiny.c ****  * EXEMPLARY, OR CONSEQUENTIAL DAMAGES (INCLUDING, BUT NOT LIMITED TO,
  20:D:/iot/felix2/components/connectivity/agent_tiny/atiny_lwm2m\agenttiny.c ****  * PROCUREMENT OF SUBSTITUTE GOODS OR SERVICES; LOSS OF USE, DATA, OR PROFITS;
  21:D:/iot/felix2/components/connectivity/agent_tiny/atiny_lwm2m\agenttiny.c ****  * OR BUSINESS INTERRUPTION) HOWEVER CAUSED AND ON ANY THEORY OF LIABILITY,
  22:D:/iot/felix2/components/connectivity/agent_tiny/atiny_lwm2m\agenttiny.c ****  * WHETHER IN CONTRACT, STRICT LIABILITY, OR TORT (INCLUDING NEGLIGENCE OR
  23:D:/iot/felix2/components/connectivity/agent_tiny/atiny_lwm2m\agenttiny.c ****  * OTHERWISE) ARISING IN ANY WAY OUT OF THE USE OF THIS SOFTWARE, EVEN IF
  24:D:/iot/felix2/components/connectivity/agent_tiny/atiny_lwm2m\agenttiny.c ****  * ADVISED OF THE POSSIBILITY OF SUCH DAMAGE.
  25:D:/iot/felix2/components/connectivity/agent_tiny/atiny_lwm2m\agenttiny.c ****  *---------------------------------------------------------------------------*/
  26:D:/iot/felix2/components/connectivity/agent_tiny/atiny_lwm2m\agenttiny.c **** /*----------------------------------------------------------------------------
  27:D:/iot/felix2/components/connectivity/agent_tiny/atiny_lwm2m\agenttiny.c ****  * Notice of Export Control Law
  28:D:/iot/felix2/components/connectivity/agent_tiny/atiny_lwm2m\agenttiny.c ****  * ===============================================
  29:D:/iot/felix2/components/connectivity/agent_tiny/atiny_lwm2m\agenttiny.c ****  * Huawei LiteOS may be subject to applicable export control laws and regulations, which might
  30:D:/iot/felix2/components/connectivity/agent_tiny/atiny_lwm2m\agenttiny.c ****  * include those applicable to Huawei LiteOS of U.S. and the country in which you are located.
  31:D:/iot/felix2/components/connectivity/agent_tiny/atiny_lwm2m\agenttiny.c ****  * Import, export and usage of Huawei LiteOS in any manner by you shall be in compliance with such
  32:D:/iot/felix2/components/connectivity/agent_tiny/atiny_lwm2m\agenttiny.c ****  * applicable export control laws and regulations.
  33:D:/iot/felix2/components/connectivity/agent_tiny/atiny_lwm2m\agenttiny.c ****  *---------------------------------------------------------------------------*/
  34:D:/iot/felix2/components/connectivity/agent_tiny/atiny_lwm2m\agenttiny.c **** 
  35:D:/iot/felix2/components/connectivity/agent_tiny/atiny_lwm2m\agenttiny.c **** #include "internals.h"
  36:D:/iot/felix2/components/connectivity/agent_tiny/atiny_lwm2m\agenttiny.c **** #include "atiny_lwm2m/agenttiny.h"
  37:D:/iot/felix2/components/connectivity/agent_tiny/atiny_lwm2m\agenttiny.c **** #include "atiny_context.h"
  38:D:/iot/felix2/components/connectivity/agent_tiny/atiny_lwm2m\agenttiny.c **** #include "connection.h"
  39:D:/iot/felix2/components/connectivity/agent_tiny/atiny_lwm2m\agenttiny.c **** #include "log/atiny_log.h"
  40:D:/iot/felix2/components/connectivity/agent_tiny/atiny_lwm2m\agenttiny.c **** #include "atiny_rpt.h"
  41:D:/iot/felix2/components/connectivity/agent_tiny/atiny_lwm2m\agenttiny.c **** #include "osdepends/atiny_osdep.h"
  42:D:/iot/felix2/components/connectivity/agent_tiny/atiny_lwm2m\agenttiny.c **** #ifdef CONFIG_FEATURE_FOTA
  43:D:/iot/felix2/components/connectivity/agent_tiny/atiny_lwm2m\agenttiny.c **** #include "atiny_fota_manager.h"
  44:D:/iot/felix2/components/connectivity/agent_tiny/atiny_lwm2m\agenttiny.c **** #endif
  45:D:/iot/felix2/components/connectivity/agent_tiny/atiny_lwm2m\agenttiny.c **** 
  46:D:/iot/felix2/components/connectivity/agent_tiny/atiny_lwm2m\agenttiny.c **** 
  47:D:/iot/felix2/components/connectivity/agent_tiny/atiny_lwm2m\agenttiny.c **** 
  48:D:/iot/felix2/components/connectivity/agent_tiny/atiny_lwm2m\agenttiny.c **** int g_reboot = 0;
  49:D:/iot/felix2/components/connectivity/agent_tiny/atiny_lwm2m\agenttiny.c **** 
  50:D:/iot/felix2/components/connectivity/agent_tiny/atiny_lwm2m\agenttiny.c **** 
  51:D:/iot/felix2/components/connectivity/agent_tiny/atiny_lwm2m\agenttiny.c **** void observe_handle_ack(lwm2m_transaction_t *transacP, void *message);
  52:D:/iot/felix2/components/connectivity/agent_tiny/atiny_lwm2m\agenttiny.c **** static int atiny_check_bootstrap_init_param(atiny_param_t *atiny_params);
  53:D:/iot/felix2/components/connectivity/agent_tiny/atiny_lwm2m\agenttiny.c **** 
  54:D:/iot/felix2/components/connectivity/agent_tiny/atiny_lwm2m\agenttiny.c **** static handle_data_t g_atiny_handle;
  55:D:/iot/felix2/components/connectivity/agent_tiny/atiny_lwm2m\agenttiny.c **** 
  56:D:/iot/felix2/components/connectivity/agent_tiny/atiny_lwm2m\agenttiny.c **** /*
  57:D:/iot/felix2/components/connectivity/agent_tiny/atiny_lwm2m\agenttiny.c ****  * modify date:   2018-06-20
  58:D:/iot/felix2/components/connectivity/agent_tiny/atiny_lwm2m\agenttiny.c ****  * description: in order to check the params for the bootstrap, expecialy for the mode and the ip/p
  59:D:/iot/felix2/components/connectivity/agent_tiny/atiny_lwm2m\agenttiny.c ****  * return:
  60:D:/iot/felix2/components/connectivity/agent_tiny/atiny_lwm2m\agenttiny.c ****  *              success: ATINY_OK
  61:D:/iot/felix2/components/connectivity/agent_tiny/atiny_lwm2m\agenttiny.c ****  *              fail:    ATINY_ARG_INVALID
  62:D:/iot/felix2/components/connectivity/agent_tiny/atiny_lwm2m\agenttiny.c ****  *
  63:D:/iot/felix2/components/connectivity/agent_tiny/atiny_lwm2m\agenttiny.c ****  */
  64:D:/iot/felix2/components/connectivity/agent_tiny/atiny_lwm2m\agenttiny.c **** static int atiny_check_bootstrap_init_param(atiny_param_t *atiny_params)
  65:D:/iot/felix2/components/connectivity/agent_tiny/atiny_lwm2m\agenttiny.c **** {
 164              		.loc 3 65 0
 165              		.cfi_startproc
 166              		@ args = 0, pretend = 0, frame = 8
 167              		@ frame_needed = 1, uses_anonymous_args = 0
 168              		@ link register save eliminated.
 169 0000 80B4     		push	{r7}
ARM GAS  C:\Users\91458\AppData\Local\Temp\ccYoNCPK.s 			page 13


 170              	.LCFI12:
 171              		.cfi_def_cfa_offset 4
 172              		.cfi_offset 7, -4
 173 0002 83B0     		sub	sp, sp, #12
 174              	.LCFI13:
 175              		.cfi_def_cfa_offset 16
 176 0004 00AF     		add	r7, sp, #0
 177              	.LCFI14:
 178              		.cfi_def_cfa_register 7
 179 0006 7860     		str	r0, [r7, #4]
  66:D:/iot/felix2/components/connectivity/agent_tiny/atiny_lwm2m\agenttiny.c ****     if(NULL == atiny_params)
 180              		.loc 3 66 0
 181 0008 7B68     		ldr	r3, [r7, #4]
 182 000a 002B     		cmp	r3, #0
 183 000c 02D1     		bne	.L8
  67:D:/iot/felix2/components/connectivity/agent_tiny/atiny_lwm2m\agenttiny.c ****     {
  68:D:/iot/felix2/components/connectivity/agent_tiny/atiny_lwm2m\agenttiny.c ****         return ATINY_ARG_INVALID;
 184              		.loc 3 68 0
 185 000e 4FF0FF33 		mov	r3, #-1
 186 0012 27E0     		b	.L9
 187              	.L8:
  69:D:/iot/felix2/components/connectivity/agent_tiny/atiny_lwm2m\agenttiny.c ****     }
  70:D:/iot/felix2/components/connectivity/agent_tiny/atiny_lwm2m\agenttiny.c **** 
  71:D:/iot/felix2/components/connectivity/agent_tiny/atiny_lwm2m\agenttiny.c ****     if(BOOTSTRAP_FACTORY == atiny_params->server_params.bootstrap_mode)
 188              		.loc 3 71 0
 189 0014 7B68     		ldr	r3, [r7, #4]
 190 0016 1B7B     		ldrb	r3, [r3, #12]	@ zero_extendqisi2
 191 0018 002B     		cmp	r3, #0
 192 001a 0AD1     		bne	.L10
  72:D:/iot/felix2/components/connectivity/agent_tiny/atiny_lwm2m\agenttiny.c ****     {
  73:D:/iot/felix2/components/connectivity/agent_tiny/atiny_lwm2m\agenttiny.c ****         if((NULL == atiny_params->security_params[0].server_ip) || (NULL == atiny_params->security_
 193              		.loc 3 73 0
 194 001c 7B68     		ldr	r3, [r7, #4]
 195 001e 5B69     		ldr	r3, [r3, #20]
 196 0020 002B     		cmp	r3, #0
 197 0022 03D0     		beq	.L11
 198              		.loc 3 73 0 is_stmt 0 discriminator 1
 199 0024 7B68     		ldr	r3, [r7, #4]
 200 0026 9B69     		ldr	r3, [r3, #24]
 201 0028 002B     		cmp	r3, #0
 202 002a 1AD1     		bne	.L12
 203              	.L11:
  74:D:/iot/felix2/components/connectivity/agent_tiny/atiny_lwm2m\agenttiny.c ****         {
  75:D:/iot/felix2/components/connectivity/agent_tiny/atiny_lwm2m\agenttiny.c ****             LOG("[bootstrap_tag]: BOOTSTRAP_FACTORY mode's params is wrong, should have iot server 
  76:D:/iot/felix2/components/connectivity/agent_tiny/atiny_lwm2m\agenttiny.c ****             return ATINY_ARG_INVALID;
 204              		.loc 3 76 0 is_stmt 1
 205 002c 4FF0FF33 		mov	r3, #-1
 206 0030 18E0     		b	.L9
 207              	.L10:
  77:D:/iot/felix2/components/connectivity/agent_tiny/atiny_lwm2m\agenttiny.c ****         }
  78:D:/iot/felix2/components/connectivity/agent_tiny/atiny_lwm2m\agenttiny.c ****     }
  79:D:/iot/felix2/components/connectivity/agent_tiny/atiny_lwm2m\agenttiny.c ****     else if(BOOTSTRAP_CLIENT_INITIATED == atiny_params->server_params.bootstrap_mode)
 208              		.loc 3 79 0
 209 0032 7B68     		ldr	r3, [r7, #4]
 210 0034 1B7B     		ldrb	r3, [r3, #12]	@ zero_extendqisi2
 211 0036 012B     		cmp	r3, #1
 212 0038 0AD1     		bne	.L13
ARM GAS  C:\Users\91458\AppData\Local\Temp\ccYoNCPK.s 			page 14


  80:D:/iot/felix2/components/connectivity/agent_tiny/atiny_lwm2m\agenttiny.c ****     {
  81:D:/iot/felix2/components/connectivity/agent_tiny/atiny_lwm2m\agenttiny.c ****         if((NULL == atiny_params->security_params[1].server_ip) || (NULL == atiny_params->security_
 213              		.loc 3 81 0
 214 003a 7B68     		ldr	r3, [r7, #4]
 215 003c 9B6A     		ldr	r3, [r3, #40]
 216 003e 002B     		cmp	r3, #0
 217 0040 03D0     		beq	.L14
 218              		.loc 3 81 0 is_stmt 0 discriminator 1
 219 0042 7B68     		ldr	r3, [r7, #4]
 220 0044 DB6A     		ldr	r3, [r3, #44]
 221 0046 002B     		cmp	r3, #0
 222 0048 0BD1     		bne	.L12
 223              	.L14:
  82:D:/iot/felix2/components/connectivity/agent_tiny/atiny_lwm2m\agenttiny.c ****         {
  83:D:/iot/felix2/components/connectivity/agent_tiny/atiny_lwm2m\agenttiny.c ****             LOG("[bootstrap_tag]: BOOTSTRAP_CLIENT_INITIATED mode's params is wrong, should have bo
  84:D:/iot/felix2/components/connectivity/agent_tiny/atiny_lwm2m\agenttiny.c ****             return ATINY_ARG_INVALID;
 224              		.loc 3 84 0 is_stmt 1
 225 004a 4FF0FF33 		mov	r3, #-1
 226 004e 09E0     		b	.L9
 227              	.L13:
  85:D:/iot/felix2/components/connectivity/agent_tiny/atiny_lwm2m\agenttiny.c ****         }
  86:D:/iot/felix2/components/connectivity/agent_tiny/atiny_lwm2m\agenttiny.c ****     }
  87:D:/iot/felix2/components/connectivity/agent_tiny/atiny_lwm2m\agenttiny.c ****     else if(BOOTSTRAP_SEQUENCE == atiny_params->server_params.bootstrap_mode)
 228              		.loc 3 87 0
 229 0050 7B68     		ldr	r3, [r7, #4]
 230 0052 1B7B     		ldrb	r3, [r3, #12]	@ zero_extendqisi2
 231 0054 022B     		cmp	r3, #2
 232 0056 01D1     		bne	.L15
  88:D:/iot/felix2/components/connectivity/agent_tiny/atiny_lwm2m\agenttiny.c ****     {
  89:D:/iot/felix2/components/connectivity/agent_tiny/atiny_lwm2m\agenttiny.c ****         return ATINY_OK;
 233              		.loc 3 89 0
 234 0058 0023     		movs	r3, #0
 235 005a 03E0     		b	.L9
 236              	.L15:
  90:D:/iot/felix2/components/connectivity/agent_tiny/atiny_lwm2m\agenttiny.c ****     }
  91:D:/iot/felix2/components/connectivity/agent_tiny/atiny_lwm2m\agenttiny.c ****     else
  92:D:/iot/felix2/components/connectivity/agent_tiny/atiny_lwm2m\agenttiny.c ****     {
  93:D:/iot/felix2/components/connectivity/agent_tiny/atiny_lwm2m\agenttiny.c ****         //it is ok? if the mode value is not 0,1,2, we all set it to 2 ?
  94:D:/iot/felix2/components/connectivity/agent_tiny/atiny_lwm2m\agenttiny.c ****         LOG("[bootstrap_tag]: BOOTSTRAP only have three mode, should been :0,1,2");
  95:D:/iot/felix2/components/connectivity/agent_tiny/atiny_lwm2m\agenttiny.c ****         return ATINY_ARG_INVALID;
 237              		.loc 3 95 0
 238 005c 4FF0FF33 		mov	r3, #-1
 239 0060 00E0     		b	.L9
 240              	.L12:
  96:D:/iot/felix2/components/connectivity/agent_tiny/atiny_lwm2m\agenttiny.c ****     }
  97:D:/iot/felix2/components/connectivity/agent_tiny/atiny_lwm2m\agenttiny.c **** 
  98:D:/iot/felix2/components/connectivity/agent_tiny/atiny_lwm2m\agenttiny.c **** 
  99:D:/iot/felix2/components/connectivity/agent_tiny/atiny_lwm2m\agenttiny.c ****     return ATINY_OK;
 241              		.loc 3 99 0
 242 0062 0023     		movs	r3, #0
 243              	.L9:
 100:D:/iot/felix2/components/connectivity/agent_tiny/atiny_lwm2m\agenttiny.c **** }
 244              		.loc 3 100 0
 245 0064 1846     		mov	r0, r3
 246 0066 0C37     		adds	r7, r7, #12
 247              	.LCFI15:
 248              		.cfi_def_cfa_offset 4
ARM GAS  C:\Users\91458\AppData\Local\Temp\ccYoNCPK.s 			page 15


 249 0068 BD46     		mov	sp, r7
 250              	.LCFI16:
 251              		.cfi_def_cfa_register 13
 252              		@ sp needed
 253 006a 5DF8047B 		ldr	r7, [sp], #4
 254              	.LCFI17:
 255              		.cfi_restore 7
 256              		.cfi_def_cfa_offset 0
 257 006e 7047     		bx	lr
 258              		.cfi_endproc
 259              	.LFE144:
 261              		.section	.rodata
 262              		.align	2
 263              	.LC0:
 264 0000 5B25735D 		.ascii	"[%s][%u][%s:%d] atiny_init_rpt fail,ret=%d\015\012\000"
 264      5B25755D 
 264      5B25733A 
 264      25645D20 
 264      6174696E 
 265 002d 000000   		.align	2
 266              	.LC1:
 267 0030 5B25735D 		.ascii	"[%s][%u][%s:%d] Invalid args\015\012\000"
 267      5B25755D 
 267      5B25733A 
 267      25645D20 
 267      496E7661 
 268 004f 00       		.align	2
 269              	.LC2:
 270 0050 5B25735D 		.ascii	"[%s][%u][%s:%d] atiny_mutex_create fail\015\012\000"
 270      5B25755D 
 270      5B25733A 
 270      25645D20 
 270      6174696E 
 271              		.section	.text.atiny_init,"ax",%progbits
 272              		.align	1
 273              		.global	atiny_init
 274              		.syntax unified
 275              		.thumb
 276              		.thumb_func
 277              		.fpu fpv4-sp-d16
 279              	atiny_init:
 280              	.LFB145:
 101:D:/iot/felix2/components/connectivity/agent_tiny/atiny_lwm2m\agenttiny.c **** 
 102:D:/iot/felix2/components/connectivity/agent_tiny/atiny_lwm2m\agenttiny.c **** #ifdef LWM2M_BOOTSTRAP
 103:D:/iot/felix2/components/connectivity/agent_tiny/atiny_lwm2m\agenttiny.c **** static int atiny_check_psk_init_param(atiny_param_t *atiny_params)
 104:D:/iot/felix2/components/connectivity/agent_tiny/atiny_lwm2m\agenttiny.c **** {
 105:D:/iot/felix2/components/connectivity/agent_tiny/atiny_lwm2m\agenttiny.c ****     int i = 0;
 106:D:/iot/felix2/components/connectivity/agent_tiny/atiny_lwm2m\agenttiny.c ****     int psk_id_len = 0;
 107:D:/iot/felix2/components/connectivity/agent_tiny/atiny_lwm2m\agenttiny.c ****     int psk_len = 0;
 108:D:/iot/felix2/components/connectivity/agent_tiny/atiny_lwm2m\agenttiny.c ****     const int PSK_ID_LIMIT_LEN = 128;
 109:D:/iot/felix2/components/connectivity/agent_tiny/atiny_lwm2m\agenttiny.c ****     const int PSK_LIMIT_LEN = 64;
 110:D:/iot/felix2/components/connectivity/agent_tiny/atiny_lwm2m\agenttiny.c ****     int total_element = 0;
 111:D:/iot/felix2/components/connectivity/agent_tiny/atiny_lwm2m\agenttiny.c **** 
 112:D:/iot/felix2/components/connectivity/agent_tiny/atiny_lwm2m\agenttiny.c ****     if(NULL == atiny_params)
 113:D:/iot/felix2/components/connectivity/agent_tiny/atiny_lwm2m\agenttiny.c ****     {
 114:D:/iot/felix2/components/connectivity/agent_tiny/atiny_lwm2m\agenttiny.c ****         return ATINY_ARG_INVALID;
 115:D:/iot/felix2/components/connectivity/agent_tiny/atiny_lwm2m\agenttiny.c ****     }
ARM GAS  C:\Users\91458\AppData\Local\Temp\ccYoNCPK.s 			page 16


 116:D:/iot/felix2/components/connectivity/agent_tiny/atiny_lwm2m\agenttiny.c **** 
 117:D:/iot/felix2/components/connectivity/agent_tiny/atiny_lwm2m\agenttiny.c ****     //security_params have 2 element, we have 2 pair psk.
 118:D:/iot/felix2/components/connectivity/agent_tiny/atiny_lwm2m\agenttiny.c ****     total_element = (sizeof(atiny_params->security_params)) / (sizeof(atiny_params->security_params
 119:D:/iot/felix2/components/connectivity/agent_tiny/atiny_lwm2m\agenttiny.c **** 
 120:D:/iot/felix2/components/connectivity/agent_tiny/atiny_lwm2m\agenttiny.c ****     for(i = 0; i < total_element; i++)
 121:D:/iot/felix2/components/connectivity/agent_tiny/atiny_lwm2m\agenttiny.c ****     {
 122:D:/iot/felix2/components/connectivity/agent_tiny/atiny_lwm2m\agenttiny.c ****         //if there are null, we could run not in security mode
 123:D:/iot/felix2/components/connectivity/agent_tiny/atiny_lwm2m\agenttiny.c ****         if((atiny_params->security_params[i].psk_Id != NULL) && (atiny_params->security_params[i].p
 124:D:/iot/felix2/components/connectivity/agent_tiny/atiny_lwm2m\agenttiny.c ****         {
 125:D:/iot/felix2/components/connectivity/agent_tiny/atiny_lwm2m\agenttiny.c ****             psk_id_len = strlen(atiny_params->security_params[i].psk_Id);
 126:D:/iot/felix2/components/connectivity/agent_tiny/atiny_lwm2m\agenttiny.c ****             psk_len = strlen(atiny_params->security_params[i].psk);
 127:D:/iot/felix2/components/connectivity/agent_tiny/atiny_lwm2m\agenttiny.c **** 
 128:D:/iot/felix2/components/connectivity/agent_tiny/atiny_lwm2m\agenttiny.c ****             //the limit of the len, please read RFC4279  or OMA-TS-LightweightM2M E.1.1
 129:D:/iot/felix2/components/connectivity/agent_tiny/atiny_lwm2m\agenttiny.c ****             if((psk_id_len > PSK_ID_LIMIT_LEN) || (psk_len > PSK_LIMIT_LEN))
 130:D:/iot/felix2/components/connectivity/agent_tiny/atiny_lwm2m\agenttiny.c ****             {
 131:D:/iot/felix2/components/connectivity/agent_tiny/atiny_lwm2m\agenttiny.c ****                 LOG("[bootstrap_tag]: psk_Id len over 128 or psk len over 64");
 132:D:/iot/felix2/components/connectivity/agent_tiny/atiny_lwm2m\agenttiny.c ****                 return ATINY_ARG_INVALID;
 133:D:/iot/felix2/components/connectivity/agent_tiny/atiny_lwm2m\agenttiny.c ****             }
 134:D:/iot/felix2/components/connectivity/agent_tiny/atiny_lwm2m\agenttiny.c ****         }
 135:D:/iot/felix2/components/connectivity/agent_tiny/atiny_lwm2m\agenttiny.c ****     }
 136:D:/iot/felix2/components/connectivity/agent_tiny/atiny_lwm2m\agenttiny.c **** 
 137:D:/iot/felix2/components/connectivity/agent_tiny/atiny_lwm2m\agenttiny.c ****     return ATINY_OK;
 138:D:/iot/felix2/components/connectivity/agent_tiny/atiny_lwm2m\agenttiny.c **** }
 139:D:/iot/felix2/components/connectivity/agent_tiny/atiny_lwm2m\agenttiny.c **** #endif
 140:D:/iot/felix2/components/connectivity/agent_tiny/atiny_lwm2m\agenttiny.c **** 
 141:D:/iot/felix2/components/connectivity/agent_tiny/atiny_lwm2m\agenttiny.c **** 
 142:D:/iot/felix2/components/connectivity/agent_tiny/atiny_lwm2m\agenttiny.c **** int  atiny_init(atiny_param_t *atiny_params, void **phandle)
 143:D:/iot/felix2/components/connectivity/agent_tiny/atiny_lwm2m\agenttiny.c **** {
 281              		.loc 3 143 0
 282              		.cfi_startproc
 283              		@ args = 0, pretend = 0, frame = 16
 284              		@ frame_needed = 1, uses_anonymous_args = 0
 285 0000 B0B5     		push	{r4, r5, r7, lr}
 286              	.LCFI18:
 287              		.cfi_def_cfa_offset 16
 288              		.cfi_offset 4, -16
 289              		.cfi_offset 5, -12
 290              		.cfi_offset 7, -8
 291              		.cfi_offset 14, -4
 292 0002 86B0     		sub	sp, sp, #24
 293              	.LCFI19:
 294              		.cfi_def_cfa_offset 40
 295 0004 02AF     		add	r7, sp, #8
 296              	.LCFI20:
 297              		.cfi_def_cfa 7, 32
 298 0006 7860     		str	r0, [r7, #4]
 299 0008 3960     		str	r1, [r7]
 144:D:/iot/felix2/components/connectivity/agent_tiny/atiny_lwm2m\agenttiny.c ****     int result;
 145:D:/iot/felix2/components/connectivity/agent_tiny/atiny_lwm2m\agenttiny.c ****     
 146:D:/iot/felix2/components/connectivity/agent_tiny/atiny_lwm2m\agenttiny.c ****     result = atiny_init_rpt();
 300              		.loc 3 146 0
 301 000a FFF7FEFF 		bl	atiny_init_rpt
 302 000e F860     		str	r0, [r7, #12]
 147:D:/iot/felix2/components/connectivity/agent_tiny/atiny_lwm2m\agenttiny.c ****     if (result != ATINY_OK)
 303              		.loc 3 147 0
 304 0010 FB68     		ldr	r3, [r7, #12]
 305 0012 002B     		cmp	r3, #0
ARM GAS  C:\Users\91458\AppData\Local\Temp\ccYoNCPK.s 			page 17


 306 0014 18D0     		beq	.L17
 148:D:/iot/felix2/components/connectivity/agent_tiny/atiny_lwm2m\agenttiny.c ****     {
 149:D:/iot/felix2/components/connectivity/agent_tiny/atiny_lwm2m\agenttiny.c ****         ATINY_LOG(LOG_FATAL, "atiny_init_rpt fail,ret=%d", result);
 307              		.loc 3 149 0
 308 0016 FFF7FEFF 		bl	atiny_get_log_level
 309 001a 0346     		mov	r3, r0
 310 001c 042B     		cmp	r3, #4
 311 001e 11D8     		bhi	.L18
 312              		.loc 3 149 0 is_stmt 0 discriminator 1
 313 0020 0420     		movs	r0, #4
 314 0022 FFF7FEFF 		bl	atiny_get_log_level_name
 315 0026 0546     		mov	r5, r0
 316 0028 FFF7FEFF 		bl	atiny_gettime_ms
 317 002c 0346     		mov	r3, r0
 318 002e 0C46     		mov	r4, r1
 319 0030 1A46     		mov	r2, r3
 320 0032 FB68     		ldr	r3, [r7, #12]
 321 0034 0193     		str	r3, [sp, #4]
 322 0036 9523     		movs	r3, #149
 323 0038 0093     		str	r3, [sp]
 324 003a 374B     		ldr	r3, .L26
 325 003c 2946     		mov	r1, r5
 326 003e 3748     		ldr	r0, .L26+4
 327 0040 FFF7FEFF 		bl	atiny_printf
 328              	.L18:
 150:D:/iot/felix2/components/connectivity/agent_tiny/atiny_lwm2m\agenttiny.c ****         return result;
 329              		.loc 3 150 0 is_stmt 1
 330 0044 FB68     		ldr	r3, [r7, #12]
 331 0046 63E0     		b	.L19
 332              	.L17:
 151:D:/iot/felix2/components/connectivity/agent_tiny/atiny_lwm2m\agenttiny.c ****     }
 152:D:/iot/felix2/components/connectivity/agent_tiny/atiny_lwm2m\agenttiny.c **** 
 153:D:/iot/felix2/components/connectivity/agent_tiny/atiny_lwm2m\agenttiny.c ****     if (NULL == atiny_params || NULL == phandle)
 333              		.loc 3 153 0
 334 0048 7B68     		ldr	r3, [r7, #4]
 335 004a 002B     		cmp	r3, #0
 336 004c 02D0     		beq	.L20
 337              		.loc 3 153 0 is_stmt 0 discriminator 1
 338 004e 3B68     		ldr	r3, [r7]
 339 0050 002B     		cmp	r3, #0
 340 0052 17D1     		bne	.L21
 341              	.L20:
 154:D:/iot/felix2/components/connectivity/agent_tiny/atiny_lwm2m\agenttiny.c ****     {
 155:D:/iot/felix2/components/connectivity/agent_tiny/atiny_lwm2m\agenttiny.c ****         ATINY_LOG(LOG_FATAL, "Invalid args");
 342              		.loc 3 155 0 is_stmt 1
 343 0054 FFF7FEFF 		bl	atiny_get_log_level
 344 0058 0346     		mov	r3, r0
 345 005a 042B     		cmp	r3, #4
 346 005c 0FD8     		bhi	.L22
 347              		.loc 3 155 0 is_stmt 0 discriminator 1
 348 005e 0420     		movs	r0, #4
 349 0060 FFF7FEFF 		bl	atiny_get_log_level_name
 350 0064 0546     		mov	r5, r0
 351 0066 FFF7FEFF 		bl	atiny_gettime_ms
 352 006a 0346     		mov	r3, r0
 353 006c 0C46     		mov	r4, r1
 354 006e 1A46     		mov	r2, r3
ARM GAS  C:\Users\91458\AppData\Local\Temp\ccYoNCPK.s 			page 18


 355 0070 9B23     		movs	r3, #155
 356 0072 0093     		str	r3, [sp]
 357 0074 284B     		ldr	r3, .L26
 358 0076 2946     		mov	r1, r5
 359 0078 2948     		ldr	r0, .L26+8
 360 007a FFF7FEFF 		bl	atiny_printf
 361              	.L22:
 156:D:/iot/felix2/components/connectivity/agent_tiny/atiny_lwm2m\agenttiny.c ****         return ATINY_ARG_INVALID;
 362              		.loc 3 156 0 is_stmt 1
 363 007e 4FF0FF33 		mov	r3, #-1
 364 0082 45E0     		b	.L19
 365              	.L21:
 157:D:/iot/felix2/components/connectivity/agent_tiny/atiny_lwm2m\agenttiny.c ****     }
 158:D:/iot/felix2/components/connectivity/agent_tiny/atiny_lwm2m\agenttiny.c **** 
 159:D:/iot/felix2/components/connectivity/agent_tiny/atiny_lwm2m\agenttiny.c ****     if(ATINY_OK != atiny_check_bootstrap_init_param(atiny_params))
 366              		.loc 3 159 0
 367 0084 7868     		ldr	r0, [r7, #4]
 368 0086 FFF7FEFF 		bl	atiny_check_bootstrap_init_param
 369 008a 0346     		mov	r3, r0
 370 008c 002B     		cmp	r3, #0
 371 008e 02D0     		beq	.L23
 160:D:/iot/felix2/components/connectivity/agent_tiny/atiny_lwm2m\agenttiny.c ****     {
 161:D:/iot/felix2/components/connectivity/agent_tiny/atiny_lwm2m\agenttiny.c ****         LOG("[bootstrap_tag]: BOOTSTRAP's params are wrong");
 162:D:/iot/felix2/components/connectivity/agent_tiny/atiny_lwm2m\agenttiny.c ****         return ATINY_ARG_INVALID;
 372              		.loc 3 162 0
 373 0090 4FF0FF33 		mov	r3, #-1
 374 0094 3CE0     		b	.L19
 375              	.L23:
 163:D:/iot/felix2/components/connectivity/agent_tiny/atiny_lwm2m\agenttiny.c ****     }
 164:D:/iot/felix2/components/connectivity/agent_tiny/atiny_lwm2m\agenttiny.c **** 
 165:D:/iot/felix2/components/connectivity/agent_tiny/atiny_lwm2m\agenttiny.c **** #ifdef LWM2M_BOOTSTRAP
 166:D:/iot/felix2/components/connectivity/agent_tiny/atiny_lwm2m\agenttiny.c ****     if(ATINY_OK != atiny_check_psk_init_param(atiny_params))
 167:D:/iot/felix2/components/connectivity/agent_tiny/atiny_lwm2m\agenttiny.c ****     {
 168:D:/iot/felix2/components/connectivity/agent_tiny/atiny_lwm2m\agenttiny.c ****         LOG("[bootstrap_tag]: psk params are wrong");
 169:D:/iot/felix2/components/connectivity/agent_tiny/atiny_lwm2m\agenttiny.c ****     }
 170:D:/iot/felix2/components/connectivity/agent_tiny/atiny_lwm2m\agenttiny.c **** #endif
 171:D:/iot/felix2/components/connectivity/agent_tiny/atiny_lwm2m\agenttiny.c **** 
 172:D:/iot/felix2/components/connectivity/agent_tiny/atiny_lwm2m\agenttiny.c ****     memset((void *)&g_atiny_handle, 0, sizeof(handle_data_t));
 376              		.loc 3 172 0
 377 0096 8422     		movs	r2, #132
 378 0098 0021     		movs	r1, #0
 379 009a 2248     		ldr	r0, .L26+12
 380 009c FFF7FEFF 		bl	memset
 173:D:/iot/felix2/components/connectivity/agent_tiny/atiny_lwm2m\agenttiny.c **** 
 174:D:/iot/felix2/components/connectivity/agent_tiny/atiny_lwm2m\agenttiny.c ****     g_atiny_handle.quit_sem = atiny_mutex_create();
 381              		.loc 3 174 0
 382 00a0 FFF7FEFF 		bl	atiny_mutex_create
 383 00a4 0246     		mov	r2, r0
 384 00a6 1F4B     		ldr	r3, .L26+12
 385 00a8 9A67     		str	r2, [r3, #120]
 175:D:/iot/felix2/components/connectivity/agent_tiny/atiny_lwm2m\agenttiny.c ****     if (NULL == g_atiny_handle.quit_sem)
 386              		.loc 3 175 0
 387 00aa 1E4B     		ldr	r3, .L26+12
 388 00ac 9B6F     		ldr	r3, [r3, #120]
 389 00ae 002B     		cmp	r3, #0
 390 00b0 17D1     		bne	.L24
 176:D:/iot/felix2/components/connectivity/agent_tiny/atiny_lwm2m\agenttiny.c ****     {
ARM GAS  C:\Users\91458\AppData\Local\Temp\ccYoNCPK.s 			page 19


 177:D:/iot/felix2/components/connectivity/agent_tiny/atiny_lwm2m\agenttiny.c ****         ATINY_LOG(LOG_FATAL, "atiny_mutex_create fail");
 391              		.loc 3 177 0
 392 00b2 FFF7FEFF 		bl	atiny_get_log_level
 393 00b6 0346     		mov	r3, r0
 394 00b8 042B     		cmp	r3, #4
 395 00ba 0FD8     		bhi	.L25
 396              		.loc 3 177 0 is_stmt 0 discriminator 1
 397 00bc 0420     		movs	r0, #4
 398 00be FFF7FEFF 		bl	atiny_get_log_level_name
 399 00c2 0546     		mov	r5, r0
 400 00c4 FFF7FEFF 		bl	atiny_gettime_ms
 401 00c8 0346     		mov	r3, r0
 402 00ca 0C46     		mov	r4, r1
 403 00cc 1A46     		mov	r2, r3
 404 00ce B123     		movs	r3, #177
 405 00d0 0093     		str	r3, [sp]
 406 00d2 114B     		ldr	r3, .L26
 407 00d4 2946     		mov	r1, r5
 408 00d6 1448     		ldr	r0, .L26+16
 409 00d8 FFF7FEFF 		bl	atiny_printf
 410              	.L25:
 178:D:/iot/felix2/components/connectivity/agent_tiny/atiny_lwm2m\agenttiny.c ****         return ATINY_RESOURCE_NOT_ENOUGH;
 411              		.loc 3 178 0 is_stmt 1
 412 00dc 6FF00503 		mvn	r3, #5
 413 00e0 16E0     		b	.L19
 414              	.L24:
 179:D:/iot/felix2/components/connectivity/agent_tiny/atiny_lwm2m\agenttiny.c ****     }
 180:D:/iot/felix2/components/connectivity/agent_tiny/atiny_lwm2m\agenttiny.c ****     atiny_mutex_lock(g_atiny_handle.quit_sem);
 415              		.loc 3 180 0
 416 00e2 104B     		ldr	r3, .L26+12
 417 00e4 9B6F     		ldr	r3, [r3, #120]
 418 00e6 1846     		mov	r0, r3
 419 00e8 FFF7FEFF 		bl	atiny_mutex_lock
 181:D:/iot/felix2/components/connectivity/agent_tiny/atiny_lwm2m\agenttiny.c ****     g_atiny_handle.atiny_params = *atiny_params;
 420              		.loc 3 181 0
 421 00ec 0D4B     		ldr	r3, .L26+12
 422 00ee 7A68     		ldr	r2, [r7, #4]
 423 00f0 1C1D     		adds	r4, r3, #4
 424 00f2 1546     		mov	r5, r2
 425 00f4 0FCD     		ldmia	r5!, {r0, r1, r2, r3}
 426 00f6 0FC4     		stmia	r4!, {r0, r1, r2, r3}
 427 00f8 0FCD     		ldmia	r5!, {r0, r1, r2, r3}
 428 00fa 0FC4     		stmia	r4!, {r0, r1, r2, r3}
 429 00fc 0FCD     		ldmia	r5!, {r0, r1, r2, r3}
 430 00fe 0FC4     		stmia	r4!, {r0, r1, r2, r3}
 431 0100 95E80700 		ldm	r5, {r0, r1, r2}
 432 0104 84E80700 		stm	r4, {r0, r1, r2}
 182:D:/iot/felix2/components/connectivity/agent_tiny/atiny_lwm2m\agenttiny.c ****     *phandle = &g_atiny_handle;
 433              		.loc 3 182 0
 434 0108 3B68     		ldr	r3, [r7]
 435 010a 064A     		ldr	r2, .L26+12
 436 010c 1A60     		str	r2, [r3]
 183:D:/iot/felix2/components/connectivity/agent_tiny/atiny_lwm2m\agenttiny.c **** 
 184:D:/iot/felix2/components/connectivity/agent_tiny/atiny_lwm2m\agenttiny.c **** #ifdef CONFIG_FEATURE_FOTA
 185:D:/iot/felix2/components/connectivity/agent_tiny/atiny_lwm2m\agenttiny.c **** 
 186:D:/iot/felix2/components/connectivity/agent_tiny/atiny_lwm2m\agenttiny.c ****     return atiny_fota_manager_set_storage_device(atiny_fota_manager_get_instance());
 187:D:/iot/felix2/components/connectivity/agent_tiny/atiny_lwm2m\agenttiny.c **** #else
ARM GAS  C:\Users\91458\AppData\Local\Temp\ccYoNCPK.s 			page 20


 188:D:/iot/felix2/components/connectivity/agent_tiny/atiny_lwm2m\agenttiny.c ****     return ATINY_OK;
 437              		.loc 3 188 0
 438 010e 0023     		movs	r3, #0
 439              	.L19:
 189:D:/iot/felix2/components/connectivity/agent_tiny/atiny_lwm2m\agenttiny.c **** #endif
 190:D:/iot/felix2/components/connectivity/agent_tiny/atiny_lwm2m\agenttiny.c **** 
 191:D:/iot/felix2/components/connectivity/agent_tiny/atiny_lwm2m\agenttiny.c **** }
 440              		.loc 3 191 0
 441 0110 1846     		mov	r0, r3
 442 0112 1037     		adds	r7, r7, #16
 443              	.LCFI21:
 444              		.cfi_def_cfa_offset 16
 445 0114 BD46     		mov	sp, r7
 446              	.LCFI22:
 447              		.cfi_def_cfa_register 13
 448              		@ sp needed
 449 0116 B0BD     		pop	{r4, r5, r7, pc}
 450              	.L27:
 451              		.align	2
 452              	.L26:
 453 0118 00000000 		.word	__FUNCTION__.11928
 454 011c 00000000 		.word	.LC0
 455 0120 30000000 		.word	.LC1
 456 0124 00000000 		.word	g_atiny_handle
 457 0128 50000000 		.word	.LC2
 458              		.cfi_endproc
 459              	.LFE145:
 461              		.section	.text.atiny_set_bootstrap_sequence_state,"ax",%progbits
 462              		.align	1
 463              		.global	atiny_set_bootstrap_sequence_state
 464              		.syntax unified
 465              		.thumb
 466              		.thumb_func
 467              		.fpu fpv4-sp-d16
 469              	atiny_set_bootstrap_sequence_state:
 470              	.LFB146:
 192:D:/iot/felix2/components/connectivity/agent_tiny/atiny_lwm2m\agenttiny.c **** 
 193:D:/iot/felix2/components/connectivity/agent_tiny/atiny_lwm2m\agenttiny.c **** /*
 194:D:/iot/felix2/components/connectivity/agent_tiny/atiny_lwm2m\agenttiny.c ****  * add date:     2018-06-05
 195:D:/iot/felix2/components/connectivity/agent_tiny/atiny_lwm2m\agenttiny.c ****  * description:  get bootstrap info from atiny_params which from user, set bs_sequence_state and bs
 196:D:/iot/felix2/components/connectivity/agent_tiny/atiny_lwm2m\agenttiny.c ****  *
 197:D:/iot/felix2/components/connectivity/agent_tiny/atiny_lwm2m\agenttiny.c ****  * return:       none
 198:D:/iot/felix2/components/connectivity/agent_tiny/atiny_lwm2m\agenttiny.c ****  * param:
 199:D:/iot/felix2/components/connectivity/agent_tiny/atiny_lwm2m\agenttiny.c ****  *     in:  atiny_params
 200:D:/iot/felix2/components/connectivity/agent_tiny/atiny_lwm2m\agenttiny.c ****  *     out: lwm2m_context
 201:D:/iot/felix2/components/connectivity/agent_tiny/atiny_lwm2m\agenttiny.c ****  */
 202:D:/iot/felix2/components/connectivity/agent_tiny/atiny_lwm2m\agenttiny.c **** void atiny_set_bootstrap_sequence_state(atiny_param_t *atiny_params, lwm2m_context_t *lwm2m_context
 203:D:/iot/felix2/components/connectivity/agent_tiny/atiny_lwm2m\agenttiny.c **** {
 471              		.loc 3 203 0
 472              		.cfi_startproc
 473              		@ args = 0, pretend = 0, frame = 8
 474              		@ frame_needed = 1, uses_anonymous_args = 0
 475 0000 80B5     		push	{r7, lr}
 476              	.LCFI23:
 477              		.cfi_def_cfa_offset 8
 478              		.cfi_offset 7, -8
 479              		.cfi_offset 14, -4
ARM GAS  C:\Users\91458\AppData\Local\Temp\ccYoNCPK.s 			page 21


 480 0002 82B0     		sub	sp, sp, #8
 481              	.LCFI24:
 482              		.cfi_def_cfa_offset 16
 483 0004 00AF     		add	r7, sp, #0
 484              	.LCFI25:
 485              		.cfi_def_cfa_register 7
 486 0006 7860     		str	r0, [r7, #4]
 487 0008 3960     		str	r1, [r7]
 204:D:/iot/felix2/components/connectivity/agent_tiny/atiny_lwm2m\agenttiny.c ****     (void)lwm2m_initBootStrap(lwm2m_context, atiny_params->server_params.bootstrap_mode);
 488              		.loc 3 204 0
 489 000a 7B68     		ldr	r3, [r7, #4]
 490 000c 1B7B     		ldrb	r3, [r3, #12]	@ zero_extendqisi2
 491 000e 1946     		mov	r1, r3
 492 0010 3868     		ldr	r0, [r7]
 493 0012 FFF7FEFF 		bl	lwm2m_initBootStrap
 205:D:/iot/felix2/components/connectivity/agent_tiny/atiny_lwm2m\agenttiny.c **** }
 494              		.loc 3 205 0
 495 0016 00BF     		nop
 496 0018 0837     		adds	r7, r7, #8
 497              	.LCFI26:
 498              		.cfi_def_cfa_offset 8
 499 001a BD46     		mov	sp, r7
 500              	.LCFI27:
 501              		.cfi_def_cfa_register 13
 502              		@ sp needed
 503 001c 80BD     		pop	{r7, pc}
 504              		.cfi_endproc
 505              	.LFE146:
 507              		.section	.rodata
 508 007a 0000     		.align	2
 509              	.LC3:
 510 007c 5B25735D 		.ascii	"[%s][%u][%s:%d] Trying to init objects\015\012\000"
 510      5B25755D 
 510      5B25733A 
 510      25645D20 
 510      54727969 
 511 00a5 000000   		.align	2
 512              	.LC4:
 513 00a8 5B25735D 		.ascii	"[%s][%u][%s:%d] lwm2m_init fail\015\012\000"
 513      5B25755D 
 513      5B25733A 
 513      25645D20 
 513      6C776D32 
 514 00ca 0000     		.align	2
 515              	.LC5:
 516 00cc 5B25735D 		.ascii	"[%s][%u][%s:%d] Failed to create security object\015"
 516      5B25755D 
 516      5B25733A 
 516      25645D20 
 516      4661696C 
 517 00fd 0A00     		.ascii	"\012\000"
 518 00ff 00       		.align	2
 519              	.LC6:
 520 0100 5B25735D 		.ascii	"[%s][%u][%s:%d] Failed to create server object\015\012"
 520      5B25755D 
 520      5B25733A 
 520      25645D20 
ARM GAS  C:\Users\91458\AppData\Local\Temp\ccYoNCPK.s 			page 22


 520      4661696C 
 521 0130 00       		.ascii	"\000"
 522 0131 000000   		.align	2
 523              	.LC7:
 524 0134 5B25735D 		.ascii	"[%s][%u][%s:%d] Failed to create access control obj"
 524      5B25755D 
 524      5B25733A 
 524      25645D20 
 524      4661696C 
 525 0167 6563740D 		.ascii	"ect\015\012\000"
 525      0A00
 526 016d 000000   		.align	2
 527              	.LC8:
 528 0170 5B25735D 		.ascii	"[%s][%u][%s:%d] Failed to create device object\015\012"
 528      5B25755D 
 528      5B25733A 
 528      25645D20 
 528      4661696C 
 529 01a0 00       		.ascii	"\000"
 530 01a1 000000   		.align	2
 531              	.LC9:
 532 01a4 5B25735D 		.ascii	"[%s][%u][%s:%d] Failed to create connect object\015"
 532      5B25755D 
 532      5B25733A 
 532      25645D20 
 532      4661696C 
 533 01d4 0A00     		.ascii	"\012\000"
 534 01d6 0000     		.align	2
 535              	.LC10:
 536 01d8 5B25735D 		.ascii	"[%s][%u][%s:%d] Failed to create location object\015"
 536      5B25755D 
 536      5B25733A 
 536      25645D20 
 536      4661696C 
 537 0209 0A00     		.ascii	"\012\000"
 538 020b 00       		.align	2
 539              	.LC11:
 540 020c 5B25735D 		.ascii	"[%s][%u][%s:%d] Failed to create app object\015\012"
 540      5B25755D 
 540      5B25733A 
 540      25645D20 
 540      4661696C 
 541 0239 00       		.ascii	"\000"
 542              		.section	.text.atiny_init_objects,"ax",%progbits
 543              		.align	1
 544              		.global	atiny_init_objects
 545              		.syntax unified
 546              		.thumb
 547              		.thumb_func
 548              		.fpu fpv4-sp-d16
 550              	atiny_init_objects:
 551              	.LFB147:
 206:D:/iot/felix2/components/connectivity/agent_tiny/atiny_lwm2m\agenttiny.c **** 
 207:D:/iot/felix2/components/connectivity/agent_tiny/atiny_lwm2m\agenttiny.c **** 
 208:D:/iot/felix2/components/connectivity/agent_tiny/atiny_lwm2m\agenttiny.c **** 
 209:D:/iot/felix2/components/connectivity/agent_tiny/atiny_lwm2m\agenttiny.c **** /*
 210:D:/iot/felix2/components/connectivity/agent_tiny/atiny_lwm2m\agenttiny.c **** * modify info:
ARM GAS  C:\Users\91458\AppData\Local\Temp\ccYoNCPK.s 			page 23


 211:D:/iot/felix2/components/connectivity/agent_tiny/atiny_lwm2m\agenttiny.c **** *     date:    2018-05-30
 212:D:/iot/felix2/components/connectivity/agent_tiny/atiny_lwm2m\agenttiny.c **** *     reason:  modify for bootstrap mode, origin code only support FACTORY mode.
 213:D:/iot/felix2/components/connectivity/agent_tiny/atiny_lwm2m\agenttiny.c **** */
 214:D:/iot/felix2/components/connectivity/agent_tiny/atiny_lwm2m\agenttiny.c **** int atiny_init_objects(atiny_param_t *atiny_params, const atiny_device_info_t *device_info, handle_
 215:D:/iot/felix2/components/connectivity/agent_tiny/atiny_lwm2m\agenttiny.c **** {
 552              		.loc 3 215 0
 553              		.cfi_startproc
 554              		@ args = 0, pretend = 0, frame = 40
 555              		@ frame_needed = 1, uses_anonymous_args = 0
 556 0000 B0B5     		push	{r4, r5, r7, lr}
 557              	.LCFI28:
 558              		.cfi_def_cfa_offset 16
 559              		.cfi_offset 4, -16
 560              		.cfi_offset 5, -12
 561              		.cfi_offset 7, -8
 562              		.cfi_offset 14, -4
 563 0002 8CB0     		sub	sp, sp, #48
 564              	.LCFI29:
 565              		.cfi_def_cfa_offset 64
 566 0004 02AF     		add	r7, sp, #8
 567              	.LCFI30:
 568              		.cfi_def_cfa 7, 56
 569 0006 F860     		str	r0, [r7, #12]
 570 0008 B960     		str	r1, [r7, #8]
 571 000a 7A60     		str	r2, [r7, #4]
 216:D:/iot/felix2/components/connectivity/agent_tiny/atiny_lwm2m\agenttiny.c ****     int result;
 217:D:/iot/felix2/components/connectivity/agent_tiny/atiny_lwm2m\agenttiny.c ****     client_data_t *pdata;
 218:D:/iot/felix2/components/connectivity/agent_tiny/atiny_lwm2m\agenttiny.c ****     lwm2m_context_t *lwm2m_context = NULL;
 572              		.loc 3 218 0
 573 000c 0023     		movs	r3, #0
 574 000e 7B62     		str	r3, [r7, #36]
 219:D:/iot/felix2/components/connectivity/agent_tiny/atiny_lwm2m\agenttiny.c ****     uint16_t serverId = SERVER_ID;
 575              		.loc 3 219 0
 576 0010 7B23     		movs	r3, #123
 577 0012 7B84     		strh	r3, [r7, #34]	@ movhi
 220:D:/iot/felix2/components/connectivity/agent_tiny/atiny_lwm2m\agenttiny.c ****     char *epname = (char *)device_info->endpoint_name;
 578              		.loc 3 220 0
 579 0014 BB68     		ldr	r3, [r7, #8]
 580 0016 1B68     		ldr	r3, [r3]
 581 0018 FB61     		str	r3, [r7, #28]
 221:D:/iot/felix2/components/connectivity/agent_tiny/atiny_lwm2m\agenttiny.c **** 
 222:D:/iot/felix2/components/connectivity/agent_tiny/atiny_lwm2m\agenttiny.c **** 
 223:D:/iot/felix2/components/connectivity/agent_tiny/atiny_lwm2m\agenttiny.c **** 
 224:D:/iot/felix2/components/connectivity/agent_tiny/atiny_lwm2m\agenttiny.c ****     pdata = &handle->client_data;
 582              		.loc 3 224 0
 583 001a 7B68     		ldr	r3, [r7, #4]
 584 001c 4033     		adds	r3, r3, #64
 585 001e BB61     		str	r3, [r7, #24]
 225:D:/iot/felix2/components/connectivity/agent_tiny/atiny_lwm2m\agenttiny.c ****     memset(pdata, 0, sizeof(client_data_t));
 586              		.loc 3 225 0
 587 0020 1022     		movs	r2, #16
 588 0022 0021     		movs	r1, #0
 589 0024 B869     		ldr	r0, [r7, #24]
 590 0026 FFF7FEFF 		bl	memset
 226:D:/iot/felix2/components/connectivity/agent_tiny/atiny_lwm2m\agenttiny.c **** 
 227:D:/iot/felix2/components/connectivity/agent_tiny/atiny_lwm2m\agenttiny.c ****     ATINY_LOG(LOG_INFO, "Trying to init objects");
 591              		.loc 3 227 0
ARM GAS  C:\Users\91458\AppData\Local\Temp\ccYoNCPK.s 			page 24


 592 002a FFF7FEFF 		bl	atiny_get_log_level
 593 002e 0346     		mov	r3, r0
 594 0030 012B     		cmp	r3, #1
 595 0032 0FD8     		bhi	.L30
 596              		.loc 3 227 0 is_stmt 0 discriminator 1
 597 0034 0120     		movs	r0, #1
 598 0036 FFF7FEFF 		bl	atiny_get_log_level_name
 599 003a 0546     		mov	r5, r0
 600 003c FFF7FEFF 		bl	atiny_gettime_ms
 601 0040 0346     		mov	r3, r0
 602 0042 0C46     		mov	r4, r1
 603 0044 1A46     		mov	r2, r3
 604 0046 E323     		movs	r3, #227
 605 0048 0093     		str	r3, [sp]
 606 004a B84B     		ldr	r3, .L51
 607 004c 2946     		mov	r1, r5
 608 004e B848     		ldr	r0, .L51+4
 609 0050 FFF7FEFF 		bl	atiny_printf
 610              	.L30:
 228:D:/iot/felix2/components/connectivity/agent_tiny/atiny_lwm2m\agenttiny.c **** 
 229:D:/iot/felix2/components/connectivity/agent_tiny/atiny_lwm2m\agenttiny.c ****     lwm2m_context = lwm2m_init(pdata);
 611              		.loc 3 229 0 is_stmt 1
 612 0054 B869     		ldr	r0, [r7, #24]
 613 0056 FFF7FEFF 		bl	lwm2m_init
 614 005a 7862     		str	r0, [r7, #36]
 230:D:/iot/felix2/components/connectivity/agent_tiny/atiny_lwm2m\agenttiny.c ****     if (NULL == lwm2m_context)
 615              		.loc 3 230 0
 616 005c 7B6A     		ldr	r3, [r7, #36]
 617 005e 002B     		cmp	r3, #0
 618 0060 17D1     		bne	.L31
 231:D:/iot/felix2/components/connectivity/agent_tiny/atiny_lwm2m\agenttiny.c ****     {
 232:D:/iot/felix2/components/connectivity/agent_tiny/atiny_lwm2m\agenttiny.c ****         ATINY_LOG(LOG_FATAL, "lwm2m_init fail");
 619              		.loc 3 232 0
 620 0062 FFF7FEFF 		bl	atiny_get_log_level
 621 0066 0346     		mov	r3, r0
 622 0068 042B     		cmp	r3, #4
 623 006a 0FD8     		bhi	.L32
 624              		.loc 3 232 0 is_stmt 0 discriminator 1
 625 006c 0420     		movs	r0, #4
 626 006e FFF7FEFF 		bl	atiny_get_log_level_name
 627 0072 0546     		mov	r5, r0
 628 0074 FFF7FEFF 		bl	atiny_gettime_ms
 629 0078 0346     		mov	r3, r0
 630 007a 0C46     		mov	r4, r1
 631 007c 1A46     		mov	r2, r3
 632 007e E823     		movs	r3, #232
 633 0080 0093     		str	r3, [sp]
 634 0082 AA4B     		ldr	r3, .L51
 635 0084 2946     		mov	r1, r5
 636 0086 AB48     		ldr	r0, .L51+8
 637 0088 FFF7FEFF 		bl	atiny_printf
 638              	.L32:
 233:D:/iot/felix2/components/connectivity/agent_tiny/atiny_lwm2m\agenttiny.c ****         return ATINY_MALLOC_FAILED;
 639              		.loc 3 233 0 is_stmt 1
 640 008c 6FF00303 		mvn	r3, #3
 641 0090 63E1     		b	.L33
 642              	.L31:
ARM GAS  C:\Users\91458\AppData\Local\Temp\ccYoNCPK.s 			page 25


 234:D:/iot/felix2/components/connectivity/agent_tiny/atiny_lwm2m\agenttiny.c ****     }
 235:D:/iot/felix2/components/connectivity/agent_tiny/atiny_lwm2m\agenttiny.c ****     lwm2m_context->observe_mutex = atiny_mutex_create();
 643              		.loc 3 235 0
 644 0092 FFF7FEFF 		bl	atiny_mutex_create
 645 0096 0246     		mov	r2, r0
 646 0098 7B6A     		ldr	r3, [r7, #36]
 647 009a 1A62     		str	r2, [r3, #32]
 236:D:/iot/felix2/components/connectivity/agent_tiny/atiny_lwm2m\agenttiny.c ****     if (NULL == lwm2m_context->observe_mutex)
 648              		.loc 3 236 0
 649 009c 7B6A     		ldr	r3, [r7, #36]
 650 009e 1B6A     		ldr	r3, [r3, #32]
 651 00a0 002B     		cmp	r3, #0
 652 00a2 1AD1     		bne	.L34
 237:D:/iot/felix2/components/connectivity/agent_tiny/atiny_lwm2m\agenttiny.c ****     {
 238:D:/iot/felix2/components/connectivity/agent_tiny/atiny_lwm2m\agenttiny.c ****         ATINY_LOG(LOG_FATAL, "atiny_mutex_create fail");
 653              		.loc 3 238 0
 654 00a4 FFF7FEFF 		bl	atiny_get_log_level
 655 00a8 0346     		mov	r3, r0
 656 00aa 042B     		cmp	r3, #4
 657 00ac 0FD8     		bhi	.L35
 658              		.loc 3 238 0 is_stmt 0 discriminator 1
 659 00ae 0420     		movs	r0, #4
 660 00b0 FFF7FEFF 		bl	atiny_get_log_level_name
 661 00b4 0546     		mov	r5, r0
 662 00b6 FFF7FEFF 		bl	atiny_gettime_ms
 663 00ba 0346     		mov	r3, r0
 664 00bc 0C46     		mov	r4, r1
 665 00be 1A46     		mov	r2, r3
 666 00c0 EE23     		movs	r3, #238
 667 00c2 0093     		str	r3, [sp]
 668 00c4 994B     		ldr	r3, .L51
 669 00c6 2946     		mov	r1, r5
 670 00c8 9B48     		ldr	r0, .L51+12
 671 00ca FFF7FEFF 		bl	atiny_printf
 672              	.L35:
 239:D:/iot/felix2/components/connectivity/agent_tiny/atiny_lwm2m\agenttiny.c ****         lwm2m_free(lwm2m_context);
 673              		.loc 3 239 0 is_stmt 1
 674 00ce 786A     		ldr	r0, [r7, #36]
 675 00d0 FFF7FEFF 		bl	lwm2m_free
 240:D:/iot/felix2/components/connectivity/agent_tiny/atiny_lwm2m\agenttiny.c ****         return ATINY_RESOURCE_NOT_ENOUGH;
 676              		.loc 3 240 0
 677 00d4 6FF00503 		mvn	r3, #5
 678 00d8 3FE1     		b	.L33
 679              	.L34:
 241:D:/iot/felix2/components/connectivity/agent_tiny/atiny_lwm2m\agenttiny.c ****     }
 242:D:/iot/felix2/components/connectivity/agent_tiny/atiny_lwm2m\agenttiny.c **** 
 243:D:/iot/felix2/components/connectivity/agent_tiny/atiny_lwm2m\agenttiny.c ****     pdata->lwm2mH = lwm2m_context;
 680              		.loc 3 243 0
 681 00da BB69     		ldr	r3, [r7, #24]
 682 00dc 7A6A     		ldr	r2, [r7, #36]
 683 00de DA60     		str	r2, [r3, #12]
 244:D:/iot/felix2/components/connectivity/agent_tiny/atiny_lwm2m\agenttiny.c **** 
 245:D:/iot/felix2/components/connectivity/agent_tiny/atiny_lwm2m\agenttiny.c ****     handle->lwm2m_context = lwm2m_context;
 684              		.loc 3 245 0
 685 00e0 7B68     		ldr	r3, [r7, #4]
 686 00e2 7A6A     		ldr	r2, [r7, #36]
 687 00e4 1A60     		str	r2, [r3]
ARM GAS  C:\Users\91458\AppData\Local\Temp\ccYoNCPK.s 			page 26


 246:D:/iot/felix2/components/connectivity/agent_tiny/atiny_lwm2m\agenttiny.c **** 
 247:D:/iot/felix2/components/connectivity/agent_tiny/atiny_lwm2m\agenttiny.c ****     //even if not in bootstrap sequence mode, still set it NO_BS_SEQUENCE_STATE
 248:D:/iot/felix2/components/connectivity/agent_tiny/atiny_lwm2m\agenttiny.c ****     atiny_set_bootstrap_sequence_state(atiny_params, lwm2m_context);
 688              		.loc 3 248 0
 689 00e6 796A     		ldr	r1, [r7, #36]
 690 00e8 F868     		ldr	r0, [r7, #12]
 691 00ea FFF7FEFF 		bl	atiny_set_bootstrap_sequence_state
 249:D:/iot/felix2/components/connectivity/agent_tiny/atiny_lwm2m\agenttiny.c **** 
 250:D:/iot/felix2/components/connectivity/agent_tiny/atiny_lwm2m\agenttiny.c ****     handle->obj_array[OBJ_SECURITY_INDEX] = get_security_object(serverId, atiny_params, lwm2m_conte
 692              		.loc 3 250 0
 693 00ee 7B8C     		ldrh	r3, [r7, #34]
 694 00f0 7A6A     		ldr	r2, [r7, #36]
 695 00f2 F968     		ldr	r1, [r7, #12]
 696 00f4 1846     		mov	r0, r3
 697 00f6 FFF7FEFF 		bl	get_security_object
 698 00fa 0246     		mov	r2, r0
 699 00fc 7B68     		ldr	r3, [r7, #4]
 700 00fe 1A65     		str	r2, [r3, #80]
 251:D:/iot/felix2/components/connectivity/agent_tiny/atiny_lwm2m\agenttiny.c **** 
 252:D:/iot/felix2/components/connectivity/agent_tiny/atiny_lwm2m\agenttiny.c ****     if (NULL ==  handle->obj_array[OBJ_SECURITY_INDEX])
 701              		.loc 3 252 0
 702 0100 7B68     		ldr	r3, [r7, #4]
 703 0102 1B6D     		ldr	r3, [r3, #80]
 704 0104 002B     		cmp	r3, #0
 705 0106 17D1     		bne	.L36
 253:D:/iot/felix2/components/connectivity/agent_tiny/atiny_lwm2m\agenttiny.c ****     {
 254:D:/iot/felix2/components/connectivity/agent_tiny/atiny_lwm2m\agenttiny.c ****         ATINY_LOG(LOG_FATAL, "Failed to create security object");
 706              		.loc 3 254 0
 707 0108 FFF7FEFF 		bl	atiny_get_log_level
 708 010c 0346     		mov	r3, r0
 709 010e 042B     		cmp	r3, #4
 710 0110 0FD8     		bhi	.L37
 711              		.loc 3 254 0 is_stmt 0 discriminator 1
 712 0112 0420     		movs	r0, #4
 713 0114 FFF7FEFF 		bl	atiny_get_log_level_name
 714 0118 0546     		mov	r5, r0
 715 011a FFF7FEFF 		bl	atiny_gettime_ms
 716 011e 0346     		mov	r3, r0
 717 0120 0C46     		mov	r4, r1
 718 0122 1A46     		mov	r2, r3
 719 0124 FE23     		movs	r3, #254
 720 0126 0093     		str	r3, [sp]
 721 0128 804B     		ldr	r3, .L51
 722 012a 2946     		mov	r1, r5
 723 012c 8348     		ldr	r0, .L51+16
 724 012e FFF7FEFF 		bl	atiny_printf
 725              	.L37:
 255:D:/iot/felix2/components/connectivity/agent_tiny/atiny_lwm2m\agenttiny.c ****         return ATINY_MALLOC_FAILED;
 726              		.loc 3 255 0 is_stmt 1
 727 0132 6FF00303 		mvn	r3, #3
 728 0136 10E1     		b	.L33
 729              	.L36:
 256:D:/iot/felix2/components/connectivity/agent_tiny/atiny_lwm2m\agenttiny.c ****     }
 257:D:/iot/felix2/components/connectivity/agent_tiny/atiny_lwm2m\agenttiny.c ****     pdata->securityObjP = handle->obj_array[OBJ_SECURITY_INDEX];
 730              		.loc 3 257 0
 731 0138 7B68     		ldr	r3, [r7, #4]
 732 013a 1A6D     		ldr	r2, [r3, #80]
ARM GAS  C:\Users\91458\AppData\Local\Temp\ccYoNCPK.s 			page 27


 733 013c BB69     		ldr	r3, [r7, #24]
 734 013e 1A60     		str	r2, [r3]
 258:D:/iot/felix2/components/connectivity/agent_tiny/atiny_lwm2m\agenttiny.c **** 
 259:D:/iot/felix2/components/connectivity/agent_tiny/atiny_lwm2m\agenttiny.c ****     handle->obj_array[OBJ_SERVER_INDEX] = get_server_object(serverId, atiny_params->server_params.b
 735              		.loc 3 259 0
 736 0140 788C     		ldrh	r0, [r7, #34]
 737 0142 FB68     		ldr	r3, [r7, #12]
 738 0144 1968     		ldr	r1, [r3]
 739 0146 FB68     		ldr	r3, [r7, #12]
 740 0148 5A68     		ldr	r2, [r3, #4]
 260:D:/iot/felix2/components/connectivity/agent_tiny/atiny_lwm2m\agenttiny.c ****                                           atiny_params->server_params.life_time, atiny_params->serv
 741              		.loc 3 260 0
 742 014a FB68     		ldr	r3, [r7, #12]
 743 014c 9B68     		ldr	r3, [r3, #8]
 259:D:/iot/felix2/components/connectivity/agent_tiny/atiny_lwm2m\agenttiny.c ****                                           atiny_params->server_params.life_time, atiny_params->serv
 744              		.loc 3 259 0
 745 014e 002B     		cmp	r3, #0
 746 0150 14BF     		ite	ne
 747 0152 0123     		movne	r3, #1
 748 0154 0023     		moveq	r3, #0
 749 0156 DBB2     		uxtb	r3, r3
 750 0158 FFF7FEFF 		bl	get_server_object
 751 015c 0246     		mov	r2, r0
 752 015e 7B68     		ldr	r3, [r7, #4]
 753 0160 5A65     		str	r2, [r3, #84]
 261:D:/iot/felix2/components/connectivity/agent_tiny/atiny_lwm2m\agenttiny.c ****     if (NULL == handle->obj_array[OBJ_SERVER_INDEX])
 754              		.loc 3 261 0
 755 0162 7B68     		ldr	r3, [r7, #4]
 756 0164 5B6D     		ldr	r3, [r3, #84]
 757 0166 002B     		cmp	r3, #0
 758 0168 18D1     		bne	.L38
 262:D:/iot/felix2/components/connectivity/agent_tiny/atiny_lwm2m\agenttiny.c ****     {
 263:D:/iot/felix2/components/connectivity/agent_tiny/atiny_lwm2m\agenttiny.c ****         ATINY_LOG(LOG_FATAL, "Failed to create server object");
 759              		.loc 3 263 0
 760 016a FFF7FEFF 		bl	atiny_get_log_level
 761 016e 0346     		mov	r3, r0
 762 0170 042B     		cmp	r3, #4
 763 0172 10D8     		bhi	.L39
 764              		.loc 3 263 0 is_stmt 0 discriminator 1
 765 0174 0420     		movs	r0, #4
 766 0176 FFF7FEFF 		bl	atiny_get_log_level_name
 767 017a 0546     		mov	r5, r0
 768 017c FFF7FEFF 		bl	atiny_gettime_ms
 769 0180 0346     		mov	r3, r0
 770 0182 0C46     		mov	r4, r1
 771 0184 1A46     		mov	r2, r3
 772 0186 40F20713 		movw	r3, #263
 773 018a 0093     		str	r3, [sp]
 774 018c 674B     		ldr	r3, .L51
 775 018e 2946     		mov	r1, r5
 776 0190 6B48     		ldr	r0, .L51+20
 777 0192 FFF7FEFF 		bl	atiny_printf
 778              	.L39:
 264:D:/iot/felix2/components/connectivity/agent_tiny/atiny_lwm2m\agenttiny.c ****         return ATINY_MALLOC_FAILED;
 779              		.loc 3 264 0 is_stmt 1
 780 0196 6FF00303 		mvn	r3, #3
 781 019a DEE0     		b	.L33
ARM GAS  C:\Users\91458\AppData\Local\Temp\ccYoNCPK.s 			page 28


 782              	.L38:
 265:D:/iot/felix2/components/connectivity/agent_tiny/atiny_lwm2m\agenttiny.c ****     }
 266:D:/iot/felix2/components/connectivity/agent_tiny/atiny_lwm2m\agenttiny.c **** 
 267:D:/iot/felix2/components/connectivity/agent_tiny/atiny_lwm2m\agenttiny.c ****     handle->obj_array[OBJ_ACCESS_CONTROL_INDEX] = acc_ctrl_create_object();
 783              		.loc 3 267 0
 784 019c FFF7FEFF 		bl	acc_ctrl_create_object
 785 01a0 0246     		mov	r2, r0
 786 01a2 7B68     		ldr	r3, [r7, #4]
 787 01a4 9A65     		str	r2, [r3, #88]
 268:D:/iot/felix2/components/connectivity/agent_tiny/atiny_lwm2m\agenttiny.c ****     if (NULL == handle->obj_array[OBJ_ACCESS_CONTROL_INDEX])
 788              		.loc 3 268 0
 789 01a6 7B68     		ldr	r3, [r7, #4]
 790 01a8 9B6D     		ldr	r3, [r3, #88]
 791 01aa 002B     		cmp	r3, #0
 792 01ac 18D1     		bne	.L40
 269:D:/iot/felix2/components/connectivity/agent_tiny/atiny_lwm2m\agenttiny.c ****     {
 270:D:/iot/felix2/components/connectivity/agent_tiny/atiny_lwm2m\agenttiny.c ****         ATINY_LOG(LOG_FATAL, "Failed to create access control object");
 793              		.loc 3 270 0
 794 01ae FFF7FEFF 		bl	atiny_get_log_level
 795 01b2 0346     		mov	r3, r0
 796 01b4 042B     		cmp	r3, #4
 797 01b6 10D8     		bhi	.L41
 798              		.loc 3 270 0 is_stmt 0 discriminator 1
 799 01b8 0420     		movs	r0, #4
 800 01ba FFF7FEFF 		bl	atiny_get_log_level_name
 801 01be 0546     		mov	r5, r0
 802 01c0 FFF7FEFF 		bl	atiny_gettime_ms
 803 01c4 0346     		mov	r3, r0
 804 01c6 0C46     		mov	r4, r1
 805 01c8 1A46     		mov	r2, r3
 806 01ca 4FF48773 		mov	r3, #270
 807 01ce 0093     		str	r3, [sp]
 808 01d0 564B     		ldr	r3, .L51
 809 01d2 2946     		mov	r1, r5
 810 01d4 5B48     		ldr	r0, .L51+24
 811 01d6 FFF7FEFF 		bl	atiny_printf
 812              	.L41:
 271:D:/iot/felix2/components/connectivity/agent_tiny/atiny_lwm2m\agenttiny.c ****         return ATINY_MALLOC_FAILED;
 813              		.loc 3 271 0 is_stmt 1
 814 01da 6FF00303 		mvn	r3, #3
 815 01de BCE0     		b	.L33
 816              	.L40:
 272:D:/iot/felix2/components/connectivity/agent_tiny/atiny_lwm2m\agenttiny.c ****     }
 273:D:/iot/felix2/components/connectivity/agent_tiny/atiny_lwm2m\agenttiny.c **** 
 274:D:/iot/felix2/components/connectivity/agent_tiny/atiny_lwm2m\agenttiny.c ****     handle->obj_array[OBJ_DEVICE_INDEX] = get_object_device(atiny_params, device_info->manufacturer
 817              		.loc 3 274 0
 818 01e0 BB68     		ldr	r3, [r7, #8]
 819 01e2 5B68     		ldr	r3, [r3, #4]
 820 01e4 1946     		mov	r1, r3
 821 01e6 F868     		ldr	r0, [r7, #12]
 822 01e8 FFF7FEFF 		bl	get_object_device
 823 01ec 0246     		mov	r2, r0
 824 01ee 7B68     		ldr	r3, [r7, #4]
 825 01f0 DA65     		str	r2, [r3, #92]
 275:D:/iot/felix2/components/connectivity/agent_tiny/atiny_lwm2m\agenttiny.c ****     if (NULL == handle->obj_array[OBJ_DEVICE_INDEX])
 826              		.loc 3 275 0
 827 01f2 7B68     		ldr	r3, [r7, #4]
ARM GAS  C:\Users\91458\AppData\Local\Temp\ccYoNCPK.s 			page 29


 828 01f4 DB6D     		ldr	r3, [r3, #92]
 829 01f6 002B     		cmp	r3, #0
 830 01f8 18D1     		bne	.L42
 276:D:/iot/felix2/components/connectivity/agent_tiny/atiny_lwm2m\agenttiny.c ****     {
 277:D:/iot/felix2/components/connectivity/agent_tiny/atiny_lwm2m\agenttiny.c ****         ATINY_LOG(LOG_FATAL, "Failed to create device object");
 831              		.loc 3 277 0
 832 01fa FFF7FEFF 		bl	atiny_get_log_level
 833 01fe 0346     		mov	r3, r0
 834 0200 042B     		cmp	r3, #4
 835 0202 10D8     		bhi	.L43
 836              		.loc 3 277 0 is_stmt 0 discriminator 1
 837 0204 0420     		movs	r0, #4
 838 0206 FFF7FEFF 		bl	atiny_get_log_level_name
 839 020a 0546     		mov	r5, r0
 840 020c FFF7FEFF 		bl	atiny_gettime_ms
 841 0210 0346     		mov	r3, r0
 842 0212 0C46     		mov	r4, r1
 843 0214 1A46     		mov	r2, r3
 844 0216 40F21513 		movw	r3, #277
 845 021a 0093     		str	r3, [sp]
 846 021c 434B     		ldr	r3, .L51
 847 021e 2946     		mov	r1, r5
 848 0220 4948     		ldr	r0, .L51+28
 849 0222 FFF7FEFF 		bl	atiny_printf
 850              	.L43:
 278:D:/iot/felix2/components/connectivity/agent_tiny/atiny_lwm2m\agenttiny.c ****         return ATINY_MALLOC_FAILED;
 851              		.loc 3 278 0 is_stmt 1
 852 0226 6FF00303 		mvn	r3, #3
 853 022a 96E0     		b	.L33
 854              	.L42:
 279:D:/iot/felix2/components/connectivity/agent_tiny/atiny_lwm2m\agenttiny.c ****     }
 280:D:/iot/felix2/components/connectivity/agent_tiny/atiny_lwm2m\agenttiny.c **** 
 281:D:/iot/felix2/components/connectivity/agent_tiny/atiny_lwm2m\agenttiny.c ****     handle->obj_array[OBJ_CONNECT_INDEX] = get_object_conn_m(atiny_params);
 855              		.loc 3 281 0
 856 022c F868     		ldr	r0, [r7, #12]
 857 022e FFF7FEFF 		bl	get_object_conn_m
 858 0232 0246     		mov	r2, r0
 859 0234 7B68     		ldr	r3, [r7, #4]
 860 0236 1A66     		str	r2, [r3, #96]
 282:D:/iot/felix2/components/connectivity/agent_tiny/atiny_lwm2m\agenttiny.c ****     if (NULL == handle->obj_array[OBJ_CONNECT_INDEX])
 861              		.loc 3 282 0
 862 0238 7B68     		ldr	r3, [r7, #4]
 863 023a 1B6E     		ldr	r3, [r3, #96]
 864 023c 002B     		cmp	r3, #0
 865 023e 18D1     		bne	.L44
 283:D:/iot/felix2/components/connectivity/agent_tiny/atiny_lwm2m\agenttiny.c ****     {
 284:D:/iot/felix2/components/connectivity/agent_tiny/atiny_lwm2m\agenttiny.c ****         ATINY_LOG(LOG_FATAL, "Failed to create connect object");
 866              		.loc 3 284 0
 867 0240 FFF7FEFF 		bl	atiny_get_log_level
 868 0244 0346     		mov	r3, r0
 869 0246 042B     		cmp	r3, #4
 870 0248 10D8     		bhi	.L45
 871              		.loc 3 284 0 is_stmt 0 discriminator 1
 872 024a 0420     		movs	r0, #4
 873 024c FFF7FEFF 		bl	atiny_get_log_level_name
 874 0250 0546     		mov	r5, r0
 875 0252 FFF7FEFF 		bl	atiny_gettime_ms
ARM GAS  C:\Users\91458\AppData\Local\Temp\ccYoNCPK.s 			page 30


 876 0256 0346     		mov	r3, r0
 877 0258 0C46     		mov	r4, r1
 878 025a 1A46     		mov	r2, r3
 879 025c 4FF48E73 		mov	r3, #284
 880 0260 0093     		str	r3, [sp]
 881 0262 324B     		ldr	r3, .L51
 882 0264 2946     		mov	r1, r5
 883 0266 3948     		ldr	r0, .L51+32
 884 0268 FFF7FEFF 		bl	atiny_printf
 885              	.L45:
 285:D:/iot/felix2/components/connectivity/agent_tiny/atiny_lwm2m\agenttiny.c ****         return ATINY_MALLOC_FAILED;
 886              		.loc 3 285 0 is_stmt 1
 887 026c 6FF00303 		mvn	r3, #3
 888 0270 73E0     		b	.L33
 889              	.L44:
 286:D:/iot/felix2/components/connectivity/agent_tiny/atiny_lwm2m\agenttiny.c ****     }
 287:D:/iot/felix2/components/connectivity/agent_tiny/atiny_lwm2m\agenttiny.c **** 
 288:D:/iot/felix2/components/connectivity/agent_tiny/atiny_lwm2m\agenttiny.c ****     handle->obj_array[OBJ_FIRMWARE_INDEX] = get_object_firmware(atiny_params);
 890              		.loc 3 288 0
 891 0272 F868     		ldr	r0, [r7, #12]
 892 0274 FFF7FEFF 		bl	get_object_firmware
 893 0278 0246     		mov	r2, r0
 894 027a 7B68     		ldr	r3, [r7, #4]
 895 027c 5A66     		str	r2, [r3, #100]
 289:D:/iot/felix2/components/connectivity/agent_tiny/atiny_lwm2m\agenttiny.c **** #ifdef CONFIG_FEATURE_FOTA
 290:D:/iot/felix2/components/connectivity/agent_tiny/atiny_lwm2m\agenttiny.c ****     if (NULL == handle->obj_array[OBJ_FIRMWARE_INDEX])
 291:D:/iot/felix2/components/connectivity/agent_tiny/atiny_lwm2m\agenttiny.c ****     {
 292:D:/iot/felix2/components/connectivity/agent_tiny/atiny_lwm2m\agenttiny.c ****         ATINY_LOG(LOG_FATAL, "Failed to create firmware object");
 293:D:/iot/felix2/components/connectivity/agent_tiny/atiny_lwm2m\agenttiny.c ****         return ATINY_MALLOC_FAILED;
 294:D:/iot/felix2/components/connectivity/agent_tiny/atiny_lwm2m\agenttiny.c ****     }
 295:D:/iot/felix2/components/connectivity/agent_tiny/atiny_lwm2m\agenttiny.c **** #endif
 296:D:/iot/felix2/components/connectivity/agent_tiny/atiny_lwm2m\agenttiny.c **** 
 297:D:/iot/felix2/components/connectivity/agent_tiny/atiny_lwm2m\agenttiny.c ****     handle->obj_array[OBJ_LOCATION_INDEX] = get_object_location();
 896              		.loc 3 297 0
 897 027e FFF7FEFF 		bl	get_object_location
 898 0282 0246     		mov	r2, r0
 899 0284 7B68     		ldr	r3, [r7, #4]
 900 0286 9A66     		str	r2, [r3, #104]
 298:D:/iot/felix2/components/connectivity/agent_tiny/atiny_lwm2m\agenttiny.c ****     if (NULL == handle->obj_array[OBJ_LOCATION_INDEX])
 901              		.loc 3 298 0
 902 0288 7B68     		ldr	r3, [r7, #4]
 903 028a 9B6E     		ldr	r3, [r3, #104]
 904 028c 002B     		cmp	r3, #0
 905 028e 18D1     		bne	.L46
 299:D:/iot/felix2/components/connectivity/agent_tiny/atiny_lwm2m\agenttiny.c ****     {
 300:D:/iot/felix2/components/connectivity/agent_tiny/atiny_lwm2m\agenttiny.c ****         ATINY_LOG(LOG_FATAL, "Failed to create location object");
 906              		.loc 3 300 0
 907 0290 FFF7FEFF 		bl	atiny_get_log_level
 908 0294 0346     		mov	r3, r0
 909 0296 042B     		cmp	r3, #4
 910 0298 10D8     		bhi	.L47
 911              		.loc 3 300 0 is_stmt 0 discriminator 1
 912 029a 0420     		movs	r0, #4
 913 029c FFF7FEFF 		bl	atiny_get_log_level_name
 914 02a0 0546     		mov	r5, r0
 915 02a2 FFF7FEFF 		bl	atiny_gettime_ms
 916 02a6 0346     		mov	r3, r0
ARM GAS  C:\Users\91458\AppData\Local\Temp\ccYoNCPK.s 			page 31


 917 02a8 0C46     		mov	r4, r1
 918 02aa 1A46     		mov	r2, r3
 919 02ac 4FF49673 		mov	r3, #300
 920 02b0 0093     		str	r3, [sp]
 921 02b2 1E4B     		ldr	r3, .L51
 922 02b4 2946     		mov	r1, r5
 923 02b6 2648     		ldr	r0, .L51+36
 924 02b8 FFF7FEFF 		bl	atiny_printf
 925              	.L47:
 301:D:/iot/felix2/components/connectivity/agent_tiny/atiny_lwm2m\agenttiny.c ****         return ATINY_MALLOC_FAILED;
 926              		.loc 3 301 0 is_stmt 1
 927 02bc 6FF00303 		mvn	r3, #3
 928 02c0 4BE0     		b	.L33
 929              	.L46:
 302:D:/iot/felix2/components/connectivity/agent_tiny/atiny_lwm2m\agenttiny.c ****     }
 303:D:/iot/felix2/components/connectivity/agent_tiny/atiny_lwm2m\agenttiny.c **** 
 304:D:/iot/felix2/components/connectivity/agent_tiny/atiny_lwm2m\agenttiny.c ****     handle->obj_array[OBJ_APP_INDEX] = get_binary_app_data_object(atiny_params);
 930              		.loc 3 304 0
 931 02c2 F868     		ldr	r0, [r7, #12]
 932 02c4 FFF7FEFF 		bl	get_binary_app_data_object
 933 02c8 0246     		mov	r2, r0
 934 02ca 7B68     		ldr	r3, [r7, #4]
 935 02cc DA66     		str	r2, [r3, #108]
 305:D:/iot/felix2/components/connectivity/agent_tiny/atiny_lwm2m\agenttiny.c ****     if (NULL == handle->obj_array[OBJ_APP_INDEX])
 936              		.loc 3 305 0
 937 02ce 7B68     		ldr	r3, [r7, #4]
 938 02d0 DB6E     		ldr	r3, [r3, #108]
 939 02d2 002B     		cmp	r3, #0
 940 02d4 18D1     		bne	.L48
 306:D:/iot/felix2/components/connectivity/agent_tiny/atiny_lwm2m\agenttiny.c ****     {
 307:D:/iot/felix2/components/connectivity/agent_tiny/atiny_lwm2m\agenttiny.c ****         ATINY_LOG(LOG_FATAL, "Failed to create app object");
 941              		.loc 3 307 0
 942 02d6 FFF7FEFF 		bl	atiny_get_log_level
 943 02da 0346     		mov	r3, r0
 944 02dc 042B     		cmp	r3, #4
 945 02de 10D8     		bhi	.L49
 946              		.loc 3 307 0 is_stmt 0 discriminator 1
 947 02e0 0420     		movs	r0, #4
 948 02e2 FFF7FEFF 		bl	atiny_get_log_level_name
 949 02e6 0546     		mov	r5, r0
 950 02e8 FFF7FEFF 		bl	atiny_gettime_ms
 951 02ec 0346     		mov	r3, r0
 952 02ee 0C46     		mov	r4, r1
 953 02f0 1A46     		mov	r2, r3
 954 02f2 40F23313 		movw	r3, #307
 955 02f6 0093     		str	r3, [sp]
 956 02f8 0C4B     		ldr	r3, .L51
 957 02fa 2946     		mov	r1, r5
 958 02fc 1548     		ldr	r0, .L51+40
 959 02fe FFF7FEFF 		bl	atiny_printf
 960              	.L49:
 308:D:/iot/felix2/components/connectivity/agent_tiny/atiny_lwm2m\agenttiny.c ****         return ATINY_MALLOC_FAILED;
 961              		.loc 3 308 0 is_stmt 1
 962 0302 6FF00303 		mvn	r3, #3
 963 0306 28E0     		b	.L33
 964              	.L48:
 309:D:/iot/felix2/components/connectivity/agent_tiny/atiny_lwm2m\agenttiny.c ****     }
ARM GAS  C:\Users\91458\AppData\Local\Temp\ccYoNCPK.s 			page 32


 310:D:/iot/felix2/components/connectivity/agent_tiny/atiny_lwm2m\agenttiny.c **** 
 311:D:/iot/felix2/components/connectivity/agent_tiny/atiny_lwm2m\agenttiny.c ****     result = lwm2m_configure(lwm2m_context, epname, NULL, NULL, OBJ_MAX_NUM, handle->obj_array);
 965              		.loc 3 311 0
 966 0308 7B68     		ldr	r3, [r7, #4]
 967 030a 5033     		adds	r3, r3, #80
 968 030c 0193     		str	r3, [sp, #4]
 969 030e 0823     		movs	r3, #8
 970 0310 0093     		str	r3, [sp]
 971 0312 0023     		movs	r3, #0
 972 0314 0022     		movs	r2, #0
 973 0316 F969     		ldr	r1, [r7, #28]
 974 0318 786A     		ldr	r0, [r7, #36]
 975 031a FFF7FEFF 		bl	lwm2m_configure
 976 031e 7861     		str	r0, [r7, #20]
 312:D:/iot/felix2/components/connectivity/agent_tiny/atiny_lwm2m\agenttiny.c ****     if (result != 0)
 977              		.loc 3 312 0
 978 0320 7B69     		ldr	r3, [r7, #20]
 979 0322 002B     		cmp	r3, #0
 980 0324 18D0     		beq	.L50
 313:D:/iot/felix2/components/connectivity/agent_tiny/atiny_lwm2m\agenttiny.c ****     {
 314:D:/iot/felix2/components/connectivity/agent_tiny/atiny_lwm2m\agenttiny.c ****         return ATINY_RESOURCE_NOT_FOUND;
 981              		.loc 3 314 0
 982 0326 6FF00403 		mvn	r3, #4
 983 032a 16E0     		b	.L33
 984              	.L52:
 985              		.align	2
 986              	.L51:
 987 032c 00000000 		.word	__FUNCTION__.11943
 988 0330 7C000000 		.word	.LC3
 989 0334 A8000000 		.word	.LC4
 990 0338 50000000 		.word	.LC2
 991 033c CC000000 		.word	.LC5
 992 0340 00010000 		.word	.LC6
 993 0344 34010000 		.word	.LC7
 994 0348 70010000 		.word	.LC8
 995 034c A4010000 		.word	.LC9
 996 0350 D8010000 		.word	.LC10
 997 0354 0C020000 		.word	.LC11
 998              	.L50:
 315:D:/iot/felix2/components/connectivity/agent_tiny/atiny_lwm2m\agenttiny.c ****     }
 316:D:/iot/felix2/components/connectivity/agent_tiny/atiny_lwm2m\agenttiny.c **** 
 317:D:/iot/felix2/components/connectivity/agent_tiny/atiny_lwm2m\agenttiny.c ****     return ATINY_OK;
 999              		.loc 3 317 0
 1000 0358 0023     		movs	r3, #0
 1001              	.L33:
 318:D:/iot/felix2/components/connectivity/agent_tiny/atiny_lwm2m\agenttiny.c **** }
 1002              		.loc 3 318 0
 1003 035a 1846     		mov	r0, r3
 1004 035c 2837     		adds	r7, r7, #40
 1005              	.LCFI31:
 1006              		.cfi_def_cfa_offset 16
 1007 035e BD46     		mov	sp, r7
 1008              	.LCFI32:
 1009              		.cfi_def_cfa_register 13
 1010              		@ sp needed
 1011 0360 B0BD     		pop	{r4, r5, r7, pc}
 1012              		.cfi_endproc
ARM GAS  C:\Users\91458\AppData\Local\Temp\ccYoNCPK.s 			page 33


 1013              	.LFE147:
 1015              		.section	.rodata
 1016 023a 0000     		.align	2
 1017              	.LC12:
 1018 023c 5B25735D 		.ascii	"[%s][%u][%s:%d] no packet arrived!\015\012\000"
 1018      5B25755D 
 1018      5B25733A 
 1018      25645D20 
 1018      6E6F2070 
 1019              		.section	.text.lwm2m_poll,"ax",%progbits
 1020              		.align	1
 1021              		.syntax unified
 1022              		.thumb
 1023              		.thumb_func
 1024              		.fpu fpv4-sp-d16
 1026              	lwm2m_poll:
 1027              	.LFB148:
 319:D:/iot/felix2/components/connectivity/agent_tiny/atiny_lwm2m\agenttiny.c **** 
 320:D:/iot/felix2/components/connectivity/agent_tiny/atiny_lwm2m\agenttiny.c **** static int lwm2m_poll(handle_data_t *phandle, uint32_t *timeout)
 321:D:/iot/felix2/components/connectivity/agent_tiny/atiny_lwm2m\agenttiny.c **** {
 1028              		.loc 3 321 0
 1029              		.cfi_startproc
 1030              		@ args = 0, pretend = 0, frame = 32
 1031              		@ frame_needed = 1, uses_anonymous_args = 0
 1032 0000 B0B5     		push	{r4, r5, r7, lr}
 1033              	.LCFI33:
 1034              		.cfi_def_cfa_offset 16
 1035              		.cfi_offset 4, -16
 1036              		.cfi_offset 5, -12
 1037              		.cfi_offset 7, -8
 1038              		.cfi_offset 14, -4
 1039 0002 8AB0     		sub	sp, sp, #40
 1040              	.LCFI34:
 1041              		.cfi_def_cfa_offset 56
 1042 0004 02AF     		add	r7, sp, #8
 1043              	.LCFI35:
 1044              		.cfi_def_cfa 7, 48
 1045 0006 7860     		str	r0, [r7, #4]
 1046 0008 3960     		str	r1, [r7]
 322:D:/iot/felix2/components/connectivity/agent_tiny/atiny_lwm2m\agenttiny.c ****     client_data_t *dataP;
 323:D:/iot/felix2/components/connectivity/agent_tiny/atiny_lwm2m\agenttiny.c ****     int numBytes;
 324:D:/iot/felix2/components/connectivity/agent_tiny/atiny_lwm2m\agenttiny.c ****     connection_t *connP;
 325:D:/iot/felix2/components/connectivity/agent_tiny/atiny_lwm2m\agenttiny.c ****     lwm2m_context_t *contextP = phandle->lwm2m_context;
 1047              		.loc 3 325 0
 1048 000a 7B68     		ldr	r3, [r7, #4]
 1049 000c 1B68     		ldr	r3, [r3]
 1050 000e BB61     		str	r3, [r7, #24]
 326:D:/iot/felix2/components/connectivity/agent_tiny/atiny_lwm2m\agenttiny.c ****     uint8_t *recv_buffer = phandle->recv_buffer;
 1051              		.loc 3 326 0
 1052 0010 7B68     		ldr	r3, [r7, #4]
 1053 0012 D3F88030 		ldr	r3, [r3, #128]
 1054 0016 7B61     		str	r3, [r7, #20]
 327:D:/iot/felix2/components/connectivity/agent_tiny/atiny_lwm2m\agenttiny.c **** 
 328:D:/iot/felix2/components/connectivity/agent_tiny/atiny_lwm2m\agenttiny.c ****     dataP = (client_data_t *)(contextP->userData);
 1055              		.loc 3 328 0
 1056 0018 BB69     		ldr	r3, [r7, #24]
 1057 001a 5B6B     		ldr	r3, [r3, #52]
ARM GAS  C:\Users\91458\AppData\Local\Temp\ccYoNCPK.s 			page 34


 1058 001c 3B61     		str	r3, [r7, #16]
 329:D:/iot/felix2/components/connectivity/agent_tiny/atiny_lwm2m\agenttiny.c ****     connP = dataP->connList;
 1059              		.loc 3 329 0
 1060 001e 3B69     		ldr	r3, [r7, #16]
 1061 0020 9B68     		ldr	r3, [r3, #8]
 1062 0022 FB61     		str	r3, [r7, #28]
 330:D:/iot/felix2/components/connectivity/agent_tiny/atiny_lwm2m\agenttiny.c **** 
 331:D:/iot/felix2/components/connectivity/agent_tiny/atiny_lwm2m\agenttiny.c ****     while (connP != NULL)
 1063              		.loc 3 331 0
 1064 0024 33E0     		b	.L54
 1065              	.L58:
 332:D:/iot/felix2/components/connectivity/agent_tiny/atiny_lwm2m\agenttiny.c ****     {
 333:D:/iot/felix2/components/connectivity/agent_tiny/atiny_lwm2m\agenttiny.c ****         numBytes = lwm2m_buffer_recv(connP, recv_buffer, MAX_PACKET_SIZE, *timeout);
 1066              		.loc 3 333 0
 1067 0026 3B68     		ldr	r3, [r7]
 1068 0028 1B68     		ldr	r3, [r3]
 1069 002a 4FF48062 		mov	r2, #1024
 1070 002e 7969     		ldr	r1, [r7, #20]
 1071 0030 F869     		ldr	r0, [r7, #28]
 1072 0032 FFF7FEFF 		bl	lwm2m_buffer_recv
 1073 0036 F860     		str	r0, [r7, #12]
 334:D:/iot/felix2/components/connectivity/agent_tiny/atiny_lwm2m\agenttiny.c ****         if (numBytes <= 0)
 1074              		.loc 3 334 0
 1075 0038 FB68     		ldr	r3, [r7, #12]
 1076 003a 002B     		cmp	r3, #0
 1077 003c 16DC     		bgt	.L55
 335:D:/iot/felix2/components/connectivity/agent_tiny/atiny_lwm2m\agenttiny.c ****         {
 336:D:/iot/felix2/components/connectivity/agent_tiny/atiny_lwm2m\agenttiny.c ****             ATINY_LOG(LOG_INFO, "no packet arrived!");
 1078              		.loc 3 336 0
 1079 003e FFF7FEFF 		bl	atiny_get_log_level
 1080 0042 0346     		mov	r3, r0
 1081 0044 012B     		cmp	r3, #1
 1082 0046 1FD8     		bhi	.L57
 1083              		.loc 3 336 0 is_stmt 0 discriminator 1
 1084 0048 0120     		movs	r0, #1
 1085 004a FFF7FEFF 		bl	atiny_get_log_level_name
 1086 004e 0546     		mov	r5, r0
 1087 0050 FFF7FEFF 		bl	atiny_gettime_ms
 1088 0054 0346     		mov	r3, r0
 1089 0056 0C46     		mov	r4, r1
 1090 0058 1A46     		mov	r2, r3
 1091 005a 4FF4A873 		mov	r3, #336
 1092 005e 0093     		str	r3, [sp]
 1093 0060 0F4B     		ldr	r3, .L60
 1094 0062 2946     		mov	r1, r5
 1095 0064 0F48     		ldr	r0, .L60+4
 1096 0066 FFF7FEFF 		bl	atiny_printf
 1097 006a 0DE0     		b	.L57
 1098              	.L55:
 337:D:/iot/felix2/components/connectivity/agent_tiny/atiny_lwm2m\agenttiny.c ****         }
 338:D:/iot/felix2/components/connectivity/agent_tiny/atiny_lwm2m\agenttiny.c ****         else
 339:D:/iot/felix2/components/connectivity/agent_tiny/atiny_lwm2m\agenttiny.c ****         {
 340:D:/iot/felix2/components/connectivity/agent_tiny/atiny_lwm2m\agenttiny.c ****             output_buffer(stderr, recv_buffer, numBytes, 0);
 1099              		.loc 3 340 0 is_stmt 1
 1100 006c 0E4B     		ldr	r3, .L60+8
 1101 006e 1B68     		ldr	r3, [r3]
 1102 0070 D868     		ldr	r0, [r3, #12]
ARM GAS  C:\Users\91458\AppData\Local\Temp\ccYoNCPK.s 			page 35


 1103 0072 0023     		movs	r3, #0
 1104 0074 FA68     		ldr	r2, [r7, #12]
 1105 0076 7969     		ldr	r1, [r7, #20]
 1106 0078 FFF7FEFF 		bl	output_buffer
 341:D:/iot/felix2/components/connectivity/agent_tiny/atiny_lwm2m\agenttiny.c ****             lwm2m_handle_packet(contextP, recv_buffer, numBytes, connP);
 1107              		.loc 3 341 0
 1108 007c FB69     		ldr	r3, [r7, #28]
 1109 007e FA68     		ldr	r2, [r7, #12]
 1110 0080 7969     		ldr	r1, [r7, #20]
 1111 0082 B869     		ldr	r0, [r7, #24]
 1112 0084 FFF7FEFF 		bl	lwm2m_handle_packet
 1113              	.L57:
 342:D:/iot/felix2/components/connectivity/agent_tiny/atiny_lwm2m\agenttiny.c ****         }
 343:D:/iot/felix2/components/connectivity/agent_tiny/atiny_lwm2m\agenttiny.c ****         connP = connP->next;
 1114              		.loc 3 343 0
 1115 0088 FB69     		ldr	r3, [r7, #28]
 1116 008a 1B68     		ldr	r3, [r3]
 1117 008c FB61     		str	r3, [r7, #28]
 1118              	.L54:
 331:D:/iot/felix2/components/connectivity/agent_tiny/atiny_lwm2m\agenttiny.c ****     {
 1119              		.loc 3 331 0
 1120 008e FB69     		ldr	r3, [r7, #28]
 1121 0090 002B     		cmp	r3, #0
 1122 0092 C8D1     		bne	.L58
 344:D:/iot/felix2/components/connectivity/agent_tiny/atiny_lwm2m\agenttiny.c ****     }
 345:D:/iot/felix2/components/connectivity/agent_tiny/atiny_lwm2m\agenttiny.c **** 
 346:D:/iot/felix2/components/connectivity/agent_tiny/atiny_lwm2m\agenttiny.c ****     return ATINY_OK;
 1123              		.loc 3 346 0
 1124 0094 0023     		movs	r3, #0
 347:D:/iot/felix2/components/connectivity/agent_tiny/atiny_lwm2m\agenttiny.c **** }
 1125              		.loc 3 347 0
 1126 0096 1846     		mov	r0, r3
 1127 0098 2037     		adds	r7, r7, #32
 1128              	.LCFI36:
 1129              		.cfi_def_cfa_offset 16
 1130 009a BD46     		mov	sp, r7
 1131              	.LCFI37:
 1132              		.cfi_def_cfa_register 13
 1133              		@ sp needed
 1134 009c B0BD     		pop	{r4, r5, r7, pc}
 1135              	.L61:
 1136 009e 00BF     		.align	2
 1137              	.L60:
 1138 00a0 00000000 		.word	__FUNCTION__.11953
 1139 00a4 3C020000 		.word	.LC12
 1140 00a8 00000000 		.word	_impure_ptr
 1141              		.cfi_endproc
 1142              	.LFE148:
 1144              		.section	.text.atiny_destroy,"ax",%progbits
 1145              		.align	1
 1146              		.global	atiny_destroy
 1147              		.syntax unified
 1148              		.thumb
 1149              		.thumb_func
 1150              		.fpu fpv4-sp-d16
 1152              	atiny_destroy:
 1153              	.LFB149:
ARM GAS  C:\Users\91458\AppData\Local\Temp\ccYoNCPK.s 			page 36


 348:D:/iot/felix2/components/connectivity/agent_tiny/atiny_lwm2m\agenttiny.c **** 
 349:D:/iot/felix2/components/connectivity/agent_tiny/atiny_lwm2m\agenttiny.c **** void atiny_destroy(void *handle)
 350:D:/iot/felix2/components/connectivity/agent_tiny/atiny_lwm2m\agenttiny.c **** {
 1154              		.loc 3 350 0
 1155              		.cfi_startproc
 1156              		@ args = 0, pretend = 0, frame = 16
 1157              		@ frame_needed = 1, uses_anonymous_args = 0
 1158 0000 80B5     		push	{r7, lr}
 1159              	.LCFI38:
 1160              		.cfi_def_cfa_offset 8
 1161              		.cfi_offset 7, -8
 1162              		.cfi_offset 14, -4
 1163 0002 84B0     		sub	sp, sp, #16
 1164              	.LCFI39:
 1165              		.cfi_def_cfa_offset 24
 1166 0004 00AF     		add	r7, sp, #0
 1167              	.LCFI40:
 1168              		.cfi_def_cfa_register 7
 1169 0006 7860     		str	r0, [r7, #4]
 351:D:/iot/felix2/components/connectivity/agent_tiny/atiny_lwm2m\agenttiny.c ****     handle_data_t *handle_data = (handle_data_t *)handle;
 1170              		.loc 3 351 0
 1171 0008 7B68     		ldr	r3, [r7, #4]
 1172 000a FB60     		str	r3, [r7, #12]
 352:D:/iot/felix2/components/connectivity/agent_tiny/atiny_lwm2m\agenttiny.c **** 
 353:D:/iot/felix2/components/connectivity/agent_tiny/atiny_lwm2m\agenttiny.c ****     if (handle_data == NULL)
 1173              		.loc 3 353 0
 1174 000c FB68     		ldr	r3, [r7, #12]
 1175 000e 002B     		cmp	r3, #0
 1176 0010 6ED0     		beq	.L76
 354:D:/iot/felix2/components/connectivity/agent_tiny/atiny_lwm2m\agenttiny.c ****     {
 355:D:/iot/felix2/components/connectivity/agent_tiny/atiny_lwm2m\agenttiny.c ****         return;
 356:D:/iot/felix2/components/connectivity/agent_tiny/atiny_lwm2m\agenttiny.c ****     }
 357:D:/iot/felix2/components/connectivity/agent_tiny/atiny_lwm2m\agenttiny.c **** #ifdef CONFIG_FEATURE_FOTA
 358:D:/iot/felix2/components/connectivity/agent_tiny/atiny_lwm2m\agenttiny.c ****     atiny_fota_manager_destroy(atiny_fota_manager_get_instance());
 359:D:/iot/felix2/components/connectivity/agent_tiny/atiny_lwm2m\agenttiny.c **** #endif
 360:D:/iot/felix2/components/connectivity/agent_tiny/atiny_lwm2m\agenttiny.c ****     if(handle_data->recv_buffer != NULL)
 1177              		.loc 3 360 0
 1178 0012 FB68     		ldr	r3, [r7, #12]
 1179 0014 D3F88030 		ldr	r3, [r3, #128]
 1180 0018 002B     		cmp	r3, #0
 1181 001a 05D0     		beq	.L65
 361:D:/iot/felix2/components/connectivity/agent_tiny/atiny_lwm2m\agenttiny.c ****     {
 362:D:/iot/felix2/components/connectivity/agent_tiny/atiny_lwm2m\agenttiny.c ****         lwm2m_free(handle_data->recv_buffer);
 1182              		.loc 3 362 0
 1183 001c FB68     		ldr	r3, [r7, #12]
 1184 001e D3F88030 		ldr	r3, [r3, #128]
 1185 0022 1846     		mov	r0, r3
 1186 0024 FFF7FEFF 		bl	lwm2m_free
 1187              	.L65:
 363:D:/iot/felix2/components/connectivity/agent_tiny/atiny_lwm2m\agenttiny.c ****     }
 364:D:/iot/felix2/components/connectivity/agent_tiny/atiny_lwm2m\agenttiny.c ****     if (handle_data->obj_array[OBJ_SECURITY_INDEX] != NULL)
 1188              		.loc 3 364 0
 1189 0028 FB68     		ldr	r3, [r7, #12]
 1190 002a 1B6D     		ldr	r3, [r3, #80]
 1191 002c 002B     		cmp	r3, #0
 1192 002e 04D0     		beq	.L66
 365:D:/iot/felix2/components/connectivity/agent_tiny/atiny_lwm2m\agenttiny.c ****     {
ARM GAS  C:\Users\91458\AppData\Local\Temp\ccYoNCPK.s 			page 37


 366:D:/iot/felix2/components/connectivity/agent_tiny/atiny_lwm2m\agenttiny.c ****         clean_security_object(handle_data->obj_array[OBJ_SECURITY_INDEX]);
 1193              		.loc 3 366 0
 1194 0030 FB68     		ldr	r3, [r7, #12]
 1195 0032 1B6D     		ldr	r3, [r3, #80]
 1196 0034 1846     		mov	r0, r3
 1197 0036 FFF7FEFF 		bl	clean_security_object
 1198              	.L66:
 367:D:/iot/felix2/components/connectivity/agent_tiny/atiny_lwm2m\agenttiny.c ****     }
 368:D:/iot/felix2/components/connectivity/agent_tiny/atiny_lwm2m\agenttiny.c **** 
 369:D:/iot/felix2/components/connectivity/agent_tiny/atiny_lwm2m\agenttiny.c ****     if (handle_data->obj_array[OBJ_SERVER_INDEX] != NULL)
 1199              		.loc 3 369 0
 1200 003a FB68     		ldr	r3, [r7, #12]
 1201 003c 5B6D     		ldr	r3, [r3, #84]
 1202 003e 002B     		cmp	r3, #0
 1203 0040 04D0     		beq	.L67
 370:D:/iot/felix2/components/connectivity/agent_tiny/atiny_lwm2m\agenttiny.c ****     {
 371:D:/iot/felix2/components/connectivity/agent_tiny/atiny_lwm2m\agenttiny.c ****         clean_server_object(handle_data->obj_array[OBJ_SERVER_INDEX]);
 1204              		.loc 3 371 0
 1205 0042 FB68     		ldr	r3, [r7, #12]
 1206 0044 5B6D     		ldr	r3, [r3, #84]
 1207 0046 1846     		mov	r0, r3
 1208 0048 FFF7FEFF 		bl	clean_server_object
 1209              	.L67:
 372:D:/iot/felix2/components/connectivity/agent_tiny/atiny_lwm2m\agenttiny.c ****     }
 373:D:/iot/felix2/components/connectivity/agent_tiny/atiny_lwm2m\agenttiny.c **** 
 374:D:/iot/felix2/components/connectivity/agent_tiny/atiny_lwm2m\agenttiny.c ****     if (handle_data->obj_array[OBJ_ACCESS_CONTROL_INDEX] != NULL)
 1210              		.loc 3 374 0
 1211 004c FB68     		ldr	r3, [r7, #12]
 1212 004e 9B6D     		ldr	r3, [r3, #88]
 1213 0050 002B     		cmp	r3, #0
 1214 0052 04D0     		beq	.L68
 375:D:/iot/felix2/components/connectivity/agent_tiny/atiny_lwm2m\agenttiny.c ****     {
 376:D:/iot/felix2/components/connectivity/agent_tiny/atiny_lwm2m\agenttiny.c ****         acl_ctrl_free_object(handle_data->obj_array[OBJ_ACCESS_CONTROL_INDEX]);
 1215              		.loc 3 376 0
 1216 0054 FB68     		ldr	r3, [r7, #12]
 1217 0056 9B6D     		ldr	r3, [r3, #88]
 1218 0058 1846     		mov	r0, r3
 1219 005a FFF7FEFF 		bl	acl_ctrl_free_object
 1220              	.L68:
 377:D:/iot/felix2/components/connectivity/agent_tiny/atiny_lwm2m\agenttiny.c ****     }
 378:D:/iot/felix2/components/connectivity/agent_tiny/atiny_lwm2m\agenttiny.c **** 
 379:D:/iot/felix2/components/connectivity/agent_tiny/atiny_lwm2m\agenttiny.c ****     if (handle_data->obj_array[OBJ_DEVICE_INDEX] != NULL)
 1221              		.loc 3 379 0
 1222 005e FB68     		ldr	r3, [r7, #12]
 1223 0060 DB6D     		ldr	r3, [r3, #92]
 1224 0062 002B     		cmp	r3, #0
 1225 0064 04D0     		beq	.L69
 380:D:/iot/felix2/components/connectivity/agent_tiny/atiny_lwm2m\agenttiny.c ****     {
 381:D:/iot/felix2/components/connectivity/agent_tiny/atiny_lwm2m\agenttiny.c ****         free_object_device(handle_data->obj_array[OBJ_DEVICE_INDEX]);
 1226              		.loc 3 381 0
 1227 0066 FB68     		ldr	r3, [r7, #12]
 1228 0068 DB6D     		ldr	r3, [r3, #92]
 1229 006a 1846     		mov	r0, r3
 1230 006c FFF7FEFF 		bl	free_object_device
 1231              	.L69:
 382:D:/iot/felix2/components/connectivity/agent_tiny/atiny_lwm2m\agenttiny.c ****     }
 383:D:/iot/felix2/components/connectivity/agent_tiny/atiny_lwm2m\agenttiny.c **** 
ARM GAS  C:\Users\91458\AppData\Local\Temp\ccYoNCPK.s 			page 38


 384:D:/iot/felix2/components/connectivity/agent_tiny/atiny_lwm2m\agenttiny.c ****     if (handle_data->obj_array[OBJ_CONNECT_INDEX] != NULL)
 1232              		.loc 3 384 0
 1233 0070 FB68     		ldr	r3, [r7, #12]
 1234 0072 1B6E     		ldr	r3, [r3, #96]
 1235 0074 002B     		cmp	r3, #0
 1236 0076 04D0     		beq	.L70
 385:D:/iot/felix2/components/connectivity/agent_tiny/atiny_lwm2m\agenttiny.c ****     {
 386:D:/iot/felix2/components/connectivity/agent_tiny/atiny_lwm2m\agenttiny.c ****         free_object_conn_m(handle_data->obj_array[OBJ_CONNECT_INDEX]);
 1237              		.loc 3 386 0
 1238 0078 FB68     		ldr	r3, [r7, #12]
 1239 007a 1B6E     		ldr	r3, [r3, #96]
 1240 007c 1846     		mov	r0, r3
 1241 007e FFF7FEFF 		bl	free_object_conn_m
 1242              	.L70:
 387:D:/iot/felix2/components/connectivity/agent_tiny/atiny_lwm2m\agenttiny.c ****     }
 388:D:/iot/felix2/components/connectivity/agent_tiny/atiny_lwm2m\agenttiny.c **** 
 389:D:/iot/felix2/components/connectivity/agent_tiny/atiny_lwm2m\agenttiny.c ****     if (handle_data->obj_array[OBJ_FIRMWARE_INDEX] != NULL)
 1243              		.loc 3 389 0
 1244 0082 FB68     		ldr	r3, [r7, #12]
 1245 0084 5B6E     		ldr	r3, [r3, #100]
 1246 0086 002B     		cmp	r3, #0
 1247 0088 04D0     		beq	.L71
 390:D:/iot/felix2/components/connectivity/agent_tiny/atiny_lwm2m\agenttiny.c ****     {
 391:D:/iot/felix2/components/connectivity/agent_tiny/atiny_lwm2m\agenttiny.c ****         free_object_firmware(handle_data->obj_array[OBJ_FIRMWARE_INDEX]);
 1248              		.loc 3 391 0
 1249 008a FB68     		ldr	r3, [r7, #12]
 1250 008c 5B6E     		ldr	r3, [r3, #100]
 1251 008e 1846     		mov	r0, r3
 1252 0090 FFF7FEFF 		bl	free_object_firmware
 1253              	.L71:
 392:D:/iot/felix2/components/connectivity/agent_tiny/atiny_lwm2m\agenttiny.c ****     }
 393:D:/iot/felix2/components/connectivity/agent_tiny/atiny_lwm2m\agenttiny.c **** 
 394:D:/iot/felix2/components/connectivity/agent_tiny/atiny_lwm2m\agenttiny.c ****     if (handle_data->obj_array[OBJ_LOCATION_INDEX] != NULL)
 1254              		.loc 3 394 0
 1255 0094 FB68     		ldr	r3, [r7, #12]
 1256 0096 9B6E     		ldr	r3, [r3, #104]
 1257 0098 002B     		cmp	r3, #0
 1258 009a 04D0     		beq	.L72
 395:D:/iot/felix2/components/connectivity/agent_tiny/atiny_lwm2m\agenttiny.c ****     {
 396:D:/iot/felix2/components/connectivity/agent_tiny/atiny_lwm2m\agenttiny.c ****         free_object_location(handle_data->obj_array[OBJ_LOCATION_INDEX]);
 1259              		.loc 3 396 0
 1260 009c FB68     		ldr	r3, [r7, #12]
 1261 009e 9B6E     		ldr	r3, [r3, #104]
 1262 00a0 1846     		mov	r0, r3
 1263 00a2 FFF7FEFF 		bl	free_object_location
 1264              	.L72:
 397:D:/iot/felix2/components/connectivity/agent_tiny/atiny_lwm2m\agenttiny.c ****     }
 398:D:/iot/felix2/components/connectivity/agent_tiny/atiny_lwm2m\agenttiny.c **** 
 399:D:/iot/felix2/components/connectivity/agent_tiny/atiny_lwm2m\agenttiny.c ****     if (handle_data->obj_array[OBJ_APP_INDEX] != NULL)
 1265              		.loc 3 399 0
 1266 00a6 FB68     		ldr	r3, [r7, #12]
 1267 00a8 DB6E     		ldr	r3, [r3, #108]
 1268 00aa 002B     		cmp	r3, #0
 1269 00ac 04D0     		beq	.L73
 400:D:/iot/felix2/components/connectivity/agent_tiny/atiny_lwm2m\agenttiny.c ****     {
 401:D:/iot/felix2/components/connectivity/agent_tiny/atiny_lwm2m\agenttiny.c ****         free_binary_app_data_object(handle_data->obj_array[OBJ_APP_INDEX]);
 1270              		.loc 3 401 0
ARM GAS  C:\Users\91458\AppData\Local\Temp\ccYoNCPK.s 			page 39


 1271 00ae FB68     		ldr	r3, [r7, #12]
 1272 00b0 DB6E     		ldr	r3, [r3, #108]
 1273 00b2 1846     		mov	r0, r3
 1274 00b4 FFF7FEFF 		bl	free_binary_app_data_object
 1275              	.L73:
 402:D:/iot/felix2/components/connectivity/agent_tiny/atiny_lwm2m\agenttiny.c ****     }
 403:D:/iot/felix2/components/connectivity/agent_tiny/atiny_lwm2m\agenttiny.c ****     atiny_destroy_rpt();
 1276              		.loc 3 403 0
 1277 00b8 FFF7FEFF 		bl	atiny_destroy_rpt
 404:D:/iot/felix2/components/connectivity/agent_tiny/atiny_lwm2m\agenttiny.c **** 
 405:D:/iot/felix2/components/connectivity/agent_tiny/atiny_lwm2m\agenttiny.c ****     if (handle_data->lwm2m_context != NULL)
 1278              		.loc 3 405 0
 1279 00bc FB68     		ldr	r3, [r7, #12]
 1280 00be 1B68     		ldr	r3, [r3]
 1281 00c0 002B     		cmp	r3, #0
 1282 00c2 0FD0     		beq	.L74
 406:D:/iot/felix2/components/connectivity/agent_tiny/atiny_lwm2m\agenttiny.c ****     {
 407:D:/iot/felix2/components/connectivity/agent_tiny/atiny_lwm2m\agenttiny.c ****         if (handle_data->lwm2m_context->observe_mutex != NULL)
 1283              		.loc 3 407 0
 1284 00c4 FB68     		ldr	r3, [r7, #12]
 1285 00c6 1B68     		ldr	r3, [r3]
 1286 00c8 1B6A     		ldr	r3, [r3, #32]
 1287 00ca 002B     		cmp	r3, #0
 1288 00cc 05D0     		beq	.L75
 408:D:/iot/felix2/components/connectivity/agent_tiny/atiny_lwm2m\agenttiny.c ****         {
 409:D:/iot/felix2/components/connectivity/agent_tiny/atiny_lwm2m\agenttiny.c ****             atiny_mutex_destroy(handle_data->lwm2m_context->observe_mutex);
 1289              		.loc 3 409 0
 1290 00ce FB68     		ldr	r3, [r7, #12]
 1291 00d0 1B68     		ldr	r3, [r3]
 1292 00d2 1B6A     		ldr	r3, [r3, #32]
 1293 00d4 1846     		mov	r0, r3
 1294 00d6 FFF7FEFF 		bl	atiny_mutex_destroy
 1295              	.L75:
 410:D:/iot/felix2/components/connectivity/agent_tiny/atiny_lwm2m\agenttiny.c ****         }
 411:D:/iot/felix2/components/connectivity/agent_tiny/atiny_lwm2m\agenttiny.c ****         lwm2m_close(handle_data->lwm2m_context);
 1296              		.loc 3 411 0
 1297 00da FB68     		ldr	r3, [r7, #12]
 1298 00dc 1B68     		ldr	r3, [r3]
 1299 00de 1846     		mov	r0, r3
 1300 00e0 FFF7FEFF 		bl	lwm2m_close
 1301              	.L74:
 412:D:/iot/felix2/components/connectivity/agent_tiny/atiny_lwm2m\agenttiny.c ****     }
 413:D:/iot/felix2/components/connectivity/agent_tiny/atiny_lwm2m\agenttiny.c ****     atiny_mutex_unlock(handle_data->quit_sem);
 1302              		.loc 3 413 0
 1303 00e4 FB68     		ldr	r3, [r7, #12]
 1304 00e6 9B6F     		ldr	r3, [r3, #120]
 1305 00e8 1846     		mov	r0, r3
 1306 00ea FFF7FEFF 		bl	atiny_mutex_unlock
 1307 00ee 00E0     		b	.L62
 1308              	.L76:
 355:D:/iot/felix2/components/connectivity/agent_tiny/atiny_lwm2m\agenttiny.c ****     }
 1309              		.loc 3 355 0
 1310 00f0 00BF     		nop
 1311              	.L62:
 414:D:/iot/felix2/components/connectivity/agent_tiny/atiny_lwm2m\agenttiny.c **** }
 1312              		.loc 3 414 0
 1313 00f2 1037     		adds	r7, r7, #16
ARM GAS  C:\Users\91458\AppData\Local\Temp\ccYoNCPK.s 			page 40


 1314              	.LCFI41:
 1315              		.cfi_def_cfa_offset 8
 1316 00f4 BD46     		mov	sp, r7
 1317              	.LCFI42:
 1318              		.cfi_def_cfa_register 13
 1319              		@ sp needed
 1320 00f6 80BD     		pop	{r7, pc}
 1321              		.cfi_endproc
 1322              	.LFE149:
 1324              		.section	.text.atiny_event_handle,"ax",%progbits
 1325              		.align	1
 1326              		.global	atiny_event_handle
 1327              		.syntax unified
 1328              		.thumb
 1329              		.thumb_func
 1330              		.fpu fpv4-sp-d16
 1332              	atiny_event_handle:
 1333              	.LFB150:
 415:D:/iot/felix2/components/connectivity/agent_tiny/atiny_lwm2m\agenttiny.c **** 
 416:D:/iot/felix2/components/connectivity/agent_tiny/atiny_lwm2m\agenttiny.c **** void atiny_event_handle(module_type_t type, int code, const char *arg, int arg_len)
 417:D:/iot/felix2/components/connectivity/agent_tiny/atiny_lwm2m\agenttiny.c **** {
 1334              		.loc 3 417 0
 1335              		.cfi_startproc
 1336              		@ args = 0, pretend = 0, frame = 24
 1337              		@ frame_needed = 1, uses_anonymous_args = 0
 1338 0000 80B5     		push	{r7, lr}
 1339              	.LCFI43:
 1340              		.cfi_def_cfa_offset 8
 1341              		.cfi_offset 7, -8
 1342              		.cfi_offset 14, -4
 1343 0002 86B0     		sub	sp, sp, #24
 1344              	.LCFI44:
 1345              		.cfi_def_cfa_offset 32
 1346 0004 00AF     		add	r7, sp, #0
 1347              	.LCFI45:
 1348              		.cfi_def_cfa_register 7
 1349 0006 B960     		str	r1, [r7, #8]
 1350 0008 7A60     		str	r2, [r7, #4]
 1351 000a 3B60     		str	r3, [r7]
 1352 000c 0346     		mov	r3, r0
 1353 000e FB73     		strb	r3, [r7, #15]
 418:D:/iot/felix2/components/connectivity/agent_tiny/atiny_lwm2m\agenttiny.c ****     switch (type)
 1354              		.loc 3 418 0
 1355 0010 FB7B     		ldrb	r3, [r7, #15]	@ zero_extendqisi2
 1356 0012 012B     		cmp	r3, #1
 1357 0014 46D0     		beq	.L88
 1358 0016 022B     		cmp	r3, #2
 1359 0018 14D0     		beq	.L80
 1360 001a 002B     		cmp	r3, #0
 1361 001c 00D0     		beq	.L81
 419:D:/iot/felix2/components/connectivity/agent_tiny/atiny_lwm2m\agenttiny.c ****     {
 420:D:/iot/felix2/components/connectivity/agent_tiny/atiny_lwm2m\agenttiny.c ****     case MODULE_LWM2M:
 421:D:/iot/felix2/components/connectivity/agent_tiny/atiny_lwm2m\agenttiny.c ****     {
 422:D:/iot/felix2/components/connectivity/agent_tiny/atiny_lwm2m\agenttiny.c ****         if (code == STATE_REGISTERED)
 423:D:/iot/felix2/components/connectivity/agent_tiny/atiny_lwm2m\agenttiny.c ****         {
 424:D:/iot/felix2/components/connectivity/agent_tiny/atiny_lwm2m\agenttiny.c ****             atiny_event_notify(ATINY_REG_OK, NULL, 0);
 425:D:/iot/felix2/components/connectivity/agent_tiny/atiny_lwm2m\agenttiny.c **** #ifdef CONFIG_FEATURE_FOTA
ARM GAS  C:\Users\91458\AppData\Local\Temp\ccYoNCPK.s 			page 41


 426:D:/iot/felix2/components/connectivity/agent_tiny/atiny_lwm2m\agenttiny.c ****             (void)atiny_fota_manager_repot_result(atiny_fota_manager_get_instance());
 427:D:/iot/felix2/components/connectivity/agent_tiny/atiny_lwm2m\agenttiny.c **** #endif
 428:D:/iot/felix2/components/connectivity/agent_tiny/atiny_lwm2m\agenttiny.c ****         }
 429:D:/iot/felix2/components/connectivity/agent_tiny/atiny_lwm2m\agenttiny.c ****         else if (code == STATE_REG_FAILED)
 430:D:/iot/felix2/components/connectivity/agent_tiny/atiny_lwm2m\agenttiny.c ****         {
 431:D:/iot/felix2/components/connectivity/agent_tiny/atiny_lwm2m\agenttiny.c ****             atiny_event_notify(ATINY_REG_FAIL, NULL, 0);
 432:D:/iot/felix2/components/connectivity/agent_tiny/atiny_lwm2m\agenttiny.c **** 
 433:D:/iot/felix2/components/connectivity/agent_tiny/atiny_lwm2m\agenttiny.c ****         }
 434:D:/iot/felix2/components/connectivity/agent_tiny/atiny_lwm2m\agenttiny.c ****         break;
 435:D:/iot/felix2/components/connectivity/agent_tiny/atiny_lwm2m\agenttiny.c ****     }
 436:D:/iot/felix2/components/connectivity/agent_tiny/atiny_lwm2m\agenttiny.c ****     case MODULE_NET:
 437:D:/iot/felix2/components/connectivity/agent_tiny/atiny_lwm2m\agenttiny.c ****     {
 438:D:/iot/felix2/components/connectivity/agent_tiny/atiny_lwm2m\agenttiny.c ****         break;
 439:D:/iot/felix2/components/connectivity/agent_tiny/atiny_lwm2m\agenttiny.c ****     }
 440:D:/iot/felix2/components/connectivity/agent_tiny/atiny_lwm2m\agenttiny.c ****     case MODULE_URI:
 441:D:/iot/felix2/components/connectivity/agent_tiny/atiny_lwm2m\agenttiny.c ****     {
 442:D:/iot/felix2/components/connectivity/agent_tiny/atiny_lwm2m\agenttiny.c ****         if ((arg == NULL) || (arg_len < sizeof(lwm2m_uri_t)))
 443:D:/iot/felix2/components/connectivity/agent_tiny/atiny_lwm2m\agenttiny.c ****         {
 444:D:/iot/felix2/components/connectivity/agent_tiny/atiny_lwm2m\agenttiny.c ****             break;
 445:D:/iot/felix2/components/connectivity/agent_tiny/atiny_lwm2m\agenttiny.c ****         }
 446:D:/iot/felix2/components/connectivity/agent_tiny/atiny_lwm2m\agenttiny.c **** 
 447:D:/iot/felix2/components/connectivity/agent_tiny/atiny_lwm2m\agenttiny.c ****         if (code == OBSERVE_UNSUBSCRIBE)
 448:D:/iot/felix2/components/connectivity/agent_tiny/atiny_lwm2m\agenttiny.c ****         {
 449:D:/iot/felix2/components/connectivity/agent_tiny/atiny_lwm2m\agenttiny.c ****             if (dm_isUriOpaqueHandle((lwm2m_uri_t *)arg))
 450:D:/iot/felix2/components/connectivity/agent_tiny/atiny_lwm2m\agenttiny.c ****             {
 451:D:/iot/felix2/components/connectivity/agent_tiny/atiny_lwm2m\agenttiny.c ****                 atiny_report_type_e rpt_type = APP_DATA;
 452:D:/iot/felix2/components/connectivity/agent_tiny/atiny_lwm2m\agenttiny.c ****                 atiny_event_notify(ATINY_DATA_UNSUBSCRIBLE, (char *)&rpt_type, sizeof(rpt_type));
 453:D:/iot/felix2/components/connectivity/agent_tiny/atiny_lwm2m\agenttiny.c ****             }
 454:D:/iot/felix2/components/connectivity/agent_tiny/atiny_lwm2m\agenttiny.c ****             (void)atiny_clear_rpt_data((lwm2m_uri_t *)arg, SENT_FAIL);
 455:D:/iot/felix2/components/connectivity/agent_tiny/atiny_lwm2m\agenttiny.c ****         }
 456:D:/iot/felix2/components/connectivity/agent_tiny/atiny_lwm2m\agenttiny.c ****         else if (code == OBSERVE_SUBSCRIBE)
 457:D:/iot/felix2/components/connectivity/agent_tiny/atiny_lwm2m\agenttiny.c ****         {
 458:D:/iot/felix2/components/connectivity/agent_tiny/atiny_lwm2m\agenttiny.c ****             if (dm_isUriOpaqueHandle((lwm2m_uri_t *)arg))
 459:D:/iot/felix2/components/connectivity/agent_tiny/atiny_lwm2m\agenttiny.c ****             {
 460:D:/iot/felix2/components/connectivity/agent_tiny/atiny_lwm2m\agenttiny.c ****                 atiny_report_type_e rpt_type = APP_DATA;
 461:D:/iot/felix2/components/connectivity/agent_tiny/atiny_lwm2m\agenttiny.c ****                 atiny_event_notify(ATINY_DATA_SUBSCRIBLE, (char *)&rpt_type, sizeof(rpt_type));
 462:D:/iot/felix2/components/connectivity/agent_tiny/atiny_lwm2m\agenttiny.c ****             }
 463:D:/iot/felix2/components/connectivity/agent_tiny/atiny_lwm2m\agenttiny.c ****         }
 464:D:/iot/felix2/components/connectivity/agent_tiny/atiny_lwm2m\agenttiny.c **** 
 465:D:/iot/felix2/components/connectivity/agent_tiny/atiny_lwm2m\agenttiny.c ****         break;
 466:D:/iot/felix2/components/connectivity/agent_tiny/atiny_lwm2m\agenttiny.c ****     }
 467:D:/iot/felix2/components/connectivity/agent_tiny/atiny_lwm2m\agenttiny.c ****     default:
 468:D:/iot/felix2/components/connectivity/agent_tiny/atiny_lwm2m\agenttiny.c ****     {
 469:D:/iot/felix2/components/connectivity/agent_tiny/atiny_lwm2m\agenttiny.c ****         break;
 1362              		.loc 3 469 0
 1363 001e 46E0     		b	.L84
 1364              	.L81:
 422:D:/iot/felix2/components/connectivity/agent_tiny/atiny_lwm2m\agenttiny.c ****         {
 1365              		.loc 3 422 0
 1366 0020 BB68     		ldr	r3, [r7, #8]
 1367 0022 022B     		cmp	r3, #2
 1368 0024 05D1     		bne	.L82
 424:D:/iot/felix2/components/connectivity/agent_tiny/atiny_lwm2m\agenttiny.c **** #ifdef CONFIG_FEATURE_FOTA
 1369              		.loc 3 424 0
 1370 0026 0022     		movs	r2, #0
 1371 0028 0021     		movs	r1, #0
 1372 002a 0020     		movs	r0, #0
ARM GAS  C:\Users\91458\AppData\Local\Temp\ccYoNCPK.s 			page 42


 1373 002c FFF7FEFF 		bl	atiny_event_notify
 434:D:/iot/felix2/components/connectivity/agent_tiny/atiny_lwm2m\agenttiny.c ****     }
 1374              		.loc 3 434 0
 1375 0030 3AE0     		b	.L89
 1376              	.L82:
 429:D:/iot/felix2/components/connectivity/agent_tiny/atiny_lwm2m\agenttiny.c ****         {
 1377              		.loc 3 429 0
 1378 0032 BB68     		ldr	r3, [r7, #8]
 1379 0034 032B     		cmp	r3, #3
 1380 0036 37D1     		bne	.L89
 431:D:/iot/felix2/components/connectivity/agent_tiny/atiny_lwm2m\agenttiny.c **** 
 1381              		.loc 3 431 0
 1382 0038 0022     		movs	r2, #0
 1383 003a 0021     		movs	r1, #0
 1384 003c 0120     		movs	r0, #1
 1385 003e FFF7FEFF 		bl	atiny_event_notify
 434:D:/iot/felix2/components/connectivity/agent_tiny/atiny_lwm2m\agenttiny.c ****     }
 1386              		.loc 3 434 0
 1387 0042 31E0     		b	.L89
 1388              	.L80:
 442:D:/iot/felix2/components/connectivity/agent_tiny/atiny_lwm2m\agenttiny.c ****         {
 1389              		.loc 3 442 0
 1390 0044 7B68     		ldr	r3, [r7, #4]
 1391 0046 002B     		cmp	r3, #0
 1392 0048 31D0     		beq	.L90
 442:D:/iot/felix2/components/connectivity/agent_tiny/atiny_lwm2m\agenttiny.c ****         {
 1393              		.loc 3 442 0 is_stmt 0 discriminator 1
 1394 004a 3B68     		ldr	r3, [r7]
 1395 004c 072B     		cmp	r3, #7
 1396 004e 2ED9     		bls	.L90
 447:D:/iot/felix2/components/connectivity/agent_tiny/atiny_lwm2m\agenttiny.c ****         {
 1397              		.loc 3 447 0 is_stmt 1
 1398 0050 BB68     		ldr	r3, [r7, #8]
 1399 0052 002B     		cmp	r3, #0
 1400 0054 13D1     		bne	.L85
 449:D:/iot/felix2/components/connectivity/agent_tiny/atiny_lwm2m\agenttiny.c ****             {
 1401              		.loc 3 449 0
 1402 0056 7868     		ldr	r0, [r7, #4]
 1403 0058 FFF7FEFF 		bl	dm_isUriOpaqueHandle
 1404 005c 0346     		mov	r3, r0
 1405 005e 002B     		cmp	r3, #0
 1406 0060 08D0     		beq	.L86
 1407              	.LBB2:
 451:D:/iot/felix2/components/connectivity/agent_tiny/atiny_lwm2m\agenttiny.c ****                 atiny_event_notify(ATINY_DATA_UNSUBSCRIBLE, (char *)&rpt_type, sizeof(rpt_type));
 1408              		.loc 3 451 0
 1409 0062 0123     		movs	r3, #1
 1410 0064 FB75     		strb	r3, [r7, #23]
 452:D:/iot/felix2/components/connectivity/agent_tiny/atiny_lwm2m\agenttiny.c ****             }
 1411              		.loc 3 452 0
 1412 0066 07F11703 		add	r3, r7, #23
 1413 006a 0122     		movs	r2, #1
 1414 006c 1946     		mov	r1, r3
 1415 006e 0320     		movs	r0, #3
 1416 0070 FFF7FEFF 		bl	atiny_event_notify
 1417              	.L86:
 1418              	.LBE2:
 454:D:/iot/felix2/components/connectivity/agent_tiny/atiny_lwm2m\agenttiny.c ****         }
ARM GAS  C:\Users\91458\AppData\Local\Temp\ccYoNCPK.s 			page 43


 1419              		.loc 3 454 0
 1420 0074 0221     		movs	r1, #2
 1421 0076 7868     		ldr	r0, [r7, #4]
 1422 0078 FFF7FEFF 		bl	atiny_clear_rpt_data
 465:D:/iot/felix2/components/connectivity/agent_tiny/atiny_lwm2m\agenttiny.c ****     }
 1423              		.loc 3 465 0
 1424 007c 16E0     		b	.L91
 1425              	.L85:
 456:D:/iot/felix2/components/connectivity/agent_tiny/atiny_lwm2m\agenttiny.c ****         {
 1426              		.loc 3 456 0
 1427 007e BB68     		ldr	r3, [r7, #8]
 1428 0080 012B     		cmp	r3, #1
 1429 0082 13D1     		bne	.L91
 458:D:/iot/felix2/components/connectivity/agent_tiny/atiny_lwm2m\agenttiny.c ****             {
 1430              		.loc 3 458 0
 1431 0084 7868     		ldr	r0, [r7, #4]
 1432 0086 FFF7FEFF 		bl	dm_isUriOpaqueHandle
 1433 008a 0346     		mov	r3, r0
 1434 008c 002B     		cmp	r3, #0
 1435 008e 0DD0     		beq	.L91
 1436              	.LBB3:
 460:D:/iot/felix2/components/connectivity/agent_tiny/atiny_lwm2m\agenttiny.c ****                 atiny_event_notify(ATINY_DATA_SUBSCRIBLE, (char *)&rpt_type, sizeof(rpt_type));
 1437              		.loc 3 460 0
 1438 0090 0123     		movs	r3, #1
 1439 0092 BB75     		strb	r3, [r7, #22]
 461:D:/iot/felix2/components/connectivity/agent_tiny/atiny_lwm2m\agenttiny.c ****             }
 1440              		.loc 3 461 0
 1441 0094 07F11603 		add	r3, r7, #22
 1442 0098 0122     		movs	r2, #1
 1443 009a 1946     		mov	r1, r3
 1444 009c 0220     		movs	r0, #2
 1445 009e FFF7FEFF 		bl	atiny_event_notify
 1446              	.LBE3:
 465:D:/iot/felix2/components/connectivity/agent_tiny/atiny_lwm2m\agenttiny.c ****     }
 1447              		.loc 3 465 0
 1448 00a2 03E0     		b	.L91
 1449              	.L88:
 438:D:/iot/felix2/components/connectivity/agent_tiny/atiny_lwm2m\agenttiny.c ****     }
 1450              		.loc 3 438 0
 1451 00a4 00BF     		nop
 1452 00a6 02E0     		b	.L90
 1453              	.L89:
 434:D:/iot/felix2/components/connectivity/agent_tiny/atiny_lwm2m\agenttiny.c ****     }
 1454              		.loc 3 434 0
 1455 00a8 00BF     		nop
 1456 00aa 00E0     		b	.L90
 1457              	.L91:
 465:D:/iot/felix2/components/connectivity/agent_tiny/atiny_lwm2m\agenttiny.c ****     }
 1458              		.loc 3 465 0
 1459 00ac 00BF     		nop
 1460              	.L84:
 1461              	.L90:
 470:D:/iot/felix2/components/connectivity/agent_tiny/atiny_lwm2m\agenttiny.c ****     }
 471:D:/iot/felix2/components/connectivity/agent_tiny/atiny_lwm2m\agenttiny.c ****     }
 472:D:/iot/felix2/components/connectivity/agent_tiny/atiny_lwm2m\agenttiny.c **** 
 473:D:/iot/felix2/components/connectivity/agent_tiny/atiny_lwm2m\agenttiny.c **** }
 1462              		.loc 3 473 0
ARM GAS  C:\Users\91458\AppData\Local\Temp\ccYoNCPK.s 			page 44


 1463 00ae 00BF     		nop
 1464 00b0 1837     		adds	r7, r7, #24
 1465              	.LCFI46:
 1466              		.cfi_def_cfa_offset 8
 1467 00b2 BD46     		mov	sp, r7
 1468              	.LCFI47:
 1469              		.cfi_def_cfa_register 13
 1470              		@ sp needed
 1471 00b4 80BD     		pop	{r7, pc}
 1472              		.cfi_endproc
 1473              	.LFE150:
 1475              		.section	.text.reboot_check,"ax",%progbits
 1476              		.align	1
 1477              		.global	reboot_check
 1478              		.syntax unified
 1479              		.thumb
 1480              		.thumb_func
 1481              		.fpu fpv4-sp-d16
 1483              	reboot_check:
 1484              	.LFB151:
 474:D:/iot/felix2/components/connectivity/agent_tiny/atiny_lwm2m\agenttiny.c **** 
 475:D:/iot/felix2/components/connectivity/agent_tiny/atiny_lwm2m\agenttiny.c **** void reboot_check(void)
 476:D:/iot/felix2/components/connectivity/agent_tiny/atiny_lwm2m\agenttiny.c **** {
 1485              		.loc 3 476 0
 1486              		.cfi_startproc
 1487              		@ args = 0, pretend = 0, frame = 0
 1488              		@ frame_needed = 1, uses_anonymous_args = 0
 1489 0000 80B5     		push	{r7, lr}
 1490              	.LCFI48:
 1491              		.cfi_def_cfa_offset 8
 1492              		.cfi_offset 7, -8
 1493              		.cfi_offset 14, -4
 1494 0002 00AF     		add	r7, sp, #0
 1495              	.LCFI49:
 1496              		.cfi_def_cfa_register 7
 477:D:/iot/felix2/components/connectivity/agent_tiny/atiny_lwm2m\agenttiny.c ****     if(g_reboot == 1)
 1497              		.loc 3 477 0
 1498 0004 054B     		ldr	r3, .L95
 1499 0006 1B68     		ldr	r3, [r3]
 1500 0008 012B     		cmp	r3, #1
 1501 000a 04D1     		bne	.L94
 478:D:/iot/felix2/components/connectivity/agent_tiny/atiny_lwm2m\agenttiny.c ****     {
 479:D:/iot/felix2/components/connectivity/agent_tiny/atiny_lwm2m\agenttiny.c ****         (void)atiny_cmd_ioctl(ATINY_DO_DEV_REBOOT, NULL, 0);
 1502              		.loc 3 479 0
 1503 000c 0022     		movs	r2, #0
 1504 000e 0021     		movs	r1, #0
 1505 0010 0420     		movs	r0, #4
 1506 0012 FFF7FEFF 		bl	atiny_cmd_ioctl
 1507              	.L94:
 480:D:/iot/felix2/components/connectivity/agent_tiny/atiny_lwm2m\agenttiny.c ****     }
 481:D:/iot/felix2/components/connectivity/agent_tiny/atiny_lwm2m\agenttiny.c **** }
 1508              		.loc 3 481 0
 1509 0016 00BF     		nop
 1510 0018 80BD     		pop	{r7, pc}
 1511              	.L96:
 1512 001a 00BF     		.align	2
 1513              	.L95:
ARM GAS  C:\Users\91458\AppData\Local\Temp\ccYoNCPK.s 			page 45


 1514 001c 00000000 		.word	g_reboot
 1515              		.cfi_endproc
 1516              	.LFE151:
 1518              		.section	.rodata
 1519 0261 000000   		.align	2
 1520              	.LC13:
 1521 0264 5B25735D 		.ascii	"[%s][%u][%s:%d] null point\015\012\000"
 1521      5B25755D 
 1521      5B25733A 
 1521      25645D20 
 1521      6E756C6C 
 1522 0281 000000   		.align	2
 1523              	.LC14:
 1524 0284 5B25735D 		.ascii	"[%s][%u][%s:%d] connection err type %d bootstrap %d"
 1524      5B25755D 
 1524      5B25733A 
 1524      25645D20 
 1524      636F6E6E 
 1525 02b7 0D0A00   		.ascii	"\015\012\000"
 1526              		.section	.text.atiny_connection_err_notify,"ax",%progbits
 1527              		.align	1
 1528              		.syntax unified
 1529              		.thumb
 1530              		.thumb_func
 1531              		.fpu fpv4-sp-d16
 1533              	atiny_connection_err_notify:
 1534              	.LFB152:
 482:D:/iot/felix2/components/connectivity/agent_tiny/atiny_lwm2m\agenttiny.c **** 
 483:D:/iot/felix2/components/connectivity/agent_tiny/atiny_lwm2m\agenttiny.c **** static void atiny_connection_err_notify(lwm2m_context_t *context, connection_err_e err_type, bool b
 484:D:/iot/felix2/components/connectivity/agent_tiny/atiny_lwm2m\agenttiny.c **** {
 1535              		.loc 3 484 0
 1536              		.cfi_startproc
 1537              		@ args = 0, pretend = 0, frame = 16
 1538              		@ frame_needed = 1, uses_anonymous_args = 0
 1539 0000 B0B5     		push	{r4, r5, r7, lr}
 1540              	.LCFI50:
 1541              		.cfi_def_cfa_offset 16
 1542              		.cfi_offset 4, -16
 1543              		.cfi_offset 5, -12
 1544              		.cfi_offset 7, -8
 1545              		.cfi_offset 14, -4
 1546 0002 88B0     		sub	sp, sp, #32
 1547              	.LCFI51:
 1548              		.cfi_def_cfa_offset 48
 1549 0004 04AF     		add	r7, sp, #16
 1550              	.LCFI52:
 1551              		.cfi_def_cfa 7, 32
 1552 0006 7860     		str	r0, [r7, #4]
 1553 0008 0B46     		mov	r3, r1
 1554 000a FB70     		strb	r3, [r7, #3]
 1555 000c 1346     		mov	r3, r2
 1556 000e BB70     		strb	r3, [r7, #2]
 485:D:/iot/felix2/components/connectivity/agent_tiny/atiny_lwm2m\agenttiny.c ****     handle_data_t *handle = NULL;
 1557              		.loc 3 485 0
 1558 0010 0023     		movs	r3, #0
 1559 0012 FB60     		str	r3, [r7, #12]
 486:D:/iot/felix2/components/connectivity/agent_tiny/atiny_lwm2m\agenttiny.c **** 
ARM GAS  C:\Users\91458\AppData\Local\Temp\ccYoNCPK.s 			page 46


 487:D:/iot/felix2/components/connectivity/agent_tiny/atiny_lwm2m\agenttiny.c ****     if((NULL == context) || (NULL == context->userData))
 1560              		.loc 3 487 0
 1561 0014 7B68     		ldr	r3, [r7, #4]
 1562 0016 002B     		cmp	r3, #0
 1563 0018 03D0     		beq	.L98
 1564              		.loc 3 487 0 is_stmt 0 discriminator 1
 1565 001a 7B68     		ldr	r3, [r7, #4]
 1566 001c 5B6B     		ldr	r3, [r3, #52]
 1567 001e 002B     		cmp	r3, #0
 1568 0020 16D1     		bne	.L99
 1569              	.L98:
 488:D:/iot/felix2/components/connectivity/agent_tiny/atiny_lwm2m\agenttiny.c ****     {
 489:D:/iot/felix2/components/connectivity/agent_tiny/atiny_lwm2m\agenttiny.c ****         ATINY_LOG(LOG_ERR, "null point");
 1570              		.loc 3 489 0 is_stmt 1
 1571 0022 FFF7FEFF 		bl	atiny_get_log_level
 1572 0026 0346     		mov	r3, r0
 1573 0028 032B     		cmp	r3, #3
 1574 002a 3AD8     		bhi	.L103
 1575              		.loc 3 489 0 is_stmt 0 discriminator 1
 1576 002c 0320     		movs	r0, #3
 1577 002e FFF7FEFF 		bl	atiny_get_log_level_name
 1578 0032 0546     		mov	r5, r0
 1579 0034 FFF7FEFF 		bl	atiny_gettime_ms
 1580 0038 0346     		mov	r3, r0
 1581 003a 0C46     		mov	r4, r1
 1582 003c 1A46     		mov	r2, r3
 1583 003e 40F2E913 		movw	r3, #489
 1584 0042 0093     		str	r3, [sp]
 1585 0044 194B     		ldr	r3, .L104
 1586 0046 2946     		mov	r1, r5
 1587 0048 1948     		ldr	r0, .L104+4
 1588 004a FFF7FEFF 		bl	atiny_printf
 490:D:/iot/felix2/components/connectivity/agent_tiny/atiny_lwm2m\agenttiny.c ****         return;
 1589              		.loc 3 490 0 is_stmt 1 discriminator 1
 1590 004e 28E0     		b	.L103
 1591              	.L99:
 491:D:/iot/felix2/components/connectivity/agent_tiny/atiny_lwm2m\agenttiny.c ****     }
 492:D:/iot/felix2/components/connectivity/agent_tiny/atiny_lwm2m\agenttiny.c **** 
 493:D:/iot/felix2/components/connectivity/agent_tiny/atiny_lwm2m\agenttiny.c ****     if(!boostrap_flag)
 1592              		.loc 3 493 0
 1593 0050 BB78     		ldrb	r3, [r7, #2]
 1594 0052 83F00103 		eor	r3, r3, #1
 1595 0056 DBB2     		uxtb	r3, r3
 1596 0058 002B     		cmp	r3, #0
 1597 005a 06D0     		beq	.L102
 494:D:/iot/felix2/components/connectivity/agent_tiny/atiny_lwm2m\agenttiny.c ****     {
 495:D:/iot/felix2/components/connectivity/agent_tiny/atiny_lwm2m\agenttiny.c ****         handle = ATINY_FIELD_TO_STRUCT(context->userData, handle_data_t, client_data);
 1598              		.loc 3 495 0
 1599 005c 7B68     		ldr	r3, [r7, #4]
 1600 005e 5B6B     		ldr	r3, [r3, #52]
 1601 0060 403B     		subs	r3, r3, #64
 1602 0062 FB60     		str	r3, [r7, #12]
 496:D:/iot/felix2/components/connectivity/agent_tiny/atiny_lwm2m\agenttiny.c ****         (void)atiny_reconnect(handle);
 1603              		.loc 3 496 0
 1604 0064 F868     		ldr	r0, [r7, #12]
 1605 0066 FFF7FEFF 		bl	atiny_reconnect
 1606              	.L102:
ARM GAS  C:\Users\91458\AppData\Local\Temp\ccYoNCPK.s 			page 47


 497:D:/iot/felix2/components/connectivity/agent_tiny/atiny_lwm2m\agenttiny.c ****     }
 498:D:/iot/felix2/components/connectivity/agent_tiny/atiny_lwm2m\agenttiny.c ****     ATINY_LOG(LOG_INFO, "connection err type %d bootstrap %d", err_type, boostrap_flag);
 1607              		.loc 3 498 0
 1608 006a FFF7FEFF 		bl	atiny_get_log_level
 1609 006e 0346     		mov	r3, r0
 1610 0070 012B     		cmp	r3, #1
 1611 0072 17D8     		bhi	.L97
 1612              		.loc 3 498 0 is_stmt 0 discriminator 1
 1613 0074 0120     		movs	r0, #1
 1614 0076 FFF7FEFF 		bl	atiny_get_log_level_name
 1615 007a 0546     		mov	r5, r0
 1616 007c FFF7FEFF 		bl	atiny_gettime_ms
 1617 0080 0346     		mov	r3, r0
 1618 0082 0C46     		mov	r4, r1
 1619 0084 1946     		mov	r1, r3
 1620 0086 FB78     		ldrb	r3, [r7, #3]	@ zero_extendqisi2
 1621 0088 BA78     		ldrb	r2, [r7, #2]	@ zero_extendqisi2
 1622 008a 0292     		str	r2, [sp, #8]
 1623 008c 0193     		str	r3, [sp, #4]
 1624 008e 4FF4F973 		mov	r3, #498
 1625 0092 0093     		str	r3, [sp]
 1626 0094 054B     		ldr	r3, .L104
 1627 0096 0A46     		mov	r2, r1
 1628 0098 2946     		mov	r1, r5
 1629 009a 0648     		ldr	r0, .L104+8
 1630 009c FFF7FEFF 		bl	atiny_printf
 1631 00a0 00E0     		b	.L97
 1632              	.L103:
 490:D:/iot/felix2/components/connectivity/agent_tiny/atiny_lwm2m\agenttiny.c ****     }
 1633              		.loc 3 490 0 is_stmt 1
 1634 00a2 00BF     		nop
 1635              	.L97:
 499:D:/iot/felix2/components/connectivity/agent_tiny/atiny_lwm2m\agenttiny.c **** }
 1636              		.loc 3 499 0
 1637 00a4 1037     		adds	r7, r7, #16
 1638              	.LCFI53:
 1639              		.cfi_def_cfa_offset 16
 1640 00a6 BD46     		mov	sp, r7
 1641              	.LCFI54:
 1642              		.cfi_def_cfa_register 13
 1643              		@ sp needed
 1644 00a8 B0BD     		pop	{r4, r5, r7, pc}
 1645              	.L105:
 1646 00aa 00BF     		.align	2
 1647              	.L104:
 1648 00ac 00000000 		.word	__FUNCTION__.11983
 1649 00b0 64020000 		.word	.LC13
 1650 00b4 84020000 		.word	.LC14
 1651              		.cfi_endproc
 1652              	.LFE152:
 1654              		.section	.rodata
 1655 02ba 0000     		.align	2
 1656              	.LC15:
 1657 02bc 5B25735D 		.ascii	"[%s][%u][%s:%d] lwm2m reconnect\015\012\000"
 1657      5B25755D 
 1657      5B25733A 
 1657      25645D20 
ARM GAS  C:\Users\91458\AppData\Local\Temp\ccYoNCPK.s 			page 48


 1657      6C776D32 
 1658              		.section	.text.atiny_handle_reconnect,"ax",%progbits
 1659              		.align	1
 1660              		.syntax unified
 1661              		.thumb
 1662              		.thumb_func
 1663              		.fpu fpv4-sp-d16
 1665              	atiny_handle_reconnect:
 1666              	.LFB153:
 500:D:/iot/felix2/components/connectivity/agent_tiny/atiny_lwm2m\agenttiny.c **** 
 501:D:/iot/felix2/components/connectivity/agent_tiny/atiny_lwm2m\agenttiny.c **** 
 502:D:/iot/felix2/components/connectivity/agent_tiny/atiny_lwm2m\agenttiny.c **** static void atiny_handle_reconnect(handle_data_t *handle)
 503:D:/iot/felix2/components/connectivity/agent_tiny/atiny_lwm2m\agenttiny.c **** {
 1667              		.loc 3 503 0
 1668              		.cfi_startproc
 1669              		@ args = 0, pretend = 0, frame = 8
 1670              		@ frame_needed = 1, uses_anonymous_args = 0
 1671 0000 B0B5     		push	{r4, r5, r7, lr}
 1672              	.LCFI55:
 1673              		.cfi_def_cfa_offset 16
 1674              		.cfi_offset 4, -16
 1675              		.cfi_offset 5, -12
 1676              		.cfi_offset 7, -8
 1677              		.cfi_offset 14, -4
 1678 0002 84B0     		sub	sp, sp, #16
 1679              	.LCFI56:
 1680              		.cfi_def_cfa_offset 32
 1681 0004 02AF     		add	r7, sp, #8
 1682              	.LCFI57:
 1683              		.cfi_def_cfa 7, 24
 1684 0006 7860     		str	r0, [r7, #4]
 504:D:/iot/felix2/components/connectivity/agent_tiny/atiny_lwm2m\agenttiny.c ****     if(handle->reconnect_flag)
 1685              		.loc 3 504 0
 1686 0008 7B68     		ldr	r3, [r7, #4]
 1687 000a 5B6F     		ldr	r3, [r3, #116]
 1688 000c 002B     		cmp	r3, #0
 1689 000e 1DD0     		beq	.L108
 505:D:/iot/felix2/components/connectivity/agent_tiny/atiny_lwm2m\agenttiny.c ****     {
 506:D:/iot/felix2/components/connectivity/agent_tiny/atiny_lwm2m\agenttiny.c ****         (void)lwm2m_reconnect(handle->lwm2m_context);
 1690              		.loc 3 506 0
 1691 0010 7B68     		ldr	r3, [r7, #4]
 1692 0012 1B68     		ldr	r3, [r3]
 1693 0014 1846     		mov	r0, r3
 1694 0016 FFF7FEFF 		bl	lwm2m_reconnect
 507:D:/iot/felix2/components/connectivity/agent_tiny/atiny_lwm2m\agenttiny.c ****         handle->reconnect_flag = false;
 1695              		.loc 3 507 0
 1696 001a 7B68     		ldr	r3, [r7, #4]
 1697 001c 0022     		movs	r2, #0
 1698 001e 5A67     		str	r2, [r3, #116]
 508:D:/iot/felix2/components/connectivity/agent_tiny/atiny_lwm2m\agenttiny.c ****         ATINY_LOG(LOG_INFO, "lwm2m reconnect");
 1699              		.loc 3 508 0
 1700 0020 FFF7FEFF 		bl	atiny_get_log_level
 1701 0024 0346     		mov	r3, r0
 1702 0026 012B     		cmp	r3, #1
 1703 0028 10D8     		bhi	.L108
 1704              		.loc 3 508 0 is_stmt 0 discriminator 1
 1705 002a 0120     		movs	r0, #1
ARM GAS  C:\Users\91458\AppData\Local\Temp\ccYoNCPK.s 			page 49


 1706 002c FFF7FEFF 		bl	atiny_get_log_level_name
 1707 0030 0546     		mov	r5, r0
 1708 0032 FFF7FEFF 		bl	atiny_gettime_ms
 1709 0036 0346     		mov	r3, r0
 1710 0038 0C46     		mov	r4, r1
 1711 003a 1A46     		mov	r2, r3
 1712 003c 4FF4FE73 		mov	r3, #508
 1713 0040 0093     		str	r3, [sp]
 1714 0042 044B     		ldr	r3, .L109
 1715 0044 2946     		mov	r1, r5
 1716 0046 0448     		ldr	r0, .L109+4
 1717 0048 FFF7FEFF 		bl	atiny_printf
 1718              	.L108:
 509:D:/iot/felix2/components/connectivity/agent_tiny/atiny_lwm2m\agenttiny.c ****     }
 510:D:/iot/felix2/components/connectivity/agent_tiny/atiny_lwm2m\agenttiny.c **** }
 1719              		.loc 3 510 0 is_stmt 1
 1720 004c 00BF     		nop
 1721 004e 0837     		adds	r7, r7, #8
 1722              	.LCFI58:
 1723              		.cfi_def_cfa_offset 16
 1724 0050 BD46     		mov	sp, r7
 1725              	.LCFI59:
 1726              		.cfi_def_cfa_register 13
 1727              		@ sp needed
 1728 0052 B0BD     		pop	{r4, r5, r7, pc}
 1729              	.L110:
 1730              		.align	2
 1731              	.L109:
 1732 0054 00000000 		.word	__FUNCTION__.11987
 1733 0058 BC020000 		.word	.LC15
 1734              		.cfi_endproc
 1735              	.LFE153:
 1737              		.section	.rodata
 1738 02de 0000     		.align	2
 1739              	.LC16:
 1740 02e0 5B25735D 		.ascii	"[%s][%u][%s:%d] Parameter null\015\012\000"
 1740      5B25755D 
 1740      5B25733A 
 1740      25645D20 
 1740      50617261 
 1741 0301 000000   		.align	2
 1742              	.LC17:
 1743 0304 5B25735D 		.ascii	"[%s][%u][%s:%d] Endpoint name null\015\012\000"
 1743      5B25755D 
 1743      5B25733A 
 1743      25645D20 
 1743      456E6470 
 1744 0329 000000   		.align	2
 1745              	.LC18:
 1746 032c 5B25735D 		.ascii	"[%s][%u][%s:%d] Manufacturer name null\015\012\000"
 1746      5B25755D 
 1746      5B25733A 
 1746      25645D20 
 1746      4D616E75 
 1747 0355 000000   		.align	2
 1748              	.LC19:
 1749 0358 5B25735D 		.ascii	"[%s][%u][%s:%d] atiny_init_object fail %d\015\012\000"
ARM GAS  C:\Users\91458\AppData\Local\Temp\ccYoNCPK.s 			page 50


 1749      5B25755D 
 1749      5B25733A 
 1749      25645D20 
 1749      6174696E 
 1750              		.align	2
 1751              	.LC20:
 1752 0384 5B25735D 		.ascii	"[%s][%u][%s:%d] memory not enough\015\012\000"
 1752      5B25755D 
 1752      5B25733A 
 1752      25645D20 
 1752      6D656D6F 
 1753              		.section	.text.atiny_bind,"ax",%progbits
 1754              		.align	1
 1755              		.global	atiny_bind
 1756              		.syntax unified
 1757              		.thumb
 1758              		.thumb_func
 1759              		.fpu fpv4-sp-d16
 1761              	atiny_bind:
 1762              	.LFB154:
 511:D:/iot/felix2/components/connectivity/agent_tiny/atiny_lwm2m\agenttiny.c **** 
 512:D:/iot/felix2/components/connectivity/agent_tiny/atiny_lwm2m\agenttiny.c **** int atiny_bind(atiny_device_info_t *device_info, void *phandle)
 513:D:/iot/felix2/components/connectivity/agent_tiny/atiny_lwm2m\agenttiny.c **** {
 1763              		.loc 3 513 0
 1764              		.cfi_startproc
 1765              		@ args = 0, pretend = 0, frame = 24
 1766              		@ frame_needed = 1, uses_anonymous_args = 0
 1767 0000 B0B5     		push	{r4, r5, r7, lr}
 1768              	.LCFI60:
 1769              		.cfi_def_cfa_offset 16
 1770              		.cfi_offset 4, -16
 1771              		.cfi_offset 5, -12
 1772              		.cfi_offset 7, -8
 1773              		.cfi_offset 14, -4
 1774 0002 88B0     		sub	sp, sp, #32
 1775              	.LCFI61:
 1776              		.cfi_def_cfa_offset 48
 1777 0004 02AF     		add	r7, sp, #8
 1778              	.LCFI62:
 1779              		.cfi_def_cfa 7, 40
 1780 0006 7860     		str	r0, [r7, #4]
 1781 0008 3960     		str	r1, [r7]
 514:D:/iot/felix2/components/connectivity/agent_tiny/atiny_lwm2m\agenttiny.c ****     handle_data_t *handle = (handle_data_t *)phandle;
 1782              		.loc 3 514 0
 1783 000a 3B68     		ldr	r3, [r7]
 1784 000c 7B61     		str	r3, [r7, #20]
 515:D:/iot/felix2/components/connectivity/agent_tiny/atiny_lwm2m\agenttiny.c ****     uint32_t timeout;
 516:D:/iot/felix2/components/connectivity/agent_tiny/atiny_lwm2m\agenttiny.c ****     int ret;
 517:D:/iot/felix2/components/connectivity/agent_tiny/atiny_lwm2m\agenttiny.c **** 
 518:D:/iot/felix2/components/connectivity/agent_tiny/atiny_lwm2m\agenttiny.c ****     if ((NULL == device_info) || (NULL == phandle))
 1785              		.loc 3 518 0
 1786 000e 7B68     		ldr	r3, [r7, #4]
 1787 0010 002B     		cmp	r3, #0
 1788 0012 02D0     		beq	.L112
 1789              		.loc 3 518 0 is_stmt 0 discriminator 1
 1790 0014 3B68     		ldr	r3, [r7]
 1791 0016 002B     		cmp	r3, #0
ARM GAS  C:\Users\91458\AppData\Local\Temp\ccYoNCPK.s 			page 51


 1792 0018 1BD1     		bne	.L113
 1793              	.L112:
 519:D:/iot/felix2/components/connectivity/agent_tiny/atiny_lwm2m\agenttiny.c ****     {
 520:D:/iot/felix2/components/connectivity/agent_tiny/atiny_lwm2m\agenttiny.c ****         ATINY_LOG(LOG_FATAL, "Parameter null");
 1794              		.loc 3 520 0 is_stmt 1
 1795 001a FFF7FEFF 		bl	atiny_get_log_level
 1796 001e 0346     		mov	r3, r0
 1797 0020 042B     		cmp	r3, #4
 1798 0022 10D8     		bhi	.L114
 1799              		.loc 3 520 0 is_stmt 0 discriminator 1
 1800 0024 0420     		movs	r0, #4
 1801 0026 FFF7FEFF 		bl	atiny_get_log_level_name
 1802 002a 0546     		mov	r5, r0
 1803 002c FFF7FEFF 		bl	atiny_gettime_ms
 1804 0030 0346     		mov	r3, r0
 1805 0032 0C46     		mov	r4, r1
 1806 0034 1A46     		mov	r2, r3
 1807 0036 4FF40273 		mov	r3, #520
 1808 003a 0093     		str	r3, [sp]
 1809 003c 634B     		ldr	r3, .L127
 1810 003e 2946     		mov	r1, r5
 1811 0040 6348     		ldr	r0, .L127+4
 1812 0042 FFF7FEFF 		bl	atiny_printf
 1813              	.L114:
 521:D:/iot/felix2/components/connectivity/agent_tiny/atiny_lwm2m\agenttiny.c ****         atiny_deinit(phandle);
 1814              		.loc 3 521 0 is_stmt 1
 1815 0046 3868     		ldr	r0, [r7]
 1816 0048 FFF7FEFF 		bl	atiny_deinit
 522:D:/iot/felix2/components/connectivity/agent_tiny/atiny_lwm2m\agenttiny.c ****         return ATINY_ARG_INVALID;
 1817              		.loc 3 522 0
 1818 004c 4FF0FF33 		mov	r3, #-1
 1819 0050 B8E0     		b	.L126
 1820              	.L113:
 523:D:/iot/felix2/components/connectivity/agent_tiny/atiny_lwm2m\agenttiny.c ****     }
 524:D:/iot/felix2/components/connectivity/agent_tiny/atiny_lwm2m\agenttiny.c **** 
 525:D:/iot/felix2/components/connectivity/agent_tiny/atiny_lwm2m\agenttiny.c ****     if (NULL == device_info->endpoint_name)
 1821              		.loc 3 525 0
 1822 0052 7B68     		ldr	r3, [r7, #4]
 1823 0054 1B68     		ldr	r3, [r3]
 1824 0056 002B     		cmp	r3, #0
 1825 0058 1BD1     		bne	.L116
 526:D:/iot/felix2/components/connectivity/agent_tiny/atiny_lwm2m\agenttiny.c ****     {
 527:D:/iot/felix2/components/connectivity/agent_tiny/atiny_lwm2m\agenttiny.c ****         ATINY_LOG(LOG_FATAL, "Endpoint name null");
 1826              		.loc 3 527 0
 1827 005a FFF7FEFF 		bl	atiny_get_log_level
 1828 005e 0346     		mov	r3, r0
 1829 0060 042B     		cmp	r3, #4
 1830 0062 10D8     		bhi	.L117
 1831              		.loc 3 527 0 is_stmt 0 discriminator 1
 1832 0064 0420     		movs	r0, #4
 1833 0066 FFF7FEFF 		bl	atiny_get_log_level_name
 1834 006a 0546     		mov	r5, r0
 1835 006c FFF7FEFF 		bl	atiny_gettime_ms
 1836 0070 0346     		mov	r3, r0
 1837 0072 0C46     		mov	r4, r1
 1838 0074 1A46     		mov	r2, r3
 1839 0076 40F20F23 		movw	r3, #527
ARM GAS  C:\Users\91458\AppData\Local\Temp\ccYoNCPK.s 			page 52


 1840 007a 0093     		str	r3, [sp]
 1841 007c 534B     		ldr	r3, .L127
 1842 007e 2946     		mov	r1, r5
 1843 0080 5448     		ldr	r0, .L127+8
 1844 0082 FFF7FEFF 		bl	atiny_printf
 1845              	.L117:
 528:D:/iot/felix2/components/connectivity/agent_tiny/atiny_lwm2m\agenttiny.c ****         atiny_deinit(phandle);
 1846              		.loc 3 528 0 is_stmt 1
 1847 0086 3868     		ldr	r0, [r7]
 1848 0088 FFF7FEFF 		bl	atiny_deinit
 529:D:/iot/felix2/components/connectivity/agent_tiny/atiny_lwm2m\agenttiny.c ****         return ATINY_ARG_INVALID;
 1849              		.loc 3 529 0
 1850 008c 4FF0FF33 		mov	r3, #-1
 1851 0090 98E0     		b	.L126
 1852              	.L116:
 530:D:/iot/felix2/components/connectivity/agent_tiny/atiny_lwm2m\agenttiny.c ****     }
 531:D:/iot/felix2/components/connectivity/agent_tiny/atiny_lwm2m\agenttiny.c **** 
 532:D:/iot/felix2/components/connectivity/agent_tiny/atiny_lwm2m\agenttiny.c ****     if (NULL == device_info->manufacturer)
 1853              		.loc 3 532 0
 1854 0092 7B68     		ldr	r3, [r7, #4]
 1855 0094 5B68     		ldr	r3, [r3, #4]
 1856 0096 002B     		cmp	r3, #0
 1857 0098 1BD1     		bne	.L118
 533:D:/iot/felix2/components/connectivity/agent_tiny/atiny_lwm2m\agenttiny.c ****     {
 534:D:/iot/felix2/components/connectivity/agent_tiny/atiny_lwm2m\agenttiny.c ****         ATINY_LOG(LOG_FATAL, "Manufacturer name null");
 1858              		.loc 3 534 0
 1859 009a FFF7FEFF 		bl	atiny_get_log_level
 1860 009e 0346     		mov	r3, r0
 1861 00a0 042B     		cmp	r3, #4
 1862 00a2 10D8     		bhi	.L119
 1863              		.loc 3 534 0 is_stmt 0 discriminator 1
 1864 00a4 0420     		movs	r0, #4
 1865 00a6 FFF7FEFF 		bl	atiny_get_log_level_name
 1866 00aa 0546     		mov	r5, r0
 1867 00ac FFF7FEFF 		bl	atiny_gettime_ms
 1868 00b0 0346     		mov	r3, r0
 1869 00b2 0C46     		mov	r4, r1
 1870 00b4 1A46     		mov	r2, r3
 1871 00b6 40F21623 		movw	r3, #534
 1872 00ba 0093     		str	r3, [sp]
 1873 00bc 434B     		ldr	r3, .L127
 1874 00be 2946     		mov	r1, r5
 1875 00c0 4548     		ldr	r0, .L127+12
 1876 00c2 FFF7FEFF 		bl	atiny_printf
 1877              	.L119:
 535:D:/iot/felix2/components/connectivity/agent_tiny/atiny_lwm2m\agenttiny.c ****         atiny_deinit(phandle);
 1878              		.loc 3 535 0 is_stmt 1
 1879 00c6 3868     		ldr	r0, [r7]
 1880 00c8 FFF7FEFF 		bl	atiny_deinit
 536:D:/iot/felix2/components/connectivity/agent_tiny/atiny_lwm2m\agenttiny.c ****         return ATINY_ARG_INVALID;
 1881              		.loc 3 536 0
 1882 00cc 4FF0FF33 		mov	r3, #-1
 1883 00d0 78E0     		b	.L126
 1884              	.L118:
 537:D:/iot/felix2/components/connectivity/agent_tiny/atiny_lwm2m\agenttiny.c ****     }
 538:D:/iot/felix2/components/connectivity/agent_tiny/atiny_lwm2m\agenttiny.c **** 
 539:D:/iot/felix2/components/connectivity/agent_tiny/atiny_lwm2m\agenttiny.c ****     ret = atiny_init_objects(&handle->atiny_params, device_info, handle);
ARM GAS  C:\Users\91458\AppData\Local\Temp\ccYoNCPK.s 			page 53


 1885              		.loc 3 539 0
 1886 00d2 7B69     		ldr	r3, [r7, #20]
 1887 00d4 0433     		adds	r3, r3, #4
 1888 00d6 7A69     		ldr	r2, [r7, #20]
 1889 00d8 7968     		ldr	r1, [r7, #4]
 1890 00da 1846     		mov	r0, r3
 1891 00dc FFF7FEFF 		bl	atiny_init_objects
 1892 00e0 3861     		str	r0, [r7, #16]
 540:D:/iot/felix2/components/connectivity/agent_tiny/atiny_lwm2m\agenttiny.c ****     if (ret != ATINY_OK)
 1893              		.loc 3 540 0
 1894 00e2 3B69     		ldr	r3, [r7, #16]
 1895 00e4 002B     		cmp	r3, #0
 1896 00e6 1CD0     		beq	.L120
 541:D:/iot/felix2/components/connectivity/agent_tiny/atiny_lwm2m\agenttiny.c ****     {
 542:D:/iot/felix2/components/connectivity/agent_tiny/atiny_lwm2m\agenttiny.c ****         ATINY_LOG(LOG_FATAL, "atiny_init_object fail %d", ret);
 1897              		.loc 3 542 0
 1898 00e8 FFF7FEFF 		bl	atiny_get_log_level
 1899 00ec 0346     		mov	r3, r0
 1900 00ee 042B     		cmp	r3, #4
 1901 00f0 12D8     		bhi	.L121
 1902              		.loc 3 542 0 is_stmt 0 discriminator 1
 1903 00f2 0420     		movs	r0, #4
 1904 00f4 FFF7FEFF 		bl	atiny_get_log_level_name
 1905 00f8 0546     		mov	r5, r0
 1906 00fa FFF7FEFF 		bl	atiny_gettime_ms
 1907 00fe 0346     		mov	r3, r0
 1908 0100 0C46     		mov	r4, r1
 1909 0102 1A46     		mov	r2, r3
 1910 0104 3B69     		ldr	r3, [r7, #16]
 1911 0106 0193     		str	r3, [sp, #4]
 1912 0108 40F21E23 		movw	r3, #542
 1913 010c 0093     		str	r3, [sp]
 1914 010e 2F4B     		ldr	r3, .L127
 1915 0110 2946     		mov	r1, r5
 1916 0112 3248     		ldr	r0, .L127+16
 1917 0114 FFF7FEFF 		bl	atiny_printf
 1918              	.L121:
 543:D:/iot/felix2/components/connectivity/agent_tiny/atiny_lwm2m\agenttiny.c ****         atiny_destroy(handle);
 1919              		.loc 3 543 0 is_stmt 1
 1920 0118 7869     		ldr	r0, [r7, #20]
 1921 011a FFF7FEFF 		bl	atiny_destroy
 544:D:/iot/felix2/components/connectivity/agent_tiny/atiny_lwm2m\agenttiny.c ****         return ret;
 1922              		.loc 3 544 0
 1923 011e 3B69     		ldr	r3, [r7, #16]
 1924 0120 50E0     		b	.L126
 1925              	.L120:
 545:D:/iot/felix2/components/connectivity/agent_tiny/atiny_lwm2m\agenttiny.c ****     }
 546:D:/iot/felix2/components/connectivity/agent_tiny/atiny_lwm2m\agenttiny.c **** #ifdef CONFIG_FEATURE_FOTA
 547:D:/iot/felix2/components/connectivity/agent_tiny/atiny_lwm2m\agenttiny.c ****     (void)atiny_fota_manager_set_lwm2m_context(atiny_fota_manager_get_instance(), handle->lwm2m_con
 548:D:/iot/felix2/components/connectivity/agent_tiny/atiny_lwm2m\agenttiny.c **** #endif
 549:D:/iot/felix2/components/connectivity/agent_tiny/atiny_lwm2m\agenttiny.c ****     lwm2m_register_observe_ack_call_back(observe_handle_ack);
 1926              		.loc 3 549 0
 1927 0122 2F48     		ldr	r0, .L127+20
 1928 0124 FFF7FEFF 		bl	lwm2m_register_observe_ack_call_back
 550:D:/iot/felix2/components/connectivity/agent_tiny/atiny_lwm2m\agenttiny.c ****     lwm2m_register_event_handler(atiny_event_handle);
 1929              		.loc 3 550 0
 1930 0128 2E48     		ldr	r0, .L127+24
ARM GAS  C:\Users\91458\AppData\Local\Temp\ccYoNCPK.s 			page 54


 1931 012a FFF7FEFF 		bl	lwm2m_register_event_handler
 551:D:/iot/felix2/components/connectivity/agent_tiny/atiny_lwm2m\agenttiny.c ****     lwm2m_register_connection_err_notify(atiny_connection_err_notify);
 1932              		.loc 3 551 0
 1933 012e 2E48     		ldr	r0, .L127+28
 1934 0130 FFF7FEFF 		bl	lwm2m_register_connection_err_notify
 552:D:/iot/felix2/components/connectivity/agent_tiny/atiny_lwm2m\agenttiny.c **** 
 553:D:/iot/felix2/components/connectivity/agent_tiny/atiny_lwm2m\agenttiny.c ****     handle->recv_buffer = (uint8_t *)lwm2m_malloc(MAX_PACKET_SIZE);
 1935              		.loc 3 553 0
 1936 0134 4FF48060 		mov	r0, #1024
 1937 0138 FFF7FEFF 		bl	lwm2m_malloc
 1938 013c 0246     		mov	r2, r0
 1939 013e 7B69     		ldr	r3, [r7, #20]
 1940 0140 C3F88020 		str	r2, [r3, #128]
 554:D:/iot/felix2/components/connectivity/agent_tiny/atiny_lwm2m\agenttiny.c ****     if(handle->recv_buffer == NULL)
 1941              		.loc 3 554 0
 1942 0144 7B69     		ldr	r3, [r7, #20]
 1943 0146 D3F88030 		ldr	r3, [r3, #128]
 1944 014a 002B     		cmp	r3, #0
 1945 014c 32D1     		bne	.L124
 555:D:/iot/felix2/components/connectivity/agent_tiny/atiny_lwm2m\agenttiny.c ****     {
 556:D:/iot/felix2/components/connectivity/agent_tiny/atiny_lwm2m\agenttiny.c ****         ATINY_LOG(LOG_FATAL, "memory not enough");
 1946              		.loc 3 556 0
 1947 014e FFF7FEFF 		bl	atiny_get_log_level
 1948 0152 0346     		mov	r3, r0
 1949 0154 042B     		cmp	r3, #4
 1950 0156 10D8     		bhi	.L123
 1951              		.loc 3 556 0 is_stmt 0 discriminator 1
 1952 0158 0420     		movs	r0, #4
 1953 015a FFF7FEFF 		bl	atiny_get_log_level_name
 1954 015e 0546     		mov	r5, r0
 1955 0160 FFF7FEFF 		bl	atiny_gettime_ms
 1956 0164 0346     		mov	r3, r0
 1957 0166 0C46     		mov	r4, r1
 1958 0168 1A46     		mov	r2, r3
 1959 016a 4FF40B73 		mov	r3, #556
 1960 016e 0093     		str	r3, [sp]
 1961 0170 164B     		ldr	r3, .L127
 1962 0172 2946     		mov	r1, r5
 1963 0174 1D48     		ldr	r0, .L127+32
 1964 0176 FFF7FEFF 		bl	atiny_printf
 1965              	.L123:
 557:D:/iot/felix2/components/connectivity/agent_tiny/atiny_lwm2m\agenttiny.c ****         return ATINY_MALLOC_FAILED;
 1966              		.loc 3 557 0 is_stmt 1
 1967 017a 6FF00303 		mvn	r3, #3
 1968 017e 21E0     		b	.L126
 1969              	.L125:
 558:D:/iot/felix2/components/connectivity/agent_tiny/atiny_lwm2m\agenttiny.c ****     }
 559:D:/iot/felix2/components/connectivity/agent_tiny/atiny_lwm2m\agenttiny.c **** 
 560:D:/iot/felix2/components/connectivity/agent_tiny/atiny_lwm2m\agenttiny.c ****     while (!handle->atiny_quit)
 561:D:/iot/felix2/components/connectivity/agent_tiny/atiny_lwm2m\agenttiny.c ****     {
 562:D:/iot/felix2/components/connectivity/agent_tiny/atiny_lwm2m\agenttiny.c ****         timeout = BIND_TIMEOUT;
 1970              		.loc 3 562 0
 1971 0180 0A23     		movs	r3, #10
 1972 0182 FB60     		str	r3, [r7, #12]
 563:D:/iot/felix2/components/connectivity/agent_tiny/atiny_lwm2m\agenttiny.c **** 
 564:D:/iot/felix2/components/connectivity/agent_tiny/atiny_lwm2m\agenttiny.c ****         (void)atiny_step_rpt(handle->lwm2m_context);
 1973              		.loc 3 564 0
ARM GAS  C:\Users\91458\AppData\Local\Temp\ccYoNCPK.s 			page 55


 1974 0184 7B69     		ldr	r3, [r7, #20]
 1975 0186 1B68     		ldr	r3, [r3]
 1976 0188 1846     		mov	r0, r3
 1977 018a FFF7FEFF 		bl	atiny_step_rpt
 565:D:/iot/felix2/components/connectivity/agent_tiny/atiny_lwm2m\agenttiny.c ****         atiny_handle_reconnect(handle);
 1978              		.loc 3 565 0
 1979 018e 7869     		ldr	r0, [r7, #20]
 1980 0190 FFF7FEFF 		bl	atiny_handle_reconnect
 566:D:/iot/felix2/components/connectivity/agent_tiny/atiny_lwm2m\agenttiny.c ****         (void)lwm2m_step(handle->lwm2m_context, (time_t *)&timeout);
 1981              		.loc 3 566 0
 1982 0194 7B69     		ldr	r3, [r7, #20]
 1983 0196 1B68     		ldr	r3, [r3]
 1984 0198 07F10C02 		add	r2, r7, #12
 1985 019c 1146     		mov	r1, r2
 1986 019e 1846     		mov	r0, r3
 1987 01a0 FFF7FEFF 		bl	lwm2m_step
 567:D:/iot/felix2/components/connectivity/agent_tiny/atiny_lwm2m\agenttiny.c ****         reboot_check();
 1988              		.loc 3 567 0
 1989 01a4 FFF7FEFF 		bl	reboot_check
 568:D:/iot/felix2/components/connectivity/agent_tiny/atiny_lwm2m\agenttiny.c ****         (void)lwm2m_poll(handle, &timeout);
 1990              		.loc 3 568 0
 1991 01a8 07F10C03 		add	r3, r7, #12
 1992 01ac 1946     		mov	r1, r3
 1993 01ae 7869     		ldr	r0, [r7, #20]
 1994 01b0 FFF7FEFF 		bl	lwm2m_poll
 1995              	.L124:
 560:D:/iot/felix2/components/connectivity/agent_tiny/atiny_lwm2m\agenttiny.c ****     {
 1996              		.loc 3 560 0
 1997 01b4 7B69     		ldr	r3, [r7, #20]
 1998 01b6 1B6F     		ldr	r3, [r3, #112]
 1999 01b8 002B     		cmp	r3, #0
 2000 01ba E1D0     		beq	.L125
 569:D:/iot/felix2/components/connectivity/agent_tiny/atiny_lwm2m\agenttiny.c ****     }
 570:D:/iot/felix2/components/connectivity/agent_tiny/atiny_lwm2m\agenttiny.c **** 
 571:D:/iot/felix2/components/connectivity/agent_tiny/atiny_lwm2m\agenttiny.c ****     atiny_destroy(phandle);
 2001              		.loc 3 571 0
 2002 01bc 3868     		ldr	r0, [r7]
 2003 01be FFF7FEFF 		bl	atiny_destroy
 572:D:/iot/felix2/components/connectivity/agent_tiny/atiny_lwm2m\agenttiny.c **** 
 573:D:/iot/felix2/components/connectivity/agent_tiny/atiny_lwm2m\agenttiny.c ****     return ATINY_OK;
 2004              		.loc 3 573 0
 2005 01c2 0023     		movs	r3, #0
 2006              	.L126:
 574:D:/iot/felix2/components/connectivity/agent_tiny/atiny_lwm2m\agenttiny.c **** }
 2007              		.loc 3 574 0 discriminator 1
 2008 01c4 1846     		mov	r0, r3
 2009 01c6 1837     		adds	r7, r7, #24
 2010              	.LCFI63:
 2011              		.cfi_def_cfa_offset 16
 2012 01c8 BD46     		mov	sp, r7
 2013              	.LCFI64:
 2014              		.cfi_def_cfa_register 13
 2015              		@ sp needed
 2016 01ca B0BD     		pop	{r4, r5, r7, pc}
 2017              	.L128:
 2018              		.align	2
 2019              	.L127:
ARM GAS  C:\Users\91458\AppData\Local\Temp\ccYoNCPK.s 			page 56


 2020 01cc 00000000 		.word	__FUNCTION__.11995
 2021 01d0 E0020000 		.word	.LC16
 2022 01d4 04030000 		.word	.LC17
 2023 01d8 2C030000 		.word	.LC18
 2024 01dc 58030000 		.word	.LC19
 2025 01e0 00000000 		.word	observe_handle_ack
 2026 01e4 00000000 		.word	atiny_event_handle
 2027 01e8 00000000 		.word	atiny_connection_err_notify
 2028 01ec 84030000 		.word	.LC20
 2029              		.cfi_endproc
 2030              	.LFE154:
 2032              		.section	.text.atiny_deinit,"ax",%progbits
 2033              		.align	1
 2034              		.global	atiny_deinit
 2035              		.syntax unified
 2036              		.thumb
 2037              		.thumb_func
 2038              		.fpu fpv4-sp-d16
 2040              	atiny_deinit:
 2041              	.LFB155:
 575:D:/iot/felix2/components/connectivity/agent_tiny/atiny_lwm2m\agenttiny.c **** 
 576:D:/iot/felix2/components/connectivity/agent_tiny/atiny_lwm2m\agenttiny.c **** void atiny_deinit(void *phandle)
 577:D:/iot/felix2/components/connectivity/agent_tiny/atiny_lwm2m\agenttiny.c **** {
 2042              		.loc 3 577 0
 2043              		.cfi_startproc
 2044              		@ args = 0, pretend = 0, frame = 16
 2045              		@ frame_needed = 1, uses_anonymous_args = 0
 2046 0000 80B5     		push	{r7, lr}
 2047              	.LCFI65:
 2048              		.cfi_def_cfa_offset 8
 2049              		.cfi_offset 7, -8
 2050              		.cfi_offset 14, -4
 2051 0002 84B0     		sub	sp, sp, #16
 2052              	.LCFI66:
 2053              		.cfi_def_cfa_offset 24
 2054 0004 00AF     		add	r7, sp, #0
 2055              	.LCFI67:
 2056              		.cfi_def_cfa_register 7
 2057 0006 7860     		str	r0, [r7, #4]
 578:D:/iot/felix2/components/connectivity/agent_tiny/atiny_lwm2m\agenttiny.c ****     handle_data_t *handle;
 579:D:/iot/felix2/components/connectivity/agent_tiny/atiny_lwm2m\agenttiny.c ****     void *sem = NULL;
 2058              		.loc 3 579 0
 2059 0008 0023     		movs	r3, #0
 2060 000a FB60     		str	r3, [r7, #12]
 580:D:/iot/felix2/components/connectivity/agent_tiny/atiny_lwm2m\agenttiny.c **** 
 581:D:/iot/felix2/components/connectivity/agent_tiny/atiny_lwm2m\agenttiny.c ****     if (phandle == NULL)
 2061              		.loc 3 581 0
 2062 000c 7B68     		ldr	r3, [r7, #4]
 2063 000e 002B     		cmp	r3, #0
 2064 0010 0ED0     		beq	.L132
 582:D:/iot/felix2/components/connectivity/agent_tiny/atiny_lwm2m\agenttiny.c ****     {
 583:D:/iot/felix2/components/connectivity/agent_tiny/atiny_lwm2m\agenttiny.c ****         return;
 584:D:/iot/felix2/components/connectivity/agent_tiny/atiny_lwm2m\agenttiny.c ****     }
 585:D:/iot/felix2/components/connectivity/agent_tiny/atiny_lwm2m\agenttiny.c **** 
 586:D:/iot/felix2/components/connectivity/agent_tiny/atiny_lwm2m\agenttiny.c ****     handle = (handle_data_t *)phandle;
 2065              		.loc 3 586 0
 2066 0012 7B68     		ldr	r3, [r7, #4]
ARM GAS  C:\Users\91458\AppData\Local\Temp\ccYoNCPK.s 			page 57


 2067 0014 BB60     		str	r3, [r7, #8]
 587:D:/iot/felix2/components/connectivity/agent_tiny/atiny_lwm2m\agenttiny.c ****     handle->atiny_quit = 1;
 2068              		.loc 3 587 0
 2069 0016 BB68     		ldr	r3, [r7, #8]
 2070 0018 0122     		movs	r2, #1
 2071 001a 1A67     		str	r2, [r3, #112]
 588:D:/iot/felix2/components/connectivity/agent_tiny/atiny_lwm2m\agenttiny.c ****     sem = handle->quit_sem;
 2072              		.loc 3 588 0
 2073 001c BB68     		ldr	r3, [r7, #8]
 2074 001e 9B6F     		ldr	r3, [r3, #120]
 2075 0020 FB60     		str	r3, [r7, #12]
 589:D:/iot/felix2/components/connectivity/agent_tiny/atiny_lwm2m\agenttiny.c ****     atiny_mutex_lock(sem);
 2076              		.loc 3 589 0
 2077 0022 F868     		ldr	r0, [r7, #12]
 2078 0024 FFF7FEFF 		bl	atiny_mutex_lock
 590:D:/iot/felix2/components/connectivity/agent_tiny/atiny_lwm2m\agenttiny.c ****     atiny_mutex_destroy(sem);
 2079              		.loc 3 590 0
 2080 0028 F868     		ldr	r0, [r7, #12]
 2081 002a FFF7FEFF 		bl	atiny_mutex_destroy
 2082 002e 00E0     		b	.L129
 2083              	.L132:
 583:D:/iot/felix2/components/connectivity/agent_tiny/atiny_lwm2m\agenttiny.c ****     }
 2084              		.loc 3 583 0
 2085 0030 00BF     		nop
 2086              	.L129:
 591:D:/iot/felix2/components/connectivity/agent_tiny/atiny_lwm2m\agenttiny.c **** }
 2087              		.loc 3 591 0
 2088 0032 1037     		adds	r7, r7, #16
 2089              	.LCFI68:
 2090              		.cfi_def_cfa_offset 8
 2091 0034 BD46     		mov	sp, r7
 2092              	.LCFI69:
 2093              		.cfi_def_cfa_register 13
 2094              		@ sp needed
 2095 0036 80BD     		pop	{r7, pc}
 2096              		.cfi_endproc
 2097              	.LFE155:
 2099              		.section	.rodata
 2100              		.align	2
 2101              	.LC21:
 2102 03a8 5B25735D 		.ascii	"[%s][%u][%s:%d] invalid args\015\012\000"
 2102      5B25755D 
 2102      5B25733A 
 2102      25645D20 
 2102      696E7661 
 2103 03c7 00       		.align	2
 2104              	.LC22:
 2105 03c8 2F352F30 		.ascii	"/5/0/3\000"
 2105      2F3300
 2106 03cf 00       		.align	2
 2107              	.LC23:
 2108 03d0 5B25735D 		.ascii	"[%s][%u][%s:%d] lwm2m_malloc fail,len %d\015\012\000"
 2108      5B25755D 
 2108      5B25733A 
 2108      25645D20 
 2108      6C776D32 
 2109              		.section	.text.atiny_data_report,"ax",%progbits
ARM GAS  C:\Users\91458\AppData\Local\Temp\ccYoNCPK.s 			page 58


 2110              		.align	1
 2111              		.global	atiny_data_report
 2112              		.syntax unified
 2113              		.thumb
 2114              		.thumb_func
 2115              		.fpu fpv4-sp-d16
 2117              	atiny_data_report:
 2118              	.LFB156:
 592:D:/iot/felix2/components/connectivity/agent_tiny/atiny_lwm2m\agenttiny.c **** 
 593:D:/iot/felix2/components/connectivity/agent_tiny/atiny_lwm2m\agenttiny.c **** int atiny_data_report(void *phandle, data_report_t *report_data)
 594:D:/iot/felix2/components/connectivity/agent_tiny/atiny_lwm2m\agenttiny.c **** {
 2119              		.loc 3 594 0
 2120              		.cfi_startproc
 2121              		@ args = 0, pretend = 0, frame = 40
 2122              		@ frame_needed = 1, uses_anonymous_args = 0
 2123 0000 B0B5     		push	{r4, r5, r7, lr}
 2124              	.LCFI70:
 2125              		.cfi_def_cfa_offset 16
 2126              		.cfi_offset 4, -16
 2127              		.cfi_offset 5, -12
 2128              		.cfi_offset 7, -8
 2129              		.cfi_offset 14, -4
 2130 0002 8CB0     		sub	sp, sp, #48
 2131              	.LCFI71:
 2132              		.cfi_def_cfa_offset 64
 2133 0004 02AF     		add	r7, sp, #8
 2134              	.LCFI72:
 2135              		.cfi_def_cfa 7, 56
 2136 0006 7860     		str	r0, [r7, #4]
 2137 0008 3960     		str	r1, [r7]
 595:D:/iot/felix2/components/connectivity/agent_tiny/atiny_lwm2m\agenttiny.c ****     lwm2m_uri_t uri;
 596:D:/iot/felix2/components/connectivity/agent_tiny/atiny_lwm2m\agenttiny.c ****     int ret;
 597:D:/iot/felix2/components/connectivity/agent_tiny/atiny_lwm2m\agenttiny.c ****     data_report_t data;
 598:D:/iot/felix2/components/connectivity/agent_tiny/atiny_lwm2m\agenttiny.c **** 
 599:D:/iot/felix2/components/connectivity/agent_tiny/atiny_lwm2m\agenttiny.c **** 
 600:D:/iot/felix2/components/connectivity/agent_tiny/atiny_lwm2m\agenttiny.c ****     if (NULL == phandle || NULL == report_data || report_data->len <= 0
 2138              		.loc 3 600 0
 2139 000a 7B68     		ldr	r3, [r7, #4]
 2140 000c 002B     		cmp	r3, #0
 2141 000e 0FD0     		beq	.L134
 2142              		.loc 3 600 0 is_stmt 0 discriminator 1
 2143 0010 3B68     		ldr	r3, [r7]
 2144 0012 002B     		cmp	r3, #0
 2145 0014 0CD0     		beq	.L134
 2146              		.loc 3 600 0 discriminator 2
 2147 0016 3B68     		ldr	r3, [r7]
 2148 0018 9B68     		ldr	r3, [r3, #8]
 2149 001a 002B     		cmp	r3, #0
 2150 001c 08DD     		ble	.L134
 601:D:/iot/felix2/components/connectivity/agent_tiny/atiny_lwm2m\agenttiny.c ****             || report_data->len > MAX_REPORT_DATA_LEN || NULL == report_data->buf)
 2151              		.loc 3 601 0 is_stmt 1
 2152 001e 3B68     		ldr	r3, [r7]
 2153 0020 9B68     		ldr	r3, [r3, #8]
 2154 0022 B3F5806F 		cmp	r3, #1024
 2155 0026 03DC     		bgt	.L134
 2156              		.loc 3 601 0 is_stmt 0 discriminator 1
 2157 0028 3B68     		ldr	r3, [r7]
ARM GAS  C:\Users\91458\AppData\Local\Temp\ccYoNCPK.s 			page 59


 2158 002a DB68     		ldr	r3, [r3, #12]
 2159 002c 002B     		cmp	r3, #0
 2160 002e 18D1     		bne	.L135
 2161              	.L134:
 602:D:/iot/felix2/components/connectivity/agent_tiny/atiny_lwm2m\agenttiny.c ****     {
 603:D:/iot/felix2/components/connectivity/agent_tiny/atiny_lwm2m\agenttiny.c ****         ATINY_LOG(LOG_ERR, "invalid args");
 2162              		.loc 3 603 0 is_stmt 1
 2163 0030 FFF7FEFF 		bl	atiny_get_log_level
 2164 0034 0346     		mov	r3, r0
 2165 0036 032B     		cmp	r3, #3
 2166 0038 10D8     		bhi	.L136
 2167              		.loc 3 603 0 is_stmt 0 discriminator 1
 2168 003a 0320     		movs	r0, #3
 2169 003c FFF7FEFF 		bl	atiny_get_log_level_name
 2170 0040 0546     		mov	r5, r0
 2171 0042 FFF7FEFF 		bl	atiny_gettime_ms
 2172 0046 0346     		mov	r3, r0
 2173 0048 0C46     		mov	r4, r1
 2174 004a 1A46     		mov	r2, r3
 2175 004c 40F25B23 		movw	r3, #603
 2176 0050 0093     		str	r3, [sp]
 2177 0052 3A4B     		ldr	r3, .L147
 2178 0054 2946     		mov	r1, r5
 2179 0056 3A48     		ldr	r0, .L147+4
 2180 0058 FFF7FEFF 		bl	atiny_printf
 2181              	.L136:
 604:D:/iot/felix2/components/connectivity/agent_tiny/atiny_lwm2m\agenttiny.c ****         return ATINY_ARG_INVALID;
 2182              		.loc 3 604 0 is_stmt 1
 2183 005c 4FF0FF33 		mov	r3, #-1
 2184 0060 68E0     		b	.L145
 2185              	.L135:
 605:D:/iot/felix2/components/connectivity/agent_tiny/atiny_lwm2m\agenttiny.c ****     }
 606:D:/iot/felix2/components/connectivity/agent_tiny/atiny_lwm2m\agenttiny.c **** 
 607:D:/iot/felix2/components/connectivity/agent_tiny/atiny_lwm2m\agenttiny.c ****     memset((void *)&uri, 0, sizeof(uri));
 2186              		.loc 3 607 0
 2187 0062 07F11C03 		add	r3, r7, #28
 2188 0066 0822     		movs	r2, #8
 2189 0068 0021     		movs	r1, #0
 2190 006a 1846     		mov	r0, r3
 2191 006c FFF7FEFF 		bl	memset
 608:D:/iot/felix2/components/connectivity/agent_tiny/atiny_lwm2m\agenttiny.c **** 
 609:D:/iot/felix2/components/connectivity/agent_tiny/atiny_lwm2m\agenttiny.c ****     switch (report_data->type)
 2192              		.loc 3 609 0
 2193 0070 3B68     		ldr	r3, [r7]
 2194 0072 1B78     		ldrb	r3, [r3]	@ zero_extendqisi2
 2195 0074 002B     		cmp	r3, #0
 2196 0076 02D0     		beq	.L139
 2197 0078 012B     		cmp	r3, #1
 2198 007a 08D0     		beq	.L140
 2199 007c 0FE0     		b	.L146
 2200              	.L139:
 610:D:/iot/felix2/components/connectivity/agent_tiny/atiny_lwm2m\agenttiny.c ****     {
 611:D:/iot/felix2/components/connectivity/agent_tiny/atiny_lwm2m\agenttiny.c ****     case FIRMWARE_UPDATE_STATE:
 612:D:/iot/felix2/components/connectivity/agent_tiny/atiny_lwm2m\agenttiny.c ****         (void)lwm2m_stringToUri("/5/0/3", 6, &uri);
 2201              		.loc 3 612 0
 2202 007e 07F11C03 		add	r3, r7, #28
 2203 0082 1A46     		mov	r2, r3
ARM GAS  C:\Users\91458\AppData\Local\Temp\ccYoNCPK.s 			page 60


 2204 0084 0621     		movs	r1, #6
 2205 0086 2F48     		ldr	r0, .L147+8
 2206 0088 FFF7FEFF 		bl	lwm2m_stringToUri
 613:D:/iot/felix2/components/connectivity/agent_tiny/atiny_lwm2m\agenttiny.c ****         break;
 2207              		.loc 3 613 0
 2208 008c 0AE0     		b	.L141
 2209              	.L140:
 614:D:/iot/felix2/components/connectivity/agent_tiny/atiny_lwm2m\agenttiny.c ****     case APP_DATA:
 615:D:/iot/felix2/components/connectivity/agent_tiny/atiny_lwm2m\agenttiny.c ****         get_resource_uri(BINARY_APP_DATA_OBJECT_ID, 0, BINARY_APP_DATA_RES_ID, &uri);
 2210              		.loc 3 615 0
 2211 008e 07F11C03 		add	r3, r7, #28
 2212 0092 0022     		movs	r2, #0
 2213 0094 0021     		movs	r1, #0
 2214 0096 1320     		movs	r0, #19
 2215 0098 FFF7FEFF 		bl	get_resource_uri
 616:D:/iot/felix2/components/connectivity/agent_tiny/atiny_lwm2m\agenttiny.c ****         break;
 2216              		.loc 3 616 0
 2217 009c 02E0     		b	.L141
 2218              	.L146:
 617:D:/iot/felix2/components/connectivity/agent_tiny/atiny_lwm2m\agenttiny.c ****     default:
 618:D:/iot/felix2/components/connectivity/agent_tiny/atiny_lwm2m\agenttiny.c ****         return ATINY_RESOURCE_NOT_FOUND;
 2219              		.loc 3 618 0
 2220 009e 6FF00403 		mvn	r3, #4
 2221 00a2 47E0     		b	.L145
 2222              	.L141:
 619:D:/iot/felix2/components/connectivity/agent_tiny/atiny_lwm2m\agenttiny.c ****     }
 620:D:/iot/felix2/components/connectivity/agent_tiny/atiny_lwm2m\agenttiny.c **** 
 621:D:/iot/felix2/components/connectivity/agent_tiny/atiny_lwm2m\agenttiny.c ****     memcpy(&data, report_data, sizeof(data));
 2223              		.loc 3 621 0
 2224 00a4 07F10803 		add	r3, r7, #8
 2225 00a8 1422     		movs	r2, #20
 2226 00aa 3968     		ldr	r1, [r7]
 2227 00ac 1846     		mov	r0, r3
 2228 00ae FFF7FEFF 		bl	memcpy
 622:D:/iot/felix2/components/connectivity/agent_tiny/atiny_lwm2m\agenttiny.c ****     data.buf = lwm2m_malloc(report_data->len);
 2229              		.loc 3 622 0
 2230 00b2 3B68     		ldr	r3, [r7]
 2231 00b4 9B68     		ldr	r3, [r3, #8]
 2232 00b6 1846     		mov	r0, r3
 2233 00b8 FFF7FEFF 		bl	lwm2m_malloc
 2234 00bc 0346     		mov	r3, r0
 2235 00be 7B61     		str	r3, [r7, #20]
 623:D:/iot/felix2/components/connectivity/agent_tiny/atiny_lwm2m\agenttiny.c ****     if (NULL == data.buf)
 2236              		.loc 3 623 0
 2237 00c0 7B69     		ldr	r3, [r7, #20]
 2238 00c2 002B     		cmp	r3, #0
 2239 00c4 1AD1     		bne	.L142
 624:D:/iot/felix2/components/connectivity/agent_tiny/atiny_lwm2m\agenttiny.c ****     {
 625:D:/iot/felix2/components/connectivity/agent_tiny/atiny_lwm2m\agenttiny.c ****         ATINY_LOG(LOG_ERR, "lwm2m_malloc fail,len %d", data.len);
 2240              		.loc 3 625 0
 2241 00c6 FFF7FEFF 		bl	atiny_get_log_level
 2242 00ca 0346     		mov	r3, r0
 2243 00cc 032B     		cmp	r3, #3
 2244 00ce 12D8     		bhi	.L143
 2245              		.loc 3 625 0 is_stmt 0 discriminator 1
 2246 00d0 0320     		movs	r0, #3
 2247 00d2 FFF7FEFF 		bl	atiny_get_log_level_name
ARM GAS  C:\Users\91458\AppData\Local\Temp\ccYoNCPK.s 			page 61


 2248 00d6 0546     		mov	r5, r0
 2249 00d8 FFF7FEFF 		bl	atiny_gettime_ms
 2250 00dc 0346     		mov	r3, r0
 2251 00de 0C46     		mov	r4, r1
 2252 00e0 1A46     		mov	r2, r3
 2253 00e2 3B69     		ldr	r3, [r7, #16]
 2254 00e4 0193     		str	r3, [sp, #4]
 2255 00e6 40F27123 		movw	r3, #625
 2256 00ea 0093     		str	r3, [sp]
 2257 00ec 134B     		ldr	r3, .L147
 2258 00ee 2946     		mov	r1, r5
 2259 00f0 1548     		ldr	r0, .L147+12
 2260 00f2 FFF7FEFF 		bl	atiny_printf
 2261              	.L143:
 626:D:/iot/felix2/components/connectivity/agent_tiny/atiny_lwm2m\agenttiny.c ****         return ATINY_MALLOC_FAILED;;
 2262              		.loc 3 626 0 is_stmt 1
 2263 00f6 6FF00303 		mvn	r3, #3
 2264 00fa 1BE0     		b	.L145
 2265              	.L142:
 627:D:/iot/felix2/components/connectivity/agent_tiny/atiny_lwm2m\agenttiny.c ****     }
 628:D:/iot/felix2/components/connectivity/agent_tiny/atiny_lwm2m\agenttiny.c ****     memcpy(data.buf, report_data->buf, report_data->len);
 2266              		.loc 3 628 0
 2267 00fc 7869     		ldr	r0, [r7, #20]
 2268 00fe 3B68     		ldr	r3, [r7]
 2269 0100 D968     		ldr	r1, [r3, #12]
 2270 0102 3B68     		ldr	r3, [r7]
 2271 0104 9B68     		ldr	r3, [r3, #8]
 2272 0106 1A46     		mov	r2, r3
 2273 0108 FFF7FEFF 		bl	memcpy
 629:D:/iot/felix2/components/connectivity/agent_tiny/atiny_lwm2m\agenttiny.c **** 
 630:D:/iot/felix2/components/connectivity/agent_tiny/atiny_lwm2m\agenttiny.c ****     ret = atiny_queue_rpt_data(&uri, &data);
 2274              		.loc 3 630 0
 2275 010c 07F10802 		add	r2, r7, #8
 2276 0110 07F11C03 		add	r3, r7, #28
 2277 0114 1146     		mov	r1, r2
 2278 0116 1846     		mov	r0, r3
 2279 0118 FFF7FEFF 		bl	atiny_queue_rpt_data
 2280 011c 7862     		str	r0, [r7, #36]
 631:D:/iot/felix2/components/connectivity/agent_tiny/atiny_lwm2m\agenttiny.c **** 
 632:D:/iot/felix2/components/connectivity/agent_tiny/atiny_lwm2m\agenttiny.c ****     if (ATINY_OK != ret)
 2281              		.loc 3 632 0
 2282 011e 7B6A     		ldr	r3, [r7, #36]
 2283 0120 002B     		cmp	r3, #0
 2284 0122 06D0     		beq	.L144
 633:D:/iot/felix2/components/connectivity/agent_tiny/atiny_lwm2m\agenttiny.c ****     {
 634:D:/iot/felix2/components/connectivity/agent_tiny/atiny_lwm2m\agenttiny.c ****         if (data.buf != NULL)
 2285              		.loc 3 634 0
 2286 0124 7B69     		ldr	r3, [r7, #20]
 2287 0126 002B     		cmp	r3, #0
 2288 0128 03D0     		beq	.L144
 635:D:/iot/felix2/components/connectivity/agent_tiny/atiny_lwm2m\agenttiny.c ****         {
 636:D:/iot/felix2/components/connectivity/agent_tiny/atiny_lwm2m\agenttiny.c ****             lwm2m_free(data.buf);
 2289              		.loc 3 636 0
 2290 012a 7B69     		ldr	r3, [r7, #20]
 2291 012c 1846     		mov	r0, r3
 2292 012e FFF7FEFF 		bl	lwm2m_free
 2293              	.L144:
ARM GAS  C:\Users\91458\AppData\Local\Temp\ccYoNCPK.s 			page 62


 637:D:/iot/felix2/components/connectivity/agent_tiny/atiny_lwm2m\agenttiny.c ****         }
 638:D:/iot/felix2/components/connectivity/agent_tiny/atiny_lwm2m\agenttiny.c ****     }
 639:D:/iot/felix2/components/connectivity/agent_tiny/atiny_lwm2m\agenttiny.c **** 
 640:D:/iot/felix2/components/connectivity/agent_tiny/atiny_lwm2m\agenttiny.c ****     return ret;
 2294              		.loc 3 640 0
 2295 0132 7B6A     		ldr	r3, [r7, #36]
 2296              	.L145:
 641:D:/iot/felix2/components/connectivity/agent_tiny/atiny_lwm2m\agenttiny.c **** }
 2297              		.loc 3 641 0 discriminator 1
 2298 0134 1846     		mov	r0, r3
 2299 0136 2837     		adds	r7, r7, #40
 2300              	.LCFI73:
 2301              		.cfi_def_cfa_offset 16
 2302 0138 BD46     		mov	sp, r7
 2303              	.LCFI74:
 2304              		.cfi_def_cfa_register 13
 2305              		@ sp needed
 2306 013a B0BD     		pop	{r4, r5, r7, pc}
 2307              	.L148:
 2308              		.align	2
 2309              	.L147:
 2310 013c 00000000 		.word	__FUNCTION__.12011
 2311 0140 A8030000 		.word	.LC21
 2312 0144 C8030000 		.word	.LC22
 2313 0148 D0030000 		.word	.LC23
 2314              		.cfi_endproc
 2315              	.LFE156:
 2317              		.section	.rodata
 2318 03fb 00       		.align	2
 2319              	.LC24:
 2320 03fc 5B25735D 		.ascii	"[%s][%u][%s:%d] not registered\015\012\000"
 2320      5B25755D 
 2320      5B25733A 
 2320      25645D20 
 2320      6E6F7420 
 2321              		.section	.text.atiny_data_change,"ax",%progbits
 2322              		.align	1
 2323              		.global	atiny_data_change
 2324              		.syntax unified
 2325              		.thumb
 2326              		.thumb_func
 2327              		.fpu fpv4-sp-d16
 2329              	atiny_data_change:
 2330              	.LFB157:
 642:D:/iot/felix2/components/connectivity/agent_tiny/atiny_lwm2m\agenttiny.c **** 
 643:D:/iot/felix2/components/connectivity/agent_tiny/atiny_lwm2m\agenttiny.c **** int atiny_data_change(void *phandle, const char *data_type)
 644:D:/iot/felix2/components/connectivity/agent_tiny/atiny_lwm2m\agenttiny.c **** {
 2331              		.loc 3 644 0
 2332              		.cfi_startproc
 2333              		@ args = 0, pretend = 0, frame = 24
 2334              		@ frame_needed = 1, uses_anonymous_args = 0
 2335 0000 B0B5     		push	{r4, r5, r7, lr}
 2336              	.LCFI75:
 2337              		.cfi_def_cfa_offset 16
 2338              		.cfi_offset 4, -16
 2339              		.cfi_offset 5, -12
 2340              		.cfi_offset 7, -8
ARM GAS  C:\Users\91458\AppData\Local\Temp\ccYoNCPK.s 			page 63


 2341              		.cfi_offset 14, -4
 2342 0002 88B0     		sub	sp, sp, #32
 2343              	.LCFI76:
 2344              		.cfi_def_cfa_offset 48
 2345 0004 02AF     		add	r7, sp, #8
 2346              	.LCFI77:
 2347              		.cfi_def_cfa 7, 40
 2348 0006 7860     		str	r0, [r7, #4]
 2349 0008 3960     		str	r1, [r7]
 645:D:/iot/felix2/components/connectivity/agent_tiny/atiny_lwm2m\agenttiny.c ****     lwm2m_uri_t uri;
 646:D:/iot/felix2/components/connectivity/agent_tiny/atiny_lwm2m\agenttiny.c ****     handle_data_t *handle;
 647:D:/iot/felix2/components/connectivity/agent_tiny/atiny_lwm2m\agenttiny.c **** 
 648:D:/iot/felix2/components/connectivity/agent_tiny/atiny_lwm2m\agenttiny.c ****     if (NULL == phandle || NULL == data_type)
 2350              		.loc 3 648 0
 2351 000a 7B68     		ldr	r3, [r7, #4]
 2352 000c 002B     		cmp	r3, #0
 2353 000e 02D0     		beq	.L150
 2354              		.loc 3 648 0 is_stmt 0 discriminator 1
 2355 0010 3B68     		ldr	r3, [r7]
 2356 0012 002B     		cmp	r3, #0
 2357 0014 18D1     		bne	.L151
 2358              	.L150:
 649:D:/iot/felix2/components/connectivity/agent_tiny/atiny_lwm2m\agenttiny.c ****     {
 650:D:/iot/felix2/components/connectivity/agent_tiny/atiny_lwm2m\agenttiny.c ****         ATINY_LOG(LOG_ERR, "invalid args");
 2359              		.loc 3 650 0 is_stmt 1
 2360 0016 FFF7FEFF 		bl	atiny_get_log_level
 2361 001a 0346     		mov	r3, r0
 2362 001c 032B     		cmp	r3, #3
 2363 001e 10D8     		bhi	.L152
 2364              		.loc 3 650 0 is_stmt 0 discriminator 1
 2365 0020 0320     		movs	r0, #3
 2366 0022 FFF7FEFF 		bl	atiny_get_log_level_name
 2367 0026 0546     		mov	r5, r0
 2368 0028 FFF7FEFF 		bl	atiny_gettime_ms
 2369 002c 0346     		mov	r3, r0
 2370 002e 0C46     		mov	r4, r1
 2371 0030 1A46     		mov	r2, r3
 2372 0032 40F28A23 		movw	r3, #650
 2373 0036 0093     		str	r3, [sp]
 2374 0038 284B     		ldr	r3, .L157
 2375 003a 2946     		mov	r1, r5
 2376 003c 2848     		ldr	r0, .L157+4
 2377 003e FFF7FEFF 		bl	atiny_printf
 2378              	.L152:
 651:D:/iot/felix2/components/connectivity/agent_tiny/atiny_lwm2m\agenttiny.c ****         return ATINY_ARG_INVALID;
 2379              		.loc 3 651 0 is_stmt 1
 2380 0042 4FF0FF33 		mov	r3, #-1
 2381 0046 45E0     		b	.L156
 2382              	.L151:
 652:D:/iot/felix2/components/connectivity/agent_tiny/atiny_lwm2m\agenttiny.c ****     }
 653:D:/iot/felix2/components/connectivity/agent_tiny/atiny_lwm2m\agenttiny.c **** 
 654:D:/iot/felix2/components/connectivity/agent_tiny/atiny_lwm2m\agenttiny.c ****     memset((void *)&uri, 0, sizeof(uri));
 2383              		.loc 3 654 0
 2384 0048 07F10C03 		add	r3, r7, #12
 2385 004c 0822     		movs	r2, #8
 2386 004e 0021     		movs	r1, #0
 2387 0050 1846     		mov	r0, r3
ARM GAS  C:\Users\91458\AppData\Local\Temp\ccYoNCPK.s 			page 64


 2388 0052 FFF7FEFF 		bl	memset
 655:D:/iot/felix2/components/connectivity/agent_tiny/atiny_lwm2m\agenttiny.c ****     handle = (handle_data_t *)phandle;
 2389              		.loc 3 655 0
 2390 0056 7B68     		ldr	r3, [r7, #4]
 2391 0058 7B61     		str	r3, [r7, #20]
 656:D:/iot/felix2/components/connectivity/agent_tiny/atiny_lwm2m\agenttiny.c **** 
 657:D:/iot/felix2/components/connectivity/agent_tiny/atiny_lwm2m\agenttiny.c ****     if (handle->lwm2m_context->state != STATE_READY)
 2392              		.loc 3 657 0
 2393 005a 7B69     		ldr	r3, [r7, #20]
 2394 005c 1B68     		ldr	r3, [r3]
 2395 005e 1B78     		ldrb	r3, [r3]	@ zero_extendqisi2
 2396 0060 052B     		cmp	r3, #5
 2397 0062 18D0     		beq	.L154
 658:D:/iot/felix2/components/connectivity/agent_tiny/atiny_lwm2m\agenttiny.c ****     {
 659:D:/iot/felix2/components/connectivity/agent_tiny/atiny_lwm2m\agenttiny.c ****         ATINY_LOG(LOG_INFO, "not registered");
 2398              		.loc 3 659 0
 2399 0064 FFF7FEFF 		bl	atiny_get_log_level
 2400 0068 0346     		mov	r3, r0
 2401 006a 012B     		cmp	r3, #1
 2402 006c 10D8     		bhi	.L155
 2403              		.loc 3 659 0 is_stmt 0 discriminator 1
 2404 006e 0120     		movs	r0, #1
 2405 0070 FFF7FEFF 		bl	atiny_get_log_level_name
 2406 0074 0546     		mov	r5, r0
 2407 0076 FFF7FEFF 		bl	atiny_gettime_ms
 2408 007a 0346     		mov	r3, r0
 2409 007c 0C46     		mov	r4, r1
 2410 007e 1A46     		mov	r2, r3
 2411 0080 40F29323 		movw	r3, #659
 2412 0084 0093     		str	r3, [sp]
 2413 0086 154B     		ldr	r3, .L157
 2414 0088 2946     		mov	r1, r5
 2415 008a 1648     		ldr	r0, .L157+8
 2416 008c FFF7FEFF 		bl	atiny_printf
 2417              	.L155:
 660:D:/iot/felix2/components/connectivity/agent_tiny/atiny_lwm2m\agenttiny.c ****         return ATINY_CLIENT_UNREGISTERED;
 2418              		.loc 3 660 0 is_stmt 1
 2419 0090 6FF00603 		mvn	r3, #6
 2420 0094 1EE0     		b	.L156
 2421              	.L154:
 661:D:/iot/felix2/components/connectivity/agent_tiny/atiny_lwm2m\agenttiny.c ****     }
 662:D:/iot/felix2/components/connectivity/agent_tiny/atiny_lwm2m\agenttiny.c **** 
 663:D:/iot/felix2/components/connectivity/agent_tiny/atiny_lwm2m\agenttiny.c ****     (void)lwm2m_stringToUri(data_type, strlen(data_type), &uri);
 2422              		.loc 3 663 0
 2423 0096 3868     		ldr	r0, [r7]
 2424 0098 FFF7FEFF 		bl	strlen
 2425 009c 0146     		mov	r1, r0
 2426 009e 07F10C03 		add	r3, r7, #12
 2427 00a2 1A46     		mov	r2, r3
 2428 00a4 3868     		ldr	r0, [r7]
 2429 00a6 FFF7FEFF 		bl	lwm2m_stringToUri
 664:D:/iot/felix2/components/connectivity/agent_tiny/atiny_lwm2m\agenttiny.c **** 
 665:D:/iot/felix2/components/connectivity/agent_tiny/atiny_lwm2m\agenttiny.c ****     atiny_mutex_lock(handle->lwm2m_context->observe_mutex);
 2430              		.loc 3 665 0
 2431 00aa 7B69     		ldr	r3, [r7, #20]
 2432 00ac 1B68     		ldr	r3, [r3]
 2433 00ae 1B6A     		ldr	r3, [r3, #32]
ARM GAS  C:\Users\91458\AppData\Local\Temp\ccYoNCPK.s 			page 65


 2434 00b0 1846     		mov	r0, r3
 2435 00b2 FFF7FEFF 		bl	atiny_mutex_lock
 666:D:/iot/felix2/components/connectivity/agent_tiny/atiny_lwm2m\agenttiny.c ****     lwm2m_resource_value_changed(handle->lwm2m_context, &uri);
 2436              		.loc 3 666 0
 2437 00b6 7B69     		ldr	r3, [r7, #20]
 2438 00b8 1B68     		ldr	r3, [r3]
 2439 00ba 07F10C02 		add	r2, r7, #12
 2440 00be 1146     		mov	r1, r2
 2441 00c0 1846     		mov	r0, r3
 2442 00c2 FFF7FEFF 		bl	lwm2m_resource_value_changed
 667:D:/iot/felix2/components/connectivity/agent_tiny/atiny_lwm2m\agenttiny.c ****     atiny_mutex_unlock(handle->lwm2m_context->observe_mutex);
 2443              		.loc 3 667 0
 2444 00c6 7B69     		ldr	r3, [r7, #20]
 2445 00c8 1B68     		ldr	r3, [r3]
 2446 00ca 1B6A     		ldr	r3, [r3, #32]
 2447 00cc 1846     		mov	r0, r3
 2448 00ce FFF7FEFF 		bl	atiny_mutex_unlock
 668:D:/iot/felix2/components/connectivity/agent_tiny/atiny_lwm2m\agenttiny.c **** 
 669:D:/iot/felix2/components/connectivity/agent_tiny/atiny_lwm2m\agenttiny.c ****     return ATINY_OK;
 2449              		.loc 3 669 0
 2450 00d2 0023     		movs	r3, #0
 2451              	.L156:
 670:D:/iot/felix2/components/connectivity/agent_tiny/atiny_lwm2m\agenttiny.c **** }
 2452              		.loc 3 670 0 discriminator 1
 2453 00d4 1846     		mov	r0, r3
 2454 00d6 1837     		adds	r7, r7, #24
 2455              	.LCFI78:
 2456              		.cfi_def_cfa_offset 16
 2457 00d8 BD46     		mov	sp, r7
 2458              	.LCFI79:
 2459              		.cfi_def_cfa_register 13
 2460              		@ sp needed
 2461 00da B0BD     		pop	{r4, r5, r7, pc}
 2462              	.L158:
 2463              		.align	2
 2464              	.L157:
 2465 00dc 00000000 		.word	__FUNCTION__.12022
 2466 00e0 A8030000 		.word	.LC21
 2467 00e4 FC030000 		.word	.LC24
 2468              		.cfi_endproc
 2469              	.LFE157:
 2471              		.section	.text.observe_handle_ack,"ax",%progbits
 2472              		.align	1
 2473              		.global	observe_handle_ack
 2474              		.syntax unified
 2475              		.thumb
 2476              		.thumb_func
 2477              		.fpu fpv4-sp-d16
 2479              	observe_handle_ack:
 2480              	.LFB158:
 671:D:/iot/felix2/components/connectivity/agent_tiny/atiny_lwm2m\agenttiny.c **** 
 672:D:/iot/felix2/components/connectivity/agent_tiny/atiny_lwm2m\agenttiny.c **** void observe_handle_ack(lwm2m_transaction_t *transacP, void *message)
 673:D:/iot/felix2/components/connectivity/agent_tiny/atiny_lwm2m\agenttiny.c **** {
 2481              		.loc 3 673 0
 2482              		.cfi_startproc
 2483              		@ args = 0, pretend = 0, frame = 16
 2484              		@ frame_needed = 1, uses_anonymous_args = 0
ARM GAS  C:\Users\91458\AppData\Local\Temp\ccYoNCPK.s 			page 66


 2485 0000 80B5     		push	{r7, lr}
 2486              	.LCFI80:
 2487              		.cfi_def_cfa_offset 8
 2488              		.cfi_offset 7, -8
 2489              		.cfi_offset 14, -4
 2490 0002 84B0     		sub	sp, sp, #16
 2491              	.LCFI81:
 2492              		.cfi_def_cfa_offset 24
 2493 0004 00AF     		add	r7, sp, #0
 2494              	.LCFI82:
 2495              		.cfi_def_cfa_register 7
 2496 0006 7860     		str	r0, [r7, #4]
 2497 0008 3960     		str	r1, [r7]
 674:D:/iot/felix2/components/connectivity/agent_tiny/atiny_lwm2m\agenttiny.c ****     atiny_ack_callback ack_callback = (atiny_ack_callback)transacP->cfg.callback;
 2498              		.loc 3 674 0
 2499 000a 7B68     		ldr	r3, [r7, #4]
 2500 000c DB6B     		ldr	r3, [r3, #60]
 2501 000e FB60     		str	r3, [r7, #12]
 675:D:/iot/felix2/components/connectivity/agent_tiny/atiny_lwm2m\agenttiny.c ****     if (transacP->ack_received)
 2502              		.loc 3 675 0
 2503 0010 7B68     		ldr	r3, [r7, #4]
 2504 0012 1B7B     		ldrb	r3, [r3, #12]	@ zero_extendqisi2
 2505 0014 002B     		cmp	r3, #0
 2506 0016 08D0     		beq	.L160
 676:D:/iot/felix2/components/connectivity/agent_tiny/atiny_lwm2m\agenttiny.c ****     {
 677:D:/iot/felix2/components/connectivity/agent_tiny/atiny_lwm2m\agenttiny.c ****         ack_callback((atiny_report_type_e)(transacP->cfg.type), transacP->cfg.cookie, SENT_SUCCESS)
 2507              		.loc 3 677 0
 2508 0018 7B68     		ldr	r3, [r7, #4]
 2509 001a 5B6B     		ldr	r3, [r3, #52]
 2510 001c D8B2     		uxtb	r0, r3
 2511 001e 7B68     		ldr	r3, [r7, #4]
 2512 0020 996B     		ldr	r1, [r3, #56]
 2513 0022 FB68     		ldr	r3, [r7, #12]
 2514 0024 0422     		movs	r2, #4
 2515 0026 9847     		blx	r3
 2516              	.LVL0:
 678:D:/iot/felix2/components/connectivity/agent_tiny/atiny_lwm2m\agenttiny.c ****     }
 679:D:/iot/felix2/components/connectivity/agent_tiny/atiny_lwm2m\agenttiny.c ****     else if (transacP->retrans_counter > COAP_MAX_RETRANSMIT)
 680:D:/iot/felix2/components/connectivity/agent_tiny/atiny_lwm2m\agenttiny.c ****     {
 681:D:/iot/felix2/components/connectivity/agent_tiny/atiny_lwm2m\agenttiny.c ****         ack_callback((atiny_report_type_e)(transacP->cfg.type), transacP->cfg.cookie, SENT_TIME_OUT
 682:D:/iot/felix2/components/connectivity/agent_tiny/atiny_lwm2m\agenttiny.c ****     }
 683:D:/iot/felix2/components/connectivity/agent_tiny/atiny_lwm2m\agenttiny.c ****     else
 684:D:/iot/felix2/components/connectivity/agent_tiny/atiny_lwm2m\agenttiny.c ****     {
 685:D:/iot/felix2/components/connectivity/agent_tiny/atiny_lwm2m\agenttiny.c ****         ack_callback((atiny_report_type_e)(transacP->cfg.type), transacP->cfg.cookie, SENT_FAIL);
 686:D:/iot/felix2/components/connectivity/agent_tiny/atiny_lwm2m\agenttiny.c ****     }
 687:D:/iot/felix2/components/connectivity/agent_tiny/atiny_lwm2m\agenttiny.c **** }
 2517              		.loc 3 687 0
 2518 0028 14E0     		b	.L163
 2519              	.L160:
 679:D:/iot/felix2/components/connectivity/agent_tiny/atiny_lwm2m\agenttiny.c ****     {
 2520              		.loc 3 679 0
 2521 002a 7B68     		ldr	r3, [r7, #4]
 2522 002c 1B7E     		ldrb	r3, [r3, #24]	@ zero_extendqisi2
 2523 002e 042B     		cmp	r3, #4
 2524 0030 08D9     		bls	.L162
 681:D:/iot/felix2/components/connectivity/agent_tiny/atiny_lwm2m\agenttiny.c ****     }
 2525              		.loc 3 681 0
ARM GAS  C:\Users\91458\AppData\Local\Temp\ccYoNCPK.s 			page 67


 2526 0032 7B68     		ldr	r3, [r7, #4]
 2527 0034 5B6B     		ldr	r3, [r3, #52]
 2528 0036 D8B2     		uxtb	r0, r3
 2529 0038 7B68     		ldr	r3, [r7, #4]
 2530 003a 996B     		ldr	r1, [r3, #56]
 2531 003c FB68     		ldr	r3, [r7, #12]
 2532 003e 0322     		movs	r2, #3
 2533 0040 9847     		blx	r3
 2534              	.LVL1:
 2535              		.loc 3 687 0
 2536 0042 07E0     		b	.L163
 2537              	.L162:
 685:D:/iot/felix2/components/connectivity/agent_tiny/atiny_lwm2m\agenttiny.c ****     }
 2538              		.loc 3 685 0
 2539 0044 7B68     		ldr	r3, [r7, #4]
 2540 0046 5B6B     		ldr	r3, [r3, #52]
 2541 0048 D8B2     		uxtb	r0, r3
 2542 004a 7B68     		ldr	r3, [r7, #4]
 2543 004c 996B     		ldr	r1, [r3, #56]
 2544 004e FB68     		ldr	r3, [r7, #12]
 2545 0050 0222     		movs	r2, #2
 2546 0052 9847     		blx	r3
 2547              	.LVL2:
 2548              	.L163:
 2549              		.loc 3 687 0
 2550 0054 00BF     		nop
 2551 0056 1037     		adds	r7, r7, #16
 2552              	.LCFI83:
 2553              		.cfi_def_cfa_offset 8
 2554 0058 BD46     		mov	sp, r7
 2555              	.LCFI84:
 2556              		.cfi_def_cfa_register 13
 2557              		@ sp needed
 2558 005a 80BD     		pop	{r7, pc}
 2559              		.cfi_endproc
 2560              	.LFE158:
 2562              		.section	.text.atiny_reconnect,"ax",%progbits
 2563              		.align	1
 2564              		.global	atiny_reconnect
 2565              		.syntax unified
 2566              		.thumb
 2567              		.thumb_func
 2568              		.fpu fpv4-sp-d16
 2570              	atiny_reconnect:
 2571              	.LFB159:
 688:D:/iot/felix2/components/connectivity/agent_tiny/atiny_lwm2m\agenttiny.c **** 
 689:D:/iot/felix2/components/connectivity/agent_tiny/atiny_lwm2m\agenttiny.c **** int atiny_reconnect(void *phandle)
 690:D:/iot/felix2/components/connectivity/agent_tiny/atiny_lwm2m\agenttiny.c **** {
 2572              		.loc 3 690 0
 2573              		.cfi_startproc
 2574              		@ args = 0, pretend = 0, frame = 16
 2575              		@ frame_needed = 1, uses_anonymous_args = 0
 2576 0000 B0B5     		push	{r4, r5, r7, lr}
 2577              	.LCFI85:
 2578              		.cfi_def_cfa_offset 16
 2579              		.cfi_offset 4, -16
 2580              		.cfi_offset 5, -12
ARM GAS  C:\Users\91458\AppData\Local\Temp\ccYoNCPK.s 			page 68


 2581              		.cfi_offset 7, -8
 2582              		.cfi_offset 14, -4
 2583 0002 86B0     		sub	sp, sp, #24
 2584              	.LCFI86:
 2585              		.cfi_def_cfa_offset 40
 2586 0004 02AF     		add	r7, sp, #8
 2587              	.LCFI87:
 2588              		.cfi_def_cfa 7, 32
 2589 0006 7860     		str	r0, [r7, #4]
 691:D:/iot/felix2/components/connectivity/agent_tiny/atiny_lwm2m\agenttiny.c ****     handle_data_t *handle = (handle_data_t *)phandle;
 2590              		.loc 3 691 0
 2591 0008 7B68     		ldr	r3, [r7, #4]
 2592 000a FB60     		str	r3, [r7, #12]
 692:D:/iot/felix2/components/connectivity/agent_tiny/atiny_lwm2m\agenttiny.c **** 
 693:D:/iot/felix2/components/connectivity/agent_tiny/atiny_lwm2m\agenttiny.c **** 
 694:D:/iot/felix2/components/connectivity/agent_tiny/atiny_lwm2m\agenttiny.c ****     if (NULL == phandle)
 2593              		.loc 3 694 0
 2594 000c 7B68     		ldr	r3, [r7, #4]
 2595 000e 002B     		cmp	r3, #0
 2596 0010 18D1     		bne	.L165
 695:D:/iot/felix2/components/connectivity/agent_tiny/atiny_lwm2m\agenttiny.c ****     {
 696:D:/iot/felix2/components/connectivity/agent_tiny/atiny_lwm2m\agenttiny.c ****         ATINY_LOG(LOG_FATAL, "Parameter null");
 2597              		.loc 3 696 0
 2598 0012 FFF7FEFF 		bl	atiny_get_log_level
 2599 0016 0346     		mov	r3, r0
 2600 0018 042B     		cmp	r3, #4
 2601 001a 10D8     		bhi	.L166
 2602              		.loc 3 696 0 is_stmt 0 discriminator 1
 2603 001c 0420     		movs	r0, #4
 2604 001e FFF7FEFF 		bl	atiny_get_log_level_name
 2605 0022 0546     		mov	r5, r0
 2606 0024 FFF7FEFF 		bl	atiny_gettime_ms
 2607 0028 0346     		mov	r3, r0
 2608 002a 0C46     		mov	r4, r1
 2609 002c 1A46     		mov	r2, r3
 2610 002e 4FF42E73 		mov	r3, #696
 2611 0032 0093     		str	r3, [sp]
 2612 0034 074B     		ldr	r3, .L168
 2613 0036 2946     		mov	r1, r5
 2614 0038 0748     		ldr	r0, .L168+4
 2615 003a FFF7FEFF 		bl	atiny_printf
 2616              	.L166:
 697:D:/iot/felix2/components/connectivity/agent_tiny/atiny_lwm2m\agenttiny.c ****         return ATINY_ARG_INVALID;
 2617              		.loc 3 697 0 is_stmt 1
 2618 003e 4FF0FF33 		mov	r3, #-1
 2619 0042 03E0     		b	.L167
 2620              	.L165:
 698:D:/iot/felix2/components/connectivity/agent_tiny/atiny_lwm2m\agenttiny.c ****     }
 699:D:/iot/felix2/components/connectivity/agent_tiny/atiny_lwm2m\agenttiny.c ****     handle->reconnect_flag = true;
 2621              		.loc 3 699 0
 2622 0044 FB68     		ldr	r3, [r7, #12]
 2623 0046 0122     		movs	r2, #1
 2624 0048 5A67     		str	r2, [r3, #116]
 700:D:/iot/felix2/components/connectivity/agent_tiny/atiny_lwm2m\agenttiny.c **** 
 701:D:/iot/felix2/components/connectivity/agent_tiny/atiny_lwm2m\agenttiny.c ****     return ATINY_OK;
 2625              		.loc 3 701 0
 2626 004a 0023     		movs	r3, #0
ARM GAS  C:\Users\91458\AppData\Local\Temp\ccYoNCPK.s 			page 69


 2627              	.L167:
 702:D:/iot/felix2/components/connectivity/agent_tiny/atiny_lwm2m\agenttiny.c **** }
 2628              		.loc 3 702 0
 2629 004c 1846     		mov	r0, r3
 2630 004e 1037     		adds	r7, r7, #16
 2631              	.LCFI88:
 2632              		.cfi_def_cfa_offset 16
 2633 0050 BD46     		mov	sp, r7
 2634              	.LCFI89:
 2635              		.cfi_def_cfa_register 13
 2636              		@ sp needed
 2637 0052 B0BD     		pop	{r4, r5, r7, pc}
 2638              	.L169:
 2639              		.align	2
 2640              	.L168:
 2641 0054 00000000 		.word	__FUNCTION__.12032
 2642 0058 E0020000 		.word	.LC16
 2643              		.cfi_endproc
 2644              	.LFE159:
 2646              		.section	.text.atiny_set_reboot_flag,"ax",%progbits
 2647              		.align	1
 2648              		.global	atiny_set_reboot_flag
 2649              		.syntax unified
 2650              		.thumb
 2651              		.thumb_func
 2652              		.fpu fpv4-sp-d16
 2654              	atiny_set_reboot_flag:
 2655              	.LFB160:
 703:D:/iot/felix2/components/connectivity/agent_tiny/atiny_lwm2m\agenttiny.c **** 
 704:D:/iot/felix2/components/connectivity/agent_tiny/atiny_lwm2m\agenttiny.c **** void atiny_set_reboot_flag()
 705:D:/iot/felix2/components/connectivity/agent_tiny/atiny_lwm2m\agenttiny.c **** {
 2656              		.loc 3 705 0
 2657              		.cfi_startproc
 2658              		@ args = 0, pretend = 0, frame = 0
 2659              		@ frame_needed = 1, uses_anonymous_args = 0
 2660              		@ link register save eliminated.
 2661 0000 80B4     		push	{r7}
 2662              	.LCFI90:
 2663              		.cfi_def_cfa_offset 4
 2664              		.cfi_offset 7, -4
 2665 0002 00AF     		add	r7, sp, #0
 2666              	.LCFI91:
 2667              		.cfi_def_cfa_register 7
 706:D:/iot/felix2/components/connectivity/agent_tiny/atiny_lwm2m\agenttiny.c ****     g_reboot = true;
 2668              		.loc 3 706 0
 2669 0004 034B     		ldr	r3, .L171
 2670 0006 0122     		movs	r2, #1
 2671 0008 1A60     		str	r2, [r3]
 707:D:/iot/felix2/components/connectivity/agent_tiny/atiny_lwm2m\agenttiny.c **** }
 2672              		.loc 3 707 0
 2673 000a 00BF     		nop
 2674 000c BD46     		mov	sp, r7
 2675              	.LCFI92:
 2676              		.cfi_def_cfa_register 13
 2677              		@ sp needed
 2678 000e 5DF8047B 		ldr	r7, [sp], #4
 2679              	.LCFI93:
ARM GAS  C:\Users\91458\AppData\Local\Temp\ccYoNCPK.s 			page 70


 2680              		.cfi_restore 7
 2681              		.cfi_def_cfa_offset 0
 2682 0012 7047     		bx	lr
 2683              	.L172:
 2684              		.align	2
 2685              	.L171:
 2686 0014 00000000 		.word	g_reboot
 2687              		.cfi_endproc
 2688              	.LFE160:
 2690              		.section	.rodata.__FUNCTION__.11928,"a",%progbits
 2691              		.align	2
 2694              	__FUNCTION__.11928:
 2695 0000 6174696E 		.ascii	"atiny_init\000"
 2695      795F696E 
 2695      697400
 2696              		.section	.rodata.__FUNCTION__.11943,"a",%progbits
 2697              		.align	2
 2700              	__FUNCTION__.11943:
 2701 0000 6174696E 		.ascii	"atiny_init_objects\000"
 2701      795F696E 
 2701      69745F6F 
 2701      626A6563 
 2701      747300
 2702              		.section	.rodata.__FUNCTION__.11953,"a",%progbits
 2703              		.align	2
 2706              	__FUNCTION__.11953:
 2707 0000 6C776D32 		.ascii	"lwm2m_poll\000"
 2707      6D5F706F 
 2707      6C6C00
 2708              		.section	.rodata.__FUNCTION__.11983,"a",%progbits
 2709              		.align	2
 2712              	__FUNCTION__.11983:
 2713 0000 6174696E 		.ascii	"atiny_connection_err_notify\000"
 2713      795F636F 
 2713      6E6E6563 
 2713      74696F6E 
 2713      5F657272 
 2714              		.section	.rodata.__FUNCTION__.11987,"a",%progbits
 2715              		.align	2
 2718              	__FUNCTION__.11987:
 2719 0000 6174696E 		.ascii	"atiny_handle_reconnect\000"
 2719      795F6861 
 2719      6E646C65 
 2719      5F726563 
 2719      6F6E6E65 
 2720              		.section	.rodata.__FUNCTION__.11995,"a",%progbits
 2721              		.align	2
 2724              	__FUNCTION__.11995:
 2725 0000 6174696E 		.ascii	"atiny_bind\000"
 2725      795F6269 
 2725      6E6400
 2726              		.section	.rodata.__FUNCTION__.12011,"a",%progbits
 2727              		.align	2
 2730              	__FUNCTION__.12011:
 2731 0000 6174696E 		.ascii	"atiny_data_report\000"
 2731      795F6461 
 2731      74615F72 
ARM GAS  C:\Users\91458\AppData\Local\Temp\ccYoNCPK.s 			page 71


 2731      65706F72 
 2731      7400
 2732              		.section	.rodata.__FUNCTION__.12022,"a",%progbits
 2733              		.align	2
 2736              	__FUNCTION__.12022:
 2737 0000 6174696E 		.ascii	"atiny_data_change\000"
 2737      795F6461 
 2737      74615F63 
 2737      68616E67 
 2737      6500
 2738              		.section	.rodata.__FUNCTION__.12032,"a",%progbits
 2739              		.align	2
 2742              	__FUNCTION__.12032:
 2743 0000 6174696E 		.ascii	"atiny_reconnect\000"
 2743      795F7265 
 2743      636F6E6E 
 2743      65637400 
 2744              		.text
 2745              	.Letext0:
 2746              		.file 4 "d:\\liteos studio\\resources\\arm-none-eabi\\arm-none-eabi\\include\\machine\\_default_ty
 2747              		.file 5 "d:\\liteos studio\\resources\\arm-none-eabi\\arm-none-eabi\\include\\sys\\_stdint.h"
 2748              		.file 6 "D:/iot/felix2/components/connectivity/lwm2m/core/liblwm2m_api.h"
 2749              		.file 7 "d:\\liteos studio\\resources\\arm-none-eabi\\lib\\gcc\\arm-none-eabi\\7.3.1\\include\\std
 2750              		.file 8 "d:\\liteos studio\\resources\\arm-none-eabi\\arm-none-eabi\\include\\sys\\lock.h"
 2751              		.file 9 "d:\\liteos studio\\resources\\arm-none-eabi\\arm-none-eabi\\include\\sys\\_types.h"
 2752              		.file 10 "d:\\liteos studio\\resources\\arm-none-eabi\\arm-none-eabi\\include\\sys\\reent.h"
 2753              		.file 11 "d:\\liteos studio\\resources\\arm-none-eabi\\arm-none-eabi\\include\\sys\\_timeval.h"
 2754              		.file 12 "d:\\liteos studio\\resources\\arm-none-eabi\\arm-none-eabi\\include\\time.h"
 2755              		.file 13 "D:/iot/felix2/components/connectivity/lwm2m/core/er-coap-13/er-coap-13.h"
 2756              		.file 14 "D:/iot/felix2/kernel/include/los_typedef.h"
 2757              		.file 15 "D:/iot/felix2/arch/arm/common/cmsis/core_cm4.h"
 2758              		.file 16 "D:/iot/felix2/targets/Cloud_STM32L431_BearPi/Inc/system_stm32l4xx.h"
 2759              		.file 17 "D:/iot/felix2/kernel/include/los_list.h"
 2760              		.file 18 "D:/iot/felix2/kernel/include/los_err.h"
 2761              		.file 19 "D:/iot/felix2/arch/arm/arm-m/include/los_hwi.h"
 2762              		.file 20 "D:/iot/felix2/kernel/include/los_tick.h"
 2763              		.file 21 "D:/iot/felix2/kernel/include/los_event.h"
 2764              		.file 22 "D:/iot/felix2/kernel/include/los_task.h"
 2765              		.file 23 "D:/iot/felix2/kernel/base/include/los_task.ph"
 2766              		.file 24 "D:/iot/felix2/targets/Cloud_STM32L431_BearPi/Inc/main.h"
 2767              		.file 25 "D:/iot/felix2/targets/Cloud_STM32L431_BearPi/OS_CONFIG/target_config.h"
