ARM GAS  C:\Users\91458\AppData\Local\Temp\ccCkQMas.s 			page 1


   1              		.cpu cortex-m4
   2              		.eabi_attribute 27, 1
   3              		.eabi_attribute 28, 1
   4              		.eabi_attribute 20, 1
   5              		.eabi_attribute 21, 1
   6              		.eabi_attribute 23, 3
   7              		.eabi_attribute 24, 1
   8              		.eabi_attribute 25, 1
   9              		.eabi_attribute 26, 1
  10              		.eabi_attribute 30, 6
  11              		.eabi_attribute 34, 1
  12              		.eabi_attribute 18, 4
  13              		.file	"data.c"
  14              		.text
  15              	.Ltext0:
  16              		.cfi_sections	.debug_frame
  17              		.section	.text.dm_isUriOpaqueHandle,"ax",%progbits
  18              		.align	1
  19              		.syntax unified
  20              		.thumb
  21              		.thumb_func
  22              		.fpu fpv4-sp-d16
  24              	dm_isUriOpaqueHandle:
  25              	.LFB133:
  26              		.file 1 "D:/iot/felix2/components/connectivity/lwm2m/core/internals.h"
   1:D:/iot/felix2/components/connectivity/lwm2m/core\internals.h **** /*----------------------------------------------------------------------------
   2:D:/iot/felix2/components/connectivity/lwm2m/core\internals.h ****  * Copyright (c) <2016-2018>, <Huawei Technologies Co., Ltd>
   3:D:/iot/felix2/components/connectivity/lwm2m/core\internals.h ****  * All rights reserved.
   4:D:/iot/felix2/components/connectivity/lwm2m/core\internals.h ****  * Redistribution and use in source and binary forms, with or without modification,
   5:D:/iot/felix2/components/connectivity/lwm2m/core\internals.h ****  * are permitted provided that the following conditions are met:
   6:D:/iot/felix2/components/connectivity/lwm2m/core\internals.h ****  * 1. Redistributions of source code must retain the above copyright notice, this list of
   7:D:/iot/felix2/components/connectivity/lwm2m/core\internals.h ****  * conditions and the following disclaimer.
   8:D:/iot/felix2/components/connectivity/lwm2m/core\internals.h ****  * 2. Redistributions in binary form must reproduce the above copyright notice, this list
   9:D:/iot/felix2/components/connectivity/lwm2m/core\internals.h ****  * of conditions and the following disclaimer in the documentation and/or other materials
  10:D:/iot/felix2/components/connectivity/lwm2m/core\internals.h ****  * provided with the distribution.
  11:D:/iot/felix2/components/connectivity/lwm2m/core\internals.h ****  * 3. Neither the name of the copyright holder nor the names of its contributors may be used
  12:D:/iot/felix2/components/connectivity/lwm2m/core\internals.h ****  * to endorse or promote products derived from this software without specific prior written
  13:D:/iot/felix2/components/connectivity/lwm2m/core\internals.h ****  * permission.
  14:D:/iot/felix2/components/connectivity/lwm2m/core\internals.h ****  * THIS SOFTWARE IS PROVIDED BY THE COPYRIGHT HOLDERS AND CONTRIBUTORS
  15:D:/iot/felix2/components/connectivity/lwm2m/core\internals.h ****  * "AS IS" AND ANY EXPRESS OR IMPLIED WARRANTIES, INCLUDING, BUT NOT LIMITED TO,
  16:D:/iot/felix2/components/connectivity/lwm2m/core\internals.h ****  * THE IMPLIED WARRANTIES OF MERCHANTABILITY AND FITNESS FOR A PARTICULAR
  17:D:/iot/felix2/components/connectivity/lwm2m/core\internals.h ****  * PURPOSE ARE DISCLAIMED. IN NO EVENT SHALL THE COPYRIGHT HOLDER OR
  18:D:/iot/felix2/components/connectivity/lwm2m/core\internals.h ****  * CONTRIBUTORS BE LIABLE FOR ANY DIRECT, INDIRECT, INCIDENTAL, SPECIAL,
  19:D:/iot/felix2/components/connectivity/lwm2m/core\internals.h ****  * EXEMPLARY, OR CONSEQUENTIAL DAMAGES (INCLUDING, BUT NOT LIMITED TO,
  20:D:/iot/felix2/components/connectivity/lwm2m/core\internals.h ****  * PROCUREMENT OF SUBSTITUTE GOODS OR SERVICES; LOSS OF USE, DATA, OR PROFITS;
  21:D:/iot/felix2/components/connectivity/lwm2m/core\internals.h ****  * OR BUSINESS INTERRUPTION) HOWEVER CAUSED AND ON ANY THEORY OF LIABILITY,
  22:D:/iot/felix2/components/connectivity/lwm2m/core\internals.h ****  * WHETHER IN CONTRACT, STRICT LIABILITY, OR TORT (INCLUDING NEGLIGENCE OR
  23:D:/iot/felix2/components/connectivity/lwm2m/core\internals.h ****  * OTHERWISE) ARISING IN ANY WAY OUT OF THE USE OF THIS SOFTWARE, EVEN IF
  24:D:/iot/felix2/components/connectivity/lwm2m/core\internals.h ****  * ADVISED OF THE POSSIBILITY OF SUCH DAMAGE.
  25:D:/iot/felix2/components/connectivity/lwm2m/core\internals.h ****  *---------------------------------------------------------------------------*/
  26:D:/iot/felix2/components/connectivity/lwm2m/core\internals.h **** /*----------------------------------------------------------------------------
  27:D:/iot/felix2/components/connectivity/lwm2m/core\internals.h ****  * Notice of Export Control Law
  28:D:/iot/felix2/components/connectivity/lwm2m/core\internals.h ****  * ===============================================
  29:D:/iot/felix2/components/connectivity/lwm2m/core\internals.h ****  * Huawei LiteOS may be subject to applicable export control laws and regulations, which might
  30:D:/iot/felix2/components/connectivity/lwm2m/core\internals.h ****  * include those applicable to Huawei LiteOS of U.S. and the country in which you are located.
  31:D:/iot/felix2/components/connectivity/lwm2m/core\internals.h ****  * Import, export and usage of Huawei LiteOS in any manner by you shall be in compliance with such
  32:D:/iot/felix2/components/connectivity/lwm2m/core\internals.h ****  * applicable export control laws and regulations.
ARM GAS  C:\Users\91458\AppData\Local\Temp\ccCkQMas.s 			page 2


  33:D:/iot/felix2/components/connectivity/lwm2m/core\internals.h ****  *---------------------------------------------------------------------------*/
  34:D:/iot/felix2/components/connectivity/lwm2m/core\internals.h **** 
  35:D:/iot/felix2/components/connectivity/lwm2m/core\internals.h **** /*******************************************************************************
  36:D:/iot/felix2/components/connectivity/lwm2m/core\internals.h ****  *
  37:D:/iot/felix2/components/connectivity/lwm2m/core\internals.h ****  * Copyright (c) 2013, 2014 Intel Corporation and others.
  38:D:/iot/felix2/components/connectivity/lwm2m/core\internals.h ****  * All rights reserved. This program and the accompanying materials
  39:D:/iot/felix2/components/connectivity/lwm2m/core\internals.h ****  * are made available under the terms of the Eclipse Public License v1.0
  40:D:/iot/felix2/components/connectivity/lwm2m/core\internals.h ****  * and Eclipse Distribution License v1.0 which accompany this distribution.
  41:D:/iot/felix2/components/connectivity/lwm2m/core\internals.h ****  *
  42:D:/iot/felix2/components/connectivity/lwm2m/core\internals.h ****  * The Eclipse Public License is available at
  43:D:/iot/felix2/components/connectivity/lwm2m/core\internals.h ****  *    http://www.eclipse.org/legal/epl-v10.html
  44:D:/iot/felix2/components/connectivity/lwm2m/core\internals.h ****  * The Eclipse Distribution License is available at
  45:D:/iot/felix2/components/connectivity/lwm2m/core\internals.h ****  *    http://www.eclipse.org/org/documents/edl-v10.php.
  46:D:/iot/felix2/components/connectivity/lwm2m/core\internals.h ****  *
  47:D:/iot/felix2/components/connectivity/lwm2m/core\internals.h ****  * Contributors:
  48:D:/iot/felix2/components/connectivity/lwm2m/core\internals.h ****  *    David Navarro, Intel Corporation - initial API and implementation
  49:D:/iot/felix2/components/connectivity/lwm2m/core\internals.h ****  *    Fabien Fleutot - Please refer to git log
  50:D:/iot/felix2/components/connectivity/lwm2m/core\internals.h ****  *    Toby Jaffey - Please refer to git log
  51:D:/iot/felix2/components/connectivity/lwm2m/core\internals.h ****  *    Bosch Software Innovations GmbH - Please refer to git log
  52:D:/iot/felix2/components/connectivity/lwm2m/core\internals.h ****  *    Pascal Rieux - Please refer to git log
  53:D:/iot/felix2/components/connectivity/lwm2m/core\internals.h ****  *    Scott Bertin - Please refer to git log
  54:D:/iot/felix2/components/connectivity/lwm2m/core\internals.h ****  *
  55:D:/iot/felix2/components/connectivity/lwm2m/core\internals.h ****  *******************************************************************************/
  56:D:/iot/felix2/components/connectivity/lwm2m/core\internals.h **** /*
  57:D:/iot/felix2/components/connectivity/lwm2m/core\internals.h ****  Copyright (c) 2013, 2014 Intel Corporation
  58:D:/iot/felix2/components/connectivity/lwm2m/core\internals.h **** 
  59:D:/iot/felix2/components/connectivity/lwm2m/core\internals.h ****  Redistribution and use in source and binary forms, with or without modification,
  60:D:/iot/felix2/components/connectivity/lwm2m/core\internals.h ****  are permitted provided that the following conditions are met:
  61:D:/iot/felix2/components/connectivity/lwm2m/core\internals.h **** 
  62:D:/iot/felix2/components/connectivity/lwm2m/core\internals.h ****      * Redistributions of source code must retain the above copyright notice,
  63:D:/iot/felix2/components/connectivity/lwm2m/core\internals.h ****        this list of conditions and the following disclaimer.
  64:D:/iot/felix2/components/connectivity/lwm2m/core\internals.h ****      * Redistributions in binary form must reproduce the above copyright notice,
  65:D:/iot/felix2/components/connectivity/lwm2m/core\internals.h ****        this list of conditions and the following disclaimer in the documentation
  66:D:/iot/felix2/components/connectivity/lwm2m/core\internals.h ****        and/or other materials provided with the distribution.
  67:D:/iot/felix2/components/connectivity/lwm2m/core\internals.h ****      * Neither the name of Intel Corporation nor the names of its contributors
  68:D:/iot/felix2/components/connectivity/lwm2m/core\internals.h ****        may be used to endorse or promote products derived from this software
  69:D:/iot/felix2/components/connectivity/lwm2m/core\internals.h ****        without specific prior written permission.
  70:D:/iot/felix2/components/connectivity/lwm2m/core\internals.h **** 
  71:D:/iot/felix2/components/connectivity/lwm2m/core\internals.h ****  THIS SOFTWARE IS PROVIDED BY THE COPYRIGHT HOLDERS AND CONTRIBUTORS "AS IS" AND
  72:D:/iot/felix2/components/connectivity/lwm2m/core\internals.h ****  ANY EXPRESS OR IMPLIED WARRANTIES, INCLUDING, BUT NOT LIMITED TO, THE IMPLIED
  73:D:/iot/felix2/components/connectivity/lwm2m/core\internals.h ****  WARRANTIES OF MERCHANTABILITY AND FITNESS FOR A PARTICULAR PURPOSE ARE DISCLAIMED.
  74:D:/iot/felix2/components/connectivity/lwm2m/core\internals.h ****  IN NO EVENT SHALL THE COPYRIGHT OWNER OR CONTRIBUTORS BE LIABLE FOR ANY DIRECT,
  75:D:/iot/felix2/components/connectivity/lwm2m/core\internals.h ****  INDIRECT, INCIDENTAL, SPECIAL, EXEMPLARY, OR CONSEQUENTIAL DAMAGES (INCLUDING,
  76:D:/iot/felix2/components/connectivity/lwm2m/core\internals.h ****  BUT NOT LIMITED TO, PROCUREMENT OF SUBSTITUTE GOODS OR SERVICES; LOSS OF USE,
  77:D:/iot/felix2/components/connectivity/lwm2m/core\internals.h ****  DATA, OR PROFITS; OR BUSINESS INTERRUPTION) HOWEVER CAUSED AND ON ANY THEORY OF
  78:D:/iot/felix2/components/connectivity/lwm2m/core\internals.h ****  LIABILITY, WHETHER IN CONTRACT, STRICT LIABILITY, OR TORT (INCLUDING NEGLIGENCE OR
  79:D:/iot/felix2/components/connectivity/lwm2m/core\internals.h ****  OTHERWISE) ARISING IN ANY WAY OUT OF THE USE OF THIS SOFTWARE, EVEN IF ADVISED OF
  80:D:/iot/felix2/components/connectivity/lwm2m/core\internals.h ****  THE POSSIBILITY OF SUCH DAMAGE.
  81:D:/iot/felix2/components/connectivity/lwm2m/core\internals.h **** 
  82:D:/iot/felix2/components/connectivity/lwm2m/core\internals.h ****  David Navarro <david.navarro@intel.com>
  83:D:/iot/felix2/components/connectivity/lwm2m/core\internals.h **** 
  84:D:/iot/felix2/components/connectivity/lwm2m/core\internals.h **** */
  85:D:/iot/felix2/components/connectivity/lwm2m/core\internals.h **** 
  86:D:/iot/felix2/components/connectivity/lwm2m/core\internals.h **** #ifndef _LWM2M_INTERNALS_H_
  87:D:/iot/felix2/components/connectivity/lwm2m/core\internals.h **** #define _LWM2M_INTERNALS_H_
  88:D:/iot/felix2/components/connectivity/lwm2m/core\internals.h **** 
  89:D:/iot/felix2/components/connectivity/lwm2m/core\internals.h **** #include "liblwm2m.h"
ARM GAS  C:\Users\91458\AppData\Local\Temp\ccCkQMas.s 			page 3


  90:D:/iot/felix2/components/connectivity/lwm2m/core\internals.h **** 
  91:D:/iot/felix2/components/connectivity/lwm2m/core\internals.h **** #include <stdlib.h>
  92:D:/iot/felix2/components/connectivity/lwm2m/core\internals.h **** #include <string.h>
  93:D:/iot/felix2/components/connectivity/lwm2m/core\internals.h **** #include <stdio.h>
  94:D:/iot/felix2/components/connectivity/lwm2m/core\internals.h **** #include <ctype.h>
  95:D:/iot/felix2/components/connectivity/lwm2m/core\internals.h **** #include <stdint.h>
  96:D:/iot/felix2/components/connectivity/lwm2m/core\internals.h **** #include <stddef.h>
  97:D:/iot/felix2/components/connectivity/lwm2m/core\internals.h **** #include <stdbool.h>
  98:D:/iot/felix2/components/connectivity/lwm2m/core\internals.h **** 
  99:D:/iot/felix2/components/connectivity/lwm2m/core\internals.h **** #include "er-coap-13/er-coap-13.h"
 100:D:/iot/felix2/components/connectivity/lwm2m/core\internals.h **** #include "connection.h"
 101:D:/iot/felix2/components/connectivity/lwm2m/core\internals.h **** 
 102:D:/iot/felix2/components/connectivity/lwm2m/core\internals.h **** 
 103:D:/iot/felix2/components/connectivity/lwm2m/core\internals.h **** #ifdef LWM2M_WITH_LOGS
 104:D:/iot/felix2/components/connectivity/lwm2m/core\internals.h **** #include <inttypes.h>
 105:D:/iot/felix2/components/connectivity/lwm2m/core\internals.h **** #define LOG(STR) (void)lwm2m_printf("[%d][%s:%d] " STR "\r\n", (uint32_t)lwm2m_gettime(), __func__ 
 106:D:/iot/felix2/components/connectivity/lwm2m/core\internals.h **** #define LOG_ARG(FMT, ...) (void)lwm2m_printf("[%d][%s:%d] " FMT "\r\n", (uint32_t)lwm2m_gettime(), 
 107:D:/iot/felix2/components/connectivity/lwm2m/core\internals.h **** #define LOG_URI(URI)                                                                \
 108:D:/iot/felix2/components/connectivity/lwm2m/core\internals.h **** {                                                                                   \
 109:D:/iot/felix2/components/connectivity/lwm2m/core\internals.h ****     if ((URI) == NULL) (void)lwm2m_printf("[%s:%d] NULL\r\n", __func__ , __LINE__);     \
 110:D:/iot/felix2/components/connectivity/lwm2m/core\internals.h ****     else                                                                            \
 111:D:/iot/felix2/components/connectivity/lwm2m/core\internals.h ****     {                                                                               \
 112:D:/iot/felix2/components/connectivity/lwm2m/core\internals.h ****         (void)lwm2m_printf("[%s:%d] /%d", __func__ , __LINE__ , (URI)->objectId);       \
 113:D:/iot/felix2/components/connectivity/lwm2m/core\internals.h ****         if (LWM2M_URI_IS_SET_INSTANCE(URI)) (void)lwm2m_printf("/%d", (URI)->instanceId); \
 114:D:/iot/felix2/components/connectivity/lwm2m/core\internals.h ****         if (LWM2M_URI_IS_SET_RESOURCE(URI)) (void)lwm2m_printf("/%d", (URI)->resourceId); \
 115:D:/iot/felix2/components/connectivity/lwm2m/core\internals.h ****         (void)lwm2m_printf("\r\n");                                                       \
 116:D:/iot/felix2/components/connectivity/lwm2m/core\internals.h ****     }                                                                               \
 117:D:/iot/felix2/components/connectivity/lwm2m/core\internals.h **** }
 118:D:/iot/felix2/components/connectivity/lwm2m/core\internals.h **** #define UNUSEX(x)
 119:D:/iot/felix2/components/connectivity/lwm2m/core\internals.h **** #define STR_STATUS(S)                                           \
 120:D:/iot/felix2/components/connectivity/lwm2m/core\internals.h **** ((S) == STATE_DEREGISTERED ? "STATE_DEREGISTERED" :             \
 121:D:/iot/felix2/components/connectivity/lwm2m/core\internals.h **** ((S) == STATE_REG_PENDING ? "STATE_REG_PENDING" :               \
 122:D:/iot/felix2/components/connectivity/lwm2m/core\internals.h **** ((S) == STATE_REGISTERED ? "STATE_REGISTERED" :                 \
 123:D:/iot/felix2/components/connectivity/lwm2m/core\internals.h **** ((S) == STATE_REG_FAILED ? "STATE_REG_FAILED" :                 \
 124:D:/iot/felix2/components/connectivity/lwm2m/core\internals.h **** ((S) == STATE_REG_UPDATE_PENDING ? "STATE_REG_UPDATE_PENDING" : \
 125:D:/iot/felix2/components/connectivity/lwm2m/core\internals.h **** ((S) == STATE_REG_UPDATE_NEEDED ? "STATE_REG_UPDATE_NEEDED" :   \
 126:D:/iot/felix2/components/connectivity/lwm2m/core\internals.h **** ((S) == STATE_REG_FULL_UPDATE_NEEDED ? "STATE_REG_FULL_UPDATE_NEEDED" :   \
 127:D:/iot/felix2/components/connectivity/lwm2m/core\internals.h **** ((S) == STATE_DEREG_PENDING ? "STATE_DEREG_PENDING" :           \
 128:D:/iot/felix2/components/connectivity/lwm2m/core\internals.h **** ((S) == STATE_BS_HOLD_OFF ? "STATE_BS_HOLD_OFF" :               \
 129:D:/iot/felix2/components/connectivity/lwm2m/core\internals.h **** ((S) == STATE_BS_INITIATED ? "STATE_BS_INITIATED" :             \
 130:D:/iot/felix2/components/connectivity/lwm2m/core\internals.h **** ((S) == STATE_BS_PENDING ? "STATE_BS_PENDING" :                 \
 131:D:/iot/felix2/components/connectivity/lwm2m/core\internals.h **** ((S) == STATE_BS_FINISHED ? "STATE_BS_FINISHED" :               \
 132:D:/iot/felix2/components/connectivity/lwm2m/core\internals.h **** ((S) == STATE_BS_FINISHING ? "STATE_BS_FINISHING" :             \
 133:D:/iot/felix2/components/connectivity/lwm2m/core\internals.h **** ((S) == STATE_BS_FAILING ? "STATE_BS_FAILING" :                 \
 134:D:/iot/felix2/components/connectivity/lwm2m/core\internals.h **** ((S) == STATE_BS_FAILED ? "STATE_BS_FAILED" :                   \
 135:D:/iot/felix2/components/connectivity/lwm2m/core\internals.h **** "Unknown")))))))))))))))
 136:D:/iot/felix2/components/connectivity/lwm2m/core\internals.h **** #define STR_MEDIA_TYPE(M)                                \
 137:D:/iot/felix2/components/connectivity/lwm2m/core\internals.h **** ((M) == LWM2M_CONTENT_TEXT ? "LWM2M_CONTENT_TEXT" :      \
 138:D:/iot/felix2/components/connectivity/lwm2m/core\internals.h **** ((M) == LWM2M_CONTENT_LINK ? "LWM2M_CONTENT_LINK" :      \
 139:D:/iot/felix2/components/connectivity/lwm2m/core\internals.h **** ((M) == LWM2M_CONTENT_OPAQUE ? "LWM2M_CONTENT_OPAQUE" :  \
 140:D:/iot/felix2/components/connectivity/lwm2m/core\internals.h **** ((M) == LWM2M_CONTENT_TLV ? "LWM2M_CONTENT_TLV" :        \
 141:D:/iot/felix2/components/connectivity/lwm2m/core\internals.h **** ((M) == LWM2M_CONTENT_JSON ? "LWM2M_CONTENT_JSON" :      \
 142:D:/iot/felix2/components/connectivity/lwm2m/core\internals.h **** "Unknown")))))
 143:D:/iot/felix2/components/connectivity/lwm2m/core\internals.h **** #define STR_STATE(S)                                \
 144:D:/iot/felix2/components/connectivity/lwm2m/core\internals.h **** ((S) == STATE_INITIAL ? "STATE_INITIAL" :      \
 145:D:/iot/felix2/components/connectivity/lwm2m/core\internals.h **** ((S) == STATE_BOOTSTRAP_REQUIRED ? "STATE_BOOTSTRAP_REQUIRED" :      \
 146:D:/iot/felix2/components/connectivity/lwm2m/core\internals.h **** ((S) == STATE_BOOTSTRAPPING ? "STATE_BOOTSTRAPPING" :  \
ARM GAS  C:\Users\91458\AppData\Local\Temp\ccCkQMas.s 			page 4


 147:D:/iot/felix2/components/connectivity/lwm2m/core\internals.h **** ((S) == STATE_REGISTER_REQUIRED ? "STATE_REGISTER_REQUIRED" :        \
 148:D:/iot/felix2/components/connectivity/lwm2m/core\internals.h **** ((S) == STATE_REGISTERING ? "STATE_REGISTERING" :      \
 149:D:/iot/felix2/components/connectivity/lwm2m/core\internals.h **** ((S) == STATE_READY ? "STATE_READY" :      \
 150:D:/iot/felix2/components/connectivity/lwm2m/core\internals.h **** "Unknown"))))))
 151:D:/iot/felix2/components/connectivity/lwm2m/core\internals.h **** #else
 152:D:/iot/felix2/components/connectivity/lwm2m/core\internals.h **** #define UNUSEX(x) (x)=(x)
 153:D:/iot/felix2/components/connectivity/lwm2m/core\internals.h **** #define LOG_ARG(FMT, ...)
 154:D:/iot/felix2/components/connectivity/lwm2m/core\internals.h **** #define LOG(STR)
 155:D:/iot/felix2/components/connectivity/lwm2m/core\internals.h **** #define LOG_URI(URI)
 156:D:/iot/felix2/components/connectivity/lwm2m/core\internals.h **** #endif
 157:D:/iot/felix2/components/connectivity/lwm2m/core\internals.h **** 
 158:D:/iot/felix2/components/connectivity/lwm2m/core\internals.h **** #define LWM2M_DEFAULT_LIFETIME  86400
 159:D:/iot/felix2/components/connectivity/lwm2m/core\internals.h **** 
 160:D:/iot/felix2/components/connectivity/lwm2m/core\internals.h **** #ifdef LWM2M_SUPPORT_JSON
 161:D:/iot/felix2/components/connectivity/lwm2m/core\internals.h **** #define REG_LWM2M_RESOURCE_TYPE     ">;rt=\"oma.lwm2m\";ct=11543,"
 162:D:/iot/felix2/components/connectivity/lwm2m/core\internals.h **** #define REG_LWM2M_RESOURCE_TYPE_LEN 25
 163:D:/iot/felix2/components/connectivity/lwm2m/core\internals.h **** #else
 164:D:/iot/felix2/components/connectivity/lwm2m/core\internals.h **** #define REG_LWM2M_RESOURCE_TYPE     ">;rt=\"oma.lwm2m\","
 165:D:/iot/felix2/components/connectivity/lwm2m/core\internals.h **** #define REG_LWM2M_RESOURCE_TYPE_LEN 17
 166:D:/iot/felix2/components/connectivity/lwm2m/core\internals.h **** #endif
 167:D:/iot/felix2/components/connectivity/lwm2m/core\internals.h **** #define REG_START           "<"
 168:D:/iot/felix2/components/connectivity/lwm2m/core\internals.h **** #define REG_DEFAULT_PATH    "/"
 169:D:/iot/felix2/components/connectivity/lwm2m/core\internals.h **** 
 170:D:/iot/felix2/components/connectivity/lwm2m/core\internals.h **** #define REG_OBJECT_MIN_LEN  5   // "</n>,"
 171:D:/iot/felix2/components/connectivity/lwm2m/core\internals.h **** #define REG_PATH_END        ">,"
 172:D:/iot/felix2/components/connectivity/lwm2m/core\internals.h **** #define REG_PATH_SEPARATOR  "/"
 173:D:/iot/felix2/components/connectivity/lwm2m/core\internals.h **** 
 174:D:/iot/felix2/components/connectivity/lwm2m/core\internals.h **** #define REG_OBJECT_PATH             "<%s/%hu>,"
 175:D:/iot/felix2/components/connectivity/lwm2m/core\internals.h **** #define REG_OBJECT_INSTANCE_PATH    "<%s/%hu/%hu>,"
 176:D:/iot/felix2/components/connectivity/lwm2m/core\internals.h **** 
 177:D:/iot/felix2/components/connectivity/lwm2m/core\internals.h **** #define URI_REGISTRATION_SEGMENT        "rd"
 178:D:/iot/felix2/components/connectivity/lwm2m/core\internals.h **** #define URI_REGISTRATION_SEGMENT_LEN    2
 179:D:/iot/felix2/components/connectivity/lwm2m/core\internals.h **** #define URI_BOOTSTRAP_SEGMENT           "bs"
 180:D:/iot/felix2/components/connectivity/lwm2m/core\internals.h **** #define URI_BOOTSTRAP_SEGMENT_LEN       2
 181:D:/iot/felix2/components/connectivity/lwm2m/core\internals.h **** 
 182:D:/iot/felix2/components/connectivity/lwm2m/core\internals.h **** #define QUERY_STARTER       "?"
 183:D:/iot/felix2/components/connectivity/lwm2m/core\internals.h **** #define QUERY_NAME          "ep="
 184:D:/iot/felix2/components/connectivity/lwm2m/core\internals.h **** #define QUERY_NAME_LEN      3       // strlen("ep=")
 185:D:/iot/felix2/components/connectivity/lwm2m/core\internals.h **** #define QUERY_SMS           "sms="
 186:D:/iot/felix2/components/connectivity/lwm2m/core\internals.h **** #define QUERY_SMS_LEN       4
 187:D:/iot/felix2/components/connectivity/lwm2m/core\internals.h **** #define QUERY_LIFETIME      "lt="
 188:D:/iot/felix2/components/connectivity/lwm2m/core\internals.h **** #define QUERY_LIFETIME_LEN  3
 189:D:/iot/felix2/components/connectivity/lwm2m/core\internals.h **** #define QUERY_VERSION       "lwm2m="
 190:D:/iot/felix2/components/connectivity/lwm2m/core\internals.h **** #define QUERY_VERSION_LEN   6
 191:D:/iot/felix2/components/connectivity/lwm2m/core\internals.h **** #define QUERY_BINDING       "b="
 192:D:/iot/felix2/components/connectivity/lwm2m/core\internals.h **** #define QUERY_BINDING_LEN   2
 193:D:/iot/felix2/components/connectivity/lwm2m/core\internals.h **** #define QUERY_DELIMITER     "&"
 194:D:/iot/felix2/components/connectivity/lwm2m/core\internals.h **** 
 195:D:/iot/felix2/components/connectivity/lwm2m/core\internals.h **** #define LWM2M_VERSION      "1.0"
 196:D:/iot/felix2/components/connectivity/lwm2m/core\internals.h **** #define LWM2M_VERSION_LEN  3
 197:D:/iot/felix2/components/connectivity/lwm2m/core\internals.h **** 
 198:D:/iot/felix2/components/connectivity/lwm2m/core\internals.h **** #define QUERY_VERSION_FULL      QUERY_VERSION LWM2M_VERSION
 199:D:/iot/felix2/components/connectivity/lwm2m/core\internals.h **** #define QUERY_VERSION_FULL_LEN  QUERY_VERSION_LEN+LWM2M_VERSION_LEN
 200:D:/iot/felix2/components/connectivity/lwm2m/core\internals.h **** 
 201:D:/iot/felix2/components/connectivity/lwm2m/core\internals.h **** #define REG_URI_START       '<'
 202:D:/iot/felix2/components/connectivity/lwm2m/core\internals.h **** #define REG_URI_END         '>'
 203:D:/iot/felix2/components/connectivity/lwm2m/core\internals.h **** #define REG_DELIMITER       ','
ARM GAS  C:\Users\91458\AppData\Local\Temp\ccCkQMas.s 			page 5


 204:D:/iot/felix2/components/connectivity/lwm2m/core\internals.h **** #define REG_ATTR_SEPARATOR  ';'
 205:D:/iot/felix2/components/connectivity/lwm2m/core\internals.h **** #define REG_ATTR_EQUALS     '='
 206:D:/iot/felix2/components/connectivity/lwm2m/core\internals.h **** #define REG_ATTR_TYPE_KEY           "rt"
 207:D:/iot/felix2/components/connectivity/lwm2m/core\internals.h **** #define REG_ATTR_TYPE_KEY_LEN       2
 208:D:/iot/felix2/components/connectivity/lwm2m/core\internals.h **** #define REG_ATTR_TYPE_VALUE         "\"oma.lwm2m\""
 209:D:/iot/felix2/components/connectivity/lwm2m/core\internals.h **** #define REG_ATTR_TYPE_VALUE_LEN     11
 210:D:/iot/felix2/components/connectivity/lwm2m/core\internals.h **** #define REG_ATTR_CONTENT_KEY        "ct"
 211:D:/iot/felix2/components/connectivity/lwm2m/core\internals.h **** #define REG_ATTR_CONTENT_KEY_LEN    2
 212:D:/iot/felix2/components/connectivity/lwm2m/core\internals.h **** #define REG_ATTR_CONTENT_JSON       "11543"   // Temporary value
 213:D:/iot/felix2/components/connectivity/lwm2m/core\internals.h **** #define REG_ATTR_CONTENT_JSON_LEN   5
 214:D:/iot/felix2/components/connectivity/lwm2m/core\internals.h **** 
 215:D:/iot/felix2/components/connectivity/lwm2m/core\internals.h **** #define ATTR_SERVER_ID_STR       "ep="
 216:D:/iot/felix2/components/connectivity/lwm2m/core\internals.h **** #define ATTR_SERVER_ID_LEN       3
 217:D:/iot/felix2/components/connectivity/lwm2m/core\internals.h **** #define ATTR_MIN_PERIOD_STR      "pmin="
 218:D:/iot/felix2/components/connectivity/lwm2m/core\internals.h **** #define ATTR_MIN_PERIOD_LEN      5
 219:D:/iot/felix2/components/connectivity/lwm2m/core\internals.h **** #define ATTR_MAX_PERIOD_STR      "pmax="
 220:D:/iot/felix2/components/connectivity/lwm2m/core\internals.h **** #define ATTR_MAX_PERIOD_LEN      5
 221:D:/iot/felix2/components/connectivity/lwm2m/core\internals.h **** #define ATTR_GREATER_THAN_STR    "gt="
 222:D:/iot/felix2/components/connectivity/lwm2m/core\internals.h **** #define ATTR_GREATER_THAN_LEN    3
 223:D:/iot/felix2/components/connectivity/lwm2m/core\internals.h **** #define ATTR_LESS_THAN_STR       "lt="
 224:D:/iot/felix2/components/connectivity/lwm2m/core\internals.h **** #define ATTR_LESS_THAN_LEN       3
 225:D:/iot/felix2/components/connectivity/lwm2m/core\internals.h **** #define ATTR_STEP_STR            "st="
 226:D:/iot/felix2/components/connectivity/lwm2m/core\internals.h **** #define ATTR_STEP_LEN            3
 227:D:/iot/felix2/components/connectivity/lwm2m/core\internals.h **** #define ATTR_DIMENSION_STR       "dim="
 228:D:/iot/felix2/components/connectivity/lwm2m/core\internals.h **** #define ATTR_DIMENSION_LEN       4
 229:D:/iot/felix2/components/connectivity/lwm2m/core\internals.h **** 
 230:D:/iot/felix2/components/connectivity/lwm2m/core\internals.h **** #define URI_MAX_STRING_LEN    18      // /65535/65535/65535
 231:D:/iot/felix2/components/connectivity/lwm2m/core\internals.h **** #define _PRV_64BIT_BUFFER_SIZE 8
 232:D:/iot/felix2/components/connectivity/lwm2m/core\internals.h **** 
 233:D:/iot/felix2/components/connectivity/lwm2m/core\internals.h **** #define LINK_ITEM_START             "<"
 234:D:/iot/felix2/components/connectivity/lwm2m/core\internals.h **** #define LINK_ITEM_START_SIZE        1
 235:D:/iot/felix2/components/connectivity/lwm2m/core\internals.h **** #define LINK_ITEM_END               ">,"
 236:D:/iot/felix2/components/connectivity/lwm2m/core\internals.h **** #define LINK_ITEM_END_SIZE          2
 237:D:/iot/felix2/components/connectivity/lwm2m/core\internals.h **** #define LINK_ITEM_DIM_START         ">;dim="
 238:D:/iot/felix2/components/connectivity/lwm2m/core\internals.h **** #define LINK_ITEM_DIM_START_SIZE    6
 239:D:/iot/felix2/components/connectivity/lwm2m/core\internals.h **** #define LINK_ITEM_ATTR_END          ","
 240:D:/iot/felix2/components/connectivity/lwm2m/core\internals.h **** #define LINK_ITEM_ATTR_END_SIZE     1
 241:D:/iot/felix2/components/connectivity/lwm2m/core\internals.h **** #define LINK_URI_SEPARATOR          "/"
 242:D:/iot/felix2/components/connectivity/lwm2m/core\internals.h **** #define LINK_URI_SEPARATOR_SIZE     1
 243:D:/iot/felix2/components/connectivity/lwm2m/core\internals.h **** #define LINK_ATTR_SEPARATOR         ";"
 244:D:/iot/felix2/components/connectivity/lwm2m/core\internals.h **** #define LINK_ATTR_SEPARATOR_SIZE    1
 245:D:/iot/felix2/components/connectivity/lwm2m/core\internals.h **** 
 246:D:/iot/felix2/components/connectivity/lwm2m/core\internals.h **** #define ATTR_FLAG_NUMERIC (uint8_t)(LWM2M_ATTR_FLAG_LESS_THAN | LWM2M_ATTR_FLAG_GREATER_THAN | LWM2
 247:D:/iot/felix2/components/connectivity/lwm2m/core\internals.h **** 
 248:D:/iot/felix2/components/connectivity/lwm2m/core\internals.h **** #define LWM2M_URI_FLAG_DM           (uint8_t)0x00
 249:D:/iot/felix2/components/connectivity/lwm2m/core\internals.h **** #define LWM2M_URI_FLAG_DELETE_ALL   (uint8_t)0x10
 250:D:/iot/felix2/components/connectivity/lwm2m/core\internals.h **** #define LWM2M_URI_FLAG_REGISTRATION (uint8_t)0x20
 251:D:/iot/felix2/components/connectivity/lwm2m/core\internals.h **** #define LWM2M_URI_FLAG_BOOTSTRAP    (uint8_t)0x40
 252:D:/iot/felix2/components/connectivity/lwm2m/core\internals.h **** 
 253:D:/iot/felix2/components/connectivity/lwm2m/core\internals.h **** #define LWM2M_URI_MASK_TYPE (uint8_t)0x70
 254:D:/iot/felix2/components/connectivity/lwm2m/core\internals.h **** #define LWM2M_URI_MASK_ID   (uint8_t)0x07
 255:D:/iot/felix2/components/connectivity/lwm2m/core\internals.h **** 
 256:D:/iot/felix2/components/connectivity/lwm2m/core\internals.h **** typedef struct
 257:D:/iot/felix2/components/connectivity/lwm2m/core\internals.h **** {
 258:D:/iot/felix2/components/connectivity/lwm2m/core\internals.h ****     uint16_t clientID;
 259:D:/iot/felix2/components/connectivity/lwm2m/core\internals.h ****     lwm2m_uri_t uri;
 260:D:/iot/felix2/components/connectivity/lwm2m/core\internals.h ****     lwm2m_result_callback_t callback;
ARM GAS  C:\Users\91458\AppData\Local\Temp\ccCkQMas.s 			page 6


 261:D:/iot/felix2/components/connectivity/lwm2m/core\internals.h ****     void * userData;
 262:D:/iot/felix2/components/connectivity/lwm2m/core\internals.h **** } dm_data_t;
 263:D:/iot/felix2/components/connectivity/lwm2m/core\internals.h **** 
 264:D:/iot/felix2/components/connectivity/lwm2m/core\internals.h **** typedef enum
 265:D:/iot/felix2/components/connectivity/lwm2m/core\internals.h **** {
 266:D:/iot/felix2/components/connectivity/lwm2m/core\internals.h ****     URI_DEPTH_OBJECT,
 267:D:/iot/felix2/components/connectivity/lwm2m/core\internals.h ****     URI_DEPTH_OBJECT_INSTANCE,
 268:D:/iot/felix2/components/connectivity/lwm2m/core\internals.h ****     URI_DEPTH_RESOURCE,
 269:D:/iot/felix2/components/connectivity/lwm2m/core\internals.h ****     URI_DEPTH_RESOURCE_INSTANCE
 270:D:/iot/felix2/components/connectivity/lwm2m/core\internals.h **** } uri_depth_t;
 271:D:/iot/felix2/components/connectivity/lwm2m/core\internals.h **** 
 272:D:/iot/felix2/components/connectivity/lwm2m/core\internals.h **** #ifdef LWM2M_BOOTSTRAP_SERVER_MODE
 273:D:/iot/felix2/components/connectivity/lwm2m/core\internals.h **** typedef struct
 274:D:/iot/felix2/components/connectivity/lwm2m/core\internals.h **** {
 275:D:/iot/felix2/components/connectivity/lwm2m/core\internals.h ****     bool        isUri;
 276:D:/iot/felix2/components/connectivity/lwm2m/core\internals.h ****     lwm2m_uri_t uri;
 277:D:/iot/felix2/components/connectivity/lwm2m/core\internals.h ****     lwm2m_bootstrap_callback_t callback;
 278:D:/iot/felix2/components/connectivity/lwm2m/core\internals.h ****     void *      userData;
 279:D:/iot/felix2/components/connectivity/lwm2m/core\internals.h **** } bs_data_t;
 280:D:/iot/felix2/components/connectivity/lwm2m/core\internals.h **** #endif
 281:D:/iot/felix2/components/connectivity/lwm2m/core\internals.h **** 
 282:D:/iot/felix2/components/connectivity/lwm2m/core\internals.h **** // defined in uri.c
 283:D:/iot/felix2/components/connectivity/lwm2m/core\internals.h **** lwm2m_uri_t * uri_decode(char * altPath, multi_option_t *uriPath);
 284:D:/iot/felix2/components/connectivity/lwm2m/core\internals.h **** int uri_getNumber(uint8_t * uriString, size_t uriLength);
 285:D:/iot/felix2/components/connectivity/lwm2m/core\internals.h **** int uri_toString(lwm2m_uri_t * uriP, uint8_t * buffer, size_t bufferLen, uri_depth_t * depthP);
 286:D:/iot/felix2/components/connectivity/lwm2m/core\internals.h **** 
 287:D:/iot/felix2/components/connectivity/lwm2m/core\internals.h **** // defined in objects.c
 288:D:/iot/felix2/components/connectivity/lwm2m/core\internals.h **** uint8_t object_readData(lwm2m_context_t * contextP, lwm2m_uri_t * uriP, int * sizeP, lwm2m_data_t *
 289:D:/iot/felix2/components/connectivity/lwm2m/core\internals.h **** uint8_t object_read(lwm2m_context_t * contextP, lwm2m_uri_t * uriP, lwm2m_media_type_t * formatP, u
 290:D:/iot/felix2/components/connectivity/lwm2m/core\internals.h **** uint8_t object_write(lwm2m_context_t * contextP, lwm2m_uri_t * uriP, lwm2m_media_type_t format, uin
 291:D:/iot/felix2/components/connectivity/lwm2m/core\internals.h **** uint8_t object_create(lwm2m_context_t * contextP, lwm2m_uri_t * uriP, lwm2m_media_type_t format, ui
 292:D:/iot/felix2/components/connectivity/lwm2m/core\internals.h **** uint8_t object_execute(lwm2m_context_t * contextP, lwm2m_uri_t * uriP, uint8_t * buffer, size_t len
 293:D:/iot/felix2/components/connectivity/lwm2m/core\internals.h **** uint8_t object_delete(lwm2m_context_t * contextP, lwm2m_uri_t * uriP);
 294:D:/iot/felix2/components/connectivity/lwm2m/core\internals.h **** uint8_t object_discover(lwm2m_context_t * contextP, lwm2m_uri_t * uriP, lwm2m_server_t * serverP, u
 295:D:/iot/felix2/components/connectivity/lwm2m/core\internals.h **** uint8_t object_checkReadable(lwm2m_context_t * contextP, lwm2m_uri_t * uriP);
 296:D:/iot/felix2/components/connectivity/lwm2m/core\internals.h **** uint8_t object_checkNumeric(lwm2m_context_t * contextP, lwm2m_uri_t * uriP);
 297:D:/iot/felix2/components/connectivity/lwm2m/core\internals.h **** bool object_isInstanceNew(lwm2m_context_t * contextP, uint16_t objectId, uint16_t instanceId);
 298:D:/iot/felix2/components/connectivity/lwm2m/core\internals.h **** int object_getRegisterPayloadBufferLength(lwm2m_context_t * contextP);
 299:D:/iot/felix2/components/connectivity/lwm2m/core\internals.h **** int object_getRegisterPayload(lwm2m_context_t * contextP, uint8_t * buffer, size_t length);
 300:D:/iot/felix2/components/connectivity/lwm2m/core\internals.h **** int object_getServers(lwm2m_context_t * contextP, bool checkOnly);
 301:D:/iot/felix2/components/connectivity/lwm2m/core\internals.h **** uint8_t object_createInstance(lwm2m_context_t * contextP, lwm2m_uri_t * uriP, lwm2m_data_t * dataP)
 302:D:/iot/felix2/components/connectivity/lwm2m/core\internals.h **** uint8_t object_writeInstance(lwm2m_context_t * contextP, lwm2m_uri_t * uriP, lwm2m_data_t * dataP);
 303:D:/iot/felix2/components/connectivity/lwm2m/core\internals.h **** 
 304:D:/iot/felix2/components/connectivity/lwm2m/core\internals.h **** // defined in transaction.c
 305:D:/iot/felix2/components/connectivity/lwm2m/core\internals.h **** lwm2m_transaction_t * transaction_new(void * sessionH, unsigned char method, char * altPath, lwm2m_
 306:D:/iot/felix2/components/connectivity/lwm2m/core\internals.h **** int transaction_send(lwm2m_context_t * contextP, lwm2m_transaction_t * transacP);
 307:D:/iot/felix2/components/connectivity/lwm2m/core\internals.h **** void transaction_free(lwm2m_transaction_t * transacP);
 308:D:/iot/felix2/components/connectivity/lwm2m/core\internals.h **** void transaction_remove(lwm2m_context_t * contextP, lwm2m_transaction_t * transacP);
 309:D:/iot/felix2/components/connectivity/lwm2m/core\internals.h **** bool transaction_handleResponse(lwm2m_context_t * contextP, void * fromSessionH, coap_packet_t * me
 310:D:/iot/felix2/components/connectivity/lwm2m/core\internals.h **** void transaction_step(lwm2m_context_t * contextP, time_t currentTime, time_t * timeoutP);
 311:D:/iot/felix2/components/connectivity/lwm2m/core\internals.h **** 
 312:D:/iot/felix2/components/connectivity/lwm2m/core\internals.h **** // defined in management.c
 313:D:/iot/felix2/components/connectivity/lwm2m/core\internals.h **** uint8_t dm_handleRequest(lwm2m_context_t * contextP, lwm2m_uri_t * uriP, lwm2m_server_t * serverP, 
 314:D:/iot/felix2/components/connectivity/lwm2m/core\internals.h **** 
 315:D:/iot/felix2/components/connectivity/lwm2m/core\internals.h **** // defined in observe.c
 316:D:/iot/felix2/components/connectivity/lwm2m/core\internals.h **** uint8_t observe_handleRequest(lwm2m_context_t * contextP, lwm2m_uri_t * uriP, lwm2m_server_t * serv
 317:D:/iot/felix2/components/connectivity/lwm2m/core\internals.h **** void observe_cancel(lwm2m_context_t * contextP, uint16_t mid, void * fromSessionH);
ARM GAS  C:\Users\91458\AppData\Local\Temp\ccCkQMas.s 			page 7


 318:D:/iot/felix2/components/connectivity/lwm2m/core\internals.h **** uint8_t observe_setParameters(lwm2m_context_t * contextP, lwm2m_uri_t * uriP, lwm2m_server_t * serv
 319:D:/iot/felix2/components/connectivity/lwm2m/core\internals.h **** void observe_step(lwm2m_context_t * contextP, time_t currentTime, time_t * timeoutP);
 320:D:/iot/felix2/components/connectivity/lwm2m/core\internals.h **** void observe_clear(lwm2m_context_t * contextP, lwm2m_uri_t * uriP);
 321:D:/iot/felix2/components/connectivity/lwm2m/core\internals.h **** //bool observe_handleNotify(lwm2m_context_t * contextP, void * fromSessionH, coap_packet_t * messag
 322:D:/iot/felix2/components/connectivity/lwm2m/core\internals.h **** void observe_remove(lwm2m_observation_t * observationP);
 323:D:/iot/felix2/components/connectivity/lwm2m/core\internals.h **** lwm2m_observed_t * observe_findByUri(lwm2m_context_t * contextP, lwm2m_uri_t * uriP);
 324:D:/iot/felix2/components/connectivity/lwm2m/core\internals.h **** 
 325:D:/iot/felix2/components/connectivity/lwm2m/core\internals.h **** // defined in registration.c
 326:D:/iot/felix2/components/connectivity/lwm2m/core\internals.h **** //uint8_t registration_handleRequest(lwm2m_context_t * contextP, lwm2m_uri_t * uriP, void * fromSes
 327:D:/iot/felix2/components/connectivity/lwm2m/core\internals.h **** void registration_deregister(lwm2m_context_t * contextP, lwm2m_server_t * serverP);
 328:D:/iot/felix2/components/connectivity/lwm2m/core\internals.h **** void registration_freeClient(lwm2m_client_t * clientP);
 329:D:/iot/felix2/components/connectivity/lwm2m/core\internals.h **** uint8_t registration_start(lwm2m_context_t * contextP);
 330:D:/iot/felix2/components/connectivity/lwm2m/core\internals.h **** void registration_step(lwm2m_context_t * contextP, time_t currentTime, time_t * timeoutP);
 331:D:/iot/felix2/components/connectivity/lwm2m/core\internals.h **** lwm2m_status_t registration_getStatus(lwm2m_context_t * contextP);
 332:D:/iot/felix2/components/connectivity/lwm2m/core\internals.h **** void registration_reset(lwm2m_context_t * contextP, lwm2m_server_t * serverP);
 333:D:/iot/felix2/components/connectivity/lwm2m/core\internals.h **** 
 334:D:/iot/felix2/components/connectivity/lwm2m/core\internals.h **** // defined in packet.c
 335:D:/iot/felix2/components/connectivity/lwm2m/core\internals.h **** uint8_t message_send(lwm2m_context_t * contextP, coap_packet_t * message, void * sessionH);
 336:D:/iot/felix2/components/connectivity/lwm2m/core\internals.h **** 
 337:D:/iot/felix2/components/connectivity/lwm2m/core\internals.h **** // defined in bootstrap.c
 338:D:/iot/felix2/components/connectivity/lwm2m/core\internals.h **** void bootstrap_step(lwm2m_context_t * contextP, uint32_t currentTime, time_t* timeoutP);
 339:D:/iot/felix2/components/connectivity/lwm2m/core\internals.h **** uint8_t bootstrap_handleCommand(lwm2m_context_t * contextP, lwm2m_uri_t * uriP, lwm2m_server_t * se
 340:D:/iot/felix2/components/connectivity/lwm2m/core\internals.h **** uint8_t bootstrap_handleDeleteAll(lwm2m_context_t * context, void * fromSessionH);
 341:D:/iot/felix2/components/connectivity/lwm2m/core\internals.h **** uint8_t bootstrap_handleFinish(lwm2m_context_t * context, void * fromSessionH);
 342:D:/iot/felix2/components/connectivity/lwm2m/core\internals.h **** uint8_t bootstrap_handleRequest(lwm2m_context_t * contextP, lwm2m_uri_t * uriP, void * fromSessionH
 343:D:/iot/felix2/components/connectivity/lwm2m/core\internals.h **** void bootstrap_start(lwm2m_context_t * contextP);
 344:D:/iot/felix2/components/connectivity/lwm2m/core\internals.h **** lwm2m_status_t bootstrap_getStatus(lwm2m_context_t * contextP);
 345:D:/iot/felix2/components/connectivity/lwm2m/core\internals.h **** bool bootstrap_isBsServerIpValid(const lwm2m_context_t *contextP);
 346:D:/iot/felix2/components/connectivity/lwm2m/core\internals.h **** 
 347:D:/iot/felix2/components/connectivity/lwm2m/core\internals.h **** 
 348:D:/iot/felix2/components/connectivity/lwm2m/core\internals.h **** // defined in tlv.c
 349:D:/iot/felix2/components/connectivity/lwm2m/core\internals.h **** int tlv_parse(uint8_t * buffer, size_t bufferLen, lwm2m_data_t ** dataP);
 350:D:/iot/felix2/components/connectivity/lwm2m/core\internals.h **** int tlv_serialize(bool isResourceInstance, int size, lwm2m_data_t * dataP, uint8_t ** bufferP);
 351:D:/iot/felix2/components/connectivity/lwm2m/core\internals.h **** 
 352:D:/iot/felix2/components/connectivity/lwm2m/core\internals.h **** // defined in json.c
 353:D:/iot/felix2/components/connectivity/lwm2m/core\internals.h **** #ifdef LWM2M_SUPPORT_JSON
 354:D:/iot/felix2/components/connectivity/lwm2m/core\internals.h **** int json_parse(lwm2m_uri_t * uriP, uint8_t * buffer, size_t bufferLen, lwm2m_data_t ** dataP);
 355:D:/iot/felix2/components/connectivity/lwm2m/core\internals.h **** int json_serialize(lwm2m_uri_t * uriP, int size, lwm2m_data_t * tlvP, uint8_t ** bufferP);
 356:D:/iot/felix2/components/connectivity/lwm2m/core\internals.h **** #endif
 357:D:/iot/felix2/components/connectivity/lwm2m/core\internals.h **** 
 358:D:/iot/felix2/components/connectivity/lwm2m/core\internals.h **** // defined in discover.c
 359:D:/iot/felix2/components/connectivity/lwm2m/core\internals.h **** int discover_serialize(lwm2m_context_t * contextP, lwm2m_uri_t * uriP, lwm2m_server_t * serverP, in
 360:D:/iot/felix2/components/connectivity/lwm2m/core\internals.h **** 
 361:D:/iot/felix2/components/connectivity/lwm2m/core\internals.h **** // defined in block1.c
 362:D:/iot/felix2/components/connectivity/lwm2m/core\internals.h **** uint8_t coap_block1_handler(lwm2m_block1_data_t ** block1Data, uint16_t mid, uint8_t * buffer, size
 363:D:/iot/felix2/components/connectivity/lwm2m/core\internals.h **** void free_block1_buffer(lwm2m_block1_data_t * block1Data);
 364:D:/iot/felix2/components/connectivity/lwm2m/core\internals.h **** 
 365:D:/iot/felix2/components/connectivity/lwm2m/core\internals.h **** // defined in utils.c
 366:D:/iot/felix2/components/connectivity/lwm2m/core\internals.h **** lwm2m_data_type_t utils_depthToDatatype(uri_depth_t depth);
 367:D:/iot/felix2/components/connectivity/lwm2m/core\internals.h **** lwm2m_binding_t utils_stringToBinding(uint8_t *buffer, size_t length);
 368:D:/iot/felix2/components/connectivity/lwm2m/core\internals.h **** lwm2m_media_type_t utils_convertMediaType(coap_content_type_t type);
 369:D:/iot/felix2/components/connectivity/lwm2m/core\internals.h **** int utils_isAltPathValid(const char * altPath);
 370:D:/iot/felix2/components/connectivity/lwm2m/core\internals.h **** int utils_stringCopy(char * buffer, size_t length, const char * str);
 371:D:/iot/felix2/components/connectivity/lwm2m/core\internals.h **** size_t utils_intToText(int64_t data, uint8_t * string, size_t length);
 372:D:/iot/felix2/components/connectivity/lwm2m/core\internals.h **** size_t utils_floatToText(double data, uint8_t * string, size_t length);
 373:D:/iot/felix2/components/connectivity/lwm2m/core\internals.h **** int utils_textToInt(uint8_t * buffer, int length, int64_t * dataP);
 374:D:/iot/felix2/components/connectivity/lwm2m/core\internals.h **** int utils_textToFloat(uint8_t * buffer, int length, double * dataP);
ARM GAS  C:\Users\91458\AppData\Local\Temp\ccCkQMas.s 			page 8


 375:D:/iot/felix2/components/connectivity/lwm2m/core\internals.h **** void utils_copyValue(void * dst, const void * src, size_t len);
 376:D:/iot/felix2/components/connectivity/lwm2m/core\internals.h **** size_t utils_base64GetSize(size_t dataLen);
 377:D:/iot/felix2/components/connectivity/lwm2m/core\internals.h **** size_t utils_base64Encode(uint8_t * dataP, size_t dataLen, uint8_t * bufferP, size_t bufferLen);
 378:D:/iot/felix2/components/connectivity/lwm2m/core\internals.h **** #ifdef LWM2M_CLIENT_MODE
 379:D:/iot/felix2/components/connectivity/lwm2m/core\internals.h **** lwm2m_server_t * utils_findServer(lwm2m_context_t * contextP, void * fromSessionH);
 380:D:/iot/felix2/components/connectivity/lwm2m/core\internals.h **** lwm2m_server_t * utils_findBootstrapServer(lwm2m_context_t * contextP, void * fromSessionH);
 381:D:/iot/felix2/components/connectivity/lwm2m/core\internals.h **** #endif
 382:D:/iot/felix2/components/connectivity/lwm2m/core\internals.h **** static inline int dm_isUriOpaqueHandle(const lwm2m_uri_t * uriP)
 383:D:/iot/felix2/components/connectivity/lwm2m/core\internals.h **** {
  27              		.loc 1 383 0
  28              		.cfi_startproc
  29              		@ args = 0, pretend = 0, frame = 8
  30              		@ frame_needed = 1, uses_anonymous_args = 0
  31              		@ link register save eliminated.
  32 0000 80B4     		push	{r7}
  33              	.LCFI0:
  34              		.cfi_def_cfa_offset 4
  35              		.cfi_offset 7, -4
  36 0002 83B0     		sub	sp, sp, #12
  37              	.LCFI1:
  38              		.cfi_def_cfa_offset 16
  39 0004 00AF     		add	r7, sp, #0
  40              	.LCFI2:
  41              		.cfi_def_cfa_register 7
  42 0006 7860     		str	r0, [r7, #4]
 384:D:/iot/felix2/components/connectivity/lwm2m/core\internals.h ****     return (19 == uriP->objectId);
  43              		.loc 1 384 0
  44 0008 7B68     		ldr	r3, [r7, #4]
  45 000a 5B88     		ldrh	r3, [r3, #2]
  46 000c 132B     		cmp	r3, #19
  47 000e 0CBF     		ite	eq
  48 0010 0123     		moveq	r3, #1
  49 0012 0023     		movne	r3, #0
  50 0014 DBB2     		uxtb	r3, r3
 385:D:/iot/felix2/components/connectivity/lwm2m/core\internals.h **** }
  51              		.loc 1 385 0
  52 0016 1846     		mov	r0, r3
  53 0018 0C37     		adds	r7, r7, #12
  54              	.LCFI3:
  55              		.cfi_def_cfa_offset 4
  56 001a BD46     		mov	sp, r7
  57              	.LCFI4:
  58              		.cfi_def_cfa_register 13
  59              		@ sp needed
  60 001c 5DF8047B 		ldr	r7, [sp], #4
  61              	.LCFI5:
  62              		.cfi_restore 7
  63              		.cfi_def_cfa_offset 0
  64 0020 7047     		bx	lr
  65              		.cfi_endproc
  66              	.LFE133:
  68              		.section	.text.lwm2m_data_decode_opaque,"ax",%progbits
  69              		.align	1
  70              		.global	lwm2m_data_decode_opaque
  71              		.syntax unified
  72              		.thumb
  73              		.thumb_func
ARM GAS  C:\Users\91458\AppData\Local\Temp\ccCkQMas.s 			page 9


  74              		.fpu fpv4-sp-d16
  76              	lwm2m_data_decode_opaque:
  77              	.LFB134:
  78              		.file 2 "D:/iot/felix2/components/connectivity/lwm2m/core/data.c"
   1:D:/iot/felix2/components/connectivity/lwm2m/core\data.c **** /*----------------------------------------------------------------------------
   2:D:/iot/felix2/components/connectivity/lwm2m/core\data.c ****  * Copyright (c) <2016-2018>, <Huawei Technologies Co., Ltd>
   3:D:/iot/felix2/components/connectivity/lwm2m/core\data.c ****  * All rights reserved.
   4:D:/iot/felix2/components/connectivity/lwm2m/core\data.c ****  * Redistribution and use in source and binary forms, with or without modification,
   5:D:/iot/felix2/components/connectivity/lwm2m/core\data.c ****  * are permitted provided that the following conditions are met:
   6:D:/iot/felix2/components/connectivity/lwm2m/core\data.c ****  * 1. Redistributions of source code must retain the above copyright notice, this list of
   7:D:/iot/felix2/components/connectivity/lwm2m/core\data.c ****  * conditions and the following disclaimer.
   8:D:/iot/felix2/components/connectivity/lwm2m/core\data.c ****  * 2. Redistributions in binary form must reproduce the above copyright notice, this list
   9:D:/iot/felix2/components/connectivity/lwm2m/core\data.c ****  * of conditions and the following disclaimer in the documentation and/or other materials
  10:D:/iot/felix2/components/connectivity/lwm2m/core\data.c ****  * provided with the distribution.
  11:D:/iot/felix2/components/connectivity/lwm2m/core\data.c ****  * 3. Neither the name of the copyright holder nor the names of its contributors may be used
  12:D:/iot/felix2/components/connectivity/lwm2m/core\data.c ****  * to endorse or promote products derived from this software without specific prior written
  13:D:/iot/felix2/components/connectivity/lwm2m/core\data.c ****  * permission.
  14:D:/iot/felix2/components/connectivity/lwm2m/core\data.c ****  * THIS SOFTWARE IS PROVIDED BY THE COPYRIGHT HOLDERS AND CONTRIBUTORS
  15:D:/iot/felix2/components/connectivity/lwm2m/core\data.c ****  * "AS IS" AND ANY EXPRESS OR IMPLIED WARRANTIES, INCLUDING, BUT NOT LIMITED TO,
  16:D:/iot/felix2/components/connectivity/lwm2m/core\data.c ****  * THE IMPLIED WARRANTIES OF MERCHANTABILITY AND FITNESS FOR A PARTICULAR
  17:D:/iot/felix2/components/connectivity/lwm2m/core\data.c ****  * PURPOSE ARE DISCLAIMED. IN NO EVENT SHALL THE COPYRIGHT HOLDER OR
  18:D:/iot/felix2/components/connectivity/lwm2m/core\data.c ****  * CONTRIBUTORS BE LIABLE FOR ANY DIRECT, INDIRECT, INCIDENTAL, SPECIAL,
  19:D:/iot/felix2/components/connectivity/lwm2m/core\data.c ****  * EXEMPLARY, OR CONSEQUENTIAL DAMAGES (INCLUDING, BUT NOT LIMITED TO,
  20:D:/iot/felix2/components/connectivity/lwm2m/core\data.c ****  * PROCUREMENT OF SUBSTITUTE GOODS OR SERVICES; LOSS OF USE, DATA, OR PROFITS;
  21:D:/iot/felix2/components/connectivity/lwm2m/core\data.c ****  * OR BUSINESS INTERRUPTION) HOWEVER CAUSED AND ON ANY THEORY OF LIABILITY,
  22:D:/iot/felix2/components/connectivity/lwm2m/core\data.c ****  * WHETHER IN CONTRACT, STRICT LIABILITY, OR TORT (INCLUDING NEGLIGENCE OR
  23:D:/iot/felix2/components/connectivity/lwm2m/core\data.c ****  * OTHERWISE) ARISING IN ANY WAY OUT OF THE USE OF THIS SOFTWARE, EVEN IF
  24:D:/iot/felix2/components/connectivity/lwm2m/core\data.c ****  * ADVISED OF THE POSSIBILITY OF SUCH DAMAGE.
  25:D:/iot/felix2/components/connectivity/lwm2m/core\data.c ****  *---------------------------------------------------------------------------*/
  26:D:/iot/felix2/components/connectivity/lwm2m/core\data.c **** /*----------------------------------------------------------------------------
  27:D:/iot/felix2/components/connectivity/lwm2m/core\data.c ****  * Notice of Export Control Law
  28:D:/iot/felix2/components/connectivity/lwm2m/core\data.c ****  * ===============================================
  29:D:/iot/felix2/components/connectivity/lwm2m/core\data.c ****  * Huawei LiteOS may be subject to applicable export control laws and regulations, which might
  30:D:/iot/felix2/components/connectivity/lwm2m/core\data.c ****  * include those applicable to Huawei LiteOS of U.S. and the country in which you are located.
  31:D:/iot/felix2/components/connectivity/lwm2m/core\data.c ****  * Import, export and usage of Huawei LiteOS in any manner by you shall be in compliance with such
  32:D:/iot/felix2/components/connectivity/lwm2m/core\data.c ****  * applicable export control laws and regulations.
  33:D:/iot/felix2/components/connectivity/lwm2m/core\data.c ****  *---------------------------------------------------------------------------*/
  34:D:/iot/felix2/components/connectivity/lwm2m/core\data.c **** 
  35:D:/iot/felix2/components/connectivity/lwm2m/core\data.c **** /*******************************************************************************
  36:D:/iot/felix2/components/connectivity/lwm2m/core\data.c **** *
  37:D:/iot/felix2/components/connectivity/lwm2m/core\data.c **** * Copyright (c) 2013, 2014 Intel Corporation and others.
  38:D:/iot/felix2/components/connectivity/lwm2m/core\data.c **** * All rights reserved. This program and the accompanying materials
  39:D:/iot/felix2/components/connectivity/lwm2m/core\data.c **** * are made available under the terms of the Eclipse Public License v1.0
  40:D:/iot/felix2/components/connectivity/lwm2m/core\data.c **** * and Eclipse Distribution License v1.0 which accompany this distribution.
  41:D:/iot/felix2/components/connectivity/lwm2m/core\data.c **** *
  42:D:/iot/felix2/components/connectivity/lwm2m/core\data.c **** * The Eclipse Public License is available at
  43:D:/iot/felix2/components/connectivity/lwm2m/core\data.c **** *    http://www.eclipse.org/legal/epl-v10.html
  44:D:/iot/felix2/components/connectivity/lwm2m/core\data.c **** * The Eclipse Distribution License is available at
  45:D:/iot/felix2/components/connectivity/lwm2m/core\data.c **** *    http://www.eclipse.org/org/documents/edl-v10.php.
  46:D:/iot/felix2/components/connectivity/lwm2m/core\data.c **** *
  47:D:/iot/felix2/components/connectivity/lwm2m/core\data.c **** * Contributors:
  48:D:/iot/felix2/components/connectivity/lwm2m/core\data.c **** *    David Navarro, Intel Corporation - initial API and implementation
  49:D:/iot/felix2/components/connectivity/lwm2m/core\data.c **** *    Fabien Fleutot - Please refer to git log
  50:D:/iot/felix2/components/connectivity/lwm2m/core\data.c **** *    Bosch Software Innovations GmbH - Please refer to git log
  51:D:/iot/felix2/components/connectivity/lwm2m/core\data.c **** *
  52:D:/iot/felix2/components/connectivity/lwm2m/core\data.c **** *******************************************************************************/
  53:D:/iot/felix2/components/connectivity/lwm2m/core\data.c **** 
ARM GAS  C:\Users\91458\AppData\Local\Temp\ccCkQMas.s 			page 10


  54:D:/iot/felix2/components/connectivity/lwm2m/core\data.c **** #include "internals.h"
  55:D:/iot/felix2/components/connectivity/lwm2m/core\data.c **** #include <float.h>
  56:D:/iot/felix2/components/connectivity/lwm2m/core\data.c **** 
  57:D:/iot/felix2/components/connectivity/lwm2m/core\data.c **** #define _PRV_STR_LENGTH 32
  58:D:/iot/felix2/components/connectivity/lwm2m/core\data.c **** 
  59:D:/iot/felix2/components/connectivity/lwm2m/core\data.c **** 
  60:D:/iot/felix2/components/connectivity/lwm2m/core\data.c **** void lwm2m_data_decode_opaque(const lwm2m_data_t *dataP,
  61:D:/iot/felix2/components/connectivity/lwm2m/core\data.c ****                               int8_t *valueP)
  62:D:/iot/felix2/components/connectivity/lwm2m/core\data.c **** {
  79              		.loc 2 62 0
  80              		.cfi_startproc
  81              		@ args = 0, pretend = 0, frame = 8
  82              		@ frame_needed = 1, uses_anonymous_args = 0
  83 0000 80B5     		push	{r7, lr}
  84              	.LCFI6:
  85              		.cfi_def_cfa_offset 8
  86              		.cfi_offset 7, -8
  87              		.cfi_offset 14, -4
  88 0002 82B0     		sub	sp, sp, #8
  89              	.LCFI7:
  90              		.cfi_def_cfa_offset 16
  91 0004 00AF     		add	r7, sp, #0
  92              	.LCFI8:
  93              		.cfi_def_cfa_register 7
  94 0006 7860     		str	r0, [r7, #4]
  95 0008 3960     		str	r1, [r7]
  63:D:/iot/felix2/components/connectivity/lwm2m/core\data.c ****     memcpy(valueP, dataP->value.asBuffer.buffer, dataP->value.asBuffer.length);
  96              		.loc 2 63 0
  97 000a 7B68     		ldr	r3, [r7, #4]
  98 000c D968     		ldr	r1, [r3, #12]
  99 000e 7B68     		ldr	r3, [r7, #4]
 100 0010 9B68     		ldr	r3, [r3, #8]
 101 0012 1A46     		mov	r2, r3
 102 0014 3868     		ldr	r0, [r7]
 103 0016 FFF7FEFF 		bl	memcpy
  64:D:/iot/felix2/components/connectivity/lwm2m/core\data.c **** }
 104              		.loc 2 64 0
 105 001a 00BF     		nop
 106 001c 0837     		adds	r7, r7, #8
 107              	.LCFI9:
 108              		.cfi_def_cfa_offset 8
 109 001e BD46     		mov	sp, r7
 110              	.LCFI10:
 111              		.cfi_def_cfa_register 13
 112              		@ sp needed
 113 0020 80BD     		pop	{r7, pc}
 114              		.cfi_endproc
 115              	.LFE134:
 117              		.section	.text.prv_textSerialize,"ax",%progbits
 118              		.align	1
 119              		.syntax unified
 120              		.thumb
 121              		.thumb_func
 122              		.fpu fpv4-sp-d16
 124              	prv_textSerialize:
 125              	.LFB135:
  65:D:/iot/felix2/components/connectivity/lwm2m/core\data.c **** 
ARM GAS  C:\Users\91458\AppData\Local\Temp\ccCkQMas.s 			page 11


  66:D:/iot/felix2/components/connectivity/lwm2m/core\data.c **** // dataP array length is assumed to be 1.
  67:D:/iot/felix2/components/connectivity/lwm2m/core\data.c **** static int prv_textSerialize(lwm2m_data_t *dataP,
  68:D:/iot/felix2/components/connectivity/lwm2m/core\data.c ****                              uint8_t **bufferP)
  69:D:/iot/felix2/components/connectivity/lwm2m/core\data.c **** {
 126              		.loc 2 69 0
 127              		.cfi_startproc
 128              		@ args = 0, pretend = 0, frame = 96
 129              		@ frame_needed = 1, uses_anonymous_args = 0
 130 0000 80B5     		push	{r7, lr}
 131              	.LCFI11:
 132              		.cfi_def_cfa_offset 8
 133              		.cfi_offset 7, -8
 134              		.cfi_offset 14, -4
 135 0002 98B0     		sub	sp, sp, #96
 136              	.LCFI12:
 137              		.cfi_def_cfa_offset 104
 138 0004 00AF     		add	r7, sp, #0
 139              	.LCFI13:
 140              		.cfi_def_cfa_register 7
 141 0006 7860     		str	r0, [r7, #4]
 142 0008 3960     		str	r1, [r7]
  70:D:/iot/felix2/components/connectivity/lwm2m/core\data.c ****     size_t res;
  71:D:/iot/felix2/components/connectivity/lwm2m/core\data.c **** 
  72:D:/iot/felix2/components/connectivity/lwm2m/core\data.c ****     switch (dataP->type)
 143              		.loc 2 72 0
 144 000a 7B68     		ldr	r3, [r7, #4]
 145 000c 1B78     		ldrb	r3, [r3]	@ zero_extendqisi2
 146 000e 043B     		subs	r3, r3, #4
 147 0010 052B     		cmp	r3, #5
 148 0012 00F20381 		bhi	.L5
 149 0016 01A2     		adr	r2, .L7
 150 0018 52F823F0 		ldr	pc, [r2, r3, lsl #2]
 151              		.p2align 2
 152              	.L7:
 153 001c 35000000 		.word	.L6+1
 154 0020 C7010000 		.word	.L8+1
 155 0024 69000000 		.word	.L9+1
 156 0028 B5000000 		.word	.L10+1
 157 002c 0B010000 		.word	.L11+1
 158 0030 3D010000 		.word	.L12+1
 159              		.p2align 1
 160              	.L6:
  73:D:/iot/felix2/components/connectivity/lwm2m/core\data.c ****     {
  74:D:/iot/felix2/components/connectivity/lwm2m/core\data.c ****     case LWM2M_TYPE_STRING:
  75:D:/iot/felix2/components/connectivity/lwm2m/core\data.c ****         *bufferP = (uint8_t *)lwm2m_malloc(dataP->value.asBuffer.length);
 161              		.loc 2 75 0
 162 0034 7B68     		ldr	r3, [r7, #4]
 163 0036 9B68     		ldr	r3, [r3, #8]
 164 0038 1846     		mov	r0, r3
 165 003a FFF7FEFF 		bl	lwm2m_malloc
 166 003e 0246     		mov	r2, r0
 167 0040 3B68     		ldr	r3, [r7]
 168 0042 1A60     		str	r2, [r3]
  76:D:/iot/felix2/components/connectivity/lwm2m/core\data.c ****         if (*bufferP == NULL) return 0;
 169              		.loc 2 76 0
 170 0044 3B68     		ldr	r3, [r7]
 171 0046 1B68     		ldr	r3, [r3]
ARM GAS  C:\Users\91458\AppData\Local\Temp\ccCkQMas.s 			page 12


 172 0048 002B     		cmp	r3, #0
 173 004a 01D1     		bne	.L13
 174              		.loc 2 76 0 is_stmt 0 discriminator 1
 175 004c 0023     		movs	r3, #0
 176 004e E7E0     		b	.L14
 177              	.L13:
  77:D:/iot/felix2/components/connectivity/lwm2m/core\data.c ****         memcpy(*bufferP, dataP->value.asBuffer.buffer, dataP->value.asBuffer.length);
 178              		.loc 2 77 0 is_stmt 1
 179 0050 3B68     		ldr	r3, [r7]
 180 0052 1868     		ldr	r0, [r3]
 181 0054 7B68     		ldr	r3, [r7, #4]
 182 0056 D968     		ldr	r1, [r3, #12]
 183 0058 7B68     		ldr	r3, [r7, #4]
 184 005a 9B68     		ldr	r3, [r3, #8]
 185 005c 1A46     		mov	r2, r3
 186 005e FFF7FEFF 		bl	memcpy
  78:D:/iot/felix2/components/connectivity/lwm2m/core\data.c ****         return (int)dataP->value.asBuffer.length;
 187              		.loc 2 78 0
 188 0062 7B68     		ldr	r3, [r7, #4]
 189 0064 9B68     		ldr	r3, [r3, #8]
 190 0066 DBE0     		b	.L14
 191              	.L9:
 192              	.LBB2:
  79:D:/iot/felix2/components/connectivity/lwm2m/core\data.c **** 
  80:D:/iot/felix2/components/connectivity/lwm2m/core\data.c ****     case LWM2M_TYPE_INTEGER:
  81:D:/iot/felix2/components/connectivity/lwm2m/core\data.c ****     {
  82:D:/iot/felix2/components/connectivity/lwm2m/core\data.c ****         uint8_t intString[_PRV_STR_LENGTH];
  83:D:/iot/felix2/components/connectivity/lwm2m/core\data.c **** 
  84:D:/iot/felix2/components/connectivity/lwm2m/core\data.c ****         res = utils_intToText(dataP->value.asInteger, intString, _PRV_STR_LENGTH);
 193              		.loc 2 84 0
 194 0068 7B68     		ldr	r3, [r7, #4]
 195 006a D3E90201 		ldrd	r0, [r3, #8]
 196 006e 07F10802 		add	r2, r7, #8
 197 0072 2023     		movs	r3, #32
 198 0074 FFF7FEFF 		bl	utils_intToText
 199 0078 B865     		str	r0, [r7, #88]
  85:D:/iot/felix2/components/connectivity/lwm2m/core\data.c ****         if (res == 0) return -1;
 200              		.loc 2 85 0
 201 007a BB6D     		ldr	r3, [r7, #88]
 202 007c 002B     		cmp	r3, #0
 203 007e 02D1     		bne	.L15
 204              		.loc 2 85 0 is_stmt 0 discriminator 1
 205 0080 4FF0FF33 		mov	r3, #-1
 206 0084 CCE0     		b	.L14
 207              	.L15:
  86:D:/iot/felix2/components/connectivity/lwm2m/core\data.c **** 
  87:D:/iot/felix2/components/connectivity/lwm2m/core\data.c ****         *bufferP = (uint8_t *)lwm2m_malloc(res);
 208              		.loc 2 87 0 is_stmt 1
 209 0086 B86D     		ldr	r0, [r7, #88]
 210 0088 FFF7FEFF 		bl	lwm2m_malloc
 211 008c 0246     		mov	r2, r0
 212 008e 3B68     		ldr	r3, [r7]
 213 0090 1A60     		str	r2, [r3]
  88:D:/iot/felix2/components/connectivity/lwm2m/core\data.c ****         if (NULL == *bufferP) return -1;
 214              		.loc 2 88 0
 215 0092 3B68     		ldr	r3, [r7]
 216 0094 1B68     		ldr	r3, [r3]
ARM GAS  C:\Users\91458\AppData\Local\Temp\ccCkQMas.s 			page 13


 217 0096 002B     		cmp	r3, #0
 218 0098 02D1     		bne	.L17
 219              		.loc 2 88 0 is_stmt 0 discriminator 1
 220 009a 4FF0FF33 		mov	r3, #-1
 221 009e BFE0     		b	.L14
 222              	.L17:
  89:D:/iot/felix2/components/connectivity/lwm2m/core\data.c **** 
  90:D:/iot/felix2/components/connectivity/lwm2m/core\data.c ****         memcpy(*bufferP, intString, res);
 223              		.loc 2 90 0 is_stmt 1
 224 00a0 3B68     		ldr	r3, [r7]
 225 00a2 1B68     		ldr	r3, [r3]
 226 00a4 07F10801 		add	r1, r7, #8
 227 00a8 BA6D     		ldr	r2, [r7, #88]
 228 00aa 1846     		mov	r0, r3
 229 00ac FFF7FEFF 		bl	memcpy
  91:D:/iot/felix2/components/connectivity/lwm2m/core\data.c **** 
  92:D:/iot/felix2/components/connectivity/lwm2m/core\data.c ****         return (int)res;
 230              		.loc 2 92 0
 231 00b0 BB6D     		ldr	r3, [r7, #88]
 232 00b2 B5E0     		b	.L14
 233              	.L10:
 234              	.LBE2:
 235              	.LBB3:
  93:D:/iot/felix2/components/connectivity/lwm2m/core\data.c ****     }
  94:D:/iot/felix2/components/connectivity/lwm2m/core\data.c **** 
  95:D:/iot/felix2/components/connectivity/lwm2m/core\data.c ****     case LWM2M_TYPE_FLOAT:
  96:D:/iot/felix2/components/connectivity/lwm2m/core\data.c ****     {
  97:D:/iot/felix2/components/connectivity/lwm2m/core\data.c ****         uint8_t floatString[_PRV_STR_LENGTH * 2];
  98:D:/iot/felix2/components/connectivity/lwm2m/core\data.c **** 
  99:D:/iot/felix2/components/connectivity/lwm2m/core\data.c ****         res = utils_floatToText(dataP->value.asFloat, floatString, _PRV_STR_LENGTH * 2);
 236              		.loc 2 99 0
 237 00b4 7B68     		ldr	r3, [r7, #4]
 238 00b6 93ED027B 		vldr.64	d7, [r3, #8]
 239 00ba 07F10803 		add	r3, r7, #8
 240 00be 4021     		movs	r1, #64
 241 00c0 1846     		mov	r0, r3
 242 00c2 B0EE470A 		vmov.f32	s0, s14
 243 00c6 F0EE670A 		vmov.f32	s1, s15
 244 00ca FFF7FEFF 		bl	utils_floatToText
 245 00ce B865     		str	r0, [r7, #88]
 100:D:/iot/felix2/components/connectivity/lwm2m/core\data.c ****         if (res == 0) return -1;
 246              		.loc 2 100 0
 247 00d0 BB6D     		ldr	r3, [r7, #88]
 248 00d2 002B     		cmp	r3, #0
 249 00d4 02D1     		bne	.L18
 250              		.loc 2 100 0 is_stmt 0 discriminator 1
 251 00d6 4FF0FF33 		mov	r3, #-1
 252 00da A1E0     		b	.L14
 253              	.L18:
 101:D:/iot/felix2/components/connectivity/lwm2m/core\data.c **** 
 102:D:/iot/felix2/components/connectivity/lwm2m/core\data.c ****         *bufferP = (uint8_t *)lwm2m_malloc(res);
 254              		.loc 2 102 0 is_stmt 1
 255 00dc B86D     		ldr	r0, [r7, #88]
 256 00de FFF7FEFF 		bl	lwm2m_malloc
 257 00e2 0246     		mov	r2, r0
 258 00e4 3B68     		ldr	r3, [r7]
 259 00e6 1A60     		str	r2, [r3]
ARM GAS  C:\Users\91458\AppData\Local\Temp\ccCkQMas.s 			page 14


 103:D:/iot/felix2/components/connectivity/lwm2m/core\data.c ****         if (NULL == *bufferP) return -1;
 260              		.loc 2 103 0
 261 00e8 3B68     		ldr	r3, [r7]
 262 00ea 1B68     		ldr	r3, [r3]
 263 00ec 002B     		cmp	r3, #0
 264 00ee 02D1     		bne	.L20
 265              		.loc 2 103 0 is_stmt 0 discriminator 1
 266 00f0 4FF0FF33 		mov	r3, #-1
 267 00f4 94E0     		b	.L14
 268              	.L20:
 104:D:/iot/felix2/components/connectivity/lwm2m/core\data.c **** 
 105:D:/iot/felix2/components/connectivity/lwm2m/core\data.c ****         memcpy(*bufferP, floatString, res);
 269              		.loc 2 105 0 is_stmt 1
 270 00f6 3B68     		ldr	r3, [r7]
 271 00f8 1B68     		ldr	r3, [r3]
 272 00fa 07F10801 		add	r1, r7, #8
 273 00fe BA6D     		ldr	r2, [r7, #88]
 274 0100 1846     		mov	r0, r3
 275 0102 FFF7FEFF 		bl	memcpy
 106:D:/iot/felix2/components/connectivity/lwm2m/core\data.c **** 
 107:D:/iot/felix2/components/connectivity/lwm2m/core\data.c ****         return (int)res;
 276              		.loc 2 107 0
 277 0106 BB6D     		ldr	r3, [r7, #88]
 278 0108 8AE0     		b	.L14
 279              	.L11:
 280              	.LBE3:
 108:D:/iot/felix2/components/connectivity/lwm2m/core\data.c ****     }
 109:D:/iot/felix2/components/connectivity/lwm2m/core\data.c **** 
 110:D:/iot/felix2/components/connectivity/lwm2m/core\data.c ****     case LWM2M_TYPE_BOOLEAN:
 111:D:/iot/felix2/components/connectivity/lwm2m/core\data.c ****         *bufferP = (uint8_t *)lwm2m_malloc(1);
 281              		.loc 2 111 0
 282 010a 0120     		movs	r0, #1
 283 010c FFF7FEFF 		bl	lwm2m_malloc
 284 0110 0246     		mov	r2, r0
 285 0112 3B68     		ldr	r3, [r7]
 286 0114 1A60     		str	r2, [r3]
 112:D:/iot/felix2/components/connectivity/lwm2m/core\data.c ****         if (NULL == *bufferP) return -1;
 287              		.loc 2 112 0
 288 0116 3B68     		ldr	r3, [r7]
 289 0118 1B68     		ldr	r3, [r3]
 290 011a 002B     		cmp	r3, #0
 291 011c 02D1     		bne	.L21
 292              		.loc 2 112 0 is_stmt 0 discriminator 1
 293 011e 4FF0FF33 		mov	r3, #-1
 294 0122 7DE0     		b	.L14
 295              	.L21:
 113:D:/iot/felix2/components/connectivity/lwm2m/core\data.c **** 
 114:D:/iot/felix2/components/connectivity/lwm2m/core\data.c ****         *bufferP[0] = dataP->value.asBoolean ? '1' : '0';
 296              		.loc 2 114 0 is_stmt 1
 297 0124 7B68     		ldr	r3, [r7, #4]
 298 0126 1B7A     		ldrb	r3, [r3, #8]	@ zero_extendqisi2
 299 0128 002B     		cmp	r3, #0
 300 012a 01D0     		beq	.L22
 301              		.loc 2 114 0 is_stmt 0 discriminator 1
 302 012c 3122     		movs	r2, #49
 303 012e 00E0     		b	.L23
 304              	.L22:
ARM GAS  C:\Users\91458\AppData\Local\Temp\ccCkQMas.s 			page 15


 305              		.loc 2 114 0 discriminator 2
 306 0130 3022     		movs	r2, #48
 307              	.L23:
 308              		.loc 2 114 0 discriminator 4
 309 0132 3B68     		ldr	r3, [r7]
 310 0134 1B68     		ldr	r3, [r3]
 311 0136 1A70     		strb	r2, [r3]
 115:D:/iot/felix2/components/connectivity/lwm2m/core\data.c **** 
 116:D:/iot/felix2/components/connectivity/lwm2m/core\data.c ****         return 1;
 312              		.loc 2 116 0 is_stmt 1 discriminator 4
 313 0138 0123     		movs	r3, #1
 314 013a 71E0     		b	.L14
 315              	.L12:
 316              	.LBB4:
 117:D:/iot/felix2/components/connectivity/lwm2m/core\data.c **** 
 118:D:/iot/felix2/components/connectivity/lwm2m/core\data.c ****     case LWM2M_TYPE_OBJECT_LINK:
 119:D:/iot/felix2/components/connectivity/lwm2m/core\data.c ****     {
 120:D:/iot/felix2/components/connectivity/lwm2m/core\data.c ****         char stringBuffer[11];
 121:D:/iot/felix2/components/connectivity/lwm2m/core\data.c ****         size_t length;
 122:D:/iot/felix2/components/connectivity/lwm2m/core\data.c **** 
 123:D:/iot/felix2/components/connectivity/lwm2m/core\data.c ****         length = utils_intToText(dataP->value.asObjLink.objectId, (uint8_t *)stringBuffer, 5);
 317              		.loc 2 123 0
 318 013c 7B68     		ldr	r3, [r7, #4]
 319 013e 1B89     		ldrh	r3, [r3, #8]
 320 0140 98B2     		uxth	r0, r3
 321 0142 4FF00001 		mov	r1, #0
 322 0146 07F14802 		add	r2, r7, #72
 323 014a 0523     		movs	r3, #5
 324 014c FFF7FEFF 		bl	utils_intToText
 325 0150 F865     		str	r0, [r7, #92]
 124:D:/iot/felix2/components/connectivity/lwm2m/core\data.c ****         if (length == 0) return -1;
 326              		.loc 2 124 0
 327 0152 FB6D     		ldr	r3, [r7, #92]
 328 0154 002B     		cmp	r3, #0
 329 0156 02D1     		bne	.L24
 330              		.loc 2 124 0 is_stmt 0 discriminator 1
 331 0158 4FF0FF33 		mov	r3, #-1
 332 015c 60E0     		b	.L14
 333              	.L24:
 125:D:/iot/felix2/components/connectivity/lwm2m/core\data.c **** 
 126:D:/iot/felix2/components/connectivity/lwm2m/core\data.c ****         stringBuffer[5] = ':';
 334              		.loc 2 126 0 is_stmt 1
 335 015e 3A23     		movs	r3, #58
 336 0160 87F84D30 		strb	r3, [r7, #77]
 127:D:/iot/felix2/components/connectivity/lwm2m/core\data.c ****         res = length + 1;
 337              		.loc 2 127 0
 338 0164 FB6D     		ldr	r3, [r7, #92]
 339 0166 0133     		adds	r3, r3, #1
 340 0168 BB65     		str	r3, [r7, #88]
 128:D:/iot/felix2/components/connectivity/lwm2m/core\data.c **** 
 129:D:/iot/felix2/components/connectivity/lwm2m/core\data.c ****         length = utils_intToText(dataP->value.asObjLink.objectInstanceId, (uint8_t *)stringBuffer +
 341              		.loc 2 129 0
 342 016a 7B68     		ldr	r3, [r7, #4]
 343 016c 5B89     		ldrh	r3, [r3, #10]
 344 016e 98B2     		uxth	r0, r3
 345 0170 4FF00001 		mov	r1, #0
 346 0174 07F14802 		add	r2, r7, #72
ARM GAS  C:\Users\91458\AppData\Local\Temp\ccCkQMas.s 			page 16


 347 0178 BB6D     		ldr	r3, [r7, #88]
 348 017a 1A44     		add	r2, r2, r3
 349 017c 0523     		movs	r3, #5
 350 017e FFF7FEFF 		bl	utils_intToText
 351 0182 F865     		str	r0, [r7, #92]
 130:D:/iot/felix2/components/connectivity/lwm2m/core\data.c ****         if (length == 0) return -1;
 352              		.loc 2 130 0
 353 0184 FB6D     		ldr	r3, [r7, #92]
 354 0186 002B     		cmp	r3, #0
 355 0188 02D1     		bne	.L26
 356              		.loc 2 130 0 is_stmt 0 discriminator 1
 357 018a 4FF0FF33 		mov	r3, #-1
 358 018e 47E0     		b	.L14
 359              	.L26:
 131:D:/iot/felix2/components/connectivity/lwm2m/core\data.c **** 
 132:D:/iot/felix2/components/connectivity/lwm2m/core\data.c ****         res += length;
 360              		.loc 2 132 0 is_stmt 1
 361 0190 BA6D     		ldr	r2, [r7, #88]
 362 0192 FB6D     		ldr	r3, [r7, #92]
 363 0194 1344     		add	r3, r3, r2
 364 0196 BB65     		str	r3, [r7, #88]
 133:D:/iot/felix2/components/connectivity/lwm2m/core\data.c **** 
 134:D:/iot/felix2/components/connectivity/lwm2m/core\data.c ****         *bufferP = (uint8_t *)lwm2m_malloc(res);
 365              		.loc 2 134 0
 366 0198 B86D     		ldr	r0, [r7, #88]
 367 019a FFF7FEFF 		bl	lwm2m_malloc
 368 019e 0246     		mov	r2, r0
 369 01a0 3B68     		ldr	r3, [r7]
 370 01a2 1A60     		str	r2, [r3]
 135:D:/iot/felix2/components/connectivity/lwm2m/core\data.c ****         if (*bufferP == NULL) return -1;
 371              		.loc 2 135 0
 372 01a4 3B68     		ldr	r3, [r7]
 373 01a6 1B68     		ldr	r3, [r3]
 374 01a8 002B     		cmp	r3, #0
 375 01aa 02D1     		bne	.L27
 376              		.loc 2 135 0 is_stmt 0 discriminator 1
 377 01ac 4FF0FF33 		mov	r3, #-1
 378 01b0 36E0     		b	.L14
 379              	.L27:
 136:D:/iot/felix2/components/connectivity/lwm2m/core\data.c **** 
 137:D:/iot/felix2/components/connectivity/lwm2m/core\data.c ****         memcpy(*bufferP, stringBuffer, res);
 380              		.loc 2 137 0 is_stmt 1
 381 01b2 3B68     		ldr	r3, [r7]
 382 01b4 1B68     		ldr	r3, [r3]
 383 01b6 07F14801 		add	r1, r7, #72
 384 01ba BA6D     		ldr	r2, [r7, #88]
 385 01bc 1846     		mov	r0, r3
 386 01be FFF7FEFF 		bl	memcpy
 138:D:/iot/felix2/components/connectivity/lwm2m/core\data.c **** 
 139:D:/iot/felix2/components/connectivity/lwm2m/core\data.c ****         return res;
 387              		.loc 2 139 0
 388 01c2 BB6D     		ldr	r3, [r7, #88]
 389 01c4 2CE0     		b	.L14
 390              	.L8:
 391              	.LBE4:
 392              	.LBB5:
 140:D:/iot/felix2/components/connectivity/lwm2m/core\data.c ****     }
ARM GAS  C:\Users\91458\AppData\Local\Temp\ccCkQMas.s 			page 17


 141:D:/iot/felix2/components/connectivity/lwm2m/core\data.c **** 
 142:D:/iot/felix2/components/connectivity/lwm2m/core\data.c ****     case LWM2M_TYPE_OPAQUE:
 143:D:/iot/felix2/components/connectivity/lwm2m/core\data.c ****     {
 144:D:/iot/felix2/components/connectivity/lwm2m/core\data.c ****         size_t length;
 145:D:/iot/felix2/components/connectivity/lwm2m/core\data.c **** 
 146:D:/iot/felix2/components/connectivity/lwm2m/core\data.c ****         length = utils_base64GetSize(dataP->value.asBuffer.length);
 393              		.loc 2 146 0
 394 01c6 7B68     		ldr	r3, [r7, #4]
 395 01c8 9B68     		ldr	r3, [r3, #8]
 396 01ca 1846     		mov	r0, r3
 397 01cc FFF7FEFF 		bl	utils_base64GetSize
 398 01d0 7865     		str	r0, [r7, #84]
 147:D:/iot/felix2/components/connectivity/lwm2m/core\data.c ****         *bufferP = (uint8_t *)lwm2m_malloc(length);
 399              		.loc 2 147 0
 400 01d2 786D     		ldr	r0, [r7, #84]
 401 01d4 FFF7FEFF 		bl	lwm2m_malloc
 402 01d8 0246     		mov	r2, r0
 403 01da 3B68     		ldr	r3, [r7]
 404 01dc 1A60     		str	r2, [r3]
 148:D:/iot/felix2/components/connectivity/lwm2m/core\data.c ****         if (*bufferP == NULL) return 0;
 405              		.loc 2 148 0
 406 01de 3B68     		ldr	r3, [r7]
 407 01e0 1B68     		ldr	r3, [r3]
 408 01e2 002B     		cmp	r3, #0
 409 01e4 01D1     		bne	.L28
 410              		.loc 2 148 0 is_stmt 0 discriminator 1
 411 01e6 0023     		movs	r3, #0
 412 01e8 1AE0     		b	.L14
 413              	.L28:
 149:D:/iot/felix2/components/connectivity/lwm2m/core\data.c ****         length = utils_base64Encode(dataP->value.asBuffer.buffer, dataP->value.asBuffer.length, *bu
 414              		.loc 2 149 0 is_stmt 1
 415 01ea 7B68     		ldr	r3, [r7, #4]
 416 01ec D868     		ldr	r0, [r3, #12]
 417 01ee 7B68     		ldr	r3, [r7, #4]
 418 01f0 9968     		ldr	r1, [r3, #8]
 419 01f2 3B68     		ldr	r3, [r7]
 420 01f4 1A68     		ldr	r2, [r3]
 421 01f6 7B6D     		ldr	r3, [r7, #84]
 422 01f8 FFF7FEFF 		bl	utils_base64Encode
 423 01fc 7865     		str	r0, [r7, #84]
 150:D:/iot/felix2/components/connectivity/lwm2m/core\data.c ****         if (length == 0)
 424              		.loc 2 150 0
 425 01fe 7B6D     		ldr	r3, [r7, #84]
 426 0200 002B     		cmp	r3, #0
 427 0202 09D1     		bne	.L29
 151:D:/iot/felix2/components/connectivity/lwm2m/core\data.c ****         {
 152:D:/iot/felix2/components/connectivity/lwm2m/core\data.c ****             lwm2m_free(*bufferP);
 428              		.loc 2 152 0
 429 0204 3B68     		ldr	r3, [r7]
 430 0206 1B68     		ldr	r3, [r3]
 431 0208 1846     		mov	r0, r3
 432 020a FFF7FEFF 		bl	lwm2m_free
 153:D:/iot/felix2/components/connectivity/lwm2m/core\data.c ****             *bufferP = NULL;
 433              		.loc 2 153 0
 434 020e 3B68     		ldr	r3, [r7]
 435 0210 0022     		movs	r2, #0
 436 0212 1A60     		str	r2, [r3]
ARM GAS  C:\Users\91458\AppData\Local\Temp\ccCkQMas.s 			page 18


 154:D:/iot/felix2/components/connectivity/lwm2m/core\data.c ****             return 0;
 437              		.loc 2 154 0
 438 0214 0023     		movs	r3, #0
 439 0216 03E0     		b	.L14
 440              	.L29:
 155:D:/iot/felix2/components/connectivity/lwm2m/core\data.c ****         }
 156:D:/iot/felix2/components/connectivity/lwm2m/core\data.c ****         return (int)length;
 441              		.loc 2 156 0
 442 0218 7B6D     		ldr	r3, [r7, #84]
 443 021a 01E0     		b	.L14
 444              	.L5:
 445              	.LBE5:
 157:D:/iot/felix2/components/connectivity/lwm2m/core\data.c ****     }
 158:D:/iot/felix2/components/connectivity/lwm2m/core\data.c **** 
 159:D:/iot/felix2/components/connectivity/lwm2m/core\data.c ****     case LWM2M_TYPE_UNDEFINED:
 160:D:/iot/felix2/components/connectivity/lwm2m/core\data.c ****     default:
 161:D:/iot/felix2/components/connectivity/lwm2m/core\data.c ****         return -1;
 446              		.loc 2 161 0
 447 021c 4FF0FF33 		mov	r3, #-1
 448              	.L14:
 162:D:/iot/felix2/components/connectivity/lwm2m/core\data.c ****     }
 163:D:/iot/felix2/components/connectivity/lwm2m/core\data.c **** }
 449              		.loc 2 163 0 discriminator 1
 450 0220 1846     		mov	r0, r3
 451 0222 6037     		adds	r7, r7, #96
 452              	.LCFI14:
 453              		.cfi_def_cfa_offset 8
 454 0224 BD46     		mov	sp, r7
 455              	.LCFI15:
 456              		.cfi_def_cfa_register 13
 457              		@ sp needed
 458 0226 80BD     		pop	{r7, pc}
 459              		.cfi_endproc
 460              	.LFE135:
 462              		.section	.text.prv_setBuffer,"ax",%progbits
 463              		.align	1
 464              		.syntax unified
 465              		.thumb
 466              		.thumb_func
 467              		.fpu fpv4-sp-d16
 469              	prv_setBuffer:
 470              	.LFB136:
 164:D:/iot/felix2/components/connectivity/lwm2m/core\data.c **** 
 165:D:/iot/felix2/components/connectivity/lwm2m/core\data.c **** static int prv_setBuffer(lwm2m_data_t *dataP,
 166:D:/iot/felix2/components/connectivity/lwm2m/core\data.c ****                          uint8_t *buffer,
 167:D:/iot/felix2/components/connectivity/lwm2m/core\data.c ****                          size_t bufferLen)
 168:D:/iot/felix2/components/connectivity/lwm2m/core\data.c **** {
 471              		.loc 2 168 0
 472              		.cfi_startproc
 473              		@ args = 0, pretend = 0, frame = 16
 474              		@ frame_needed = 1, uses_anonymous_args = 0
 475 0000 80B5     		push	{r7, lr}
 476              	.LCFI16:
 477              		.cfi_def_cfa_offset 8
 478              		.cfi_offset 7, -8
 479              		.cfi_offset 14, -4
 480 0002 84B0     		sub	sp, sp, #16
ARM GAS  C:\Users\91458\AppData\Local\Temp\ccCkQMas.s 			page 19


 481              	.LCFI17:
 482              		.cfi_def_cfa_offset 24
 483 0004 00AF     		add	r7, sp, #0
 484              	.LCFI18:
 485              		.cfi_def_cfa_register 7
 486 0006 F860     		str	r0, [r7, #12]
 487 0008 B960     		str	r1, [r7, #8]
 488 000a 7A60     		str	r2, [r7, #4]
 169:D:/iot/felix2/components/connectivity/lwm2m/core\data.c ****     dataP->value.asBuffer.buffer = (uint8_t *)lwm2m_malloc(bufferLen);
 489              		.loc 2 169 0
 490 000c 7868     		ldr	r0, [r7, #4]
 491 000e FFF7FEFF 		bl	lwm2m_malloc
 492 0012 0246     		mov	r2, r0
 493 0014 FB68     		ldr	r3, [r7, #12]
 494 0016 DA60     		str	r2, [r3, #12]
 170:D:/iot/felix2/components/connectivity/lwm2m/core\data.c ****     if (dataP->value.asBuffer.buffer == NULL)
 495              		.loc 2 170 0
 496 0018 FB68     		ldr	r3, [r7, #12]
 497 001a DB68     		ldr	r3, [r3, #12]
 498 001c 002B     		cmp	r3, #0
 499 001e 01D1     		bne	.L31
 171:D:/iot/felix2/components/connectivity/lwm2m/core\data.c ****     {
 172:D:/iot/felix2/components/connectivity/lwm2m/core\data.c ****         return 0;
 500              		.loc 2 172 0
 501 0020 0023     		movs	r3, #0
 502 0022 0AE0     		b	.L32
 503              	.L31:
 173:D:/iot/felix2/components/connectivity/lwm2m/core\data.c ****     }
 174:D:/iot/felix2/components/connectivity/lwm2m/core\data.c ****     dataP->value.asBuffer.length = bufferLen;
 504              		.loc 2 174 0
 505 0024 FB68     		ldr	r3, [r7, #12]
 506 0026 7A68     		ldr	r2, [r7, #4]
 507 0028 9A60     		str	r2, [r3, #8]
 175:D:/iot/felix2/components/connectivity/lwm2m/core\data.c ****     memcpy(dataP->value.asBuffer.buffer, buffer, bufferLen);
 508              		.loc 2 175 0
 509 002a FB68     		ldr	r3, [r7, #12]
 510 002c DB68     		ldr	r3, [r3, #12]
 511 002e 7A68     		ldr	r2, [r7, #4]
 512 0030 B968     		ldr	r1, [r7, #8]
 513 0032 1846     		mov	r0, r3
 514 0034 FFF7FEFF 		bl	memcpy
 176:D:/iot/felix2/components/connectivity/lwm2m/core\data.c **** 
 177:D:/iot/felix2/components/connectivity/lwm2m/core\data.c ****     return 1;
 515              		.loc 2 177 0
 516 0038 0123     		movs	r3, #1
 517              	.L32:
 178:D:/iot/felix2/components/connectivity/lwm2m/core\data.c **** }
 518              		.loc 2 178 0
 519 003a 1846     		mov	r0, r3
 520 003c 1037     		adds	r7, r7, #16
 521              	.LCFI19:
 522              		.cfi_def_cfa_offset 8
 523 003e BD46     		mov	sp, r7
 524              	.LCFI20:
 525              		.cfi_def_cfa_register 13
 526              		@ sp needed
 527 0040 80BD     		pop	{r7, pc}
ARM GAS  C:\Users\91458\AppData\Local\Temp\ccCkQMas.s 			page 20


 528              		.cfi_endproc
 529              	.LFE136:
 531              		.section	.text.lwm2m_data_new,"ax",%progbits
 532              		.align	1
 533              		.global	lwm2m_data_new
 534              		.syntax unified
 535              		.thumb
 536              		.thumb_func
 537              		.fpu fpv4-sp-d16
 539              	lwm2m_data_new:
 540              	.LFB137:
 179:D:/iot/felix2/components/connectivity/lwm2m/core\data.c **** 
 180:D:/iot/felix2/components/connectivity/lwm2m/core\data.c **** lwm2m_data_t *lwm2m_data_new(int size)
 181:D:/iot/felix2/components/connectivity/lwm2m/core\data.c **** {
 541              		.loc 2 181 0
 542              		.cfi_startproc
 543              		@ args = 0, pretend = 0, frame = 16
 544              		@ frame_needed = 1, uses_anonymous_args = 0
 545 0000 80B5     		push	{r7, lr}
 546              	.LCFI21:
 547              		.cfi_def_cfa_offset 8
 548              		.cfi_offset 7, -8
 549              		.cfi_offset 14, -4
 550 0002 84B0     		sub	sp, sp, #16
 551              	.LCFI22:
 552              		.cfi_def_cfa_offset 24
 553 0004 00AF     		add	r7, sp, #0
 554              	.LCFI23:
 555              		.cfi_def_cfa_register 7
 556 0006 7860     		str	r0, [r7, #4]
 182:D:/iot/felix2/components/connectivity/lwm2m/core\data.c ****     lwm2m_data_t *dataP;
 183:D:/iot/felix2/components/connectivity/lwm2m/core\data.c **** 
 184:D:/iot/felix2/components/connectivity/lwm2m/core\data.c ****     LOG_ARG("size: %d", size);
 185:D:/iot/felix2/components/connectivity/lwm2m/core\data.c ****     if (size <= 0) return NULL;
 557              		.loc 2 185 0
 558 0008 7B68     		ldr	r3, [r7, #4]
 559 000a 002B     		cmp	r3, #0
 560 000c 01DC     		bgt	.L34
 561              		.loc 2 185 0 is_stmt 0 discriminator 1
 562 000e 0023     		movs	r3, #0
 563 0010 10E0     		b	.L35
 564              	.L34:
 186:D:/iot/felix2/components/connectivity/lwm2m/core\data.c **** 
 187:D:/iot/felix2/components/connectivity/lwm2m/core\data.c ****     dataP = (lwm2m_data_t *)lwm2m_malloc(size * sizeof(lwm2m_data_t));
 565              		.loc 2 187 0 is_stmt 1
 566 0012 7B68     		ldr	r3, [r7, #4]
 567 0014 1B01     		lsls	r3, r3, #4
 568 0016 1846     		mov	r0, r3
 569 0018 FFF7FEFF 		bl	lwm2m_malloc
 570 001c F860     		str	r0, [r7, #12]
 188:D:/iot/felix2/components/connectivity/lwm2m/core\data.c **** 
 189:D:/iot/felix2/components/connectivity/lwm2m/core\data.c ****     if (dataP != NULL)
 571              		.loc 2 189 0
 572 001e FB68     		ldr	r3, [r7, #12]
 573 0020 002B     		cmp	r3, #0
 574 0022 06D0     		beq	.L36
 190:D:/iot/felix2/components/connectivity/lwm2m/core\data.c ****     {
ARM GAS  C:\Users\91458\AppData\Local\Temp\ccCkQMas.s 			page 21


 191:D:/iot/felix2/components/connectivity/lwm2m/core\data.c ****         memset(dataP, 0, size * sizeof(lwm2m_data_t));
 575              		.loc 2 191 0
 576 0024 7B68     		ldr	r3, [r7, #4]
 577 0026 1B01     		lsls	r3, r3, #4
 578 0028 1A46     		mov	r2, r3
 579 002a 0021     		movs	r1, #0
 580 002c F868     		ldr	r0, [r7, #12]
 581 002e FFF7FEFF 		bl	memset
 582              	.L36:
 192:D:/iot/felix2/components/connectivity/lwm2m/core\data.c ****     }
 193:D:/iot/felix2/components/connectivity/lwm2m/core\data.c **** 
 194:D:/iot/felix2/components/connectivity/lwm2m/core\data.c ****     return dataP;
 583              		.loc 2 194 0
 584 0032 FB68     		ldr	r3, [r7, #12]
 585              	.L35:
 195:D:/iot/felix2/components/connectivity/lwm2m/core\data.c **** }
 586              		.loc 2 195 0
 587 0034 1846     		mov	r0, r3
 588 0036 1037     		adds	r7, r7, #16
 589              	.LCFI24:
 590              		.cfi_def_cfa_offset 8
 591 0038 BD46     		mov	sp, r7
 592              	.LCFI25:
 593              		.cfi_def_cfa_register 13
 594              		@ sp needed
 595 003a 80BD     		pop	{r7, pc}
 596              		.cfi_endproc
 597              	.LFE137:
 599              		.section	.text.lwm2m_data_free,"ax",%progbits
 600              		.align	1
 601              		.global	lwm2m_data_free
 602              		.syntax unified
 603              		.thumb
 604              		.thumb_func
 605              		.fpu fpv4-sp-d16
 607              	lwm2m_data_free:
 608              	.LFB138:
 196:D:/iot/felix2/components/connectivity/lwm2m/core\data.c **** 
 197:D:/iot/felix2/components/connectivity/lwm2m/core\data.c **** void lwm2m_data_free(int size,
 198:D:/iot/felix2/components/connectivity/lwm2m/core\data.c ****                      lwm2m_data_t *dataP)
 199:D:/iot/felix2/components/connectivity/lwm2m/core\data.c **** {
 609              		.loc 2 199 0
 610              		.cfi_startproc
 611              		@ args = 0, pretend = 0, frame = 16
 612              		@ frame_needed = 1, uses_anonymous_args = 0
 613 0000 80B5     		push	{r7, lr}
 614              	.LCFI26:
 615              		.cfi_def_cfa_offset 8
 616              		.cfi_offset 7, -8
 617              		.cfi_offset 14, -4
 618 0002 84B0     		sub	sp, sp, #16
 619              	.LCFI27:
 620              		.cfi_def_cfa_offset 24
 621 0004 00AF     		add	r7, sp, #0
 622              	.LCFI28:
 623              		.cfi_def_cfa_register 7
 624 0006 7860     		str	r0, [r7, #4]
ARM GAS  C:\Users\91458\AppData\Local\Temp\ccCkQMas.s 			page 22


 625 0008 3960     		str	r1, [r7]
 200:D:/iot/felix2/components/connectivity/lwm2m/core\data.c ****     int i;
 201:D:/iot/felix2/components/connectivity/lwm2m/core\data.c **** 
 202:D:/iot/felix2/components/connectivity/lwm2m/core\data.c ****     LOG_ARG("size: %d", size);
 203:D:/iot/felix2/components/connectivity/lwm2m/core\data.c ****     if (size == 0 || dataP == NULL) return;
 626              		.loc 2 203 0
 627 000a 7B68     		ldr	r3, [r7, #4]
 628 000c 002B     		cmp	r3, #0
 629 000e 45D0     		beq	.L48
 630              		.loc 2 203 0 is_stmt 0 discriminator 1
 631 0010 3B68     		ldr	r3, [r7]
 632 0012 002B     		cmp	r3, #0
 633 0014 42D0     		beq	.L48
 204:D:/iot/felix2/components/connectivity/lwm2m/core\data.c **** 
 205:D:/iot/felix2/components/connectivity/lwm2m/core\data.c ****     for (i = 0; i < size; i++)
 634              		.loc 2 205 0 is_stmt 1
 635 0016 0023     		movs	r3, #0
 636 0018 FB60     		str	r3, [r7, #12]
 637 001a 37E0     		b	.L41
 638              	.L47:
 206:D:/iot/felix2/components/connectivity/lwm2m/core\data.c ****     {
 207:D:/iot/felix2/components/connectivity/lwm2m/core\data.c ****         switch (dataP[i].type)
 639              		.loc 2 207 0
 640 001c FB68     		ldr	r3, [r7, #12]
 641 001e 1B01     		lsls	r3, r3, #4
 642 0020 3A68     		ldr	r2, [r7]
 643 0022 1344     		add	r3, r3, r2
 644 0024 1B78     		ldrb	r3, [r3]	@ zero_extendqisi2
 645 0026 013B     		subs	r3, r3, #1
 646 0028 042B     		cmp	r3, #4
 647 002a 2BD8     		bhi	.L49
 648 002c 01A2     		adr	r2, .L44
 649 002e 52F823F0 		ldr	pc, [r2, r3, lsl #2]
 650 0032 00BF     		.p2align 2
 651              	.L44:
 652 0034 49000000 		.word	.L43+1
 653 0038 49000000 		.word	.L43+1
 654 003c 49000000 		.word	.L43+1
 655 0040 67000000 		.word	.L45+1
 656 0044 67000000 		.word	.L45+1
 657              		.p2align 1
 658              	.L43:
 208:D:/iot/felix2/components/connectivity/lwm2m/core\data.c ****         {
 209:D:/iot/felix2/components/connectivity/lwm2m/core\data.c ****         case LWM2M_TYPE_MULTIPLE_RESOURCE:
 210:D:/iot/felix2/components/connectivity/lwm2m/core\data.c ****         case LWM2M_TYPE_OBJECT_INSTANCE:
 211:D:/iot/felix2/components/connectivity/lwm2m/core\data.c ****         case LWM2M_TYPE_OBJECT:
 212:D:/iot/felix2/components/connectivity/lwm2m/core\data.c ****             lwm2m_data_free(dataP[i].value.asChildren.count, dataP[i].value.asChildren.array);
 659              		.loc 2 212 0
 660 0048 FB68     		ldr	r3, [r7, #12]
 661 004a 1B01     		lsls	r3, r3, #4
 662 004c 3A68     		ldr	r2, [r7]
 663 004e 1344     		add	r3, r3, r2
 664 0050 9B68     		ldr	r3, [r3, #8]
 665 0052 1846     		mov	r0, r3
 666 0054 FB68     		ldr	r3, [r7, #12]
 667 0056 1B01     		lsls	r3, r3, #4
 668 0058 3A68     		ldr	r2, [r7]
ARM GAS  C:\Users\91458\AppData\Local\Temp\ccCkQMas.s 			page 23


 669 005a 1344     		add	r3, r3, r2
 670 005c DB68     		ldr	r3, [r3, #12]
 671 005e 1946     		mov	r1, r3
 672 0060 FFF7FEFF 		bl	lwm2m_data_free
 213:D:/iot/felix2/components/connectivity/lwm2m/core\data.c ****             break;
 673              		.loc 2 213 0
 674 0064 0FE0     		b	.L46
 675              	.L45:
 214:D:/iot/felix2/components/connectivity/lwm2m/core\data.c **** 
 215:D:/iot/felix2/components/connectivity/lwm2m/core\data.c ****         case LWM2M_TYPE_STRING:
 216:D:/iot/felix2/components/connectivity/lwm2m/core\data.c ****         case LWM2M_TYPE_OPAQUE:
 217:D:/iot/felix2/components/connectivity/lwm2m/core\data.c ****             if (dataP[i].value.asBuffer.buffer != NULL)
 676              		.loc 2 217 0
 677 0066 FB68     		ldr	r3, [r7, #12]
 678 0068 1B01     		lsls	r3, r3, #4
 679 006a 3A68     		ldr	r2, [r7]
 680 006c 1344     		add	r3, r3, r2
 681 006e DB68     		ldr	r3, [r3, #12]
 682 0070 002B     		cmp	r3, #0
 683 0072 07D0     		beq	.L49
 218:D:/iot/felix2/components/connectivity/lwm2m/core\data.c ****             {
 219:D:/iot/felix2/components/connectivity/lwm2m/core\data.c ****                 lwm2m_free(dataP[i].value.asBuffer.buffer);
 684              		.loc 2 219 0
 685 0074 FB68     		ldr	r3, [r7, #12]
 686 0076 1B01     		lsls	r3, r3, #4
 687 0078 3A68     		ldr	r2, [r7]
 688 007a 1344     		add	r3, r3, r2
 689 007c DB68     		ldr	r3, [r3, #12]
 690 007e 1846     		mov	r0, r3
 691 0080 FFF7FEFF 		bl	lwm2m_free
 692              	.L49:
 220:D:/iot/felix2/components/connectivity/lwm2m/core\data.c ****             }
 221:D:/iot/felix2/components/connectivity/lwm2m/core\data.c **** 
 222:D:/iot/felix2/components/connectivity/lwm2m/core\data.c ****         default:
 223:D:/iot/felix2/components/connectivity/lwm2m/core\data.c ****             // do nothing
 224:D:/iot/felix2/components/connectivity/lwm2m/core\data.c ****             break;
 693              		.loc 2 224 0
 694 0084 00BF     		nop
 695              	.L46:
 205:D:/iot/felix2/components/connectivity/lwm2m/core\data.c ****     {
 696              		.loc 2 205 0 discriminator 2
 697 0086 FB68     		ldr	r3, [r7, #12]
 698 0088 0133     		adds	r3, r3, #1
 699 008a FB60     		str	r3, [r7, #12]
 700              	.L41:
 205:D:/iot/felix2/components/connectivity/lwm2m/core\data.c ****     {
 701              		.loc 2 205 0 is_stmt 0 discriminator 1
 702 008c FA68     		ldr	r2, [r7, #12]
 703 008e 7B68     		ldr	r3, [r7, #4]
 704 0090 9A42     		cmp	r2, r3
 705 0092 C3DB     		blt	.L47
 225:D:/iot/felix2/components/connectivity/lwm2m/core\data.c ****         }
 226:D:/iot/felix2/components/connectivity/lwm2m/core\data.c ****     }
 227:D:/iot/felix2/components/connectivity/lwm2m/core\data.c ****     lwm2m_free(dataP);
 706              		.loc 2 227 0 is_stmt 1
 707 0094 3868     		ldr	r0, [r7]
 708 0096 FFF7FEFF 		bl	lwm2m_free
ARM GAS  C:\Users\91458\AppData\Local\Temp\ccCkQMas.s 			page 24


 709 009a 00E0     		b	.L37
 710              	.L48:
 203:D:/iot/felix2/components/connectivity/lwm2m/core\data.c **** 
 711              		.loc 2 203 0
 712 009c 00BF     		nop
 713              	.L37:
 228:D:/iot/felix2/components/connectivity/lwm2m/core\data.c **** }
 714              		.loc 2 228 0
 715 009e 1037     		adds	r7, r7, #16
 716              	.LCFI29:
 717              		.cfi_def_cfa_offset 8
 718 00a0 BD46     		mov	sp, r7
 719              	.LCFI30:
 720              		.cfi_def_cfa_register 13
 721              		@ sp needed
 722 00a2 80BD     		pop	{r7, pc}
 723              		.cfi_endproc
 724              	.LFE138:
 726              		.section	.text.lwm2m_data_encode_string,"ax",%progbits
 727              		.align	1
 728              		.global	lwm2m_data_encode_string
 729              		.syntax unified
 730              		.thumb
 731              		.thumb_func
 732              		.fpu fpv4-sp-d16
 734              	lwm2m_data_encode_string:
 735              	.LFB139:
 229:D:/iot/felix2/components/connectivity/lwm2m/core\data.c **** 
 230:D:/iot/felix2/components/connectivity/lwm2m/core\data.c **** void lwm2m_data_encode_string(const char *string,
 231:D:/iot/felix2/components/connectivity/lwm2m/core\data.c ****                               lwm2m_data_t *dataP)
 232:D:/iot/felix2/components/connectivity/lwm2m/core\data.c **** {
 736              		.loc 2 232 0
 737              		.cfi_startproc
 738              		@ args = 0, pretend = 0, frame = 16
 739              		@ frame_needed = 1, uses_anonymous_args = 0
 740 0000 80B5     		push	{r7, lr}
 741              	.LCFI31:
 742              		.cfi_def_cfa_offset 8
 743              		.cfi_offset 7, -8
 744              		.cfi_offset 14, -4
 745 0002 84B0     		sub	sp, sp, #16
 746              	.LCFI32:
 747              		.cfi_def_cfa_offset 24
 748 0004 00AF     		add	r7, sp, #0
 749              	.LCFI33:
 750              		.cfi_def_cfa_register 7
 751 0006 7860     		str	r0, [r7, #4]
 752 0008 3960     		str	r1, [r7]
 233:D:/iot/felix2/components/connectivity/lwm2m/core\data.c ****     size_t len;
 234:D:/iot/felix2/components/connectivity/lwm2m/core\data.c ****     int res;
 235:D:/iot/felix2/components/connectivity/lwm2m/core\data.c **** 
 236:D:/iot/felix2/components/connectivity/lwm2m/core\data.c ****     LOG_ARG("\"%s\"", string);
 237:D:/iot/felix2/components/connectivity/lwm2m/core\data.c ****     if (string == NULL)
 753              		.loc 2 237 0
 754 000a 7B68     		ldr	r3, [r7, #4]
 755 000c 002B     		cmp	r3, #0
 756 000e 02D1     		bne	.L51
ARM GAS  C:\Users\91458\AppData\Local\Temp\ccCkQMas.s 			page 25


 238:D:/iot/felix2/components/connectivity/lwm2m/core\data.c ****     {
 239:D:/iot/felix2/components/connectivity/lwm2m/core\data.c ****         len = 0;
 757              		.loc 2 239 0
 758 0010 0023     		movs	r3, #0
 759 0012 FB60     		str	r3, [r7, #12]
 760 0014 0BE0     		b	.L52
 761              	.L51:
 240:D:/iot/felix2/components/connectivity/lwm2m/core\data.c ****     }
 241:D:/iot/felix2/components/connectivity/lwm2m/core\data.c ****     else
 242:D:/iot/felix2/components/connectivity/lwm2m/core\data.c ****     {
 243:D:/iot/felix2/components/connectivity/lwm2m/core\data.c ****         for (len = 0; string[len] != 0; len++);
 762              		.loc 2 243 0
 763 0016 0023     		movs	r3, #0
 764 0018 FB60     		str	r3, [r7, #12]
 765 001a 02E0     		b	.L53
 766              	.L54:
 767              		.loc 2 243 0 is_stmt 0 discriminator 3
 768 001c FB68     		ldr	r3, [r7, #12]
 769 001e 0133     		adds	r3, r3, #1
 770 0020 FB60     		str	r3, [r7, #12]
 771              	.L53:
 772              		.loc 2 243 0 discriminator 1
 773 0022 7A68     		ldr	r2, [r7, #4]
 774 0024 FB68     		ldr	r3, [r7, #12]
 775 0026 1344     		add	r3, r3, r2
 776 0028 1B78     		ldrb	r3, [r3]	@ zero_extendqisi2
 777 002a 002B     		cmp	r3, #0
 778 002c F6D1     		bne	.L54
 779              	.L52:
 244:D:/iot/felix2/components/connectivity/lwm2m/core\data.c ****     }
 245:D:/iot/felix2/components/connectivity/lwm2m/core\data.c **** 
 246:D:/iot/felix2/components/connectivity/lwm2m/core\data.c ****     if (len == 0)
 780              		.loc 2 246 0 is_stmt 1
 781 002e FB68     		ldr	r3, [r7, #12]
 782 0030 002B     		cmp	r3, #0
 783 0032 08D1     		bne	.L55
 247:D:/iot/felix2/components/connectivity/lwm2m/core\data.c ****     {
 248:D:/iot/felix2/components/connectivity/lwm2m/core\data.c ****         dataP->value.asBuffer.length = 0;
 784              		.loc 2 248 0
 785 0034 3B68     		ldr	r3, [r7]
 786 0036 0022     		movs	r2, #0
 787 0038 9A60     		str	r2, [r3, #8]
 249:D:/iot/felix2/components/connectivity/lwm2m/core\data.c ****         dataP->value.asBuffer.buffer = NULL;
 788              		.loc 2 249 0
 789 003a 3B68     		ldr	r3, [r7]
 790 003c 0022     		movs	r2, #0
 791 003e DA60     		str	r2, [r3, #12]
 250:D:/iot/felix2/components/connectivity/lwm2m/core\data.c ****         res = 1;
 792              		.loc 2 250 0
 793 0040 0123     		movs	r3, #1
 794 0042 BB60     		str	r3, [r7, #8]
 795 0044 05E0     		b	.L56
 796              	.L55:
 251:D:/iot/felix2/components/connectivity/lwm2m/core\data.c ****     }
 252:D:/iot/felix2/components/connectivity/lwm2m/core\data.c ****     else
 253:D:/iot/felix2/components/connectivity/lwm2m/core\data.c ****     {
 254:D:/iot/felix2/components/connectivity/lwm2m/core\data.c ****         res = prv_setBuffer(dataP, (uint8_t *)string, len);
ARM GAS  C:\Users\91458\AppData\Local\Temp\ccCkQMas.s 			page 26


 797              		.loc 2 254 0
 798 0046 FA68     		ldr	r2, [r7, #12]
 799 0048 7968     		ldr	r1, [r7, #4]
 800 004a 3868     		ldr	r0, [r7]
 801 004c FFF7FEFF 		bl	prv_setBuffer
 802 0050 B860     		str	r0, [r7, #8]
 803              	.L56:
 255:D:/iot/felix2/components/connectivity/lwm2m/core\data.c ****     }
 256:D:/iot/felix2/components/connectivity/lwm2m/core\data.c **** 
 257:D:/iot/felix2/components/connectivity/lwm2m/core\data.c ****     if (res == 1)
 804              		.loc 2 257 0
 805 0052 BB68     		ldr	r3, [r7, #8]
 806 0054 012B     		cmp	r3, #1
 807 0056 03D1     		bne	.L57
 258:D:/iot/felix2/components/connectivity/lwm2m/core\data.c ****     {
 259:D:/iot/felix2/components/connectivity/lwm2m/core\data.c ****         dataP->type = LWM2M_TYPE_STRING;
 808              		.loc 2 259 0
 809 0058 3B68     		ldr	r3, [r7]
 810 005a 0422     		movs	r2, #4
 811 005c 1A70     		strb	r2, [r3]
 260:D:/iot/felix2/components/connectivity/lwm2m/core\data.c ****     }
 261:D:/iot/felix2/components/connectivity/lwm2m/core\data.c ****     else
 262:D:/iot/felix2/components/connectivity/lwm2m/core\data.c ****     {
 263:D:/iot/felix2/components/connectivity/lwm2m/core\data.c ****         dataP->type = LWM2M_TYPE_UNDEFINED;
 264:D:/iot/felix2/components/connectivity/lwm2m/core\data.c ****     }
 265:D:/iot/felix2/components/connectivity/lwm2m/core\data.c **** }
 812              		.loc 2 265 0
 813 005e 02E0     		b	.L59
 814              	.L57:
 263:D:/iot/felix2/components/connectivity/lwm2m/core\data.c ****     }
 815              		.loc 2 263 0
 816 0060 3B68     		ldr	r3, [r7]
 817 0062 0022     		movs	r2, #0
 818 0064 1A70     		strb	r2, [r3]
 819              	.L59:
 820              		.loc 2 265 0
 821 0066 00BF     		nop
 822 0068 1037     		adds	r7, r7, #16
 823              	.LCFI34:
 824              		.cfi_def_cfa_offset 8
 825 006a BD46     		mov	sp, r7
 826              	.LCFI35:
 827              		.cfi_def_cfa_register 13
 828              		@ sp needed
 829 006c 80BD     		pop	{r7, pc}
 830              		.cfi_endproc
 831              	.LFE139:
 833              		.section	.text.lwm2m_data_encode_opaque,"ax",%progbits
 834              		.align	1
 835              		.global	lwm2m_data_encode_opaque
 836              		.syntax unified
 837              		.thumb
 838              		.thumb_func
 839              		.fpu fpv4-sp-d16
 841              	lwm2m_data_encode_opaque:
 842              	.LFB140:
 266:D:/iot/felix2/components/connectivity/lwm2m/core\data.c **** 
ARM GAS  C:\Users\91458\AppData\Local\Temp\ccCkQMas.s 			page 27


 267:D:/iot/felix2/components/connectivity/lwm2m/core\data.c **** void lwm2m_data_encode_opaque(uint8_t *buffer,
 268:D:/iot/felix2/components/connectivity/lwm2m/core\data.c ****                               size_t length,
 269:D:/iot/felix2/components/connectivity/lwm2m/core\data.c ****                               lwm2m_data_t *dataP)
 270:D:/iot/felix2/components/connectivity/lwm2m/core\data.c **** {
 843              		.loc 2 270 0
 844              		.cfi_startproc
 845              		@ args = 0, pretend = 0, frame = 24
 846              		@ frame_needed = 1, uses_anonymous_args = 0
 847 0000 80B5     		push	{r7, lr}
 848              	.LCFI36:
 849              		.cfi_def_cfa_offset 8
 850              		.cfi_offset 7, -8
 851              		.cfi_offset 14, -4
 852 0002 86B0     		sub	sp, sp, #24
 853              	.LCFI37:
 854              		.cfi_def_cfa_offset 32
 855 0004 00AF     		add	r7, sp, #0
 856              	.LCFI38:
 857              		.cfi_def_cfa_register 7
 858 0006 F860     		str	r0, [r7, #12]
 859 0008 B960     		str	r1, [r7, #8]
 860 000a 7A60     		str	r2, [r7, #4]
 271:D:/iot/felix2/components/connectivity/lwm2m/core\data.c ****     int res;
 272:D:/iot/felix2/components/connectivity/lwm2m/core\data.c **** 
 273:D:/iot/felix2/components/connectivity/lwm2m/core\data.c ****     LOG_ARG("length: %d", length);
 274:D:/iot/felix2/components/connectivity/lwm2m/core\data.c ****     if (length == 0)
 861              		.loc 2 274 0
 862 000c BB68     		ldr	r3, [r7, #8]
 863 000e 002B     		cmp	r3, #0
 864 0010 08D1     		bne	.L61
 275:D:/iot/felix2/components/connectivity/lwm2m/core\data.c ****     {
 276:D:/iot/felix2/components/connectivity/lwm2m/core\data.c ****         dataP->value.asBuffer.length = 0;
 865              		.loc 2 276 0
 866 0012 7B68     		ldr	r3, [r7, #4]
 867 0014 0022     		movs	r2, #0
 868 0016 9A60     		str	r2, [r3, #8]
 277:D:/iot/felix2/components/connectivity/lwm2m/core\data.c ****         dataP->value.asBuffer.buffer = NULL;
 869              		.loc 2 277 0
 870 0018 7B68     		ldr	r3, [r7, #4]
 871 001a 0022     		movs	r2, #0
 872 001c DA60     		str	r2, [r3, #12]
 278:D:/iot/felix2/components/connectivity/lwm2m/core\data.c ****         res = 1;
 873              		.loc 2 278 0
 874 001e 0123     		movs	r3, #1
 875 0020 7B61     		str	r3, [r7, #20]
 876 0022 05E0     		b	.L62
 877              	.L61:
 279:D:/iot/felix2/components/connectivity/lwm2m/core\data.c ****     }
 280:D:/iot/felix2/components/connectivity/lwm2m/core\data.c ****     else
 281:D:/iot/felix2/components/connectivity/lwm2m/core\data.c ****     {
 282:D:/iot/felix2/components/connectivity/lwm2m/core\data.c ****         res = prv_setBuffer(dataP, buffer, length);
 878              		.loc 2 282 0
 879 0024 BA68     		ldr	r2, [r7, #8]
 880 0026 F968     		ldr	r1, [r7, #12]
 881 0028 7868     		ldr	r0, [r7, #4]
 882 002a FFF7FEFF 		bl	prv_setBuffer
 883 002e 7861     		str	r0, [r7, #20]
ARM GAS  C:\Users\91458\AppData\Local\Temp\ccCkQMas.s 			page 28


 884              	.L62:
 283:D:/iot/felix2/components/connectivity/lwm2m/core\data.c ****     }
 284:D:/iot/felix2/components/connectivity/lwm2m/core\data.c **** 
 285:D:/iot/felix2/components/connectivity/lwm2m/core\data.c ****     if (res == 1)
 885              		.loc 2 285 0
 886 0030 7B69     		ldr	r3, [r7, #20]
 887 0032 012B     		cmp	r3, #1
 888 0034 03D1     		bne	.L63
 286:D:/iot/felix2/components/connectivity/lwm2m/core\data.c ****     {
 287:D:/iot/felix2/components/connectivity/lwm2m/core\data.c ****         dataP->type = LWM2M_TYPE_OPAQUE;
 889              		.loc 2 287 0
 890 0036 7B68     		ldr	r3, [r7, #4]
 891 0038 0522     		movs	r2, #5
 892 003a 1A70     		strb	r2, [r3]
 288:D:/iot/felix2/components/connectivity/lwm2m/core\data.c ****     }
 289:D:/iot/felix2/components/connectivity/lwm2m/core\data.c ****     else
 290:D:/iot/felix2/components/connectivity/lwm2m/core\data.c ****     {
 291:D:/iot/felix2/components/connectivity/lwm2m/core\data.c ****         dataP->type = LWM2M_TYPE_UNDEFINED;
 292:D:/iot/felix2/components/connectivity/lwm2m/core\data.c ****     }
 293:D:/iot/felix2/components/connectivity/lwm2m/core\data.c **** }
 893              		.loc 2 293 0
 894 003c 02E0     		b	.L65
 895              	.L63:
 291:D:/iot/felix2/components/connectivity/lwm2m/core\data.c ****     }
 896              		.loc 2 291 0
 897 003e 7B68     		ldr	r3, [r7, #4]
 898 0040 0022     		movs	r2, #0
 899 0042 1A70     		strb	r2, [r3]
 900              	.L65:
 901              		.loc 2 293 0
 902 0044 00BF     		nop
 903 0046 1837     		adds	r7, r7, #24
 904              	.LCFI39:
 905              		.cfi_def_cfa_offset 8
 906 0048 BD46     		mov	sp, r7
 907              	.LCFI40:
 908              		.cfi_def_cfa_register 13
 909              		@ sp needed
 910 004a 80BD     		pop	{r7, pc}
 911              		.cfi_endproc
 912              	.LFE140:
 914              		.section	.text.lwm2m_data_encode_nstring,"ax",%progbits
 915              		.align	1
 916              		.global	lwm2m_data_encode_nstring
 917              		.syntax unified
 918              		.thumb
 919              		.thumb_func
 920              		.fpu fpv4-sp-d16
 922              	lwm2m_data_encode_nstring:
 923              	.LFB141:
 294:D:/iot/felix2/components/connectivity/lwm2m/core\data.c **** 
 295:D:/iot/felix2/components/connectivity/lwm2m/core\data.c **** void lwm2m_data_encode_nstring(const char *string,
 296:D:/iot/felix2/components/connectivity/lwm2m/core\data.c ****                                size_t length,
 297:D:/iot/felix2/components/connectivity/lwm2m/core\data.c ****                                lwm2m_data_t *dataP)
 298:D:/iot/felix2/components/connectivity/lwm2m/core\data.c **** {
 924              		.loc 2 298 0
 925              		.cfi_startproc
ARM GAS  C:\Users\91458\AppData\Local\Temp\ccCkQMas.s 			page 29


 926              		@ args = 0, pretend = 0, frame = 16
 927              		@ frame_needed = 1, uses_anonymous_args = 0
 928 0000 80B5     		push	{r7, lr}
 929              	.LCFI41:
 930              		.cfi_def_cfa_offset 8
 931              		.cfi_offset 7, -8
 932              		.cfi_offset 14, -4
 933 0002 84B0     		sub	sp, sp, #16
 934              	.LCFI42:
 935              		.cfi_def_cfa_offset 24
 936 0004 00AF     		add	r7, sp, #0
 937              	.LCFI43:
 938              		.cfi_def_cfa_register 7
 939 0006 F860     		str	r0, [r7, #12]
 940 0008 B960     		str	r1, [r7, #8]
 941 000a 7A60     		str	r2, [r7, #4]
 299:D:/iot/felix2/components/connectivity/lwm2m/core\data.c ****     LOG_ARG("length: %d, string: \"%s\"", length, string);
 300:D:/iot/felix2/components/connectivity/lwm2m/core\data.c ****     lwm2m_data_encode_opaque((uint8_t *)string, length, dataP);
 942              		.loc 2 300 0
 943 000c 7A68     		ldr	r2, [r7, #4]
 944 000e B968     		ldr	r1, [r7, #8]
 945 0010 F868     		ldr	r0, [r7, #12]
 946 0012 FFF7FEFF 		bl	lwm2m_data_encode_opaque
 301:D:/iot/felix2/components/connectivity/lwm2m/core\data.c **** 
 302:D:/iot/felix2/components/connectivity/lwm2m/core\data.c ****     if (dataP->type == LWM2M_TYPE_OPAQUE)
 947              		.loc 2 302 0
 948 0016 7B68     		ldr	r3, [r7, #4]
 949 0018 1B78     		ldrb	r3, [r3]	@ zero_extendqisi2
 950 001a 052B     		cmp	r3, #5
 951 001c 02D1     		bne	.L68
 303:D:/iot/felix2/components/connectivity/lwm2m/core\data.c ****     {
 304:D:/iot/felix2/components/connectivity/lwm2m/core\data.c ****         dataP->type = LWM2M_TYPE_STRING;
 952              		.loc 2 304 0
 953 001e 7B68     		ldr	r3, [r7, #4]
 954 0020 0422     		movs	r2, #4
 955 0022 1A70     		strb	r2, [r3]
 956              	.L68:
 305:D:/iot/felix2/components/connectivity/lwm2m/core\data.c ****     }
 306:D:/iot/felix2/components/connectivity/lwm2m/core\data.c **** }
 957              		.loc 2 306 0
 958 0024 00BF     		nop
 959 0026 1037     		adds	r7, r7, #16
 960              	.LCFI44:
 961              		.cfi_def_cfa_offset 8
 962 0028 BD46     		mov	sp, r7
 963              	.LCFI45:
 964              		.cfi_def_cfa_register 13
 965              		@ sp needed
 966 002a 80BD     		pop	{r7, pc}
 967              		.cfi_endproc
 968              	.LFE141:
 970              		.section	.text.lwm2m_data_encode_int,"ax",%progbits
 971              		.align	1
 972              		.global	lwm2m_data_encode_int
 973              		.syntax unified
 974              		.thumb
 975              		.thumb_func
ARM GAS  C:\Users\91458\AppData\Local\Temp\ccCkQMas.s 			page 30


 976              		.fpu fpv4-sp-d16
 978              	lwm2m_data_encode_int:
 979              	.LFB142:
 307:D:/iot/felix2/components/connectivity/lwm2m/core\data.c **** 
 308:D:/iot/felix2/components/connectivity/lwm2m/core\data.c **** void lwm2m_data_encode_int(int64_t value,
 309:D:/iot/felix2/components/connectivity/lwm2m/core\data.c ****                            lwm2m_data_t *dataP)
 310:D:/iot/felix2/components/connectivity/lwm2m/core\data.c **** {
 980              		.loc 2 310 0
 981              		.cfi_startproc
 982              		@ args = 0, pretend = 0, frame = 16
 983              		@ frame_needed = 1, uses_anonymous_args = 0
 984              		@ link register save eliminated.
 985 0000 90B4     		push	{r4, r7}
 986              	.LCFI46:
 987              		.cfi_def_cfa_offset 8
 988              		.cfi_offset 4, -8
 989              		.cfi_offset 7, -4
 990 0002 84B0     		sub	sp, sp, #16
 991              	.LCFI47:
 992              		.cfi_def_cfa_offset 24
 993 0004 00AF     		add	r7, sp, #0
 994              	.LCFI48:
 995              		.cfi_def_cfa_register 7
 996 0006 C7E90201 		strd	r0, [r7, #8]
 997 000a 7A60     		str	r2, [r7, #4]
 311:D:/iot/felix2/components/connectivity/lwm2m/core\data.c ****     LOG_ARG("value: %" PRId64 "", value);
 312:D:/iot/felix2/components/connectivity/lwm2m/core\data.c ****     dataP->type = LWM2M_TYPE_INTEGER;
 998              		.loc 2 312 0
 999 000c 7B68     		ldr	r3, [r7, #4]
 1000 000e 0622     		movs	r2, #6
 1001 0010 1A70     		strb	r2, [r3]
 313:D:/iot/felix2/components/connectivity/lwm2m/core\data.c ****     dataP->value.asInteger = value;
 1002              		.loc 2 313 0
 1003 0012 7A68     		ldr	r2, [r7, #4]
 1004 0014 D7E90234 		ldrd	r3, [r7, #8]
 1005 0018 C2E90234 		strd	r3, [r2, #8]
 314:D:/iot/felix2/components/connectivity/lwm2m/core\data.c **** }
 1006              		.loc 2 314 0
 1007 001c 00BF     		nop
 1008 001e 1037     		adds	r7, r7, #16
 1009              	.LCFI49:
 1010              		.cfi_def_cfa_offset 8
 1011 0020 BD46     		mov	sp, r7
 1012              	.LCFI50:
 1013              		.cfi_def_cfa_register 13
 1014              		@ sp needed
 1015 0022 90BC     		pop	{r4, r7}
 1016              	.LCFI51:
 1017              		.cfi_restore 7
 1018              		.cfi_restore 4
 1019              		.cfi_def_cfa_offset 0
 1020 0024 7047     		bx	lr
 1021              		.cfi_endproc
 1022              	.LFE142:
 1024              		.section	.text.lwm2m_data_decode_int,"ax",%progbits
 1025              		.align	1
 1026              		.global	lwm2m_data_decode_int
ARM GAS  C:\Users\91458\AppData\Local\Temp\ccCkQMas.s 			page 31


 1027              		.syntax unified
 1028              		.thumb
 1029              		.thumb_func
 1030              		.fpu fpv4-sp-d16
 1032              	lwm2m_data_decode_int:
 1033              	.LFB143:
 315:D:/iot/felix2/components/connectivity/lwm2m/core\data.c **** 
 316:D:/iot/felix2/components/connectivity/lwm2m/core\data.c **** int lwm2m_data_decode_int(const lwm2m_data_t *dataP,
 317:D:/iot/felix2/components/connectivity/lwm2m/core\data.c ****                           int64_t *valueP)
 318:D:/iot/felix2/components/connectivity/lwm2m/core\data.c **** {
 1034              		.loc 2 318 0
 1035              		.cfi_startproc
 1036              		@ args = 0, pretend = 0, frame = 24
 1037              		@ frame_needed = 1, uses_anonymous_args = 0
 1038 0000 90B5     		push	{r4, r7, lr}
 1039              	.LCFI52:
 1040              		.cfi_def_cfa_offset 12
 1041              		.cfi_offset 4, -12
 1042              		.cfi_offset 7, -8
 1043              		.cfi_offset 14, -4
 1044 0002 87B0     		sub	sp, sp, #28
 1045              	.LCFI53:
 1046              		.cfi_def_cfa_offset 40
 1047 0004 00AF     		add	r7, sp, #0
 1048              	.LCFI54:
 1049              		.cfi_def_cfa_register 7
 1050 0006 7860     		str	r0, [r7, #4]
 1051 0008 3960     		str	r1, [r7]
 319:D:/iot/felix2/components/connectivity/lwm2m/core\data.c ****     int result;
 320:D:/iot/felix2/components/connectivity/lwm2m/core\data.c **** 
 321:D:/iot/felix2/components/connectivity/lwm2m/core\data.c ****     LOG("Entering");
 322:D:/iot/felix2/components/connectivity/lwm2m/core\data.c ****     switch (dataP->type)
 1052              		.loc 2 322 0
 1053 000a 7B68     		ldr	r3, [r7, #4]
 1054 000c 1B78     		ldrb	r3, [r3]	@ zero_extendqisi2
 1055 000e 052B     		cmp	r3, #5
 1056 0010 17D0     		beq	.L72
 1057 0012 062B     		cmp	r3, #6
 1058 0014 02D0     		beq	.L73
 1059 0016 042B     		cmp	r3, #4
 1060 0018 09D0     		beq	.L74
 1061 001a 6FE0     		b	.L84
 1062              	.L73:
 323:D:/iot/felix2/components/connectivity/lwm2m/core\data.c ****     {
 324:D:/iot/felix2/components/connectivity/lwm2m/core\data.c ****     case LWM2M_TYPE_INTEGER:
 325:D:/iot/felix2/components/connectivity/lwm2m/core\data.c ****         *valueP = dataP->value.asInteger;
 1063              		.loc 2 325 0
 1064 001c 7B68     		ldr	r3, [r7, #4]
 1065 001e D3E90234 		ldrd	r3, [r3, #8]
 1066 0022 3A68     		ldr	r2, [r7]
 1067 0024 C2E90034 		strd	r3, [r2]
 326:D:/iot/felix2/components/connectivity/lwm2m/core\data.c ****         result = 1;
 1068              		.loc 2 326 0
 1069 0028 0123     		movs	r3, #1
 1070 002a 7B61     		str	r3, [r7, #20]
 327:D:/iot/felix2/components/connectivity/lwm2m/core\data.c ****         break;
 1071              		.loc 2 327 0
ARM GAS  C:\Users\91458\AppData\Local\Temp\ccCkQMas.s 			page 32


 1072 002c 68E0     		b	.L75
 1073              	.L74:
 328:D:/iot/felix2/components/connectivity/lwm2m/core\data.c **** 
 329:D:/iot/felix2/components/connectivity/lwm2m/core\data.c ****     case LWM2M_TYPE_STRING:
 330:D:/iot/felix2/components/connectivity/lwm2m/core\data.c ****         result = utils_textToInt(dataP->value.asBuffer.buffer, dataP->value.asBuffer.length, valueP
 1074              		.loc 2 330 0
 1075 002e 7B68     		ldr	r3, [r7, #4]
 1076 0030 D868     		ldr	r0, [r3, #12]
 1077 0032 7B68     		ldr	r3, [r7, #4]
 1078 0034 9B68     		ldr	r3, [r3, #8]
 1079 0036 3A68     		ldr	r2, [r7]
 1080 0038 1946     		mov	r1, r3
 1081 003a FFF7FEFF 		bl	utils_textToInt
 1082 003e 7861     		str	r0, [r7, #20]
 331:D:/iot/felix2/components/connectivity/lwm2m/core\data.c ****         break;
 1083              		.loc 2 331 0
 1084 0040 5EE0     		b	.L75
 1085              	.L72:
 332:D:/iot/felix2/components/connectivity/lwm2m/core\data.c **** 
 333:D:/iot/felix2/components/connectivity/lwm2m/core\data.c ****     case LWM2M_TYPE_OPAQUE:
 334:D:/iot/felix2/components/connectivity/lwm2m/core\data.c ****         switch (dataP->value.asBuffer.length)
 1086              		.loc 2 334 0
 1087 0042 7B68     		ldr	r3, [r7, #4]
 1088 0044 9B68     		ldr	r3, [r3, #8]
 1089 0046 013B     		subs	r3, r3, #1
 1090 0048 072B     		cmp	r3, #7
 1091 004a 53D8     		bhi	.L76
 1092 004c 01A2     		adr	r2, .L78
 1093 004e 52F823F0 		ldr	pc, [r2, r3, lsl #2]
 1094 0052 00BF     		.p2align 2
 1095              	.L78:
 1096 0054 75000000 		.word	.L77+1
 1097 0058 8F000000 		.word	.L79+1
 1098 005c F5000000 		.word	.L76+1
 1099 0060 B9000000 		.word	.L80+1
 1100 0064 F5000000 		.word	.L76+1
 1101 0068 F5000000 		.word	.L76+1
 1102 006c F5000000 		.word	.L76+1
 1103 0070 DF000000 		.word	.L81+1
 1104              		.p2align 1
 1105              	.L77:
 335:D:/iot/felix2/components/connectivity/lwm2m/core\data.c ****         {
 336:D:/iot/felix2/components/connectivity/lwm2m/core\data.c ****         case 1:
 337:D:/iot/felix2/components/connectivity/lwm2m/core\data.c ****             *valueP = (int8_t)dataP->value.asBuffer.buffer[0];
 1106              		.loc 2 337 0
 1107 0074 7B68     		ldr	r3, [r7, #4]
 1108 0076 DB68     		ldr	r3, [r3, #12]
 1109 0078 1B78     		ldrb	r3, [r3]	@ zero_extendqisi2
 1110 007a 5BB2     		sxtb	r3, r3
 1111 007c 5BB2     		sxtb	r3, r3
 1112 007e 4FEAE374 		asr	r4, r3, #31
 1113 0082 3A68     		ldr	r2, [r7]
 1114 0084 C2E90034 		strd	r3, [r2]
 338:D:/iot/felix2/components/connectivity/lwm2m/core\data.c ****             result = 1;
 1115              		.loc 2 338 0
 1116 0088 0123     		movs	r3, #1
 1117 008a 7B61     		str	r3, [r7, #20]
ARM GAS  C:\Users\91458\AppData\Local\Temp\ccCkQMas.s 			page 33


 339:D:/iot/felix2/components/connectivity/lwm2m/core\data.c ****             break;
 1118              		.loc 2 339 0
 1119 008c 35E0     		b	.L82
 1120              	.L79:
 1121              	.LBB6:
 340:D:/iot/felix2/components/connectivity/lwm2m/core\data.c **** 
 341:D:/iot/felix2/components/connectivity/lwm2m/core\data.c ****         case 2:
 342:D:/iot/felix2/components/connectivity/lwm2m/core\data.c ****         {
 343:D:/iot/felix2/components/connectivity/lwm2m/core\data.c ****             int16_t value;
 344:D:/iot/felix2/components/connectivity/lwm2m/core\data.c **** 
 345:D:/iot/felix2/components/connectivity/lwm2m/core\data.c ****             utils_copyValue(&value, dataP->value.asBuffer.buffer, dataP->value.asBuffer.length);
 1122              		.loc 2 345 0
 1123 008e 7B68     		ldr	r3, [r7, #4]
 1124 0090 D968     		ldr	r1, [r3, #12]
 1125 0092 7B68     		ldr	r3, [r7, #4]
 1126 0094 9A68     		ldr	r2, [r3, #8]
 1127 0096 07F11203 		add	r3, r7, #18
 1128 009a 1846     		mov	r0, r3
 1129 009c FFF7FEFF 		bl	utils_copyValue
 346:D:/iot/felix2/components/connectivity/lwm2m/core\data.c **** 
 347:D:/iot/felix2/components/connectivity/lwm2m/core\data.c ****             *valueP = value;
 1130              		.loc 2 347 0
 1131 00a0 B7F91230 		ldrsh	r3, [r7, #18]
 1132 00a4 1BB2     		sxth	r3, r3
 1133 00a6 4FEAE374 		asr	r4, r3, #31
 1134 00aa 3A68     		ldr	r2, [r7]
 1135 00ac C2E90034 		strd	r3, [r2]
 348:D:/iot/felix2/components/connectivity/lwm2m/core\data.c ****             result = 1;
 1136              		.loc 2 348 0
 1137 00b0 0123     		movs	r3, #1
 1138 00b2 7B61     		str	r3, [r7, #20]
 349:D:/iot/felix2/components/connectivity/lwm2m/core\data.c ****             break;
 1139              		.loc 2 349 0
 1140 00b4 00BF     		nop
 1141 00b6 20E0     		b	.L82
 1142              	.L80:
 1143              	.LBE6:
 1144              	.LBB7:
 350:D:/iot/felix2/components/connectivity/lwm2m/core\data.c ****         }
 351:D:/iot/felix2/components/connectivity/lwm2m/core\data.c **** 
 352:D:/iot/felix2/components/connectivity/lwm2m/core\data.c ****         case 4:
 353:D:/iot/felix2/components/connectivity/lwm2m/core\data.c ****         {
 354:D:/iot/felix2/components/connectivity/lwm2m/core\data.c ****             int32_t value;
 355:D:/iot/felix2/components/connectivity/lwm2m/core\data.c **** 
 356:D:/iot/felix2/components/connectivity/lwm2m/core\data.c ****             utils_copyValue(&value, dataP->value.asBuffer.buffer, dataP->value.asBuffer.length);
 1145              		.loc 2 356 0
 1146 00b8 7B68     		ldr	r3, [r7, #4]
 1147 00ba D968     		ldr	r1, [r3, #12]
 1148 00bc 7B68     		ldr	r3, [r7, #4]
 1149 00be 9A68     		ldr	r2, [r3, #8]
 1150 00c0 07F10C03 		add	r3, r7, #12
 1151 00c4 1846     		mov	r0, r3
 1152 00c6 FFF7FEFF 		bl	utils_copyValue
 357:D:/iot/felix2/components/connectivity/lwm2m/core\data.c **** 
 358:D:/iot/felix2/components/connectivity/lwm2m/core\data.c ****             *valueP = value;
 1153              		.loc 2 358 0
 1154 00ca FB68     		ldr	r3, [r7, #12]
ARM GAS  C:\Users\91458\AppData\Local\Temp\ccCkQMas.s 			page 34


 1155 00cc 4FEAE374 		asr	r4, r3, #31
 1156 00d0 3A68     		ldr	r2, [r7]
 1157 00d2 C2E90034 		strd	r3, [r2]
 359:D:/iot/felix2/components/connectivity/lwm2m/core\data.c ****             result = 1;
 1158              		.loc 2 359 0
 1159 00d6 0123     		movs	r3, #1
 1160 00d8 7B61     		str	r3, [r7, #20]
 360:D:/iot/felix2/components/connectivity/lwm2m/core\data.c ****             break;
 1161              		.loc 2 360 0
 1162 00da 00BF     		nop
 1163 00dc 0DE0     		b	.L82
 1164              	.L81:
 1165              	.LBE7:
 361:D:/iot/felix2/components/connectivity/lwm2m/core\data.c ****         }
 362:D:/iot/felix2/components/connectivity/lwm2m/core\data.c **** 
 363:D:/iot/felix2/components/connectivity/lwm2m/core\data.c ****         case 8:
 364:D:/iot/felix2/components/connectivity/lwm2m/core\data.c ****             utils_copyValue(valueP, dataP->value.asBuffer.buffer, dataP->value.asBuffer.length);
 1166              		.loc 2 364 0
 1167 00de 7B68     		ldr	r3, [r7, #4]
 1168 00e0 D968     		ldr	r1, [r3, #12]
 1169 00e2 7B68     		ldr	r3, [r7, #4]
 1170 00e4 9B68     		ldr	r3, [r3, #8]
 1171 00e6 1A46     		mov	r2, r3
 1172 00e8 3868     		ldr	r0, [r7]
 1173 00ea FFF7FEFF 		bl	utils_copyValue
 365:D:/iot/felix2/components/connectivity/lwm2m/core\data.c ****             result = 1;
 1174              		.loc 2 365 0
 1175 00ee 0123     		movs	r3, #1
 1176 00f0 7B61     		str	r3, [r7, #20]
 366:D:/iot/felix2/components/connectivity/lwm2m/core\data.c ****             break;
 1177              		.loc 2 366 0
 1178 00f2 02E0     		b	.L82
 1179              	.L76:
 367:D:/iot/felix2/components/connectivity/lwm2m/core\data.c **** 
 368:D:/iot/felix2/components/connectivity/lwm2m/core\data.c ****         default:
 369:D:/iot/felix2/components/connectivity/lwm2m/core\data.c ****             result = 0;
 1180              		.loc 2 369 0
 1181 00f4 0023     		movs	r3, #0
 1182 00f6 7B61     		str	r3, [r7, #20]
 370:D:/iot/felix2/components/connectivity/lwm2m/core\data.c ****         }
 371:D:/iot/felix2/components/connectivity/lwm2m/core\data.c ****         break;
 1183              		.loc 2 371 0
 1184 00f8 02E0     		b	.L75
 1185              	.L82:
 1186 00fa 01E0     		b	.L75
 1187              	.L84:
 372:D:/iot/felix2/components/connectivity/lwm2m/core\data.c **** 
 373:D:/iot/felix2/components/connectivity/lwm2m/core\data.c ****     default:
 374:D:/iot/felix2/components/connectivity/lwm2m/core\data.c ****         return 0;
 1188              		.loc 2 374 0
 1189 00fc 0023     		movs	r3, #0
 1190 00fe 00E0     		b	.L83
 1191              	.L75:
 375:D:/iot/felix2/components/connectivity/lwm2m/core\data.c ****     }
 376:D:/iot/felix2/components/connectivity/lwm2m/core\data.c ****     LOG_ARG("result: %d, value: %" PRId64, result, *valueP);
 377:D:/iot/felix2/components/connectivity/lwm2m/core\data.c **** 
 378:D:/iot/felix2/components/connectivity/lwm2m/core\data.c ****     return result;
ARM GAS  C:\Users\91458\AppData\Local\Temp\ccCkQMas.s 			page 35


 1192              		.loc 2 378 0
 1193 0100 7B69     		ldr	r3, [r7, #20]
 1194              	.L83:
 379:D:/iot/felix2/components/connectivity/lwm2m/core\data.c **** }
 1195              		.loc 2 379 0
 1196 0102 1846     		mov	r0, r3
 1197 0104 1C37     		adds	r7, r7, #28
 1198              	.LCFI55:
 1199              		.cfi_def_cfa_offset 12
 1200 0106 BD46     		mov	sp, r7
 1201              	.LCFI56:
 1202              		.cfi_def_cfa_register 13
 1203              		@ sp needed
 1204 0108 90BD     		pop	{r4, r7, pc}
 1205              		.cfi_endproc
 1206              	.LFE143:
 1208 010a 00BF     		.section	.text.lwm2m_data_encode_float,"ax",%progbits
 1209              		.align	1
 1210              		.global	lwm2m_data_encode_float
 1211              		.syntax unified
 1212              		.thumb
 1213              		.thumb_func
 1214              		.fpu fpv4-sp-d16
 1216              	lwm2m_data_encode_float:
 1217              	.LFB144:
 380:D:/iot/felix2/components/connectivity/lwm2m/core\data.c **** 
 381:D:/iot/felix2/components/connectivity/lwm2m/core\data.c **** void lwm2m_data_encode_float(double value,
 382:D:/iot/felix2/components/connectivity/lwm2m/core\data.c ****                              lwm2m_data_t *dataP)
 383:D:/iot/felix2/components/connectivity/lwm2m/core\data.c **** {
 1218              		.loc 2 383 0
 1219              		.cfi_startproc
 1220              		@ args = 0, pretend = 0, frame = 16
 1221              		@ frame_needed = 1, uses_anonymous_args = 0
 1222              		@ link register save eliminated.
 1223 0000 90B4     		push	{r4, r7}
 1224              	.LCFI57:
 1225              		.cfi_def_cfa_offset 8
 1226              		.cfi_offset 4, -8
 1227              		.cfi_offset 7, -4
 1228 0002 84B0     		sub	sp, sp, #16
 1229              	.LCFI58:
 1230              		.cfi_def_cfa_offset 24
 1231 0004 00AF     		add	r7, sp, #0
 1232              	.LCFI59:
 1233              		.cfi_def_cfa_register 7
 1234 0006 87ED020B 		vstr.64	d0, [r7, #8]
 1235 000a 7860     		str	r0, [r7, #4]
 384:D:/iot/felix2/components/connectivity/lwm2m/core\data.c ****     LOG_ARG("value: %f", value);
 385:D:/iot/felix2/components/connectivity/lwm2m/core\data.c ****     dataP->type = LWM2M_TYPE_FLOAT;
 1236              		.loc 2 385 0
 1237 000c 7B68     		ldr	r3, [r7, #4]
 1238 000e 0722     		movs	r2, #7
 1239 0010 1A70     		strb	r2, [r3]
 386:D:/iot/felix2/components/connectivity/lwm2m/core\data.c ****     dataP->value.asFloat = value;
 1240              		.loc 2 386 0
 1241 0012 7A68     		ldr	r2, [r7, #4]
 1242 0014 D7E90234 		ldrd	r3, [r7, #8]
ARM GAS  C:\Users\91458\AppData\Local\Temp\ccCkQMas.s 			page 36


 1243 0018 C2E90234 		strd	r3, [r2, #8]
 387:D:/iot/felix2/components/connectivity/lwm2m/core\data.c **** }
 1244              		.loc 2 387 0
 1245 001c 00BF     		nop
 1246 001e 1037     		adds	r7, r7, #16
 1247              	.LCFI60:
 1248              		.cfi_def_cfa_offset 8
 1249 0020 BD46     		mov	sp, r7
 1250              	.LCFI61:
 1251              		.cfi_def_cfa_register 13
 1252              		@ sp needed
 1253 0022 90BC     		pop	{r4, r7}
 1254              	.LCFI62:
 1255              		.cfi_restore 7
 1256              		.cfi_restore 4
 1257              		.cfi_def_cfa_offset 0
 1258 0024 7047     		bx	lr
 1259              		.cfi_endproc
 1260              	.LFE144:
 1262              		.global	__aeabi_l2d
 1263              		.global	__aeabi_f2d
 1264              		.section	.text.lwm2m_data_decode_float,"ax",%progbits
 1265              		.align	1
 1266              		.global	lwm2m_data_decode_float
 1267              		.syntax unified
 1268              		.thumb
 1269              		.thumb_func
 1270              		.fpu fpv4-sp-d16
 1272              	lwm2m_data_decode_float:
 1273              	.LFB145:
 388:D:/iot/felix2/components/connectivity/lwm2m/core\data.c **** 
 389:D:/iot/felix2/components/connectivity/lwm2m/core\data.c **** int lwm2m_data_decode_float(const lwm2m_data_t *dataP,
 390:D:/iot/felix2/components/connectivity/lwm2m/core\data.c ****                             double *valueP)
 391:D:/iot/felix2/components/connectivity/lwm2m/core\data.c **** {
 1274              		.loc 2 391 0
 1275              		.cfi_startproc
 1276              		@ args = 0, pretend = 0, frame = 16
 1277              		@ frame_needed = 1, uses_anonymous_args = 0
 1278 0000 90B5     		push	{r4, r7, lr}
 1279              	.LCFI63:
 1280              		.cfi_def_cfa_offset 12
 1281              		.cfi_offset 4, -12
 1282              		.cfi_offset 7, -8
 1283              		.cfi_offset 14, -4
 1284 0002 85B0     		sub	sp, sp, #20
 1285              	.LCFI64:
 1286              		.cfi_def_cfa_offset 32
 1287 0004 00AF     		add	r7, sp, #0
 1288              	.LCFI65:
 1289              		.cfi_def_cfa_register 7
 1290 0006 7860     		str	r0, [r7, #4]
 1291 0008 3960     		str	r1, [r7]
 392:D:/iot/felix2/components/connectivity/lwm2m/core\data.c ****     int result;
 393:D:/iot/felix2/components/connectivity/lwm2m/core\data.c **** 
 394:D:/iot/felix2/components/connectivity/lwm2m/core\data.c ****     LOG("Entering");
 395:D:/iot/felix2/components/connectivity/lwm2m/core\data.c ****     switch (dataP->type)
 1292              		.loc 2 395 0
ARM GAS  C:\Users\91458\AppData\Local\Temp\ccCkQMas.s 			page 37


 1293 000a 7B68     		ldr	r3, [r7, #4]
 1294 000c 1B78     		ldrb	r3, [r3]	@ zero_extendqisi2
 1295 000e 043B     		subs	r3, r3, #4
 1296 0010 032B     		cmp	r3, #3
 1297 0012 58D8     		bhi	.L87
 1298 0014 01A2     		adr	r2, .L89
 1299 0016 52F823F0 		ldr	pc, [r2, r3, lsl #2]
 1300 001a 00BF     		.p2align 2
 1301              	.L89:
 1302 001c 5D000000 		.word	.L88+1
 1303 0020 71000000 		.word	.L90+1
 1304 0024 3F000000 		.word	.L91+1
 1305 0028 2D000000 		.word	.L92+1
 1306              		.p2align 1
 1307              	.L92:
 396:D:/iot/felix2/components/connectivity/lwm2m/core\data.c ****     {
 397:D:/iot/felix2/components/connectivity/lwm2m/core\data.c ****     case LWM2M_TYPE_FLOAT:
 398:D:/iot/felix2/components/connectivity/lwm2m/core\data.c ****         *valueP = dataP->value.asFloat;
 1308              		.loc 2 398 0
 1309 002c 7B68     		ldr	r3, [r7, #4]
 1310 002e D3E90234 		ldrd	r3, [r3, #8]
 1311 0032 3A68     		ldr	r2, [r7]
 1312 0034 C2E90034 		strd	r3, [r2]
 399:D:/iot/felix2/components/connectivity/lwm2m/core\data.c ****         result = 1;
 1313              		.loc 2 399 0
 1314 0038 0123     		movs	r3, #1
 1315 003a FB60     		str	r3, [r7, #12]
 400:D:/iot/felix2/components/connectivity/lwm2m/core\data.c ****         break;
 1316              		.loc 2 400 0
 1317 003c 45E0     		b	.L93
 1318              	.L91:
 401:D:/iot/felix2/components/connectivity/lwm2m/core\data.c **** 
 402:D:/iot/felix2/components/connectivity/lwm2m/core\data.c ****     case LWM2M_TYPE_INTEGER:
 403:D:/iot/felix2/components/connectivity/lwm2m/core\data.c ****         *valueP = (double)dataP->value.asInteger;
 1319              		.loc 2 403 0
 1320 003e 7B68     		ldr	r3, [r7, #4]
 1321 0040 D3E90234 		ldrd	r3, [r3, #8]
 1322 0044 1846     		mov	r0, r3
 1323 0046 2146     		mov	r1, r4
 1324 0048 FFF7FEFF 		bl	__aeabi_l2d
 1325              	.LVL0:
 1326 004c 0346     		mov	r3, r0
 1327 004e 0C46     		mov	r4, r1
 1328 0050 3A68     		ldr	r2, [r7]
 1329 0052 C2E90034 		strd	r3, [r2]
 404:D:/iot/felix2/components/connectivity/lwm2m/core\data.c ****         result = 1;
 1330              		.loc 2 404 0
 1331 0056 0123     		movs	r3, #1
 1332 0058 FB60     		str	r3, [r7, #12]
 405:D:/iot/felix2/components/connectivity/lwm2m/core\data.c ****         break;
 1333              		.loc 2 405 0
 1334 005a 36E0     		b	.L93
 1335              	.L88:
 406:D:/iot/felix2/components/connectivity/lwm2m/core\data.c **** 
 407:D:/iot/felix2/components/connectivity/lwm2m/core\data.c ****     case LWM2M_TYPE_STRING:
 408:D:/iot/felix2/components/connectivity/lwm2m/core\data.c ****         result = utils_textToFloat(dataP->value.asBuffer.buffer, dataP->value.asBuffer.length, valu
 1336              		.loc 2 408 0
ARM GAS  C:\Users\91458\AppData\Local\Temp\ccCkQMas.s 			page 38


 1337 005c 7B68     		ldr	r3, [r7, #4]
 1338 005e D868     		ldr	r0, [r3, #12]
 1339 0060 7B68     		ldr	r3, [r7, #4]
 1340 0062 9B68     		ldr	r3, [r3, #8]
 1341 0064 3A68     		ldr	r2, [r7]
 1342 0066 1946     		mov	r1, r3
 1343 0068 FFF7FEFF 		bl	utils_textToFloat
 1344 006c F860     		str	r0, [r7, #12]
 409:D:/iot/felix2/components/connectivity/lwm2m/core\data.c ****         break;
 1345              		.loc 2 409 0
 1346 006e 2CE0     		b	.L93
 1347              	.L90:
 410:D:/iot/felix2/components/connectivity/lwm2m/core\data.c **** 
 411:D:/iot/felix2/components/connectivity/lwm2m/core\data.c ****     case LWM2M_TYPE_OPAQUE:
 412:D:/iot/felix2/components/connectivity/lwm2m/core\data.c ****         switch (dataP->value.asBuffer.length)
 1348              		.loc 2 412 0
 1349 0070 7B68     		ldr	r3, [r7, #4]
 1350 0072 9B68     		ldr	r3, [r3, #8]
 1351 0074 042B     		cmp	r3, #4
 1352 0076 02D0     		beq	.L95
 1353 0078 082B     		cmp	r3, #8
 1354 007a 15D0     		beq	.L96
 1355 007c 1FE0     		b	.L99
 1356              	.L95:
 1357              	.LBB8:
 413:D:/iot/felix2/components/connectivity/lwm2m/core\data.c ****         {
 414:D:/iot/felix2/components/connectivity/lwm2m/core\data.c ****         case 4:
 415:D:/iot/felix2/components/connectivity/lwm2m/core\data.c ****         {
 416:D:/iot/felix2/components/connectivity/lwm2m/core\data.c ****             float temp;
 417:D:/iot/felix2/components/connectivity/lwm2m/core\data.c **** 
 418:D:/iot/felix2/components/connectivity/lwm2m/core\data.c ****             utils_copyValue(&temp, dataP->value.asBuffer.buffer, dataP->value.asBuffer.length);
 1358              		.loc 2 418 0
 1359 007e 7B68     		ldr	r3, [r7, #4]
 1360 0080 D968     		ldr	r1, [r3, #12]
 1361 0082 7B68     		ldr	r3, [r7, #4]
 1362 0084 9A68     		ldr	r2, [r3, #8]
 1363 0086 07F10803 		add	r3, r7, #8
 1364 008a 1846     		mov	r0, r3
 1365 008c FFF7FEFF 		bl	utils_copyValue
 419:D:/iot/felix2/components/connectivity/lwm2m/core\data.c **** 
 420:D:/iot/felix2/components/connectivity/lwm2m/core\data.c ****             *valueP = temp;
 1366              		.loc 2 420 0
 1367 0090 BB68     		ldr	r3, [r7, #8]	@ float
 1368 0092 1846     		mov	r0, r3	@ float
 1369 0094 FFF7FEFF 		bl	__aeabi_f2d
 1370              	.LVL1:
 1371 0098 0346     		mov	r3, r0
 1372 009a 0C46     		mov	r4, r1
 1373 009c 3A68     		ldr	r2, [r7]
 1374 009e C2E90034 		strd	r3, [r2]
 421:D:/iot/felix2/components/connectivity/lwm2m/core\data.c ****             result = 1;
 1375              		.loc 2 421 0
 1376 00a2 0123     		movs	r3, #1
 1377 00a4 FB60     		str	r3, [r7, #12]
 1378              	.LBE8:
 422:D:/iot/felix2/components/connectivity/lwm2m/core\data.c ****         }
 423:D:/iot/felix2/components/connectivity/lwm2m/core\data.c ****         break;
ARM GAS  C:\Users\91458\AppData\Local\Temp\ccCkQMas.s 			page 39


 1379              		.loc 2 423 0
 1380 00a6 0DE0     		b	.L97
 1381              	.L96:
 424:D:/iot/felix2/components/connectivity/lwm2m/core\data.c **** 
 425:D:/iot/felix2/components/connectivity/lwm2m/core\data.c ****         case 8:
 426:D:/iot/felix2/components/connectivity/lwm2m/core\data.c ****             utils_copyValue(valueP, dataP->value.asBuffer.buffer, dataP->value.asBuffer.length);
 1382              		.loc 2 426 0
 1383 00a8 7B68     		ldr	r3, [r7, #4]
 1384 00aa D968     		ldr	r1, [r3, #12]
 1385 00ac 7B68     		ldr	r3, [r7, #4]
 1386 00ae 9B68     		ldr	r3, [r3, #8]
 1387 00b0 1A46     		mov	r2, r3
 1388 00b2 3868     		ldr	r0, [r7]
 1389 00b4 FFF7FEFF 		bl	utils_copyValue
 427:D:/iot/felix2/components/connectivity/lwm2m/core\data.c ****             result = 1;
 1390              		.loc 2 427 0
 1391 00b8 0123     		movs	r3, #1
 1392 00ba FB60     		str	r3, [r7, #12]
 428:D:/iot/felix2/components/connectivity/lwm2m/core\data.c ****             break;
 1393              		.loc 2 428 0
 1394 00bc 02E0     		b	.L97
 1395              	.L99:
 429:D:/iot/felix2/components/connectivity/lwm2m/core\data.c **** 
 430:D:/iot/felix2/components/connectivity/lwm2m/core\data.c ****         default:
 431:D:/iot/felix2/components/connectivity/lwm2m/core\data.c ****             result = 0;
 1396              		.loc 2 431 0
 1397 00be 0023     		movs	r3, #0
 1398 00c0 FB60     		str	r3, [r7, #12]
 432:D:/iot/felix2/components/connectivity/lwm2m/core\data.c ****         }
 433:D:/iot/felix2/components/connectivity/lwm2m/core\data.c ****         break;
 1399              		.loc 2 433 0
 1400 00c2 02E0     		b	.L93
 1401              	.L97:
 1402 00c4 01E0     		b	.L93
 1403              	.L87:
 434:D:/iot/felix2/components/connectivity/lwm2m/core\data.c **** 
 435:D:/iot/felix2/components/connectivity/lwm2m/core\data.c ****     default:
 436:D:/iot/felix2/components/connectivity/lwm2m/core\data.c ****         result = 0;
 1404              		.loc 2 436 0
 1405 00c6 0023     		movs	r3, #0
 1406 00c8 FB60     		str	r3, [r7, #12]
 1407              	.L93:
 437:D:/iot/felix2/components/connectivity/lwm2m/core\data.c ****     }
 438:D:/iot/felix2/components/connectivity/lwm2m/core\data.c **** 
 439:D:/iot/felix2/components/connectivity/lwm2m/core\data.c ****     LOG_ARG("result: %d, value: %f", result, *valueP);
 440:D:/iot/felix2/components/connectivity/lwm2m/core\data.c **** 
 441:D:/iot/felix2/components/connectivity/lwm2m/core\data.c ****     return result;
 1408              		.loc 2 441 0
 1409 00ca FB68     		ldr	r3, [r7, #12]
 442:D:/iot/felix2/components/connectivity/lwm2m/core\data.c **** }
 1410              		.loc 2 442 0
 1411 00cc 1846     		mov	r0, r3
 1412 00ce 1437     		adds	r7, r7, #20
 1413              	.LCFI66:
 1414              		.cfi_def_cfa_offset 12
 1415 00d0 BD46     		mov	sp, r7
 1416              	.LCFI67:
ARM GAS  C:\Users\91458\AppData\Local\Temp\ccCkQMas.s 			page 40


 1417              		.cfi_def_cfa_register 13
 1418              		@ sp needed
 1419 00d2 90BD     		pop	{r4, r7, pc}
 1420              		.cfi_endproc
 1421              	.LFE145:
 1423              		.section	.text.lwm2m_data_encode_bool,"ax",%progbits
 1424              		.align	1
 1425              		.global	lwm2m_data_encode_bool
 1426              		.syntax unified
 1427              		.thumb
 1428              		.thumb_func
 1429              		.fpu fpv4-sp-d16
 1431              	lwm2m_data_encode_bool:
 1432              	.LFB146:
 443:D:/iot/felix2/components/connectivity/lwm2m/core\data.c **** 
 444:D:/iot/felix2/components/connectivity/lwm2m/core\data.c **** void lwm2m_data_encode_bool(bool value,
 445:D:/iot/felix2/components/connectivity/lwm2m/core\data.c ****                             lwm2m_data_t *dataP)
 446:D:/iot/felix2/components/connectivity/lwm2m/core\data.c **** {
 1433              		.loc 2 446 0
 1434              		.cfi_startproc
 1435              		@ args = 0, pretend = 0, frame = 8
 1436              		@ frame_needed = 1, uses_anonymous_args = 0
 1437              		@ link register save eliminated.
 1438 0000 80B4     		push	{r7}
 1439              	.LCFI68:
 1440              		.cfi_def_cfa_offset 4
 1441              		.cfi_offset 7, -4
 1442 0002 83B0     		sub	sp, sp, #12
 1443              	.LCFI69:
 1444              		.cfi_def_cfa_offset 16
 1445 0004 00AF     		add	r7, sp, #0
 1446              	.LCFI70:
 1447              		.cfi_def_cfa_register 7
 1448 0006 0346     		mov	r3, r0
 1449 0008 3960     		str	r1, [r7]
 1450 000a FB71     		strb	r3, [r7, #7]
 447:D:/iot/felix2/components/connectivity/lwm2m/core\data.c ****     LOG_ARG("value: %s", value ? "true" : "false");
 448:D:/iot/felix2/components/connectivity/lwm2m/core\data.c ****     dataP->type = LWM2M_TYPE_BOOLEAN;
 1451              		.loc 2 448 0
 1452 000c 3B68     		ldr	r3, [r7]
 1453 000e 0822     		movs	r2, #8
 1454 0010 1A70     		strb	r2, [r3]
 449:D:/iot/felix2/components/connectivity/lwm2m/core\data.c ****     dataP->value.asBoolean = value;
 1455              		.loc 2 449 0
 1456 0012 3B68     		ldr	r3, [r7]
 1457 0014 FA79     		ldrb	r2, [r7, #7]
 1458 0016 1A72     		strb	r2, [r3, #8]
 450:D:/iot/felix2/components/connectivity/lwm2m/core\data.c **** }
 1459              		.loc 2 450 0
 1460 0018 00BF     		nop
 1461 001a 0C37     		adds	r7, r7, #12
 1462              	.LCFI71:
 1463              		.cfi_def_cfa_offset 4
 1464 001c BD46     		mov	sp, r7
 1465              	.LCFI72:
 1466              		.cfi_def_cfa_register 13
 1467              		@ sp needed
ARM GAS  C:\Users\91458\AppData\Local\Temp\ccCkQMas.s 			page 41


 1468 001e 5DF8047B 		ldr	r7, [sp], #4
 1469              	.LCFI73:
 1470              		.cfi_restore 7
 1471              		.cfi_def_cfa_offset 0
 1472 0022 7047     		bx	lr
 1473              		.cfi_endproc
 1474              	.LFE146:
 1476              		.section	.text.lwm2m_data_decode_bool,"ax",%progbits
 1477              		.align	1
 1478              		.global	lwm2m_data_decode_bool
 1479              		.syntax unified
 1480              		.thumb
 1481              		.thumb_func
 1482              		.fpu fpv4-sp-d16
 1484              	lwm2m_data_decode_bool:
 1485              	.LFB147:
 451:D:/iot/felix2/components/connectivity/lwm2m/core\data.c **** 
 452:D:/iot/felix2/components/connectivity/lwm2m/core\data.c **** int lwm2m_data_decode_bool(const lwm2m_data_t *dataP,
 453:D:/iot/felix2/components/connectivity/lwm2m/core\data.c ****                            bool *valueP)
 454:D:/iot/felix2/components/connectivity/lwm2m/core\data.c **** {
 1486              		.loc 2 454 0
 1487              		.cfi_startproc
 1488              		@ args = 0, pretend = 0, frame = 16
 1489              		@ frame_needed = 1, uses_anonymous_args = 0
 1490              		@ link register save eliminated.
 1491 0000 80B4     		push	{r7}
 1492              	.LCFI74:
 1493              		.cfi_def_cfa_offset 4
 1494              		.cfi_offset 7, -4
 1495 0002 85B0     		sub	sp, sp, #20
 1496              	.LCFI75:
 1497              		.cfi_def_cfa_offset 24
 1498 0004 00AF     		add	r7, sp, #0
 1499              	.LCFI76:
 1500              		.cfi_def_cfa_register 7
 1501 0006 7860     		str	r0, [r7, #4]
 1502 0008 3960     		str	r1, [r7]
 455:D:/iot/felix2/components/connectivity/lwm2m/core\data.c ****     int result;
 456:D:/iot/felix2/components/connectivity/lwm2m/core\data.c **** 
 457:D:/iot/felix2/components/connectivity/lwm2m/core\data.c ****     LOG("Entering");
 458:D:/iot/felix2/components/connectivity/lwm2m/core\data.c ****     switch (dataP->type)
 1503              		.loc 2 458 0
 1504 000a 7B68     		ldr	r3, [r7, #4]
 1505 000c 1B78     		ldrb	r3, [r3]	@ zero_extendqisi2
 1506 000e 052B     		cmp	r3, #5
 1507 0010 29D0     		beq	.L103
 1508 0012 082B     		cmp	r3, #8
 1509 0014 02D0     		beq	.L104
 1510 0016 042B     		cmp	r3, #4
 1511 0018 07D0     		beq	.L105
 1512 001a 42E0     		b	.L118
 1513              	.L104:
 459:D:/iot/felix2/components/connectivity/lwm2m/core\data.c ****     {
 460:D:/iot/felix2/components/connectivity/lwm2m/core\data.c ****     case LWM2M_TYPE_BOOLEAN:
 461:D:/iot/felix2/components/connectivity/lwm2m/core\data.c ****         *valueP = dataP->value.asBoolean;
 1514              		.loc 2 461 0
 1515 001c 7B68     		ldr	r3, [r7, #4]
ARM GAS  C:\Users\91458\AppData\Local\Temp\ccCkQMas.s 			page 42


 1516 001e 1A7A     		ldrb	r2, [r3, #8]	@ zero_extendqisi2
 1517 0020 3B68     		ldr	r3, [r7]
 1518 0022 1A70     		strb	r2, [r3]
 462:D:/iot/felix2/components/connectivity/lwm2m/core\data.c ****         result = 1;
 1519              		.loc 2 462 0
 1520 0024 0123     		movs	r3, #1
 1521 0026 FB60     		str	r3, [r7, #12]
 463:D:/iot/felix2/components/connectivity/lwm2m/core\data.c ****         break;
 1522              		.loc 2 463 0
 1523 0028 3EE0     		b	.L106
 1524              	.L105:
 464:D:/iot/felix2/components/connectivity/lwm2m/core\data.c **** 
 465:D:/iot/felix2/components/connectivity/lwm2m/core\data.c ****     case LWM2M_TYPE_STRING:
 466:D:/iot/felix2/components/connectivity/lwm2m/core\data.c ****         if (dataP->value.asBuffer.length != 1) return 0;
 1525              		.loc 2 466 0
 1526 002a 7B68     		ldr	r3, [r7, #4]
 1527 002c 9B68     		ldr	r3, [r3, #8]
 1528 002e 012B     		cmp	r3, #1
 1529 0030 01D0     		beq	.L107
 1530              		.loc 2 466 0 is_stmt 0 discriminator 1
 1531 0032 0023     		movs	r3, #0
 1532 0034 39E0     		b	.L108
 1533              	.L107:
 467:D:/iot/felix2/components/connectivity/lwm2m/core\data.c **** 
 468:D:/iot/felix2/components/connectivity/lwm2m/core\data.c ****         switch (dataP->value.asBuffer.buffer[0])
 1534              		.loc 2 468 0 is_stmt 1
 1535 0036 7B68     		ldr	r3, [r7, #4]
 1536 0038 DB68     		ldr	r3, [r3, #12]
 1537 003a 1B78     		ldrb	r3, [r3]	@ zero_extendqisi2
 1538 003c 302B     		cmp	r3, #48
 1539 003e 02D0     		beq	.L110
 1540 0040 312B     		cmp	r3, #49
 1541 0042 06D0     		beq	.L111
 1542 0044 0BE0     		b	.L119
 1543              	.L110:
 469:D:/iot/felix2/components/connectivity/lwm2m/core\data.c ****         {
 470:D:/iot/felix2/components/connectivity/lwm2m/core\data.c ****         case '0':
 471:D:/iot/felix2/components/connectivity/lwm2m/core\data.c ****             *valueP = false;
 1544              		.loc 2 471 0
 1545 0046 3B68     		ldr	r3, [r7]
 1546 0048 0022     		movs	r2, #0
 1547 004a 1A70     		strb	r2, [r3]
 472:D:/iot/felix2/components/connectivity/lwm2m/core\data.c ****             result = 1;
 1548              		.loc 2 472 0
 1549 004c 0123     		movs	r3, #1
 1550 004e FB60     		str	r3, [r7, #12]
 473:D:/iot/felix2/components/connectivity/lwm2m/core\data.c ****             break;
 1551              		.loc 2 473 0
 1552 0050 08E0     		b	.L112
 1553              	.L111:
 474:D:/iot/felix2/components/connectivity/lwm2m/core\data.c ****         case '1':
 475:D:/iot/felix2/components/connectivity/lwm2m/core\data.c ****             *valueP = true;
 1554              		.loc 2 475 0
 1555 0052 3B68     		ldr	r3, [r7]
 1556 0054 0122     		movs	r2, #1
 1557 0056 1A70     		strb	r2, [r3]
 476:D:/iot/felix2/components/connectivity/lwm2m/core\data.c ****             result = 1;
ARM GAS  C:\Users\91458\AppData\Local\Temp\ccCkQMas.s 			page 43


 1558              		.loc 2 476 0
 1559 0058 0123     		movs	r3, #1
 1560 005a FB60     		str	r3, [r7, #12]
 477:D:/iot/felix2/components/connectivity/lwm2m/core\data.c ****             break;
 1561              		.loc 2 477 0
 1562 005c 02E0     		b	.L112
 1563              	.L119:
 478:D:/iot/felix2/components/connectivity/lwm2m/core\data.c ****         default:
 479:D:/iot/felix2/components/connectivity/lwm2m/core\data.c ****             result = 0;
 1564              		.loc 2 479 0
 1565 005e 0023     		movs	r3, #0
 1566 0060 FB60     		str	r3, [r7, #12]
 480:D:/iot/felix2/components/connectivity/lwm2m/core\data.c ****             break;
 1567              		.loc 2 480 0
 1568 0062 00BF     		nop
 1569              	.L112:
 481:D:/iot/felix2/components/connectivity/lwm2m/core\data.c ****         }
 482:D:/iot/felix2/components/connectivity/lwm2m/core\data.c ****         break;
 1570              		.loc 2 482 0
 1571 0064 20E0     		b	.L106
 1572              	.L103:
 483:D:/iot/felix2/components/connectivity/lwm2m/core\data.c **** 
 484:D:/iot/felix2/components/connectivity/lwm2m/core\data.c ****     case LWM2M_TYPE_OPAQUE:
 485:D:/iot/felix2/components/connectivity/lwm2m/core\data.c ****         if (dataP->value.asBuffer.length != 1) return 0;
 1573              		.loc 2 485 0
 1574 0066 7B68     		ldr	r3, [r7, #4]
 1575 0068 9B68     		ldr	r3, [r3, #8]
 1576 006a 012B     		cmp	r3, #1
 1577 006c 01D0     		beq	.L113
 1578              		.loc 2 485 0 is_stmt 0 discriminator 1
 1579 006e 0023     		movs	r3, #0
 1580 0070 1BE0     		b	.L108
 1581              	.L113:
 486:D:/iot/felix2/components/connectivity/lwm2m/core\data.c **** 
 487:D:/iot/felix2/components/connectivity/lwm2m/core\data.c ****         switch (dataP->value.asBuffer.buffer[0])
 1582              		.loc 2 487 0 is_stmt 1
 1583 0072 7B68     		ldr	r3, [r7, #4]
 1584 0074 DB68     		ldr	r3, [r3, #12]
 1585 0076 1B78     		ldrb	r3, [r3]	@ zero_extendqisi2
 1586 0078 002B     		cmp	r3, #0
 1587 007a 02D0     		beq	.L115
 1588 007c 012B     		cmp	r3, #1
 1589 007e 06D0     		beq	.L116
 1590 0080 0BE0     		b	.L120
 1591              	.L115:
 488:D:/iot/felix2/components/connectivity/lwm2m/core\data.c ****         {
 489:D:/iot/felix2/components/connectivity/lwm2m/core\data.c ****         case 0:
 490:D:/iot/felix2/components/connectivity/lwm2m/core\data.c ****             *valueP = false;
 1592              		.loc 2 490 0
 1593 0082 3B68     		ldr	r3, [r7]
 1594 0084 0022     		movs	r2, #0
 1595 0086 1A70     		strb	r2, [r3]
 491:D:/iot/felix2/components/connectivity/lwm2m/core\data.c ****             result = 1;
 1596              		.loc 2 491 0
 1597 0088 0123     		movs	r3, #1
 1598 008a FB60     		str	r3, [r7, #12]
 492:D:/iot/felix2/components/connectivity/lwm2m/core\data.c ****             break;
ARM GAS  C:\Users\91458\AppData\Local\Temp\ccCkQMas.s 			page 44


 1599              		.loc 2 492 0
 1600 008c 08E0     		b	.L117
 1601              	.L116:
 493:D:/iot/felix2/components/connectivity/lwm2m/core\data.c ****         case 1:
 494:D:/iot/felix2/components/connectivity/lwm2m/core\data.c ****             *valueP = true;
 1602              		.loc 2 494 0
 1603 008e 3B68     		ldr	r3, [r7]
 1604 0090 0122     		movs	r2, #1
 1605 0092 1A70     		strb	r2, [r3]
 495:D:/iot/felix2/components/connectivity/lwm2m/core\data.c ****             result = 1;
 1606              		.loc 2 495 0
 1607 0094 0123     		movs	r3, #1
 1608 0096 FB60     		str	r3, [r7, #12]
 496:D:/iot/felix2/components/connectivity/lwm2m/core\data.c ****             break;
 1609              		.loc 2 496 0
 1610 0098 02E0     		b	.L117
 1611              	.L120:
 497:D:/iot/felix2/components/connectivity/lwm2m/core\data.c ****         default:
 498:D:/iot/felix2/components/connectivity/lwm2m/core\data.c ****             result = 0;
 1612              		.loc 2 498 0
 1613 009a 0023     		movs	r3, #0
 1614 009c FB60     		str	r3, [r7, #12]
 499:D:/iot/felix2/components/connectivity/lwm2m/core\data.c ****             break;
 1615              		.loc 2 499 0
 1616 009e 00BF     		nop
 1617              	.L117:
 500:D:/iot/felix2/components/connectivity/lwm2m/core\data.c ****         }
 501:D:/iot/felix2/components/connectivity/lwm2m/core\data.c ****         break;
 1618              		.loc 2 501 0
 1619 00a0 02E0     		b	.L106
 1620              	.L118:
 502:D:/iot/felix2/components/connectivity/lwm2m/core\data.c **** 
 503:D:/iot/felix2/components/connectivity/lwm2m/core\data.c ****     default:
 504:D:/iot/felix2/components/connectivity/lwm2m/core\data.c ****         result = 0;
 1621              		.loc 2 504 0
 1622 00a2 0023     		movs	r3, #0
 1623 00a4 FB60     		str	r3, [r7, #12]
 505:D:/iot/felix2/components/connectivity/lwm2m/core\data.c ****         break;
 1624              		.loc 2 505 0
 1625 00a6 00BF     		nop
 1626              	.L106:
 506:D:/iot/felix2/components/connectivity/lwm2m/core\data.c ****     }
 507:D:/iot/felix2/components/connectivity/lwm2m/core\data.c **** 
 508:D:/iot/felix2/components/connectivity/lwm2m/core\data.c ****     LOG_ARG("result: %d, value: %s", result, *valueP ? "true" : "false");
 509:D:/iot/felix2/components/connectivity/lwm2m/core\data.c **** 
 510:D:/iot/felix2/components/connectivity/lwm2m/core\data.c ****     return result;
 1627              		.loc 2 510 0
 1628 00a8 FB68     		ldr	r3, [r7, #12]
 1629              	.L108:
 511:D:/iot/felix2/components/connectivity/lwm2m/core\data.c **** }
 1630              		.loc 2 511 0
 1631 00aa 1846     		mov	r0, r3
 1632 00ac 1437     		adds	r7, r7, #20
 1633              	.LCFI77:
 1634              		.cfi_def_cfa_offset 4
 1635 00ae BD46     		mov	sp, r7
 1636              	.LCFI78:
ARM GAS  C:\Users\91458\AppData\Local\Temp\ccCkQMas.s 			page 45


 1637              		.cfi_def_cfa_register 13
 1638              		@ sp needed
 1639 00b0 5DF8047B 		ldr	r7, [sp], #4
 1640              	.LCFI79:
 1641              		.cfi_restore 7
 1642              		.cfi_def_cfa_offset 0
 1643 00b4 7047     		bx	lr
 1644              		.cfi_endproc
 1645              	.LFE147:
 1647              		.section	.text.lwm2m_data_encode_objlink,"ax",%progbits
 1648              		.align	1
 1649              		.global	lwm2m_data_encode_objlink
 1650              		.syntax unified
 1651              		.thumb
 1652              		.thumb_func
 1653              		.fpu fpv4-sp-d16
 1655              	lwm2m_data_encode_objlink:
 1656              	.LFB148:
 512:D:/iot/felix2/components/connectivity/lwm2m/core\data.c **** 
 513:D:/iot/felix2/components/connectivity/lwm2m/core\data.c **** void lwm2m_data_encode_objlink(uint16_t objectId,
 514:D:/iot/felix2/components/connectivity/lwm2m/core\data.c ****                                uint16_t objectInstanceId,
 515:D:/iot/felix2/components/connectivity/lwm2m/core\data.c ****                                lwm2m_data_t *dataP)
 516:D:/iot/felix2/components/connectivity/lwm2m/core\data.c **** {
 1657              		.loc 2 516 0
 1658              		.cfi_startproc
 1659              		@ args = 0, pretend = 0, frame = 8
 1660              		@ frame_needed = 1, uses_anonymous_args = 0
 1661              		@ link register save eliminated.
 1662 0000 80B4     		push	{r7}
 1663              	.LCFI80:
 1664              		.cfi_def_cfa_offset 4
 1665              		.cfi_offset 7, -4
 1666 0002 83B0     		sub	sp, sp, #12
 1667              	.LCFI81:
 1668              		.cfi_def_cfa_offset 16
 1669 0004 00AF     		add	r7, sp, #0
 1670              	.LCFI82:
 1671              		.cfi_def_cfa_register 7
 1672 0006 0346     		mov	r3, r0
 1673 0008 3A60     		str	r2, [r7]
 1674 000a FB80     		strh	r3, [r7, #6]	@ movhi
 1675 000c 0B46     		mov	r3, r1	@ movhi
 1676 000e BB80     		strh	r3, [r7, #4]	@ movhi
 517:D:/iot/felix2/components/connectivity/lwm2m/core\data.c ****     LOG_ARG("value: %d/%d", objectId, objectInstanceId);
 518:D:/iot/felix2/components/connectivity/lwm2m/core\data.c ****     dataP->type = LWM2M_TYPE_OBJECT_LINK;
 1677              		.loc 2 518 0
 1678 0010 3B68     		ldr	r3, [r7]
 1679 0012 0922     		movs	r2, #9
 1680 0014 1A70     		strb	r2, [r3]
 519:D:/iot/felix2/components/connectivity/lwm2m/core\data.c ****     dataP->value.asObjLink.objectId = objectId;
 1681              		.loc 2 519 0
 1682 0016 3B68     		ldr	r3, [r7]
 1683 0018 FA88     		ldrh	r2, [r7, #6]	@ movhi
 1684 001a 1A81     		strh	r2, [r3, #8]	@ movhi
 520:D:/iot/felix2/components/connectivity/lwm2m/core\data.c ****     dataP->value.asObjLink.objectInstanceId = objectInstanceId;
 1685              		.loc 2 520 0
 1686 001c 3B68     		ldr	r3, [r7]
ARM GAS  C:\Users\91458\AppData\Local\Temp\ccCkQMas.s 			page 46


 1687 001e BA88     		ldrh	r2, [r7, #4]	@ movhi
 1688 0020 5A81     		strh	r2, [r3, #10]	@ movhi
 521:D:/iot/felix2/components/connectivity/lwm2m/core\data.c **** }
 1689              		.loc 2 521 0
 1690 0022 00BF     		nop
 1691 0024 0C37     		adds	r7, r7, #12
 1692              	.LCFI83:
 1693              		.cfi_def_cfa_offset 4
 1694 0026 BD46     		mov	sp, r7
 1695              	.LCFI84:
 1696              		.cfi_def_cfa_register 13
 1697              		@ sp needed
 1698 0028 5DF8047B 		ldr	r7, [sp], #4
 1699              	.LCFI85:
 1700              		.cfi_restore 7
 1701              		.cfi_def_cfa_offset 0
 1702 002c 7047     		bx	lr
 1703              		.cfi_endproc
 1704              	.LFE148:
 1706              		.section	.text.lwm2m_data_include,"ax",%progbits
 1707              		.align	1
 1708              		.global	lwm2m_data_include
 1709              		.syntax unified
 1710              		.thumb
 1711              		.thumb_func
 1712              		.fpu fpv4-sp-d16
 1714              	lwm2m_data_include:
 1715              	.LFB149:
 522:D:/iot/felix2/components/connectivity/lwm2m/core\data.c **** 
 523:D:/iot/felix2/components/connectivity/lwm2m/core\data.c **** void lwm2m_data_include(lwm2m_data_t *subDataP,
 524:D:/iot/felix2/components/connectivity/lwm2m/core\data.c ****                         size_t count,
 525:D:/iot/felix2/components/connectivity/lwm2m/core\data.c ****                         lwm2m_data_t *dataP)
 526:D:/iot/felix2/components/connectivity/lwm2m/core\data.c **** {
 1716              		.loc 2 526 0
 1717              		.cfi_startproc
 1718              		@ args = 0, pretend = 0, frame = 16
 1719              		@ frame_needed = 1, uses_anonymous_args = 0
 1720              		@ link register save eliminated.
 1721 0000 80B4     		push	{r7}
 1722              	.LCFI86:
 1723              		.cfi_def_cfa_offset 4
 1724              		.cfi_offset 7, -4
 1725 0002 85B0     		sub	sp, sp, #20
 1726              	.LCFI87:
 1727              		.cfi_def_cfa_offset 24
 1728 0004 00AF     		add	r7, sp, #0
 1729              	.LCFI88:
 1730              		.cfi_def_cfa_register 7
 1731 0006 F860     		str	r0, [r7, #12]
 1732 0008 B960     		str	r1, [r7, #8]
 1733 000a 7A60     		str	r2, [r7, #4]
 527:D:/iot/felix2/components/connectivity/lwm2m/core\data.c ****     LOG_ARG("count: %d", count);
 528:D:/iot/felix2/components/connectivity/lwm2m/core\data.c ****     if (subDataP == NULL || count == 0) return;
 1734              		.loc 2 528 0
 1735 000c FB68     		ldr	r3, [r7, #12]
 1736 000e 002B     		cmp	r3, #0
 1737 0010 19D0     		beq	.L130
ARM GAS  C:\Users\91458\AppData\Local\Temp\ccCkQMas.s 			page 47


 1738              		.loc 2 528 0 is_stmt 0 discriminator 1
 1739 0012 BB68     		ldr	r3, [r7, #8]
 1740 0014 002B     		cmp	r3, #0
 1741 0016 16D0     		beq	.L130
 529:D:/iot/felix2/components/connectivity/lwm2m/core\data.c **** 
 530:D:/iot/felix2/components/connectivity/lwm2m/core\data.c ****     switch (subDataP[0].type)
 1742              		.loc 2 530 0 is_stmt 1
 1743 0018 FB68     		ldr	r3, [r7, #12]
 1744 001a 1B78     		ldrb	r3, [r3]	@ zero_extendqisi2
 1745 001c 022B     		cmp	r3, #2
 1746 001e 07D0     		beq	.L127
 1747 0020 022B     		cmp	r3, #2
 1748 0022 12DB     		blt	.L131
 1749 0024 092B     		cmp	r3, #9
 1750 0026 10DC     		bgt	.L131
 531:D:/iot/felix2/components/connectivity/lwm2m/core\data.c ****     {
 532:D:/iot/felix2/components/connectivity/lwm2m/core\data.c ****     case LWM2M_TYPE_STRING:
 533:D:/iot/felix2/components/connectivity/lwm2m/core\data.c ****     case LWM2M_TYPE_OPAQUE:
 534:D:/iot/felix2/components/connectivity/lwm2m/core\data.c ****     case LWM2M_TYPE_INTEGER:
 535:D:/iot/felix2/components/connectivity/lwm2m/core\data.c ****     case LWM2M_TYPE_FLOAT:
 536:D:/iot/felix2/components/connectivity/lwm2m/core\data.c ****     case LWM2M_TYPE_BOOLEAN:
 537:D:/iot/felix2/components/connectivity/lwm2m/core\data.c ****     case LWM2M_TYPE_OBJECT_LINK:
 538:D:/iot/felix2/components/connectivity/lwm2m/core\data.c ****     case LWM2M_TYPE_MULTIPLE_RESOURCE:
 539:D:/iot/felix2/components/connectivity/lwm2m/core\data.c ****         dataP->type = LWM2M_TYPE_OBJECT_INSTANCE;
 1751              		.loc 2 539 0
 1752 0028 7B68     		ldr	r3, [r7, #4]
 1753 002a 0222     		movs	r2, #2
 1754 002c 1A70     		strb	r2, [r3]
 540:D:/iot/felix2/components/connectivity/lwm2m/core\data.c ****         break;
 1755              		.loc 2 540 0
 1756 002e 03E0     		b	.L129
 1757              	.L127:
 541:D:/iot/felix2/components/connectivity/lwm2m/core\data.c ****     case LWM2M_TYPE_OBJECT_INSTANCE:
 542:D:/iot/felix2/components/connectivity/lwm2m/core\data.c ****         dataP->type = LWM2M_TYPE_OBJECT;
 1758              		.loc 2 542 0
 1759 0030 7B68     		ldr	r3, [r7, #4]
 1760 0032 0122     		movs	r2, #1
 1761 0034 1A70     		strb	r2, [r3]
 543:D:/iot/felix2/components/connectivity/lwm2m/core\data.c ****         break;
 1762              		.loc 2 543 0
 1763 0036 00BF     		nop
 1764              	.L129:
 544:D:/iot/felix2/components/connectivity/lwm2m/core\data.c ****     default:
 545:D:/iot/felix2/components/connectivity/lwm2m/core\data.c ****         return;
 546:D:/iot/felix2/components/connectivity/lwm2m/core\data.c ****     }
 547:D:/iot/felix2/components/connectivity/lwm2m/core\data.c ****     dataP->value.asChildren.count = count;
 1765              		.loc 2 547 0
 1766 0038 7B68     		ldr	r3, [r7, #4]
 1767 003a BA68     		ldr	r2, [r7, #8]
 1768 003c 9A60     		str	r2, [r3, #8]
 548:D:/iot/felix2/components/connectivity/lwm2m/core\data.c ****     dataP->value.asChildren.array = subDataP;
 1769              		.loc 2 548 0
 1770 003e 7B68     		ldr	r3, [r7, #4]
 1771 0040 FA68     		ldr	r2, [r7, #12]
 1772 0042 DA60     		str	r2, [r3, #12]
 1773 0044 02E0     		b	.L122
 1774              	.L130:
ARM GAS  C:\Users\91458\AppData\Local\Temp\ccCkQMas.s 			page 48


 528:D:/iot/felix2/components/connectivity/lwm2m/core\data.c **** 
 1775              		.loc 2 528 0
 1776 0046 00BF     		nop
 1777 0048 00E0     		b	.L122
 1778              	.L131:
 545:D:/iot/felix2/components/connectivity/lwm2m/core\data.c ****     }
 1779              		.loc 2 545 0
 1780 004a 00BF     		nop
 1781              	.L122:
 549:D:/iot/felix2/components/connectivity/lwm2m/core\data.c **** }
 1782              		.loc 2 549 0
 1783 004c 1437     		adds	r7, r7, #20
 1784              	.LCFI89:
 1785              		.cfi_def_cfa_offset 4
 1786 004e BD46     		mov	sp, r7
 1787              	.LCFI90:
 1788              		.cfi_def_cfa_register 13
 1789              		@ sp needed
 1790 0050 5DF8047B 		ldr	r7, [sp], #4
 1791              	.LCFI91:
 1792              		.cfi_restore 7
 1793              		.cfi_def_cfa_offset 0
 1794 0054 7047     		bx	lr
 1795              		.cfi_endproc
 1796              	.LFE149:
 1798              		.section	.text.lwm2m_data_encode_instances,"ax",%progbits
 1799              		.align	1
 1800              		.global	lwm2m_data_encode_instances
 1801              		.syntax unified
 1802              		.thumb
 1803              		.thumb_func
 1804              		.fpu fpv4-sp-d16
 1806              	lwm2m_data_encode_instances:
 1807              	.LFB150:
 550:D:/iot/felix2/components/connectivity/lwm2m/core\data.c **** 
 551:D:/iot/felix2/components/connectivity/lwm2m/core\data.c **** void lwm2m_data_encode_instances(lwm2m_data_t *subDataP,
 552:D:/iot/felix2/components/connectivity/lwm2m/core\data.c ****                                  size_t count,
 553:D:/iot/felix2/components/connectivity/lwm2m/core\data.c ****                                  lwm2m_data_t *dataP)
 554:D:/iot/felix2/components/connectivity/lwm2m/core\data.c **** {
 1808              		.loc 2 554 0
 1809              		.cfi_startproc
 1810              		@ args = 0, pretend = 0, frame = 16
 1811              		@ frame_needed = 1, uses_anonymous_args = 0
 1812 0000 80B5     		push	{r7, lr}
 1813              	.LCFI92:
 1814              		.cfi_def_cfa_offset 8
 1815              		.cfi_offset 7, -8
 1816              		.cfi_offset 14, -4
 1817 0002 84B0     		sub	sp, sp, #16
 1818              	.LCFI93:
 1819              		.cfi_def_cfa_offset 24
 1820 0004 00AF     		add	r7, sp, #0
 1821              	.LCFI94:
 1822              		.cfi_def_cfa_register 7
 1823 0006 F860     		str	r0, [r7, #12]
 1824 0008 B960     		str	r1, [r7, #8]
 1825 000a 7A60     		str	r2, [r7, #4]
ARM GAS  C:\Users\91458\AppData\Local\Temp\ccCkQMas.s 			page 49


 555:D:/iot/felix2/components/connectivity/lwm2m/core\data.c ****     LOG_ARG("count: %d", count);
 556:D:/iot/felix2/components/connectivity/lwm2m/core\data.c ****     lwm2m_data_include(subDataP, count, dataP);
 1826              		.loc 2 556 0
 1827 000c 7A68     		ldr	r2, [r7, #4]
 1828 000e B968     		ldr	r1, [r7, #8]
 1829 0010 F868     		ldr	r0, [r7, #12]
 1830 0012 FFF7FEFF 		bl	lwm2m_data_include
 557:D:/iot/felix2/components/connectivity/lwm2m/core\data.c ****     dataP->type = LWM2M_TYPE_MULTIPLE_RESOURCE;
 1831              		.loc 2 557 0
 1832 0016 7B68     		ldr	r3, [r7, #4]
 1833 0018 0322     		movs	r2, #3
 1834 001a 1A70     		strb	r2, [r3]
 558:D:/iot/felix2/components/connectivity/lwm2m/core\data.c **** }
 1835              		.loc 2 558 0
 1836 001c 00BF     		nop
 1837 001e 1037     		adds	r7, r7, #16
 1838              	.LCFI95:
 1839              		.cfi_def_cfa_offset 8
 1840 0020 BD46     		mov	sp, r7
 1841              	.LCFI96:
 1842              		.cfi_def_cfa_register 13
 1843              		@ sp needed
 1844 0022 80BD     		pop	{r7, pc}
 1845              		.cfi_endproc
 1846              	.LFE150:
 1848              		.section	.text.lwm2m_data_parse,"ax",%progbits
 1849              		.align	1
 1850              		.global	lwm2m_data_parse
 1851              		.syntax unified
 1852              		.thumb
 1853              		.thumb_func
 1854              		.fpu fpv4-sp-d16
 1856              	lwm2m_data_parse:
 1857              	.LFB151:
 559:D:/iot/felix2/components/connectivity/lwm2m/core\data.c **** 
 560:D:/iot/felix2/components/connectivity/lwm2m/core\data.c **** int lwm2m_data_parse(lwm2m_uri_t *uriP,
 561:D:/iot/felix2/components/connectivity/lwm2m/core\data.c ****                      uint8_t *buffer,
 562:D:/iot/felix2/components/connectivity/lwm2m/core\data.c ****                      size_t bufferLen,
 563:D:/iot/felix2/components/connectivity/lwm2m/core\data.c ****                      lwm2m_media_type_t format,
 564:D:/iot/felix2/components/connectivity/lwm2m/core\data.c ****                      lwm2m_data_t **dataP)
 565:D:/iot/felix2/components/connectivity/lwm2m/core\data.c **** {
 1858              		.loc 2 565 0
 1859              		.cfi_startproc
 1860              		@ args = 4, pretend = 0, frame = 24
 1861              		@ frame_needed = 1, uses_anonymous_args = 0
 1862 0000 80B5     		push	{r7, lr}
 1863              	.LCFI97:
 1864              		.cfi_def_cfa_offset 8
 1865              		.cfi_offset 7, -8
 1866              		.cfi_offset 14, -4
 1867 0002 86B0     		sub	sp, sp, #24
 1868              	.LCFI98:
 1869              		.cfi_def_cfa_offset 32
 1870 0004 00AF     		add	r7, sp, #0
 1871              	.LCFI99:
 1872              		.cfi_def_cfa_register 7
 1873 0006 F860     		str	r0, [r7, #12]
ARM GAS  C:\Users\91458\AppData\Local\Temp\ccCkQMas.s 			page 50


 1874 0008 B960     		str	r1, [r7, #8]
 1875 000a 7A60     		str	r2, [r7, #4]
 1876 000c 7B80     		strh	r3, [r7, #2]	@ movhi
 566:D:/iot/felix2/components/connectivity/lwm2m/core\data.c ****     int res;
 567:D:/iot/felix2/components/connectivity/lwm2m/core\data.c **** 
 568:D:/iot/felix2/components/connectivity/lwm2m/core\data.c ****     LOG_ARG("format: %s, bufferLen: %d", STR_MEDIA_TYPE(format), bufferLen);
 569:D:/iot/felix2/components/connectivity/lwm2m/core\data.c ****     LOG_URI(uriP);
 570:D:/iot/felix2/components/connectivity/lwm2m/core\data.c ****     switch (format)
 1877              		.loc 2 570 0
 1878 000e 7B88     		ldrh	r3, [r7, #2]
 1879 0010 2A2B     		cmp	r3, #42
 1880 0012 38D0     		beq	.L135
 1881 0014 42F61652 		movw	r2, #11542
 1882 0018 9342     		cmp	r3, r2
 1883 001a 67D0     		beq	.L136
 1884 001c 002B     		cmp	r3, #0
 1885 001e 6CD1     		bne	.L145
 571:D:/iot/felix2/components/connectivity/lwm2m/core\data.c ****     {
 572:D:/iot/felix2/components/connectivity/lwm2m/core\data.c ****     case LWM2M_CONTENT_TEXT:
 573:D:/iot/felix2/components/connectivity/lwm2m/core\data.c ****         if (!LWM2M_URI_IS_SET_RESOURCE(uriP)) return 0;
 1886              		.loc 2 573 0
 1887 0020 FB68     		ldr	r3, [r7, #12]
 1888 0022 1B78     		ldrb	r3, [r3]	@ zero_extendqisi2
 1889 0024 03F00103 		and	r3, r3, #1
 1890 0028 002B     		cmp	r3, #0
 1891 002a 01D1     		bne	.L138
 1892              		.loc 2 573 0 is_stmt 0 discriminator 1
 1893 002c 0023     		movs	r3, #0
 1894 002e 65E0     		b	.L139
 1895              	.L138:
 574:D:/iot/felix2/components/connectivity/lwm2m/core\data.c ****         *dataP = lwm2m_data_new(1);
 1896              		.loc 2 574 0 is_stmt 1
 1897 0030 0120     		movs	r0, #1
 1898 0032 FFF7FEFF 		bl	lwm2m_data_new
 1899 0036 0246     		mov	r2, r0
 1900 0038 3B6A     		ldr	r3, [r7, #32]
 1901 003a 1A60     		str	r2, [r3]
 575:D:/iot/felix2/components/connectivity/lwm2m/core\data.c ****         if (*dataP == NULL) return 0;
 1902              		.loc 2 575 0
 1903 003c 3B6A     		ldr	r3, [r7, #32]
 1904 003e 1B68     		ldr	r3, [r3]
 1905 0040 002B     		cmp	r3, #0
 1906 0042 01D1     		bne	.L140
 1907              		.loc 2 575 0 is_stmt 0 discriminator 1
 1908 0044 0023     		movs	r3, #0
 1909 0046 59E0     		b	.L139
 1910              	.L140:
 576:D:/iot/felix2/components/connectivity/lwm2m/core\data.c ****         (*dataP)->id = uriP->resourceId;
 1911              		.loc 2 576 0 is_stmt 1
 1912 0048 3B6A     		ldr	r3, [r7, #32]
 1913 004a 1B68     		ldr	r3, [r3]
 1914 004c FA68     		ldr	r2, [r7, #12]
 1915 004e D288     		ldrh	r2, [r2, #6]
 1916 0050 5A80     		strh	r2, [r3, #2]	@ movhi
 577:D:/iot/felix2/components/connectivity/lwm2m/core\data.c ****         (*dataP)->type = LWM2M_TYPE_STRING;
 1917              		.loc 2 577 0
 1918 0052 3B6A     		ldr	r3, [r7, #32]
ARM GAS  C:\Users\91458\AppData\Local\Temp\ccCkQMas.s 			page 51


 1919 0054 1B68     		ldr	r3, [r3]
 1920 0056 0422     		movs	r2, #4
 1921 0058 1A70     		strb	r2, [r3]
 578:D:/iot/felix2/components/connectivity/lwm2m/core\data.c ****         res = prv_setBuffer(*dataP, buffer, bufferLen);
 1922              		.loc 2 578 0
 1923 005a 3B6A     		ldr	r3, [r7, #32]
 1924 005c 1B68     		ldr	r3, [r3]
 1925 005e 7A68     		ldr	r2, [r7, #4]
 1926 0060 B968     		ldr	r1, [r7, #8]
 1927 0062 1846     		mov	r0, r3
 1928 0064 FFF7FEFF 		bl	prv_setBuffer
 1929 0068 7861     		str	r0, [r7, #20]
 579:D:/iot/felix2/components/connectivity/lwm2m/core\data.c ****         if (res == 0)
 1930              		.loc 2 579 0
 1931 006a 7B69     		ldr	r3, [r7, #20]
 1932 006c 002B     		cmp	r3, #0
 1933 006e 08D1     		bne	.L141
 580:D:/iot/felix2/components/connectivity/lwm2m/core\data.c ****         {
 581:D:/iot/felix2/components/connectivity/lwm2m/core\data.c ****             lwm2m_data_free(1, *dataP);
 1934              		.loc 2 581 0
 1935 0070 3B6A     		ldr	r3, [r7, #32]
 1936 0072 1B68     		ldr	r3, [r3]
 1937 0074 1946     		mov	r1, r3
 1938 0076 0120     		movs	r0, #1
 1939 0078 FFF7FEFF 		bl	lwm2m_data_free
 582:D:/iot/felix2/components/connectivity/lwm2m/core\data.c ****             *dataP = NULL;
 1940              		.loc 2 582 0
 1941 007c 3B6A     		ldr	r3, [r7, #32]
 1942 007e 0022     		movs	r2, #0
 1943 0080 1A60     		str	r2, [r3]
 1944              	.L141:
 583:D:/iot/felix2/components/connectivity/lwm2m/core\data.c ****         }
 584:D:/iot/felix2/components/connectivity/lwm2m/core\data.c ****         return res;
 1945              		.loc 2 584 0
 1946 0082 7B69     		ldr	r3, [r7, #20]
 1947 0084 3AE0     		b	.L139
 1948              	.L135:
 585:D:/iot/felix2/components/connectivity/lwm2m/core\data.c **** 
 586:D:/iot/felix2/components/connectivity/lwm2m/core\data.c ****     case LWM2M_CONTENT_OPAQUE:
 587:D:/iot/felix2/components/connectivity/lwm2m/core\data.c ****         if (!LWM2M_URI_IS_SET_RESOURCE(uriP)) return 0;
 1949              		.loc 2 587 0
 1950 0086 FB68     		ldr	r3, [r7, #12]
 1951 0088 1B78     		ldrb	r3, [r3]	@ zero_extendqisi2
 1952 008a 03F00103 		and	r3, r3, #1
 1953 008e 002B     		cmp	r3, #0
 1954 0090 01D1     		bne	.L142
 1955              		.loc 2 587 0 is_stmt 0 discriminator 1
 1956 0092 0023     		movs	r3, #0
 1957 0094 32E0     		b	.L139
 1958              	.L142:
 588:D:/iot/felix2/components/connectivity/lwm2m/core\data.c ****         *dataP = lwm2m_data_new(1);
 1959              		.loc 2 588 0 is_stmt 1
 1960 0096 0120     		movs	r0, #1
 1961 0098 FFF7FEFF 		bl	lwm2m_data_new
 1962 009c 0246     		mov	r2, r0
 1963 009e 3B6A     		ldr	r3, [r7, #32]
 1964 00a0 1A60     		str	r2, [r3]
ARM GAS  C:\Users\91458\AppData\Local\Temp\ccCkQMas.s 			page 52


 589:D:/iot/felix2/components/connectivity/lwm2m/core\data.c ****         if (*dataP == NULL) return 0;
 1965              		.loc 2 589 0
 1966 00a2 3B6A     		ldr	r3, [r7, #32]
 1967 00a4 1B68     		ldr	r3, [r3]
 1968 00a6 002B     		cmp	r3, #0
 1969 00a8 01D1     		bne	.L143
 1970              		.loc 2 589 0 is_stmt 0 discriminator 1
 1971 00aa 0023     		movs	r3, #0
 1972 00ac 26E0     		b	.L139
 1973              	.L143:
 590:D:/iot/felix2/components/connectivity/lwm2m/core\data.c ****         (*dataP)->id = uriP->resourceId;
 1974              		.loc 2 590 0 is_stmt 1
 1975 00ae 3B6A     		ldr	r3, [r7, #32]
 1976 00b0 1B68     		ldr	r3, [r3]
 1977 00b2 FA68     		ldr	r2, [r7, #12]
 1978 00b4 D288     		ldrh	r2, [r2, #6]
 1979 00b6 5A80     		strh	r2, [r3, #2]	@ movhi
 591:D:/iot/felix2/components/connectivity/lwm2m/core\data.c ****         (*dataP)->type = LWM2M_TYPE_OPAQUE;
 1980              		.loc 2 591 0
 1981 00b8 3B6A     		ldr	r3, [r7, #32]
 1982 00ba 1B68     		ldr	r3, [r3]
 1983 00bc 0522     		movs	r2, #5
 1984 00be 1A70     		strb	r2, [r3]
 592:D:/iot/felix2/components/connectivity/lwm2m/core\data.c ****         res = prv_setBuffer(*dataP, buffer, bufferLen);
 1985              		.loc 2 592 0
 1986 00c0 3B6A     		ldr	r3, [r7, #32]
 1987 00c2 1B68     		ldr	r3, [r3]
 1988 00c4 7A68     		ldr	r2, [r7, #4]
 1989 00c6 B968     		ldr	r1, [r7, #8]
 1990 00c8 1846     		mov	r0, r3
 1991 00ca FFF7FEFF 		bl	prv_setBuffer
 1992 00ce 7861     		str	r0, [r7, #20]
 593:D:/iot/felix2/components/connectivity/lwm2m/core\data.c ****         if (res == 0)
 1993              		.loc 2 593 0
 1994 00d0 7B69     		ldr	r3, [r7, #20]
 1995 00d2 002B     		cmp	r3, #0
 1996 00d4 08D1     		bne	.L144
 594:D:/iot/felix2/components/connectivity/lwm2m/core\data.c ****         {
 595:D:/iot/felix2/components/connectivity/lwm2m/core\data.c ****             lwm2m_data_free(1, *dataP);
 1997              		.loc 2 595 0
 1998 00d6 3B6A     		ldr	r3, [r7, #32]
 1999 00d8 1B68     		ldr	r3, [r3]
 2000 00da 1946     		mov	r1, r3
 2001 00dc 0120     		movs	r0, #1
 2002 00de FFF7FEFF 		bl	lwm2m_data_free
 596:D:/iot/felix2/components/connectivity/lwm2m/core\data.c ****             *dataP = NULL;
 2003              		.loc 2 596 0
 2004 00e2 3B6A     		ldr	r3, [r7, #32]
 2005 00e4 0022     		movs	r2, #0
 2006 00e6 1A60     		str	r2, [r3]
 2007              	.L144:
 597:D:/iot/felix2/components/connectivity/lwm2m/core\data.c ****         }
 598:D:/iot/felix2/components/connectivity/lwm2m/core\data.c ****         return res;
 2008              		.loc 2 598 0
 2009 00e8 7B69     		ldr	r3, [r7, #20]
 2010 00ea 07E0     		b	.L139
 2011              	.L136:
ARM GAS  C:\Users\91458\AppData\Local\Temp\ccCkQMas.s 			page 53


 599:D:/iot/felix2/components/connectivity/lwm2m/core\data.c **** 
 600:D:/iot/felix2/components/connectivity/lwm2m/core\data.c **** #ifdef LWM2M_OLD_CONTENT_FORMAT_SUPPORT
 601:D:/iot/felix2/components/connectivity/lwm2m/core\data.c ****     case LWM2M_CONTENT_TLV_OLD:
 602:D:/iot/felix2/components/connectivity/lwm2m/core\data.c **** #endif
 603:D:/iot/felix2/components/connectivity/lwm2m/core\data.c ****     case LWM2M_CONTENT_TLV:
 604:D:/iot/felix2/components/connectivity/lwm2m/core\data.c ****         return tlv_parse(buffer, bufferLen, dataP);
 2012              		.loc 2 604 0
 2013 00ec 3A6A     		ldr	r2, [r7, #32]
 2014 00ee 7968     		ldr	r1, [r7, #4]
 2015 00f0 B868     		ldr	r0, [r7, #8]
 2016 00f2 FFF7FEFF 		bl	tlv_parse
 2017 00f6 0346     		mov	r3, r0
 2018 00f8 00E0     		b	.L139
 2019              	.L145:
 605:D:/iot/felix2/components/connectivity/lwm2m/core\data.c **** 
 606:D:/iot/felix2/components/connectivity/lwm2m/core\data.c **** #ifdef LWM2M_SUPPORT_JSON
 607:D:/iot/felix2/components/connectivity/lwm2m/core\data.c **** #ifdef LWM2M_OLD_CONTENT_FORMAT_SUPPORT
 608:D:/iot/felix2/components/connectivity/lwm2m/core\data.c ****     case LWM2M_CONTENT_JSON_OLD:
 609:D:/iot/felix2/components/connectivity/lwm2m/core\data.c **** #endif
 610:D:/iot/felix2/components/connectivity/lwm2m/core\data.c ****     case LWM2M_CONTENT_JSON:
 611:D:/iot/felix2/components/connectivity/lwm2m/core\data.c ****         return json_parse(uriP, buffer, bufferLen, dataP);
 612:D:/iot/felix2/components/connectivity/lwm2m/core\data.c **** #endif
 613:D:/iot/felix2/components/connectivity/lwm2m/core\data.c **** 
 614:D:/iot/felix2/components/connectivity/lwm2m/core\data.c ****     default:
 615:D:/iot/felix2/components/connectivity/lwm2m/core\data.c ****         return 0;
 2020              		.loc 2 615 0
 2021 00fa 0023     		movs	r3, #0
 2022              	.L139:
 616:D:/iot/felix2/components/connectivity/lwm2m/core\data.c ****     }
 617:D:/iot/felix2/components/connectivity/lwm2m/core\data.c **** }
 2023              		.loc 2 617 0
 2024 00fc 1846     		mov	r0, r3
 2025 00fe 1837     		adds	r7, r7, #24
 2026              	.LCFI100:
 2027              		.cfi_def_cfa_offset 8
 2028 0100 BD46     		mov	sp, r7
 2029              	.LCFI101:
 2030              		.cfi_def_cfa_register 13
 2031              		@ sp needed
 2032 0102 80BD     		pop	{r7, pc}
 2033              		.cfi_endproc
 2034              	.LFE151:
 2036              		.section	.text.lwm2m_data_serialize,"ax",%progbits
 2037              		.align	1
 2038              		.global	lwm2m_data_serialize
 2039              		.syntax unified
 2040              		.thumb
 2041              		.thumb_func
 2042              		.fpu fpv4-sp-d16
 2044              	lwm2m_data_serialize:
 2045              	.LFB152:
 618:D:/iot/felix2/components/connectivity/lwm2m/core\data.c **** 
 619:D:/iot/felix2/components/connectivity/lwm2m/core\data.c **** int lwm2m_data_serialize(lwm2m_uri_t *uriP,
 620:D:/iot/felix2/components/connectivity/lwm2m/core\data.c ****                          int size,
 621:D:/iot/felix2/components/connectivity/lwm2m/core\data.c ****                          lwm2m_data_t *dataP,
 622:D:/iot/felix2/components/connectivity/lwm2m/core\data.c ****                          lwm2m_media_type_t *formatP,
 623:D:/iot/felix2/components/connectivity/lwm2m/core\data.c ****                          uint8_t **bufferP)
ARM GAS  C:\Users\91458\AppData\Local\Temp\ccCkQMas.s 			page 54


 624:D:/iot/felix2/components/connectivity/lwm2m/core\data.c **** {
 2046              		.loc 2 624 0
 2047              		.cfi_startproc
 2048              		@ args = 4, pretend = 0, frame = 24
 2049              		@ frame_needed = 1, uses_anonymous_args = 0
 2050 0000 80B5     		push	{r7, lr}
 2051              	.LCFI102:
 2052              		.cfi_def_cfa_offset 8
 2053              		.cfi_offset 7, -8
 2054              		.cfi_offset 14, -4
 2055 0002 88B0     		sub	sp, sp, #32
 2056              	.LCFI103:
 2057              		.cfi_def_cfa_offset 40
 2058 0004 02AF     		add	r7, sp, #8
 2059              	.LCFI104:
 2060              		.cfi_def_cfa 7, 32
 2061 0006 F860     		str	r0, [r7, #12]
 2062 0008 B960     		str	r1, [r7, #8]
 2063 000a 7A60     		str	r2, [r7, #4]
 2064 000c 3B60     		str	r3, [r7]
 625:D:/iot/felix2/components/connectivity/lwm2m/core\data.c ****     LOG_URI(uriP);
 626:D:/iot/felix2/components/connectivity/lwm2m/core\data.c ****     LOG_ARG("size: %d, formatP: %s", size, STR_MEDIA_TYPE(*formatP));
 627:D:/iot/felix2/components/connectivity/lwm2m/core\data.c **** 
 628:D:/iot/felix2/components/connectivity/lwm2m/core\data.c ****     // Check format
 629:D:/iot/felix2/components/connectivity/lwm2m/core\data.c ****     if (*formatP == LWM2M_CONTENT_TEXT
 2065              		.loc 2 629 0
 2066 000e 3B68     		ldr	r3, [r7]
 2067 0010 1B88     		ldrh	r3, [r3]
 2068 0012 002B     		cmp	r3, #0
 2069 0014 03D0     		beq	.L147
 630:D:/iot/felix2/components/connectivity/lwm2m/core\data.c ****             || *formatP == LWM2M_CONTENT_OPAQUE)
 2070              		.loc 2 630 0
 2071 0016 3B68     		ldr	r3, [r7]
 2072 0018 1B88     		ldrh	r3, [r3]
 2073 001a 2A2B     		cmp	r3, #42
 2074 001c 1BD1     		bne	.L148
 2075              	.L147:
 631:D:/iot/felix2/components/connectivity/lwm2m/core\data.c ****     {
 632:D:/iot/felix2/components/connectivity/lwm2m/core\data.c ****         if (size != 1
 2076              		.loc 2 632 0
 2077 001e BB68     		ldr	r3, [r7, #8]
 2078 0020 012B     		cmp	r3, #1
 2079 0022 14D1     		bne	.L149
 633:D:/iot/felix2/components/connectivity/lwm2m/core\data.c ****                 || (uriP != NULL && !LWM2M_URI_IS_SET_RESOURCE(uriP))
 2080              		.loc 2 633 0
 2081 0024 FB68     		ldr	r3, [r7, #12]
 2082 0026 002B     		cmp	r3, #0
 2083 0028 05D0     		beq	.L150
 2084              		.loc 2 633 0 is_stmt 0 discriminator 1
 2085 002a FB68     		ldr	r3, [r7, #12]
 2086 002c 1B78     		ldrb	r3, [r3]	@ zero_extendqisi2
 2087 002e 03F00103 		and	r3, r3, #1
 2088 0032 002B     		cmp	r3, #0
 2089 0034 0BD0     		beq	.L149
 2090              	.L150:
 634:D:/iot/felix2/components/connectivity/lwm2m/core\data.c ****                 || dataP->type == LWM2M_TYPE_OBJECT
 2091              		.loc 2 634 0 is_stmt 1
ARM GAS  C:\Users\91458\AppData\Local\Temp\ccCkQMas.s 			page 55


 2092 0036 7B68     		ldr	r3, [r7, #4]
 2093 0038 1B78     		ldrb	r3, [r3]	@ zero_extendqisi2
 2094 003a 012B     		cmp	r3, #1
 2095 003c 07D0     		beq	.L149
 635:D:/iot/felix2/components/connectivity/lwm2m/core\data.c ****                 || dataP->type == LWM2M_TYPE_OBJECT_INSTANCE
 2096              		.loc 2 635 0
 2097 003e 7B68     		ldr	r3, [r7, #4]
 2098 0040 1B78     		ldrb	r3, [r3]	@ zero_extendqisi2
 2099 0042 022B     		cmp	r3, #2
 2100 0044 03D0     		beq	.L149
 636:D:/iot/felix2/components/connectivity/lwm2m/core\data.c ****                 || dataP->type == LWM2M_TYPE_MULTIPLE_RESOURCE)
 2101              		.loc 2 636 0
 2102 0046 7B68     		ldr	r3, [r7, #4]
 2103 0048 1B78     		ldrb	r3, [r3]	@ zero_extendqisi2
 2104 004a 032B     		cmp	r3, #3
 2105 004c 03D1     		bne	.L148
 2106              	.L149:
 637:D:/iot/felix2/components/connectivity/lwm2m/core\data.c ****         {
 638:D:/iot/felix2/components/connectivity/lwm2m/core\data.c **** #ifdef LWM2M_SUPPORT_JSON
 639:D:/iot/felix2/components/connectivity/lwm2m/core\data.c ****             *formatP = LWM2M_CONTENT_JSON;
 640:D:/iot/felix2/components/connectivity/lwm2m/core\data.c **** #else
 641:D:/iot/felix2/components/connectivity/lwm2m/core\data.c ****             *formatP = LWM2M_CONTENT_TLV;
 2107              		.loc 2 641 0
 2108 004e 3B68     		ldr	r3, [r7]
 2109 0050 42F61652 		movw	r2, #11542
 2110 0054 1A80     		strh	r2, [r3]	@ movhi
 2111              	.L148:
 642:D:/iot/felix2/components/connectivity/lwm2m/core\data.c **** #endif
 643:D:/iot/felix2/components/connectivity/lwm2m/core\data.c ****         }
 644:D:/iot/felix2/components/connectivity/lwm2m/core\data.c ****     }
 645:D:/iot/felix2/components/connectivity/lwm2m/core\data.c **** 
 646:D:/iot/felix2/components/connectivity/lwm2m/core\data.c ****     if (*formatP == LWM2M_CONTENT_OPAQUE
 2112              		.loc 2 646 0
 2113 0056 3B68     		ldr	r3, [r7]
 2114 0058 1B88     		ldrh	r3, [r3]
 2115 005a 2A2B     		cmp	r3, #42
 2116 005c 06D1     		bne	.L151
 647:D:/iot/felix2/components/connectivity/lwm2m/core\data.c ****             && dataP->type != LWM2M_TYPE_OPAQUE)
 2117              		.loc 2 647 0
 2118 005e 7B68     		ldr	r3, [r7, #4]
 2119 0060 1B78     		ldrb	r3, [r3]	@ zero_extendqisi2
 2120 0062 052B     		cmp	r3, #5
 2121 0064 02D0     		beq	.L151
 648:D:/iot/felix2/components/connectivity/lwm2m/core\data.c ****     {
 649:D:/iot/felix2/components/connectivity/lwm2m/core\data.c ****         LOG("Opaque format is reserved to opaque resources.");
 650:D:/iot/felix2/components/connectivity/lwm2m/core\data.c ****         return -1;
 2122              		.loc 2 650 0
 2123 0066 4FF0FF33 		mov	r3, #-1
 2124 006a 6AE0     		b	.L152
 2125              	.L151:
 651:D:/iot/felix2/components/connectivity/lwm2m/core\data.c ****     }
 652:D:/iot/felix2/components/connectivity/lwm2m/core\data.c **** 
 653:D:/iot/felix2/components/connectivity/lwm2m/core\data.c ****     if (dm_isUriOpaqueHandle(uriP))
 2126              		.loc 2 653 0
 2127 006c F868     		ldr	r0, [r7, #12]
 2128 006e FFF7FEFF 		bl	dm_isUriOpaqueHandle
 2129 0072 0346     		mov	r3, r0
ARM GAS  C:\Users\91458\AppData\Local\Temp\ccCkQMas.s 			page 56


 2130 0074 002B     		cmp	r3, #0
 2131 0076 02D0     		beq	.L153
 654:D:/iot/felix2/components/connectivity/lwm2m/core\data.c ****     {
 655:D:/iot/felix2/components/connectivity/lwm2m/core\data.c ****         *formatP = LWM2M_CONTENT_OPAQUE;
 2132              		.loc 2 655 0
 2133 0078 3B68     		ldr	r3, [r7]
 2134 007a 2A22     		movs	r2, #42
 2135 007c 1A80     		strh	r2, [r3]	@ movhi
 2136              	.L153:
 656:D:/iot/felix2/components/connectivity/lwm2m/core\data.c ****     }
 657:D:/iot/felix2/components/connectivity/lwm2m/core\data.c **** 
 658:D:/iot/felix2/components/connectivity/lwm2m/core\data.c ****     LOG_ARG("Final format: %s", STR_MEDIA_TYPE(*formatP));
 659:D:/iot/felix2/components/connectivity/lwm2m/core\data.c **** 
 660:D:/iot/felix2/components/connectivity/lwm2m/core\data.c ****     switch (*formatP)
 2137              		.loc 2 660 0
 2138 007e 3B68     		ldr	r3, [r7]
 2139 0080 1B88     		ldrh	r3, [r3]
 2140 0082 2A2B     		cmp	r3, #42
 2141 0084 15D0     		beq	.L155
 2142 0086 2A2B     		cmp	r3, #42
 2143 0088 04DC     		bgt	.L156
 2144 008a 002B     		cmp	r3, #0
 2145 008c 0BD0     		beq	.L157
 2146 008e 282B     		cmp	r3, #40
 2147 0090 49D0     		beq	.L158
 2148 0092 54E0     		b	.L154
 2149              	.L156:
 2150 0094 40F20662 		movw	r2, #1542
 2151 0098 9342     		cmp	r3, r2
 2152 009a 25D0     		beq	.L159
 2153 009c 42F61652 		movw	r2, #11542
 2154 00a0 9342     		cmp	r3, r2
 2155 00a2 21D0     		beq	.L159
 2156 00a4 4BE0     		b	.L154
 2157              	.L157:
 661:D:/iot/felix2/components/connectivity/lwm2m/core\data.c ****     {
 662:D:/iot/felix2/components/connectivity/lwm2m/core\data.c ****     case LWM2M_CONTENT_TEXT:
 663:D:/iot/felix2/components/connectivity/lwm2m/core\data.c ****         return prv_textSerialize(dataP, bufferP);
 2158              		.loc 2 663 0
 2159 00a6 396A     		ldr	r1, [r7, #32]
 2160 00a8 7868     		ldr	r0, [r7, #4]
 2161 00aa FFF7FEFF 		bl	prv_textSerialize
 2162 00ae 0346     		mov	r3, r0
 2163 00b0 47E0     		b	.L152
 2164              	.L155:
 664:D:/iot/felix2/components/connectivity/lwm2m/core\data.c **** 
 665:D:/iot/felix2/components/connectivity/lwm2m/core\data.c ****     case LWM2M_CONTENT_OPAQUE:
 666:D:/iot/felix2/components/connectivity/lwm2m/core\data.c ****         *bufferP = (uint8_t *)lwm2m_malloc(dataP->value.asBuffer.length);
 2165              		.loc 2 666 0
 2166 00b2 7B68     		ldr	r3, [r7, #4]
 2167 00b4 9B68     		ldr	r3, [r3, #8]
 2168 00b6 1846     		mov	r0, r3
 2169 00b8 FFF7FEFF 		bl	lwm2m_malloc
 2170 00bc 0246     		mov	r2, r0
 2171 00be 3B6A     		ldr	r3, [r7, #32]
 2172 00c0 1A60     		str	r2, [r3]
 667:D:/iot/felix2/components/connectivity/lwm2m/core\data.c ****         if (*bufferP == NULL) return -1;
ARM GAS  C:\Users\91458\AppData\Local\Temp\ccCkQMas.s 			page 57


 2173              		.loc 2 667 0
 2174 00c2 3B6A     		ldr	r3, [r7, #32]
 2175 00c4 1B68     		ldr	r3, [r3]
 2176 00c6 002B     		cmp	r3, #0
 2177 00c8 02D1     		bne	.L160
 2178              		.loc 2 667 0 is_stmt 0 discriminator 1
 2179 00ca 4FF0FF33 		mov	r3, #-1
 2180 00ce 38E0     		b	.L152
 2181              	.L160:
 668:D:/iot/felix2/components/connectivity/lwm2m/core\data.c ****         memcpy(*bufferP, dataP->value.asBuffer.buffer, dataP->value.asBuffer.length);
 2182              		.loc 2 668 0 is_stmt 1
 2183 00d0 3B6A     		ldr	r3, [r7, #32]
 2184 00d2 1868     		ldr	r0, [r3]
 2185 00d4 7B68     		ldr	r3, [r7, #4]
 2186 00d6 D968     		ldr	r1, [r3, #12]
 2187 00d8 7B68     		ldr	r3, [r7, #4]
 2188 00da 9B68     		ldr	r3, [r3, #8]
 2189 00dc 1A46     		mov	r2, r3
 2190 00de FFF7FEFF 		bl	memcpy
 669:D:/iot/felix2/components/connectivity/lwm2m/core\data.c ****         return (int)dataP->value.asBuffer.length;
 2191              		.loc 2 669 0
 2192 00e2 7B68     		ldr	r3, [r7, #4]
 2193 00e4 9B68     		ldr	r3, [r3, #8]
 2194 00e6 2CE0     		b	.L152
 2195              	.L159:
 2196              	.LBB9:
 670:D:/iot/felix2/components/connectivity/lwm2m/core\data.c **** 
 671:D:/iot/felix2/components/connectivity/lwm2m/core\data.c ****     case LWM2M_CONTENT_TLV:
 672:D:/iot/felix2/components/connectivity/lwm2m/core\data.c ****     case LWM2M_CONTENT_TLV_OLD:
 673:D:/iot/felix2/components/connectivity/lwm2m/core\data.c ****     {
 674:D:/iot/felix2/components/connectivity/lwm2m/core\data.c ****         bool isResourceInstance;
 675:D:/iot/felix2/components/connectivity/lwm2m/core\data.c **** 
 676:D:/iot/felix2/components/connectivity/lwm2m/core\data.c ****         if (uriP != NULL && LWM2M_URI_IS_SET_RESOURCE(uriP)
 2197              		.loc 2 676 0
 2198 00e8 FB68     		ldr	r3, [r7, #12]
 2199 00ea 002B     		cmp	r3, #0
 2200 00ec 11D0     		beq	.L161
 2201              		.loc 2 676 0 is_stmt 0 discriminator 1
 2202 00ee FB68     		ldr	r3, [r7, #12]
 2203 00f0 1B78     		ldrb	r3, [r3]	@ zero_extendqisi2
 2204 00f2 03F00103 		and	r3, r3, #1
 2205 00f6 002B     		cmp	r3, #0
 2206 00f8 0BD0     		beq	.L161
 677:D:/iot/felix2/components/connectivity/lwm2m/core\data.c ****                 && (size != 1 || dataP->id != uriP->resourceId))
 2207              		.loc 2 677 0 is_stmt 1
 2208 00fa BB68     		ldr	r3, [r7, #8]
 2209 00fc 012B     		cmp	r3, #1
 2210 00fe 05D1     		bne	.L162
 2211              		.loc 2 677 0 is_stmt 0 discriminator 1
 2212 0100 7B68     		ldr	r3, [r7, #4]
 2213 0102 5A88     		ldrh	r2, [r3, #2]
 2214 0104 FB68     		ldr	r3, [r7, #12]
 2215 0106 DB88     		ldrh	r3, [r3, #6]
 2216 0108 9A42     		cmp	r2, r3
 2217 010a 02D0     		beq	.L161
 2218              	.L162:
 678:D:/iot/felix2/components/connectivity/lwm2m/core\data.c ****         {
ARM GAS  C:\Users\91458\AppData\Local\Temp\ccCkQMas.s 			page 58


 679:D:/iot/felix2/components/connectivity/lwm2m/core\data.c ****             isResourceInstance = true;
 2219              		.loc 2 679 0 is_stmt 1
 2220 010c 0123     		movs	r3, #1
 2221 010e FB75     		strb	r3, [r7, #23]
 2222 0110 01E0     		b	.L163
 2223              	.L161:
 680:D:/iot/felix2/components/connectivity/lwm2m/core\data.c ****         }
 681:D:/iot/felix2/components/connectivity/lwm2m/core\data.c ****         else
 682:D:/iot/felix2/components/connectivity/lwm2m/core\data.c ****         {
 683:D:/iot/felix2/components/connectivity/lwm2m/core\data.c ****             isResourceInstance = false;
 2224              		.loc 2 683 0
 2225 0112 0023     		movs	r3, #0
 2226 0114 FB75     		strb	r3, [r7, #23]
 2227              	.L163:
 684:D:/iot/felix2/components/connectivity/lwm2m/core\data.c ****         }
 685:D:/iot/felix2/components/connectivity/lwm2m/core\data.c ****         return tlv_serialize(isResourceInstance, size, dataP, bufferP);
 2228              		.loc 2 685 0
 2229 0116 F87D     		ldrb	r0, [r7, #23]	@ zero_extendqisi2
 2230 0118 3B6A     		ldr	r3, [r7, #32]
 2231 011a 7A68     		ldr	r2, [r7, #4]
 2232 011c B968     		ldr	r1, [r7, #8]
 2233 011e FFF7FEFF 		bl	tlv_serialize
 2234 0122 0346     		mov	r3, r0
 2235 0124 0DE0     		b	.L152
 2236              	.L158:
 2237              	.LBE9:
 686:D:/iot/felix2/components/connectivity/lwm2m/core\data.c ****     }
 687:D:/iot/felix2/components/connectivity/lwm2m/core\data.c **** 
 688:D:/iot/felix2/components/connectivity/lwm2m/core\data.c **** #ifdef LWM2M_CLIENT_MODE
 689:D:/iot/felix2/components/connectivity/lwm2m/core\data.c ****     case LWM2M_CONTENT_LINK:
 690:D:/iot/felix2/components/connectivity/lwm2m/core\data.c ****         return discover_serialize(NULL, uriP, NULL, size, dataP, bufferP);
 2238              		.loc 2 690 0
 2239 0126 3B6A     		ldr	r3, [r7, #32]
 2240 0128 0193     		str	r3, [sp, #4]
 2241 012a 7B68     		ldr	r3, [r7, #4]
 2242 012c 0093     		str	r3, [sp]
 2243 012e BB68     		ldr	r3, [r7, #8]
 2244 0130 0022     		movs	r2, #0
 2245 0132 F968     		ldr	r1, [r7, #12]
 2246 0134 0020     		movs	r0, #0
 2247 0136 FFF7FEFF 		bl	discover_serialize
 2248 013a 0346     		mov	r3, r0
 2249 013c 01E0     		b	.L152
 2250              	.L154:
 691:D:/iot/felix2/components/connectivity/lwm2m/core\data.c **** #endif
 692:D:/iot/felix2/components/connectivity/lwm2m/core\data.c **** #ifdef LWM2M_SUPPORT_JSON
 693:D:/iot/felix2/components/connectivity/lwm2m/core\data.c ****     case LWM2M_CONTENT_JSON:
 694:D:/iot/felix2/components/connectivity/lwm2m/core\data.c ****     case LWM2M_CONTENT_JSON_OLD:
 695:D:/iot/felix2/components/connectivity/lwm2m/core\data.c ****         return json_serialize(uriP, size, dataP, bufferP);
 696:D:/iot/felix2/components/connectivity/lwm2m/core\data.c **** #endif
 697:D:/iot/felix2/components/connectivity/lwm2m/core\data.c **** 
 698:D:/iot/felix2/components/connectivity/lwm2m/core\data.c ****     default:
 699:D:/iot/felix2/components/connectivity/lwm2m/core\data.c ****         return -1;
 2251              		.loc 2 699 0
 2252 013e 4FF0FF33 		mov	r3, #-1
 2253              	.L152:
 700:D:/iot/felix2/components/connectivity/lwm2m/core\data.c ****     }
ARM GAS  C:\Users\91458\AppData\Local\Temp\ccCkQMas.s 			page 59


 701:D:/iot/felix2/components/connectivity/lwm2m/core\data.c **** }
 2254              		.loc 2 701 0
 2255 0142 1846     		mov	r0, r3
 2256 0144 1837     		adds	r7, r7, #24
 2257              	.LCFI105:
 2258              		.cfi_def_cfa_offset 8
 2259 0146 BD46     		mov	sp, r7
 2260              	.LCFI106:
 2261              		.cfi_def_cfa_register 13
 2262              		@ sp needed
 2263 0148 80BD     		pop	{r7, pc}
 2264              		.cfi_endproc
 2265              	.LFE152:
 2267              		.text
 2268              	.Letext0:
 2269              		.file 3 "d:\\liteos studio\\resources\\arm-none-eabi\\arm-none-eabi\\include\\machine\\_default_ty
 2270              		.file 4 "d:\\liteos studio\\resources\\arm-none-eabi\\arm-none-eabi\\include\\sys\\_stdint.h"
 2271              		.file 5 "d:\\liteos studio\\resources\\arm-none-eabi\\lib\\gcc\\arm-none-eabi\\7.3.1\\include\\std
 2272              		.file 6 "d:\\liteos studio\\resources\\arm-none-eabi\\arm-none-eabi\\include\\sys\\lock.h"
 2273              		.file 7 "d:\\liteos studio\\resources\\arm-none-eabi\\arm-none-eabi\\include\\sys\\_types.h"
 2274              		.file 8 "d:\\liteos studio\\resources\\arm-none-eabi\\arm-none-eabi\\include\\sys\\reent.h"
 2275              		.file 9 "d:\\liteos studio\\resources\\arm-none-eabi\\arm-none-eabi\\include\\time.h"
 2276              		.file 10 "D:/iot/felix2/components/connectivity/lwm2m/core/er-coap-13/er-coap-13.h"
 2277              		.file 11 "D:/iot/felix2/kernel/include/los_typedef.h"
 2278              		.file 12 "D:/iot/felix2/arch/arm/common/cmsis/core_cm4.h"
 2279              		.file 13 "D:/iot/felix2/targets/Cloud_STM32L431_BearPi/Inc/system_stm32l4xx.h"
 2280              		.file 14 "D:/iot/felix2/kernel/include/los_list.h"
 2281              		.file 15 "D:/iot/felix2/kernel/include/los_err.h"
 2282              		.file 16 "D:/iot/felix2/arch/arm/arm-m/include/los_hwi.h"
 2283              		.file 17 "D:/iot/felix2/kernel/include/los_tick.h"
 2284              		.file 18 "D:/iot/felix2/kernel/include/los_event.h"
 2285              		.file 19 "D:/iot/felix2/kernel/include/los_task.h"
 2286              		.file 20 "D:/iot/felix2/kernel/base/include/los_task.ph"
 2287              		.file 21 "D:/iot/felix2/targets/Cloud_STM32L431_BearPi/Inc/main.h"
 2288              		.file 22 "D:/iot/felix2/targets/Cloud_STM32L431_BearPi/OS_CONFIG/target_config.h"
 2289              		.file 23 "D:/iot/felix2/kernel/include/los_config.h"
 2290              		.file 24 "D:/iot/felix2/components/connectivity/lwm2m/core/liblwm2m.h"
 2291              		.file 25 "d:\\liteos studio\\resources\\arm-none-eabi\\arm-none-eabi\\include\\stdlib.h"
 2292              		.file 26 "d:\\liteos studio\\resources\\arm-none-eabi\\arm-none-eabi\\include\\ctype.h"
ARM GAS  C:\Users\91458\AppData\Local\Temp\ccCkQMas.s 			page 60

