ARM GAS  C:\Users\91458\AppData\Local\Temp\cc2AQj9q.s 			page 1


   1              		.cpu cortex-m4
   2              		.eabi_attribute 27, 1
   3              		.eabi_attribute 28, 1
   4              		.eabi_attribute 20, 1
   5              		.eabi_attribute 21, 1
   6              		.eabi_attribute 23, 3
   7              		.eabi_attribute 24, 1
   8              		.eabi_attribute 25, 1
   9              		.eabi_attribute 26, 1
  10              		.eabi_attribute 30, 6
  11              		.eabi_attribute 34, 1
  12              		.eabi_attribute 18, 4
  13              		.file	"los_task.c"
  14              		.text
  15              	.Ltext0:
  16              		.cfi_sections	.debug_frame
  17              		.section	.text.LOS_ListInit,"ax",%progbits
  18              		.align	1
  19              		.syntax unified
  20              		.thumb
  21              		.thumb_func
  22              		.fpu fpv4-sp-d16
  24              	LOS_ListInit:
  25              	.LFB123:
  26              		.file 1 "D:/iot/felix2/kernel/include/los_list.h"
   1:D:/iot/felix2/kernel/include\los_list.h **** /*----------------------------------------------------------------------------
   2:D:/iot/felix2/kernel/include\los_list.h ****  * Copyright (c) <2013-2015>, <Huawei Technologies Co., Ltd>
   3:D:/iot/felix2/kernel/include\los_list.h ****  * All rights reserved.
   4:D:/iot/felix2/kernel/include\los_list.h ****  * Redistribution and use in source and binary forms, with or without modification,
   5:D:/iot/felix2/kernel/include\los_list.h ****  * are permitted provided that the following conditions are met:
   6:D:/iot/felix2/kernel/include\los_list.h ****  * 1. Redistributions of source code must retain the above copyright notice, this list of
   7:D:/iot/felix2/kernel/include\los_list.h ****  * conditions and the following disclaimer.
   8:D:/iot/felix2/kernel/include\los_list.h ****  * 2. Redistributions in binary form must reproduce the above copyright notice, this list
   9:D:/iot/felix2/kernel/include\los_list.h ****  * of conditions and the following disclaimer in the documentation and/or other materials
  10:D:/iot/felix2/kernel/include\los_list.h ****  * provided with the distribution.
  11:D:/iot/felix2/kernel/include\los_list.h ****  * 3. Neither the name of the copyright holder nor the names of its contributors may be used
  12:D:/iot/felix2/kernel/include\los_list.h ****  * to endorse or promote products derived from this software without specific prior written
  13:D:/iot/felix2/kernel/include\los_list.h ****  * permission.
  14:D:/iot/felix2/kernel/include\los_list.h ****  * THIS SOFTWARE IS PROVIDED BY THE COPYRIGHT HOLDERS AND CONTRIBUTORS
  15:D:/iot/felix2/kernel/include\los_list.h ****  * "AS IS" AND ANY EXPRESS OR IMPLIED WARRANTIES, INCLUDING, BUT NOT LIMITED TO,
  16:D:/iot/felix2/kernel/include\los_list.h ****  * THE IMPLIED WARRANTIES OF MERCHANTABILITY AND FITNESS FOR A PARTICULAR
  17:D:/iot/felix2/kernel/include\los_list.h ****  * PURPOSE ARE DISCLAIMED. IN NO EVENT SHALL THE COPYRIGHT HOLDER OR
  18:D:/iot/felix2/kernel/include\los_list.h ****  * CONTRIBUTORS BE LIABLE FOR ANY DIRECT, INDIRECT, INCIDENTAL, SPECIAL,
  19:D:/iot/felix2/kernel/include\los_list.h ****  * EXEMPLARY, OR CONSEQUENTIAL DAMAGES (INCLUDING, BUT NOT LIMITED TO,
  20:D:/iot/felix2/kernel/include\los_list.h ****  * PROCUREMENT OF SUBSTITUTE GOODS OR SERVICES; LOSS OF USE, DATA, OR PROFITS;
  21:D:/iot/felix2/kernel/include\los_list.h ****  * OR BUSINESS INTERRUPTION) HOWEVER CAUSED AND ON ANY THEORY OF LIABILITY,
  22:D:/iot/felix2/kernel/include\los_list.h ****  * WHETHER IN CONTRACT, STRICT LIABILITY, OR TORT (INCLUDING NEGLIGENCE OR
  23:D:/iot/felix2/kernel/include\los_list.h ****  * OTHERWISE) ARISING IN ANY WAY OUT OF THE USE OF THIS SOFTWARE, EVEN IF
  24:D:/iot/felix2/kernel/include\los_list.h ****  * ADVISED OF THE POSSIBILITY OF SUCH DAMAGE.
  25:D:/iot/felix2/kernel/include\los_list.h ****  *---------------------------------------------------------------------------*/
  26:D:/iot/felix2/kernel/include\los_list.h **** /*----------------------------------------------------------------------------
  27:D:/iot/felix2/kernel/include\los_list.h ****  * Notice of Export Control Law
  28:D:/iot/felix2/kernel/include\los_list.h ****  * ===============================================
  29:D:/iot/felix2/kernel/include\los_list.h ****  * Huawei LiteOS may be subject to applicable export control laws and regulations, which might
  30:D:/iot/felix2/kernel/include\los_list.h ****  * include those applicable to Huawei LiteOS of U.S. and the country in which you are located.
  31:D:/iot/felix2/kernel/include\los_list.h ****  * Import, export and usage of Huawei LiteOS in any manner by you shall be in compliance with such
  32:D:/iot/felix2/kernel/include\los_list.h ****  * applicable export control laws and regulations.
ARM GAS  C:\Users\91458\AppData\Local\Temp\cc2AQj9q.s 			page 2


  33:D:/iot/felix2/kernel/include\los_list.h ****  *---------------------------------------------------------------------------*/
  34:D:/iot/felix2/kernel/include\los_list.h **** 
  35:D:/iot/felix2/kernel/include\los_list.h ****  /** @defgroup los_list Doubly linked list
  36:D:/iot/felix2/kernel/include\los_list.h ****  * @ingroup kernel
  37:D:/iot/felix2/kernel/include\los_list.h ****  */
  38:D:/iot/felix2/kernel/include\los_list.h **** 
  39:D:/iot/felix2/kernel/include\los_list.h **** #ifndef _LOS_LIST_H
  40:D:/iot/felix2/kernel/include\los_list.h **** #define _LOS_LIST_H
  41:D:/iot/felix2/kernel/include\los_list.h **** 
  42:D:/iot/felix2/kernel/include\los_list.h **** #include "los_typedef.h"
  43:D:/iot/felix2/kernel/include\los_list.h **** 
  44:D:/iot/felix2/kernel/include\los_list.h **** #ifdef __cplusplus
  45:D:/iot/felix2/kernel/include\los_list.h **** #if __cplusplus
  46:D:/iot/felix2/kernel/include\los_list.h **** extern "C" {
  47:D:/iot/felix2/kernel/include\los_list.h **** #endif /* __cplusplus */
  48:D:/iot/felix2/kernel/include\los_list.h **** #endif /* __cplusplus */
  49:D:/iot/felix2/kernel/include\los_list.h **** 
  50:D:/iot/felix2/kernel/include\los_list.h **** 
  51:D:/iot/felix2/kernel/include\los_list.h **** /**
  52:D:/iot/felix2/kernel/include\los_list.h ****  *@ingroup los_list
  53:D:/iot/felix2/kernel/include\los_list.h ****  *Structure of a node in a doubly linked list.
  54:D:/iot/felix2/kernel/include\los_list.h ****  */
  55:D:/iot/felix2/kernel/include\los_list.h **** typedef struct LOS_DL_LIST
  56:D:/iot/felix2/kernel/include\los_list.h **** {
  57:D:/iot/felix2/kernel/include\los_list.h ****     struct LOS_DL_LIST *pstPrev;            /**< Current node's pointer to the previous node*/
  58:D:/iot/felix2/kernel/include\los_list.h ****     struct LOS_DL_LIST *pstNext;            /**< Current node's pointer to the next node*/
  59:D:/iot/felix2/kernel/include\los_list.h **** } LOS_DL_LIST;
  60:D:/iot/felix2/kernel/include\los_list.h **** 
  61:D:/iot/felix2/kernel/include\los_list.h **** /**
  62:D:/iot/felix2/kernel/include\los_list.h ****  *@ingroup los_list
  63:D:/iot/felix2/kernel/include\los_list.h ****  *@brief Initialize a doubly linked list.
  64:D:/iot/felix2/kernel/include\los_list.h ****  *
  65:D:/iot/felix2/kernel/include\los_list.h ****  *@par Description:
  66:D:/iot/felix2/kernel/include\los_list.h ****  *This API is used to initialize a doubly linked list.
  67:D:/iot/felix2/kernel/include\los_list.h ****  *@attention
  68:D:/iot/felix2/kernel/include\los_list.h ****  *<ul>
  69:D:/iot/felix2/kernel/include\los_list.h ****  *<li>The parameter passed in should be ensured to be a legal pointer.</li>
  70:D:/iot/felix2/kernel/include\los_list.h ****  *</ul>
  71:D:/iot/felix2/kernel/include\los_list.h ****  *
  72:D:/iot/felix2/kernel/include\los_list.h ****  *@param pstList    [IN] Node in a doubly linked list.
  73:D:/iot/felix2/kernel/include\los_list.h ****  *
  74:D:/iot/felix2/kernel/include\los_list.h ****  *@retval None.
  75:D:/iot/felix2/kernel/include\los_list.h ****  *@par Dependency:
  76:D:/iot/felix2/kernel/include\los_list.h ****  *<ul><li>los_list.h: the header file that contains the API declaration.</li></ul>
  77:D:/iot/felix2/kernel/include\los_list.h ****  *@see
  78:D:/iot/felix2/kernel/include\los_list.h ****  *@since Huawei LiteOS V100R001C00
  79:D:/iot/felix2/kernel/include\los_list.h ****  */
  80:D:/iot/felix2/kernel/include\los_list.h **** LITE_OS_SEC_ALW_INLINE STATIC_INLINE VOID LOS_ListInit(LOS_DL_LIST *pstList)
  81:D:/iot/felix2/kernel/include\los_list.h **** {
  27              		.loc 1 81 0
  28              		.cfi_startproc
  29              		@ args = 0, pretend = 0, frame = 8
  30              		@ frame_needed = 1, uses_anonymous_args = 0
  31              		@ link register save eliminated.
  32 0000 80B4     		push	{r7}
  33              	.LCFI0:
  34              		.cfi_def_cfa_offset 4
ARM GAS  C:\Users\91458\AppData\Local\Temp\cc2AQj9q.s 			page 3


  35              		.cfi_offset 7, -4
  36 0002 83B0     		sub	sp, sp, #12
  37              	.LCFI1:
  38              		.cfi_def_cfa_offset 16
  39 0004 00AF     		add	r7, sp, #0
  40              	.LCFI2:
  41              		.cfi_def_cfa_register 7
  42 0006 7860     		str	r0, [r7, #4]
  82:D:/iot/felix2/kernel/include\los_list.h ****     pstList->pstNext = pstList;
  43              		.loc 1 82 0
  44 0008 7B68     		ldr	r3, [r7, #4]
  45 000a 7A68     		ldr	r2, [r7, #4]
  46 000c 5A60     		str	r2, [r3, #4]
  83:D:/iot/felix2/kernel/include\los_list.h ****     pstList->pstPrev = pstList;
  47              		.loc 1 83 0
  48 000e 7B68     		ldr	r3, [r7, #4]
  49 0010 7A68     		ldr	r2, [r7, #4]
  50 0012 1A60     		str	r2, [r3]
  84:D:/iot/felix2/kernel/include\los_list.h **** }
  51              		.loc 1 84 0
  52 0014 00BF     		nop
  53 0016 0C37     		adds	r7, r7, #12
  54              	.LCFI3:
  55              		.cfi_def_cfa_offset 4
  56 0018 BD46     		mov	sp, r7
  57              	.LCFI4:
  58              		.cfi_def_cfa_register 13
  59              		@ sp needed
  60 001a 5DF8047B 		ldr	r7, [sp], #4
  61              	.LCFI5:
  62              		.cfi_restore 7
  63              		.cfi_def_cfa_offset 0
  64 001e 7047     		bx	lr
  65              		.cfi_endproc
  66              	.LFE123:
  68              		.section	.text.LOS_ListAdd,"ax",%progbits
  69              		.align	1
  70              		.syntax unified
  71              		.thumb
  72              		.thumb_func
  73              		.fpu fpv4-sp-d16
  75              	LOS_ListAdd:
  76              	.LFB124:
  85:D:/iot/felix2/kernel/include\los_list.h **** 
  86:D:/iot/felix2/kernel/include\los_list.h **** /**
  87:D:/iot/felix2/kernel/include\los_list.h ****  *@ingroup los_list
  88:D:/iot/felix2/kernel/include\los_list.h ****  *@brief Point to the next node pointed to by the current node.
  89:D:/iot/felix2/kernel/include\los_list.h ****  *
  90:D:/iot/felix2/kernel/include\los_list.h ****  *@par Description:
  91:D:/iot/felix2/kernel/include\los_list.h ****  *<ul>
  92:D:/iot/felix2/kernel/include\los_list.h ****  *<li>This API is used to point to the next node pointed to by the current node.</li>
  93:D:/iot/felix2/kernel/include\los_list.h ****  *</ul>
  94:D:/iot/felix2/kernel/include\los_list.h ****  *@attention
  95:D:/iot/felix2/kernel/include\los_list.h ****  *<ul>
  96:D:/iot/felix2/kernel/include\los_list.h ****  *<li>None.</li>
  97:D:/iot/felix2/kernel/include\los_list.h ****  *</ul>
  98:D:/iot/felix2/kernel/include\los_list.h ****  *
ARM GAS  C:\Users\91458\AppData\Local\Temp\cc2AQj9q.s 			page 4


  99:D:/iot/felix2/kernel/include\los_list.h ****  *@param pstObject  [IN] Node in the doubly linked list.
 100:D:/iot/felix2/kernel/include\los_list.h ****  *
 101:D:/iot/felix2/kernel/include\los_list.h ****  *@retval None.
 102:D:/iot/felix2/kernel/include\los_list.h ****  *@par Dependency:
 103:D:/iot/felix2/kernel/include\los_list.h ****  *<ul><li>los_list.h: the header file that contains the API declaration.</li></ul>
 104:D:/iot/felix2/kernel/include\los_list.h ****  *@see
 105:D:/iot/felix2/kernel/include\los_list.h ****  *@since Huawei LiteOS V100R001C00
 106:D:/iot/felix2/kernel/include\los_list.h ****  */
 107:D:/iot/felix2/kernel/include\los_list.h **** #define LOS_DL_LIST_FIRST(pstObject) ((pstObject)->pstNext)
 108:D:/iot/felix2/kernel/include\los_list.h **** 
 109:D:/iot/felix2/kernel/include\los_list.h **** /**
 110:D:/iot/felix2/kernel/include\los_list.h ****  *@ingroup los_list
 111:D:/iot/felix2/kernel/include\los_list.h ****  *@brief Insert a new node to a doubly linked list.
 112:D:/iot/felix2/kernel/include\los_list.h ****  *
 113:D:/iot/felix2/kernel/include\los_list.h ****  *@par Description:
 114:D:/iot/felix2/kernel/include\los_list.h ****  *This API is used to insert a new node to a doubly linked list.
 115:D:/iot/felix2/kernel/include\los_list.h ****  *@attention
 116:D:/iot/felix2/kernel/include\los_list.h ****  *<ul>
 117:D:/iot/felix2/kernel/include\los_list.h ****  *<li>The parameters passed in should be ensured to be legal pointers.</li>
 118:D:/iot/felix2/kernel/include\los_list.h ****  *</ul>
 119:D:/iot/felix2/kernel/include\los_list.h ****  *
 120:D:/iot/felix2/kernel/include\los_list.h ****  *@param pstList    [IN]   Doubly linked list where the new node is inserted.
 121:D:/iot/felix2/kernel/include\los_list.h ****  *@param pstNode    [IN]   New node to be inserted.
 122:D:/iot/felix2/kernel/include\los_list.h ****  *
 123:D:/iot/felix2/kernel/include\los_list.h ****  *@retval None
 124:D:/iot/felix2/kernel/include\los_list.h ****  *@par Dependency:
 125:D:/iot/felix2/kernel/include\los_list.h ****  *<ul><li>los_list.h: the header file that contains the API declaration.</li></ul>
 126:D:/iot/felix2/kernel/include\los_list.h ****  *@see LOS_ListDelete
 127:D:/iot/felix2/kernel/include\los_list.h ****  *@since Huawei LiteOS V100R001C00
 128:D:/iot/felix2/kernel/include\los_list.h ****  */
 129:D:/iot/felix2/kernel/include\los_list.h **** LITE_OS_SEC_ALW_INLINE STATIC_INLINE VOID LOS_ListAdd(LOS_DL_LIST *pstList, LOS_DL_LIST *pstNode)
 130:D:/iot/felix2/kernel/include\los_list.h **** {
  77              		.loc 1 130 0
  78              		.cfi_startproc
  79              		@ args = 0, pretend = 0, frame = 8
  80              		@ frame_needed = 1, uses_anonymous_args = 0
  81              		@ link register save eliminated.
  82 0000 80B4     		push	{r7}
  83              	.LCFI6:
  84              		.cfi_def_cfa_offset 4
  85              		.cfi_offset 7, -4
  86 0002 83B0     		sub	sp, sp, #12
  87              	.LCFI7:
  88              		.cfi_def_cfa_offset 16
  89 0004 00AF     		add	r7, sp, #0
  90              	.LCFI8:
  91              		.cfi_def_cfa_register 7
  92 0006 7860     		str	r0, [r7, #4]
  93 0008 3960     		str	r1, [r7]
 131:D:/iot/felix2/kernel/include\los_list.h ****     pstNode->pstNext = pstList->pstNext;
  94              		.loc 1 131 0
  95 000a 7B68     		ldr	r3, [r7, #4]
  96 000c 5A68     		ldr	r2, [r3, #4]
  97 000e 3B68     		ldr	r3, [r7]
  98 0010 5A60     		str	r2, [r3, #4]
 132:D:/iot/felix2/kernel/include\los_list.h ****     pstNode->pstPrev = pstList;
  99              		.loc 1 132 0
ARM GAS  C:\Users\91458\AppData\Local\Temp\cc2AQj9q.s 			page 5


 100 0012 3B68     		ldr	r3, [r7]
 101 0014 7A68     		ldr	r2, [r7, #4]
 102 0016 1A60     		str	r2, [r3]
 133:D:/iot/felix2/kernel/include\los_list.h ****     pstList->pstNext->pstPrev = pstNode;
 103              		.loc 1 133 0
 104 0018 7B68     		ldr	r3, [r7, #4]
 105 001a 5B68     		ldr	r3, [r3, #4]
 106 001c 3A68     		ldr	r2, [r7]
 107 001e 1A60     		str	r2, [r3]
 134:D:/iot/felix2/kernel/include\los_list.h ****     pstList->pstNext = pstNode;
 108              		.loc 1 134 0
 109 0020 7B68     		ldr	r3, [r7, #4]
 110 0022 3A68     		ldr	r2, [r7]
 111 0024 5A60     		str	r2, [r3, #4]
 135:D:/iot/felix2/kernel/include\los_list.h **** }
 112              		.loc 1 135 0
 113 0026 00BF     		nop
 114 0028 0C37     		adds	r7, r7, #12
 115              	.LCFI9:
 116              		.cfi_def_cfa_offset 4
 117 002a BD46     		mov	sp, r7
 118              	.LCFI10:
 119              		.cfi_def_cfa_register 13
 120              		@ sp needed
 121 002c 5DF8047B 		ldr	r7, [sp], #4
 122              	.LCFI11:
 123              		.cfi_restore 7
 124              		.cfi_def_cfa_offset 0
 125 0030 7047     		bx	lr
 126              		.cfi_endproc
 127              	.LFE124:
 129              		.section	.text.LOS_ListTailInsert,"ax",%progbits
 130              		.align	1
 131              		.syntax unified
 132              		.thumb
 133              		.thumb_func
 134              		.fpu fpv4-sp-d16
 136              	LOS_ListTailInsert:
 137              	.LFB125:
 136:D:/iot/felix2/kernel/include\los_list.h **** 
 137:D:/iot/felix2/kernel/include\los_list.h **** /**
 138:D:/iot/felix2/kernel/include\los_list.h ****  *@ingroup los_list
 139:D:/iot/felix2/kernel/include\los_list.h ****  *@brief Insert a node to the tail of a doubly linked list.
 140:D:/iot/felix2/kernel/include\los_list.h ****  *
 141:D:/iot/felix2/kernel/include\los_list.h ****  *@par Description:
 142:D:/iot/felix2/kernel/include\los_list.h ****  *This API is used to insert a new node to the tail of a doubly linked list.
 143:D:/iot/felix2/kernel/include\los_list.h ****  *@attention
 144:D:/iot/felix2/kernel/include\los_list.h ****  *<ul>
 145:D:/iot/felix2/kernel/include\los_list.h ****  *<li>The parameters passed in should be ensured to be legal pointers.</li>
 146:D:/iot/felix2/kernel/include\los_list.h ****  *</ul>
 147:D:/iot/felix2/kernel/include\los_list.h ****  *
 148:D:/iot/felix2/kernel/include\los_list.h ****  *@param pstList     [IN] Doubly linked list where the new node is inserted.
 149:D:/iot/felix2/kernel/include\los_list.h ****  *@param pstNode     [IN] New node to be inserted.
 150:D:/iot/felix2/kernel/include\los_list.h ****  *
 151:D:/iot/felix2/kernel/include\los_list.h ****  *@retval None.
 152:D:/iot/felix2/kernel/include\los_list.h ****  *@par Dependency:
 153:D:/iot/felix2/kernel/include\los_list.h ****  *<ul><li>los_list.h: the header file that contains the API declaration.</li></ul>
ARM GAS  C:\Users\91458\AppData\Local\Temp\cc2AQj9q.s 			page 6


 154:D:/iot/felix2/kernel/include\los_list.h ****  *@see LOS_ListAdd | LOS_ListHeadInsert
 155:D:/iot/felix2/kernel/include\los_list.h ****  *@since Huawei LiteOS V100R001C00
 156:D:/iot/felix2/kernel/include\los_list.h ****  */
 157:D:/iot/felix2/kernel/include\los_list.h **** LITE_OS_SEC_ALW_INLINE STATIC_INLINE VOID LOS_ListTailInsert(LOS_DL_LIST *pstList, LOS_DL_LIST *pst
 158:D:/iot/felix2/kernel/include\los_list.h **** {
 138              		.loc 1 158 0
 139              		.cfi_startproc
 140              		@ args = 0, pretend = 0, frame = 8
 141              		@ frame_needed = 1, uses_anonymous_args = 0
 142 0000 80B5     		push	{r7, lr}
 143              	.LCFI12:
 144              		.cfi_def_cfa_offset 8
 145              		.cfi_offset 7, -8
 146              		.cfi_offset 14, -4
 147 0002 82B0     		sub	sp, sp, #8
 148              	.LCFI13:
 149              		.cfi_def_cfa_offset 16
 150 0004 00AF     		add	r7, sp, #0
 151              	.LCFI14:
 152              		.cfi_def_cfa_register 7
 153 0006 7860     		str	r0, [r7, #4]
 154 0008 3960     		str	r1, [r7]
 159:D:/iot/felix2/kernel/include\los_list.h ****     LOS_ListAdd(pstList->pstPrev, pstNode);
 155              		.loc 1 159 0
 156 000a 7B68     		ldr	r3, [r7, #4]
 157 000c 1B68     		ldr	r3, [r3]
 158 000e 3968     		ldr	r1, [r7]
 159 0010 1846     		mov	r0, r3
 160 0012 FFF7FEFF 		bl	LOS_ListAdd
 160:D:/iot/felix2/kernel/include\los_list.h **** }
 161              		.loc 1 160 0
 162 0016 00BF     		nop
 163 0018 0837     		adds	r7, r7, #8
 164              	.LCFI15:
 165              		.cfi_def_cfa_offset 8
 166 001a BD46     		mov	sp, r7
 167              	.LCFI16:
 168              		.cfi_def_cfa_register 13
 169              		@ sp needed
 170 001c 80BD     		pop	{r7, pc}
 171              		.cfi_endproc
 172              	.LFE125:
 174              		.section	.text.LOS_ListDelete,"ax",%progbits
 175              		.align	1
 176              		.syntax unified
 177              		.thumb
 178              		.thumb_func
 179              		.fpu fpv4-sp-d16
 181              	LOS_ListDelete:
 182              	.LFB126:
 161:D:/iot/felix2/kernel/include\los_list.h **** 
 162:D:/iot/felix2/kernel/include\los_list.h **** /**
 163:D:/iot/felix2/kernel/include\los_list.h ****  *@ingroup los_list
 164:D:/iot/felix2/kernel/include\los_list.h ****  *@brief Delete a specified node from a doubly linked list.
 165:D:/iot/felix2/kernel/include\los_list.h ****  *
 166:D:/iot/felix2/kernel/include\los_list.h ****  *@par Description:
 167:D:/iot/felix2/kernel/include\los_list.h ****  *<ul>
ARM GAS  C:\Users\91458\AppData\Local\Temp\cc2AQj9q.s 			page 7


 168:D:/iot/felix2/kernel/include\los_list.h ****  *<li>This API is used to delete a specified node from a doubly linked list.</li>
 169:D:/iot/felix2/kernel/include\los_list.h ****  *</ul>
 170:D:/iot/felix2/kernel/include\los_list.h ****  *@attention
 171:D:/iot/felix2/kernel/include\los_list.h ****  *<ul>
 172:D:/iot/felix2/kernel/include\los_list.h ****  *<li>The parameter passed in should be ensured to be a legal pointer.</li>
 173:D:/iot/felix2/kernel/include\los_list.h ****  *</ul>
 174:D:/iot/felix2/kernel/include\los_list.h ****  *
 175:D:/iot/felix2/kernel/include\los_list.h ****  *@param pstNode    [IN] Node to be deleted.
 176:D:/iot/felix2/kernel/include\los_list.h ****  *
 177:D:/iot/felix2/kernel/include\los_list.h ****  *@retval None.
 178:D:/iot/felix2/kernel/include\los_list.h ****  *@par Dependency:
 179:D:/iot/felix2/kernel/include\los_list.h ****  *<ul><li>los_list.h: the header file that contains the API declaration.</li></ul>
 180:D:/iot/felix2/kernel/include\los_list.h ****  *@see LOS_ListAdd
 181:D:/iot/felix2/kernel/include\los_list.h ****  *@since Huawei LiteOS V100R001C00
 182:D:/iot/felix2/kernel/include\los_list.h ****  */
 183:D:/iot/felix2/kernel/include\los_list.h **** LITE_OS_SEC_ALW_INLINE STATIC_INLINE VOID LOS_ListDelete(LOS_DL_LIST *pstNode)
 184:D:/iot/felix2/kernel/include\los_list.h **** {
 183              		.loc 1 184 0
 184              		.cfi_startproc
 185              		@ args = 0, pretend = 0, frame = 8
 186              		@ frame_needed = 1, uses_anonymous_args = 0
 187              		@ link register save eliminated.
 188 0000 80B4     		push	{r7}
 189              	.LCFI17:
 190              		.cfi_def_cfa_offset 4
 191              		.cfi_offset 7, -4
 192 0002 83B0     		sub	sp, sp, #12
 193              	.LCFI18:
 194              		.cfi_def_cfa_offset 16
 195 0004 00AF     		add	r7, sp, #0
 196              	.LCFI19:
 197              		.cfi_def_cfa_register 7
 198 0006 7860     		str	r0, [r7, #4]
 185:D:/iot/felix2/kernel/include\los_list.h ****     pstNode->pstNext->pstPrev = pstNode->pstPrev;
 199              		.loc 1 185 0
 200 0008 7B68     		ldr	r3, [r7, #4]
 201 000a 5B68     		ldr	r3, [r3, #4]
 202 000c 7A68     		ldr	r2, [r7, #4]
 203 000e 1268     		ldr	r2, [r2]
 204 0010 1A60     		str	r2, [r3]
 186:D:/iot/felix2/kernel/include\los_list.h ****     pstNode->pstPrev->pstNext = pstNode->pstNext;
 205              		.loc 1 186 0
 206 0012 7B68     		ldr	r3, [r7, #4]
 207 0014 1B68     		ldr	r3, [r3]
 208 0016 7A68     		ldr	r2, [r7, #4]
 209 0018 5268     		ldr	r2, [r2, #4]
 210 001a 5A60     		str	r2, [r3, #4]
 187:D:/iot/felix2/kernel/include\los_list.h ****     pstNode->pstNext = (LOS_DL_LIST *)NULL;
 211              		.loc 1 187 0
 212 001c 7B68     		ldr	r3, [r7, #4]
 213 001e 0022     		movs	r2, #0
 214 0020 5A60     		str	r2, [r3, #4]
 188:D:/iot/felix2/kernel/include\los_list.h ****     pstNode->pstPrev = (LOS_DL_LIST *)NULL;
 215              		.loc 1 188 0
 216 0022 7B68     		ldr	r3, [r7, #4]
 217 0024 0022     		movs	r2, #0
 218 0026 1A60     		str	r2, [r3]
ARM GAS  C:\Users\91458\AppData\Local\Temp\cc2AQj9q.s 			page 8


 189:D:/iot/felix2/kernel/include\los_list.h **** }
 219              		.loc 1 189 0
 220 0028 00BF     		nop
 221 002a 0C37     		adds	r7, r7, #12
 222              	.LCFI20:
 223              		.cfi_def_cfa_offset 4
 224 002c BD46     		mov	sp, r7
 225              	.LCFI21:
 226              		.cfi_def_cfa_register 13
 227              		@ sp needed
 228 002e 5DF8047B 		ldr	r7, [sp], #4
 229              	.LCFI22:
 230              		.cfi_restore 7
 231              		.cfi_def_cfa_offset 0
 232 0032 7047     		bx	lr
 233              		.cfi_endproc
 234              	.LFE126:
 236              		.section	.text.LOS_ListEmpty,"ax",%progbits
 237              		.align	1
 238              		.syntax unified
 239              		.thumb
 240              		.thumb_func
 241              		.fpu fpv4-sp-d16
 243              	LOS_ListEmpty:
 244              	.LFB127:
 190:D:/iot/felix2/kernel/include\los_list.h **** 
 191:D:/iot/felix2/kernel/include\los_list.h **** /**
 192:D:/iot/felix2/kernel/include\los_list.h ****  *@ingroup los_list
 193:D:/iot/felix2/kernel/include\los_list.h ****  *@brief Identify whether a specified doubly linked list is empty.
 194:D:/iot/felix2/kernel/include\los_list.h ****  *
 195:D:/iot/felix2/kernel/include\los_list.h ****  *@par Description:
 196:D:/iot/felix2/kernel/include\los_list.h ****  *<ul>
 197:D:/iot/felix2/kernel/include\los_list.h ****  *<li>This API is used to return whether a doubly linked list is empty.</li>
 198:D:/iot/felix2/kernel/include\los_list.h ****  *</ul>
 199:D:/iot/felix2/kernel/include\los_list.h ****  *@attention
 200:D:/iot/felix2/kernel/include\los_list.h ****  *<ul>
 201:D:/iot/felix2/kernel/include\los_list.h ****  *<li>The parameter passed in should be ensured to be a legal pointer.</li>
 202:D:/iot/felix2/kernel/include\los_list.h ****  *</ul>
 203:D:/iot/felix2/kernel/include\los_list.h ****  *
 204:D:/iot/felix2/kernel/include\los_list.h ****  *@param pstList  [IN] Doubly linked list.
 205:D:/iot/felix2/kernel/include\los_list.h ****  *
 206:D:/iot/felix2/kernel/include\los_list.h ****  *@retval TRUE The doubly linked list is empty.
 207:D:/iot/felix2/kernel/include\los_list.h ****  *@retval FALSE The doubly linked list is not empty.
 208:D:/iot/felix2/kernel/include\los_list.h ****  *@par Dependency:
 209:D:/iot/felix2/kernel/include\los_list.h ****  *<ul><li>los_list.h: the header file that contains the API declaration.</li></ul>
 210:D:/iot/felix2/kernel/include\los_list.h ****  *@see
 211:D:/iot/felix2/kernel/include\los_list.h ****  *@since Huawei LiteOS V100R001C00
 212:D:/iot/felix2/kernel/include\los_list.h ****  */
 213:D:/iot/felix2/kernel/include\los_list.h **** LITE_OS_SEC_ALW_INLINE STATIC_INLINE BOOL LOS_ListEmpty(LOS_DL_LIST *pstNode)
 214:D:/iot/felix2/kernel/include\los_list.h **** {
 245              		.loc 1 214 0
 246              		.cfi_startproc
 247              		@ args = 0, pretend = 0, frame = 8
 248              		@ frame_needed = 1, uses_anonymous_args = 0
 249              		@ link register save eliminated.
 250 0000 80B4     		push	{r7}
 251              	.LCFI23:
ARM GAS  C:\Users\91458\AppData\Local\Temp\cc2AQj9q.s 			page 9


 252              		.cfi_def_cfa_offset 4
 253              		.cfi_offset 7, -4
 254 0002 83B0     		sub	sp, sp, #12
 255              	.LCFI24:
 256              		.cfi_def_cfa_offset 16
 257 0004 00AF     		add	r7, sp, #0
 258              	.LCFI25:
 259              		.cfi_def_cfa_register 7
 260 0006 7860     		str	r0, [r7, #4]
 215:D:/iot/felix2/kernel/include\los_list.h ****     return (BOOL)(pstNode->pstNext == pstNode);
 261              		.loc 1 215 0
 262 0008 7B68     		ldr	r3, [r7, #4]
 263 000a 5B68     		ldr	r3, [r3, #4]
 264 000c 7A68     		ldr	r2, [r7, #4]
 265 000e 9A42     		cmp	r2, r3
 266 0010 0CBF     		ite	eq
 267 0012 0123     		moveq	r3, #1
 268 0014 0023     		movne	r3, #0
 269 0016 DBB2     		uxtb	r3, r3
 216:D:/iot/felix2/kernel/include\los_list.h **** }
 270              		.loc 1 216 0
 271 0018 1846     		mov	r0, r3
 272 001a 0C37     		adds	r7, r7, #12
 273              	.LCFI26:
 274              		.cfi_def_cfa_offset 4
 275 001c BD46     		mov	sp, r7
 276              	.LCFI27:
 277              		.cfi_def_cfa_register 13
 278              		@ sp needed
 279 001e 5DF8047B 		ldr	r7, [sp], #4
 280              	.LCFI28:
 281              		.cfi_restore 7
 282              		.cfi_def_cfa_offset 0
 283 0022 7047     		bx	lr
 284              		.cfi_endproc
 285              	.LFE127:
 287              		.comm	g_pstTaskCBArray,4,4
 288              		.comm	g_stLosTask,8,4
 289              		.comm	g_usLosTaskLock,2,2
 290              		.comm	g_uwTskMaxNum,4,4
 291              		.comm	g_uwIdleTaskID,4,4
 292              		.comm	g_uwSwtmrTaskID,4,4
 293              		.comm	g_stTaskTimerList,8,4
 294              		.comm	g_stLosFreeTask,8,4
 295              		.comm	g_stTskRecyleList,8,4
 296              		.comm	g_stTskSortLink,8,4
 297              		.comm	g_bTaskScheduled,4,4
 298              		.global	g_pfnTskSwitchHook
 299              		.section	.bss.g_pfnTskSwitchHook,"aw",%nobits
 300              		.align	2
 303              	g_pfnTskSwitchHook:
 304 0000 00000000 		.space	4
 305              		.global	g_pfnUsrTskSwitchHook
 306              		.section	.bss.g_pfnUsrTskSwitchHook,"aw",%nobits
 307              		.align	2
 310              	g_pfnUsrTskSwitchHook:
 311 0000 00000000 		.space	4
ARM GAS  C:\Users\91458\AppData\Local\Temp\cc2AQj9q.s 			page 10


 312              		.comm	g_astTskSwitchInfo,342,4
 313              		.section	.text.osIdleTask,"ax",%progbits
 314              		.align	1
 315              		.weak	osIdleTask
 316              		.syntax unified
 317              		.thumb
 318              		.thumb_func
 319              		.fpu fpv4-sp-d16
 321              	osIdleTask:
 322              	.LFB133:
 323              		.file 2 "D:/iot/felix2/kernel/base/core/los_task.c"
   1:D:/iot/felix2/kernel/base/core\los_task.c **** /*----------------------------------------------------------------------------
   2:D:/iot/felix2/kernel/base/core\los_task.c ****  * Copyright (c) <2013-2015>, <Huawei Technologies Co., Ltd>
   3:D:/iot/felix2/kernel/base/core\los_task.c ****  * All rights reserved.
   4:D:/iot/felix2/kernel/base/core\los_task.c ****  * Redistribution and use in source and binary forms, with or without modification,
   5:D:/iot/felix2/kernel/base/core\los_task.c ****  * are permitted provided that the following conditions are met:
   6:D:/iot/felix2/kernel/base/core\los_task.c ****  * 1. Redistributions of source code must retain the above copyright notice, this list of
   7:D:/iot/felix2/kernel/base/core\los_task.c ****  * conditions and the following disclaimer.
   8:D:/iot/felix2/kernel/base/core\los_task.c ****  * 2. Redistributions in binary form must reproduce the above copyright notice, this list
   9:D:/iot/felix2/kernel/base/core\los_task.c ****  * of conditions and the following disclaimer in the documentation and/or other materials
  10:D:/iot/felix2/kernel/base/core\los_task.c ****  * provided with the distribution.
  11:D:/iot/felix2/kernel/base/core\los_task.c ****  * 3. Neither the name of the copyright holder nor the names of its contributors may be used
  12:D:/iot/felix2/kernel/base/core\los_task.c ****  * to endorse or promote products derived from this software without specific prior written
  13:D:/iot/felix2/kernel/base/core\los_task.c ****  * permission.
  14:D:/iot/felix2/kernel/base/core\los_task.c ****  * THIS SOFTWARE IS PROVIDED BY THE COPYRIGHT HOLDERS AND CONTRIBUTORS
  15:D:/iot/felix2/kernel/base/core\los_task.c ****  * "AS IS" AND ANY EXPRESS OR IMPLIED WARRANTIES, INCLUDING, BUT NOT LIMITED TO,
  16:D:/iot/felix2/kernel/base/core\los_task.c ****  * THE IMPLIED WARRANTIES OF MERCHANTABILITY AND FITNESS FOR A PARTICULAR
  17:D:/iot/felix2/kernel/base/core\los_task.c ****  * PURPOSE ARE DISCLAIMED. IN NO EVENT SHALL THE COPYRIGHT HOLDER OR
  18:D:/iot/felix2/kernel/base/core\los_task.c ****  * CONTRIBUTORS BE LIABLE FOR ANY DIRECT, INDIRECT, INCIDENTAL, SPECIAL,
  19:D:/iot/felix2/kernel/base/core\los_task.c ****  * EXEMPLARY, OR CONSEQUENTIAL DAMAGES (INCLUDING, BUT NOT LIMITED TO,
  20:D:/iot/felix2/kernel/base/core\los_task.c ****  * PROCUREMENT OF SUBSTITUTE GOODS OR SERVICES; LOSS OF USE, DATA, OR PROFITS;
  21:D:/iot/felix2/kernel/base/core\los_task.c ****  * OR BUSINESS INTERRUPTION) HOWEVER CAUSED AND ON ANY THEORY OF LIABILITY,
  22:D:/iot/felix2/kernel/base/core\los_task.c ****  * WHETHER IN CONTRACT, STRICT LIABILITY, OR TORT (INCLUDING NEGLIGENCE OR
  23:D:/iot/felix2/kernel/base/core\los_task.c ****  * OTHERWISE) ARISING IN ANY WAY OUT OF THE USE OF THIS SOFTWARE, EVEN IF
  24:D:/iot/felix2/kernel/base/core\los_task.c ****  * ADVISED OF THE POSSIBILITY OF SUCH DAMAGE.
  25:D:/iot/felix2/kernel/base/core\los_task.c ****  *---------------------------------------------------------------------------*/
  26:D:/iot/felix2/kernel/base/core\los_task.c **** /*----------------------------------------------------------------------------
  27:D:/iot/felix2/kernel/base/core\los_task.c ****  * Notice of Export Control Law
  28:D:/iot/felix2/kernel/base/core\los_task.c ****  * ===============================================
  29:D:/iot/felix2/kernel/base/core\los_task.c ****  * Huawei LiteOS may be subject to applicable export control laws and regulations, which might
  30:D:/iot/felix2/kernel/base/core\los_task.c ****  * include those applicable to Huawei LiteOS of U.S. and the country in which you are located.
  31:D:/iot/felix2/kernel/base/core\los_task.c ****  * Import, export and usage of Huawei LiteOS in any manner by you shall be in compliance with such
  32:D:/iot/felix2/kernel/base/core\los_task.c ****  * applicable export control laws and regulations.
  33:D:/iot/felix2/kernel/base/core\los_task.c ****  *---------------------------------------------------------------------------*/
  34:D:/iot/felix2/kernel/base/core\los_task.c **** #include "string.h"
  35:D:/iot/felix2/kernel/base/core\los_task.c **** #include "los_task.inc"
  36:D:/iot/felix2/kernel/base/core\los_task.c **** #include "los_base.ph"
  37:D:/iot/felix2/kernel/base/core\los_task.c **** #include "los_memory.ph"
  38:D:/iot/felix2/kernel/base/core\los_task.c **** #include "los_memstat.ph"
  39:D:/iot/felix2/kernel/base/core\los_task.c **** #include "los_priqueue.ph"
  40:D:/iot/felix2/kernel/base/core\los_task.c **** #include "los_sem.ph"
  41:D:/iot/felix2/kernel/base/core\los_task.c **** #include "los_mux.ph"
  42:D:/iot/felix2/kernel/base/core\los_task.c **** #if (LOSCFG_PLATFORM_EXC == YES)
  43:D:/iot/felix2/kernel/base/core\los_task.c **** #include "los_exc.ph"
  44:D:/iot/felix2/kernel/base/core\los_task.c **** #endif
  45:D:/iot/felix2/kernel/base/core\los_task.c **** #if (LOSCFG_KERNEL_TICKLESS == YES)
  46:D:/iot/felix2/kernel/base/core\los_task.c **** #include "los_tickless.ph"
ARM GAS  C:\Users\91458\AppData\Local\Temp\cc2AQj9q.s 			page 11


  47:D:/iot/felix2/kernel/base/core\los_task.c **** #endif
  48:D:/iot/felix2/kernel/base/core\los_task.c **** #if (LOSCFG_BASE_CORE_CPUP == YES)
  49:D:/iot/felix2/kernel/base/core\los_task.c **** #include "los_cpup.ph"
  50:D:/iot/felix2/kernel/base/core\los_task.c **** #endif
  51:D:/iot/felix2/kernel/base/core\los_task.c **** #include "los_hw.h"
  52:D:/iot/felix2/kernel/base/core\los_task.c **** 
  53:D:/iot/felix2/kernel/base/core\los_task.c **** #ifdef __cplusplus
  54:D:/iot/felix2/kernel/base/core\los_task.c **** #if __cplusplus
  55:D:/iot/felix2/kernel/base/core\los_task.c **** extern "C" {
  56:D:/iot/felix2/kernel/base/core\los_task.c **** #endif /* __cplusplus */
  57:D:/iot/felix2/kernel/base/core\los_task.c **** #endif /* __cplusplus */
  58:D:/iot/felix2/kernel/base/core\los_task.c **** 
  59:D:/iot/felix2/kernel/base/core\los_task.c **** LITE_OS_SEC_BSS  LOS_TASK_CB                         *g_pstTaskCBArray;
  60:D:/iot/felix2/kernel/base/core\los_task.c **** LITE_OS_SEC_BSS  ST_LOS_TASK                         g_stLosTask;
  61:D:/iot/felix2/kernel/base/core\los_task.c **** LITE_OS_SEC_BSS  UINT16                              g_usLosTaskLock;
  62:D:/iot/felix2/kernel/base/core\los_task.c **** LITE_OS_SEC_BSS  UINT32                              g_uwTskMaxNum;
  63:D:/iot/felix2/kernel/base/core\los_task.c **** LITE_OS_SEC_BSS  UINT32                              g_uwIdleTaskID;
  64:D:/iot/felix2/kernel/base/core\los_task.c **** LITE_OS_SEC_BSS  UINT32                              g_uwSwtmrTaskID;
  65:D:/iot/felix2/kernel/base/core\los_task.c **** LITE_OS_SEC_BSS  LOS_DL_LIST                         g_stTaskTimerList;
  66:D:/iot/felix2/kernel/base/core\los_task.c **** LITE_OS_SEC_BSS  LOS_DL_LIST                         g_stLosFreeTask;
  67:D:/iot/felix2/kernel/base/core\los_task.c **** LITE_OS_SEC_BSS  LOS_DL_LIST                         g_stTskRecyleList;
  68:D:/iot/felix2/kernel/base/core\los_task.c **** LITE_OS_SEC_BSS  TSK_SORTLINK_ATTRIBUTE_S            g_stTskSortLink;
  69:D:/iot/felix2/kernel/base/core\los_task.c **** LITE_OS_SEC_BSS  BOOL                                g_bTaskScheduled;
  70:D:/iot/felix2/kernel/base/core\los_task.c **** 
  71:D:/iot/felix2/kernel/base/core\los_task.c **** LITE_OS_SEC_DATA_INIT TSKSWITCHHOOK g_pfnTskSwitchHook = (TSKSWITCHHOOK)NULL; /*lint !e611*/
  72:D:/iot/felix2/kernel/base/core\los_task.c **** #if (LOSCFG_LIB_LIBC_NEWLIB_REENT == YES)
  73:D:/iot/felix2/kernel/base/core\los_task.c **** LITE_OS_SEC_DATA_INIT TSKSWITCHHOOK g_pfnTskSwitchImpurePtrHook = (TSKSWITCHHOOK)NULL; /*lint !e611
  74:D:/iot/felix2/kernel/base/core\los_task.c **** #endif
  75:D:/iot/felix2/kernel/base/core\los_task.c **** #if (LOSCFG_BASE_CORE_TSK_MONITOR == YES)
  76:D:/iot/felix2/kernel/base/core\los_task.c **** LITE_OS_SEC_DATA_INIT TSKSWITCHHOOK g_pfnUsrTskSwitchHook = (TSKSWITCHHOOK)NULL; /*lint !e611*/
  77:D:/iot/felix2/kernel/base/core\los_task.c **** #endif /* LOSCFG_BASE_CORE_TSK_MONITOR == YES */
  78:D:/iot/felix2/kernel/base/core\los_task.c **** 
  79:D:/iot/felix2/kernel/base/core\los_task.c **** #if (LOSCFG_BASE_CORE_EXC_TSK_SWITCH == YES)
  80:D:/iot/felix2/kernel/base/core\los_task.c **** LITE_OS_SEC_BSS OS_TASK_SWITCH_INFO g_astTskSwitchInfo;
  81:D:/iot/felix2/kernel/base/core\los_task.c **** #endif
  82:D:/iot/felix2/kernel/base/core\los_task.c **** 
  83:D:/iot/felix2/kernel/base/core\los_task.c **** #define CHECK_TASKID(uwTaskID)\
  84:D:/iot/felix2/kernel/base/core\los_task.c **** {\
  85:D:/iot/felix2/kernel/base/core\los_task.c ****    if (uwTaskID == g_uwIdleTaskID)\
  86:D:/iot/felix2/kernel/base/core\los_task.c ****    {\
  87:D:/iot/felix2/kernel/base/core\los_task.c ****        return LOS_ERRNO_TSK_OPERATE_IDLE;\
  88:D:/iot/felix2/kernel/base/core\los_task.c ****    }\
  89:D:/iot/felix2/kernel/base/core\los_task.c ****    else if (uwTaskID == g_uwSwtmrTaskID)\
  90:D:/iot/felix2/kernel/base/core\los_task.c ****    {\
  91:D:/iot/felix2/kernel/base/core\los_task.c ****        return LOS_ERRNO_TSK_SUSPEND_SWTMR_NOT_ALLOWED;\
  92:D:/iot/felix2/kernel/base/core\los_task.c ****    }\
  93:D:/iot/felix2/kernel/base/core\los_task.c ****    else if (OS_TSK_GET_INDEX(uwTaskID) >= g_uwTskMaxNum)\
  94:D:/iot/felix2/kernel/base/core\los_task.c ****    {\
  95:D:/iot/felix2/kernel/base/core\los_task.c ****        return LOS_ERRNO_TSK_ID_INVALID;\
  96:D:/iot/felix2/kernel/base/core\los_task.c ****    }\
  97:D:/iot/felix2/kernel/base/core\los_task.c **** }
  98:D:/iot/felix2/kernel/base/core\los_task.c **** 
  99:D:/iot/felix2/kernel/base/core\los_task.c **** #if (LOSCFG_KERNEL_TICKLESS == YES)
 100:D:/iot/felix2/kernel/base/core\los_task.c **** LITE_OS_SEC_TEXT_MINOR UINT32 osTaskNextSwitchTimeGet(VOID)
 101:D:/iot/felix2/kernel/base/core\los_task.c **** {
 102:D:/iot/felix2/kernel/base/core\los_task.c ****     LOS_TASK_CB *pstTaskCB;
 103:D:/iot/felix2/kernel/base/core\los_task.c ****     UINT32 uwTaskSortLinkTick = 0;
ARM GAS  C:\Users\91458\AppData\Local\Temp\cc2AQj9q.s 			page 12


 104:D:/iot/felix2/kernel/base/core\los_task.c ****     LOS_DL_LIST *pstListObject;
 105:D:/iot/felix2/kernel/base/core\los_task.c ****     UINT32 uwTempTicks = 0;
 106:D:/iot/felix2/kernel/base/core\los_task.c ****     UINT32 uwIndex =0;
 107:D:/iot/felix2/kernel/base/core\los_task.c **** 
 108:D:/iot/felix2/kernel/base/core\los_task.c ****     for (uwIndex = 0; uwIndex < OS_TSK_SORTLINK_LEN; uwIndex++)
 109:D:/iot/felix2/kernel/base/core\los_task.c ****     {
 110:D:/iot/felix2/kernel/base/core\los_task.c ****         pstListObject = g_stTskSortLink.pstSortLink + (g_stTskSortLink.usCursor + uwIndex)%OS_TSK_S
 111:D:/iot/felix2/kernel/base/core\los_task.c ****         if (pstListObject->pstNext != pstListObject)
 112:D:/iot/felix2/kernel/base/core\los_task.c ****         {
 113:D:/iot/felix2/kernel/base/core\los_task.c ****             pstTaskCB = LOS_DL_LIST_ENTRY((pstListObject)->pstNext, LOS_TASK_CB, stTimerList);
 114:D:/iot/felix2/kernel/base/core\los_task.c ****             uwTempTicks = (uwIndex == 0) ? OS_TSK_SORTLINK_LEN : uwIndex;
 115:D:/iot/felix2/kernel/base/core\los_task.c ****             uwTempTicks += (UINT32)(UWROLLNUM(pstTaskCB->uwIdxRollNum) * OS_TSK_SORTLINK_LEN);
 116:D:/iot/felix2/kernel/base/core\los_task.c ****             if(uwTaskSortLinkTick == 0 || uwTaskSortLinkTick > uwTempTicks)
 117:D:/iot/felix2/kernel/base/core\los_task.c ****             {
 118:D:/iot/felix2/kernel/base/core\los_task.c ****                uwTaskSortLinkTick = uwTempTicks;
 119:D:/iot/felix2/kernel/base/core\los_task.c ****             }
 120:D:/iot/felix2/kernel/base/core\los_task.c ****         }
 121:D:/iot/felix2/kernel/base/core\los_task.c ****     }
 122:D:/iot/felix2/kernel/base/core\los_task.c **** 
 123:D:/iot/felix2/kernel/base/core\los_task.c ****     return uwTaskSortLinkTick;
 124:D:/iot/felix2/kernel/base/core\los_task.c **** }
 125:D:/iot/felix2/kernel/base/core\los_task.c **** #endif
 126:D:/iot/felix2/kernel/base/core\los_task.c **** 
 127:D:/iot/felix2/kernel/base/core\los_task.c **** /*****************************************************************************
 128:D:/iot/felix2/kernel/base/core\los_task.c ****  Function : osTskIdleBGD
 129:D:/iot/felix2/kernel/base/core\los_task.c ****  Description : Idle background.
 130:D:/iot/felix2/kernel/base/core\los_task.c ****  Input       : None
 131:D:/iot/felix2/kernel/base/core\los_task.c ****  Output      : None
 132:D:/iot/felix2/kernel/base/core\los_task.c ****  Return      : None
 133:D:/iot/felix2/kernel/base/core\los_task.c ****  *****************************************************************************/
 134:D:/iot/felix2/kernel/base/core\los_task.c **** LITE_OS_SEC_TEXT WEAK VOID osIdleTask(VOID)
 135:D:/iot/felix2/kernel/base/core\los_task.c **** {
 324              		.loc 2 135 0
 325              		.cfi_startproc
 326              		@ args = 0, pretend = 0, frame = 0
 327              		@ frame_needed = 1, uses_anonymous_args = 0
 328              		@ link register save eliminated.
 329 0000 80B4     		push	{r7}
 330              	.LCFI29:
 331              		.cfi_def_cfa_offset 4
 332              		.cfi_offset 7, -4
 333 0002 00AF     		add	r7, sp, #0
 334              	.LCFI30:
 335              		.cfi_def_cfa_register 7
 336              	.L8:
 136:D:/iot/felix2/kernel/base/core\los_task.c ****     while (1)
 337              		.loc 2 136 0 discriminator 1
 338 0004 FEE7     		b	.L8
 339              		.cfi_endproc
 340              	.LFE133:
 342              		.section	.text.osTaskPriModify,"ax",%progbits
 343              		.align	1
 344              		.global	osTaskPriModify
 345              		.syntax unified
 346              		.thumb
 347              		.thumb_func
 348              		.fpu fpv4-sp-d16
ARM GAS  C:\Users\91458\AppData\Local\Temp\cc2AQj9q.s 			page 13


 350              	osTaskPriModify:
 351              	.LFB134:
 137:D:/iot/felix2/kernel/base/core\los_task.c ****     {
 138:D:/iot/felix2/kernel/base/core\los_task.c **** #if (LOSCFG_KERNEL_TICKLESS == YES)
 139:D:/iot/felix2/kernel/base/core\los_task.c ****         osTicklessHandler();
 140:D:/iot/felix2/kernel/base/core\los_task.c **** #else
 141:D:/iot/felix2/kernel/base/core\los_task.c ****     #if (LOSCFG_KERNEL_RUNSTOP == YES)
 142:D:/iot/felix2/kernel/base/core\los_task.c ****         osEnterSleep();
 143:D:/iot/felix2/kernel/base/core\los_task.c ****     #endif
 144:D:/iot/felix2/kernel/base/core\los_task.c **** #endif
 145:D:/iot/felix2/kernel/base/core\los_task.c ****     }
 146:D:/iot/felix2/kernel/base/core\los_task.c **** }
 147:D:/iot/felix2/kernel/base/core\los_task.c **** 
 148:D:/iot/felix2/kernel/base/core\los_task.c **** /*****************************************************************************
 149:D:/iot/felix2/kernel/base/core\los_task.c ****  Function : osTaskPriModify
 150:D:/iot/felix2/kernel/base/core\los_task.c ****  Description : Change task priority.
 151:D:/iot/felix2/kernel/base/core\los_task.c ****  Input       : pstTaskCB    --- task control block
 152:D:/iot/felix2/kernel/base/core\los_task.c ****                  usPriority      --- priority
 153:D:/iot/felix2/kernel/base/core\los_task.c ****  Output      : None
 154:D:/iot/felix2/kernel/base/core\los_task.c ****  Return      : None
 155:D:/iot/felix2/kernel/base/core\los_task.c ****  *****************************************************************************/
 156:D:/iot/felix2/kernel/base/core\los_task.c **** LITE_OS_SEC_TEXT_MINOR VOID osTaskPriModify(LOS_TASK_CB *pstTaskCB, UINT16 usPriority)
 157:D:/iot/felix2/kernel/base/core\los_task.c **** {
 352              		.loc 2 157 0
 353              		.cfi_startproc
 354              		@ args = 0, pretend = 0, frame = 8
 355              		@ frame_needed = 1, uses_anonymous_args = 0
 356 0000 80B5     		push	{r7, lr}
 357              	.LCFI31:
 358              		.cfi_def_cfa_offset 8
 359              		.cfi_offset 7, -8
 360              		.cfi_offset 14, -4
 361 0002 82B0     		sub	sp, sp, #8
 362              	.LCFI32:
 363              		.cfi_def_cfa_offset 16
 364 0004 00AF     		add	r7, sp, #0
 365              	.LCFI33:
 366              		.cfi_def_cfa_register 7
 367 0006 7860     		str	r0, [r7, #4]
 368 0008 0B46     		mov	r3, r1
 369 000a 7B80     		strh	r3, [r7, #2]	@ movhi
 158:D:/iot/felix2/kernel/base/core\los_task.c ****     if (pstTaskCB->usTaskStatus & OS_TASK_STATUS_READY)
 370              		.loc 2 158 0
 371 000c 7B68     		ldr	r3, [r7, #4]
 372 000e 9B88     		ldrh	r3, [r3, #4]
 373 0010 03F00403 		and	r3, r3, #4
 374 0014 002B     		cmp	r3, #0
 375 0016 1FD0     		beq	.L10
 159:D:/iot/felix2/kernel/base/core\los_task.c ****     {
 160:D:/iot/felix2/kernel/base/core\los_task.c ****         osPriqueueDequeue(&pstTaskCB->stPendList);
 376              		.loc 2 160 0
 377 0018 7B68     		ldr	r3, [r7, #4]
 378 001a 2833     		adds	r3, r3, #40
 379 001c 1846     		mov	r0, r3
 380 001e FFF7FEFF 		bl	osPriqueueDequeue
 161:D:/iot/felix2/kernel/base/core\los_task.c ****         pstTaskCB->usTaskStatus &= (~OS_TASK_STATUS_READY);
 381              		.loc 2 161 0
ARM GAS  C:\Users\91458\AppData\Local\Temp\cc2AQj9q.s 			page 14


 382 0022 7B68     		ldr	r3, [r7, #4]
 383 0024 9B88     		ldrh	r3, [r3, #4]
 384 0026 23F00403 		bic	r3, r3, #4
 385 002a 9AB2     		uxth	r2, r3
 386 002c 7B68     		ldr	r3, [r7, #4]
 387 002e 9A80     		strh	r2, [r3, #4]	@ movhi
 162:D:/iot/felix2/kernel/base/core\los_task.c ****         pstTaskCB->usPriority = usPriority;
 388              		.loc 2 162 0
 389 0030 7B68     		ldr	r3, [r7, #4]
 390 0032 7A88     		ldrh	r2, [r7, #2]	@ movhi
 391 0034 DA80     		strh	r2, [r3, #6]	@ movhi
 163:D:/iot/felix2/kernel/base/core\los_task.c ****         pstTaskCB->usTaskStatus |= OS_TASK_STATUS_READY;
 392              		.loc 2 163 0
 393 0036 7B68     		ldr	r3, [r7, #4]
 394 0038 9B88     		ldrh	r3, [r3, #4]
 395 003a 43F00403 		orr	r3, r3, #4
 396 003e 9AB2     		uxth	r2, r3
 397 0040 7B68     		ldr	r3, [r7, #4]
 398 0042 9A80     		strh	r2, [r3, #4]	@ movhi
 164:D:/iot/felix2/kernel/base/core\los_task.c ****         osPriqueueEnqueue(&pstTaskCB->stPendList, pstTaskCB->usPriority);
 399              		.loc 2 164 0
 400 0044 7B68     		ldr	r3, [r7, #4]
 401 0046 03F12802 		add	r2, r3, #40
 402 004a 7B68     		ldr	r3, [r7, #4]
 403 004c DB88     		ldrh	r3, [r3, #6]
 404 004e 1946     		mov	r1, r3
 405 0050 1046     		mov	r0, r2
 406 0052 FFF7FEFF 		bl	osPriqueueEnqueue
 165:D:/iot/felix2/kernel/base/core\los_task.c ****     }
 166:D:/iot/felix2/kernel/base/core\los_task.c ****     else
 167:D:/iot/felix2/kernel/base/core\los_task.c ****     {
 168:D:/iot/felix2/kernel/base/core\los_task.c ****         pstTaskCB->usPriority = usPriority;
 169:D:/iot/felix2/kernel/base/core\los_task.c ****     }
 170:D:/iot/felix2/kernel/base/core\los_task.c **** }
 407              		.loc 2 170 0
 408 0056 02E0     		b	.L12
 409              	.L10:
 168:D:/iot/felix2/kernel/base/core\los_task.c ****     }
 410              		.loc 2 168 0
 411 0058 7B68     		ldr	r3, [r7, #4]
 412 005a 7A88     		ldrh	r2, [r7, #2]	@ movhi
 413 005c DA80     		strh	r2, [r3, #6]	@ movhi
 414              	.L12:
 415              		.loc 2 170 0
 416 005e 00BF     		nop
 417 0060 0837     		adds	r7, r7, #8
 418              	.LCFI34:
 419              		.cfi_def_cfa_offset 8
 420 0062 BD46     		mov	sp, r7
 421              	.LCFI35:
 422              		.cfi_def_cfa_register 13
 423              		@ sp needed
 424 0064 80BD     		pop	{r7, pc}
 425              		.cfi_endproc
 426              	.LFE134:
 428              		.section	.text.osTaskAdd2TimerList,"ax",%progbits
 429              		.align	1
ARM GAS  C:\Users\91458\AppData\Local\Temp\cc2AQj9q.s 			page 15


 430              		.global	osTaskAdd2TimerList
 431              		.syntax unified
 432              		.thumb
 433              		.thumb_func
 434              		.fpu fpv4-sp-d16
 436              	osTaskAdd2TimerList:
 437              	.LFB135:
 171:D:/iot/felix2/kernel/base/core\los_task.c **** 
 172:D:/iot/felix2/kernel/base/core\los_task.c **** /*****************************************************************************
 173:D:/iot/felix2/kernel/base/core\los_task.c ****  Function : osTaskAdd2TimerList
 174:D:/iot/felix2/kernel/base/core\los_task.c ****  Description : Add task to sorted delay list.
 175:D:/iot/felix2/kernel/base/core\los_task.c ****  Input       : pstTaskCB    --- task control block
 176:D:/iot/felix2/kernel/base/core\los_task.c ****                uwTimeout    --- wait time, ticks
 177:D:/iot/felix2/kernel/base/core\los_task.c ****  Output      : None
 178:D:/iot/felix2/kernel/base/core\los_task.c ****  Return      : None
 179:D:/iot/felix2/kernel/base/core\los_task.c ****  *****************************************************************************/
 180:D:/iot/felix2/kernel/base/core\los_task.c **** LITE_OS_SEC_TEXT VOID osTaskAdd2TimerList(LOS_TASK_CB *pstTaskCB, UINT32 uwTimeout)
 181:D:/iot/felix2/kernel/base/core\los_task.c **** {
 438              		.loc 2 181 0
 439              		.cfi_startproc
 440              		@ args = 0, pretend = 0, frame = 24
 441              		@ frame_needed = 1, uses_anonymous_args = 0
 442 0000 80B5     		push	{r7, lr}
 443              	.LCFI36:
 444              		.cfi_def_cfa_offset 8
 445              		.cfi_offset 7, -8
 446              		.cfi_offset 14, -4
 447 0002 86B0     		sub	sp, sp, #24
 448              	.LCFI37:
 449              		.cfi_def_cfa_offset 32
 450 0004 00AF     		add	r7, sp, #0
 451              	.LCFI38:
 452              		.cfi_def_cfa_register 7
 453 0006 7860     		str	r0, [r7, #4]
 454 0008 3960     		str	r1, [r7]
 182:D:/iot/felix2/kernel/base/core\los_task.c ****     LOS_TASK_CB *pstTskDelay;
 183:D:/iot/felix2/kernel/base/core\los_task.c ****     LOS_DL_LIST *pstListObject;
 184:D:/iot/felix2/kernel/base/core\los_task.c ****     UINT32 uwSortIndex;
 185:D:/iot/felix2/kernel/base/core\los_task.c ****     UINT32 uwRollNum;
 186:D:/iot/felix2/kernel/base/core\los_task.c **** 
 187:D:/iot/felix2/kernel/base/core\los_task.c ****     uwSortIndex = uwTimeout & OS_TSK_SORTLINK_MASK;
 455              		.loc 2 187 0
 456 000a 3B68     		ldr	r3, [r7]
 457 000c 03F01F03 		and	r3, r3, #31
 458 0010 FB60     		str	r3, [r7, #12]
 188:D:/iot/felix2/kernel/base/core\los_task.c ****     uwRollNum = (uwTimeout >> OS_TSK_SORTLINK_LOGLEN);
 459              		.loc 2 188 0
 460 0012 3B68     		ldr	r3, [r7]
 461 0014 5B09     		lsrs	r3, r3, #5
 462 0016 3B61     		str	r3, [r7, #16]
 189:D:/iot/felix2/kernel/base/core\los_task.c ****     (uwSortIndex > 0) ? 0 : (uwRollNum--);
 463              		.loc 2 189 0
 464 0018 FB68     		ldr	r3, [r7, #12]
 465 001a 002B     		cmp	r3, #0
 466 001c 02D1     		bne	.L15
 467              		.loc 2 189 0 is_stmt 0 discriminator 1
 468 001e 3B69     		ldr	r3, [r7, #16]
ARM GAS  C:\Users\91458\AppData\Local\Temp\cc2AQj9q.s 			page 16


 469 0020 013B     		subs	r3, r3, #1
 470 0022 3B61     		str	r3, [r7, #16]
 471              	.L15:
 190:D:/iot/felix2/kernel/base/core\los_task.c ****     EVALUATE_L(pstTaskCB->uwIdxRollNum, uwRollNum);
 472              		.loc 2 190 0 is_stmt 1
 473 0024 7B68     		ldr	r3, [r7, #4]
 474 0026 9B6B     		ldr	r3, [r3, #56]
 475 0028 03F07842 		and	r2, r3, #-134217728
 476 002c 3B69     		ldr	r3, [r7, #16]
 477 002e 1A43     		orrs	r2, r2, r3
 478 0030 7B68     		ldr	r3, [r7, #4]
 479 0032 9A63     		str	r2, [r3, #56]
 191:D:/iot/felix2/kernel/base/core\los_task.c ****     uwSortIndex = (uwSortIndex + g_stTskSortLink.usCursor);
 480              		.loc 2 191 0
 481 0034 354B     		ldr	r3, .L24
 482 0036 9B88     		ldrh	r3, [r3, #4]
 483 0038 1A46     		mov	r2, r3
 484 003a FB68     		ldr	r3, [r7, #12]
 485 003c 1344     		add	r3, r3, r2
 486 003e FB60     		str	r3, [r7, #12]
 192:D:/iot/felix2/kernel/base/core\los_task.c ****     uwSortIndex = uwSortIndex & OS_TSK_SORTLINK_MASK;
 487              		.loc 2 192 0
 488 0040 FB68     		ldr	r3, [r7, #12]
 489 0042 03F01F03 		and	r3, r3, #31
 490 0046 FB60     		str	r3, [r7, #12]
 193:D:/iot/felix2/kernel/base/core\los_task.c ****     EVALUATE_H(pstTaskCB->uwIdxRollNum, uwSortIndex);
 491              		.loc 2 193 0
 492 0048 7B68     		ldr	r3, [r7, #4]
 493 004a 9B6B     		ldr	r3, [r3, #56]
 494 004c 23F07842 		bic	r2, r3, #-134217728
 495 0050 FB68     		ldr	r3, [r7, #12]
 496 0052 DB06     		lsls	r3, r3, #27
 497 0054 1A43     		orrs	r2, r2, r3
 498 0056 7B68     		ldr	r3, [r7, #4]
 499 0058 9A63     		str	r2, [r3, #56]
 194:D:/iot/felix2/kernel/base/core\los_task.c ****     pstListObject = g_stTskSortLink.pstSortLink + uwSortIndex;
 500              		.loc 2 194 0
 501 005a 2C4B     		ldr	r3, .L24
 502 005c 1A68     		ldr	r2, [r3]
 503 005e FB68     		ldr	r3, [r7, #12]
 504 0060 DB00     		lsls	r3, r3, #3
 505 0062 1344     		add	r3, r3, r2
 506 0064 BB60     		str	r3, [r7, #8]
 195:D:/iot/felix2/kernel/base/core\los_task.c ****     if (pstListObject->pstNext == pstListObject)
 507              		.loc 2 195 0
 508 0066 BB68     		ldr	r3, [r7, #8]
 509 0068 5B68     		ldr	r3, [r3, #4]
 510 006a BA68     		ldr	r2, [r7, #8]
 511 006c 9A42     		cmp	r2, r3
 512 006e 06D1     		bne	.L16
 196:D:/iot/felix2/kernel/base/core\los_task.c ****     {
 197:D:/iot/felix2/kernel/base/core\los_task.c ****         LOS_ListTailInsert(pstListObject, &pstTaskCB->stTimerList);
 513              		.loc 2 197 0
 514 0070 7B68     		ldr	r3, [r7, #4]
 515 0072 3033     		adds	r3, r3, #48
 516 0074 1946     		mov	r1, r3
 517 0076 B868     		ldr	r0, [r7, #8]
ARM GAS  C:\Users\91458\AppData\Local\Temp\cc2AQj9q.s 			page 17


 518 0078 FFF7FEFF 		bl	LOS_ListTailInsert
 198:D:/iot/felix2/kernel/base/core\los_task.c ****     }
 199:D:/iot/felix2/kernel/base/core\los_task.c ****     else
 200:D:/iot/felix2/kernel/base/core\los_task.c ****     {
 201:D:/iot/felix2/kernel/base/core\los_task.c ****         pstTskDelay = LOS_DL_LIST_ENTRY((pstListObject)->pstNext, LOS_TASK_CB, stTimerList); /*lint
 202:D:/iot/felix2/kernel/base/core\los_task.c ****         do
 203:D:/iot/felix2/kernel/base/core\los_task.c ****         {
 204:D:/iot/felix2/kernel/base/core\los_task.c ****             if (UWROLLNUM(pstTskDelay->uwIdxRollNum) <= UWROLLNUM(pstTaskCB->uwIdxRollNum))
 205:D:/iot/felix2/kernel/base/core\los_task.c ****             {
 206:D:/iot/felix2/kernel/base/core\los_task.c ****                 UWROLLNUMSUB(pstTaskCB->uwIdxRollNum, pstTskDelay->uwIdxRollNum);
 207:D:/iot/felix2/kernel/base/core\los_task.c ****             }
 208:D:/iot/felix2/kernel/base/core\los_task.c ****             else
 209:D:/iot/felix2/kernel/base/core\los_task.c ****             {
 210:D:/iot/felix2/kernel/base/core\los_task.c ****                 UWROLLNUMSUB(pstTskDelay->uwIdxRollNum, pstTaskCB->uwIdxRollNum);
 211:D:/iot/felix2/kernel/base/core\los_task.c ****                 break;
 212:D:/iot/felix2/kernel/base/core\los_task.c ****             }
 213:D:/iot/felix2/kernel/base/core\los_task.c **** 
 214:D:/iot/felix2/kernel/base/core\los_task.c ****             pstTskDelay = LOS_DL_LIST_ENTRY(pstTskDelay->stTimerList.pstNext, LOS_TASK_CB, stTimerL
 215:D:/iot/felix2/kernel/base/core\los_task.c ****         } while (&pstTskDelay->stTimerList != (pstListObject));
 216:D:/iot/felix2/kernel/base/core\los_task.c **** 
 217:D:/iot/felix2/kernel/base/core\los_task.c ****         LOS_ListTailInsert(&pstTskDelay->stTimerList, &pstTaskCB->stTimerList);
 218:D:/iot/felix2/kernel/base/core\los_task.c ****     }
 219:D:/iot/felix2/kernel/base/core\los_task.c **** }
 519              		.loc 2 219 0
 520 007c 41E0     		b	.L23
 521              	.L16:
 201:D:/iot/felix2/kernel/base/core\los_task.c ****         do
 522              		.loc 2 201 0
 523 007e BB68     		ldr	r3, [r7, #8]
 524 0080 5B68     		ldr	r3, [r3, #4]
 525 0082 303B     		subs	r3, r3, #48
 526 0084 7B61     		str	r3, [r7, #20]
 527              	.L21:
 204:D:/iot/felix2/kernel/base/core\los_task.c ****             {
 528              		.loc 2 204 0
 529 0086 7B69     		ldr	r3, [r7, #20]
 530 0088 9B6B     		ldr	r3, [r3, #56]
 531 008a 23F07842 		bic	r2, r3, #-134217728
 532 008e 7B68     		ldr	r3, [r7, #4]
 533 0090 9B6B     		ldr	r3, [r3, #56]
 534 0092 23F07843 		bic	r3, r3, #-134217728
 535 0096 9A42     		cmp	r2, r3
 536 0098 10D8     		bhi	.L18
 206:D:/iot/felix2/kernel/base/core\los_task.c ****             }
 537              		.loc 2 206 0
 538 009a 7B68     		ldr	r3, [r7, #4]
 539 009c 9B6B     		ldr	r3, [r3, #56]
 540 009e 03F07842 		and	r2, r3, #-134217728
 541 00a2 7B68     		ldr	r3, [r7, #4]
 542 00a4 9B6B     		ldr	r3, [r3, #56]
 543 00a6 23F07841 		bic	r1, r3, #-134217728
 544 00aa 7B69     		ldr	r3, [r7, #20]
 545 00ac 9B6B     		ldr	r3, [r3, #56]
 546 00ae 23F07843 		bic	r3, r3, #-134217728
 547 00b2 CB1A     		subs	r3, r1, r3
 548 00b4 1A43     		orrs	r2, r2, r3
 549 00b6 7B68     		ldr	r3, [r7, #4]
ARM GAS  C:\Users\91458\AppData\Local\Temp\cc2AQj9q.s 			page 18


 550 00b8 9A63     		str	r2, [r3, #56]
 551 00ba 10E0     		b	.L22
 552              	.L18:
 210:D:/iot/felix2/kernel/base/core\los_task.c ****                 break;
 553              		.loc 2 210 0
 554 00bc 7B69     		ldr	r3, [r7, #20]
 555 00be 9B6B     		ldr	r3, [r3, #56]
 556 00c0 03F07842 		and	r2, r3, #-134217728
 557 00c4 7B69     		ldr	r3, [r7, #20]
 558 00c6 9B6B     		ldr	r3, [r3, #56]
 559 00c8 23F07841 		bic	r1, r3, #-134217728
 560 00cc 7B68     		ldr	r3, [r7, #4]
 561 00ce 9B6B     		ldr	r3, [r3, #56]
 562 00d0 23F07843 		bic	r3, r3, #-134217728
 563 00d4 CB1A     		subs	r3, r1, r3
 564 00d6 1A43     		orrs	r2, r2, r3
 565 00d8 7B69     		ldr	r3, [r7, #20]
 566 00da 9A63     		str	r2, [r3, #56]
 211:D:/iot/felix2/kernel/base/core\los_task.c ****             }
 567              		.loc 2 211 0
 568 00dc 08E0     		b	.L20
 569              	.L22:
 214:D:/iot/felix2/kernel/base/core\los_task.c ****         } while (&pstTskDelay->stTimerList != (pstListObject));
 570              		.loc 2 214 0
 571 00de 7B69     		ldr	r3, [r7, #20]
 572 00e0 5B6B     		ldr	r3, [r3, #52]
 573 00e2 303B     		subs	r3, r3, #48
 574 00e4 7B61     		str	r3, [r7, #20]
 215:D:/iot/felix2/kernel/base/core\los_task.c **** 
 575              		.loc 2 215 0
 576 00e6 7B69     		ldr	r3, [r7, #20]
 577 00e8 3033     		adds	r3, r3, #48
 578 00ea BA68     		ldr	r2, [r7, #8]
 579 00ec 9A42     		cmp	r2, r3
 580 00ee CAD1     		bne	.L21
 581              	.L20:
 217:D:/iot/felix2/kernel/base/core\los_task.c ****     }
 582              		.loc 2 217 0
 583 00f0 7B69     		ldr	r3, [r7, #20]
 584 00f2 03F13002 		add	r2, r3, #48
 585 00f6 7B68     		ldr	r3, [r7, #4]
 586 00f8 3033     		adds	r3, r3, #48
 587 00fa 1946     		mov	r1, r3
 588 00fc 1046     		mov	r0, r2
 589 00fe FFF7FEFF 		bl	LOS_ListTailInsert
 590              	.L23:
 591              		.loc 2 219 0
 592 0102 00BF     		nop
 593 0104 1837     		adds	r7, r7, #24
 594              	.LCFI39:
 595              		.cfi_def_cfa_offset 8
 596 0106 BD46     		mov	sp, r7
 597              	.LCFI40:
 598              		.cfi_def_cfa_register 13
 599              		@ sp needed
 600 0108 80BD     		pop	{r7, pc}
 601              	.L25:
ARM GAS  C:\Users\91458\AppData\Local\Temp\cc2AQj9q.s 			page 19


 602 010a 00BF     		.align	2
 603              	.L24:
 604 010c 00000000 		.word	g_stTskSortLink
 605              		.cfi_endproc
 606              	.LFE135:
 608              		.section	.text.osTimerListDelete,"ax",%progbits
 609              		.align	1
 610              		.global	osTimerListDelete
 611              		.syntax unified
 612              		.thumb
 613              		.thumb_func
 614              		.fpu fpv4-sp-d16
 616              	osTimerListDelete:
 617              	.LFB136:
 220:D:/iot/felix2/kernel/base/core\los_task.c **** 
 221:D:/iot/felix2/kernel/base/core\los_task.c **** 
 222:D:/iot/felix2/kernel/base/core\los_task.c **** LITE_OS_SEC_TEXT VOID osTimerListDelete(LOS_TASK_CB *pstTaskCB)
 223:D:/iot/felix2/kernel/base/core\los_task.c **** {
 618              		.loc 2 223 0
 619              		.cfi_startproc
 620              		@ args = 0, pretend = 0, frame = 24
 621              		@ frame_needed = 1, uses_anonymous_args = 0
 622 0000 80B5     		push	{r7, lr}
 623              	.LCFI41:
 624              		.cfi_def_cfa_offset 8
 625              		.cfi_offset 7, -8
 626              		.cfi_offset 14, -4
 627 0002 86B0     		sub	sp, sp, #24
 628              	.LCFI42:
 629              		.cfi_def_cfa_offset 32
 630 0004 00AF     		add	r7, sp, #0
 631              	.LCFI43:
 632              		.cfi_def_cfa_register 7
 633 0006 7860     		str	r0, [r7, #4]
 224:D:/iot/felix2/kernel/base/core\los_task.c ****     LOS_DL_LIST  *pstListObject;
 225:D:/iot/felix2/kernel/base/core\los_task.c ****     LOS_TASK_CB  *pstNextTask;
 226:D:/iot/felix2/kernel/base/core\los_task.c ****     UINT32 uwSortIndex;
 227:D:/iot/felix2/kernel/base/core\los_task.c **** 
 228:D:/iot/felix2/kernel/base/core\los_task.c ****     uwSortIndex = UWSORTINDEX(pstTaskCB->uwIdxRollNum);
 634              		.loc 2 228 0
 635 0008 7B68     		ldr	r3, [r7, #4]
 636 000a 9B6B     		ldr	r3, [r3, #56]
 637 000c DB0E     		lsrs	r3, r3, #27
 638 000e 7B61     		str	r3, [r7, #20]
 229:D:/iot/felix2/kernel/base/core\los_task.c ****     pstListObject = g_stTskSortLink.pstSortLink + uwSortIndex;
 639              		.loc 2 229 0
 640 0010 134B     		ldr	r3, .L28
 641 0012 1A68     		ldr	r2, [r3]
 642 0014 7B69     		ldr	r3, [r7, #20]
 643 0016 DB00     		lsls	r3, r3, #3
 644 0018 1344     		add	r3, r3, r2
 645 001a 3B61     		str	r3, [r7, #16]
 230:D:/iot/felix2/kernel/base/core\los_task.c **** 
 231:D:/iot/felix2/kernel/base/core\los_task.c ****     if (pstListObject != pstTaskCB->stTimerList.pstNext)
 646              		.loc 2 231 0
 647 001c 7B68     		ldr	r3, [r7, #4]
 648 001e 5B6B     		ldr	r3, [r3, #52]
ARM GAS  C:\Users\91458\AppData\Local\Temp\cc2AQj9q.s 			page 20


 649 0020 3A69     		ldr	r2, [r7, #16]
 650 0022 9A42     		cmp	r2, r3
 651 0024 13D0     		beq	.L27
 232:D:/iot/felix2/kernel/base/core\los_task.c ****     {
 233:D:/iot/felix2/kernel/base/core\los_task.c ****         pstNextTask = LOS_DL_LIST_ENTRY(pstTaskCB->stTimerList.pstNext, LOS_TASK_CB, stTimerList); 
 652              		.loc 2 233 0
 653 0026 7B68     		ldr	r3, [r7, #4]
 654 0028 5B6B     		ldr	r3, [r3, #52]
 655 002a 303B     		subs	r3, r3, #48
 656 002c FB60     		str	r3, [r7, #12]
 234:D:/iot/felix2/kernel/base/core\los_task.c ****         UWROLLNUMADD(pstNextTask->uwIdxRollNum, pstTaskCB->uwIdxRollNum);
 657              		.loc 2 234 0
 658 002e FB68     		ldr	r3, [r7, #12]
 659 0030 9B6B     		ldr	r3, [r3, #56]
 660 0032 03F07842 		and	r2, r3, #-134217728
 661 0036 FB68     		ldr	r3, [r7, #12]
 662 0038 9B6B     		ldr	r3, [r3, #56]
 663 003a 23F07841 		bic	r1, r3, #-134217728
 664 003e 7B68     		ldr	r3, [r7, #4]
 665 0040 9B6B     		ldr	r3, [r3, #56]
 666 0042 23F07843 		bic	r3, r3, #-134217728
 667 0046 0B44     		add	r3, r3, r1
 668 0048 1A43     		orrs	r2, r2, r3
 669 004a FB68     		ldr	r3, [r7, #12]
 670 004c 9A63     		str	r2, [r3, #56]
 671              	.L27:
 235:D:/iot/felix2/kernel/base/core\los_task.c ****     }
 236:D:/iot/felix2/kernel/base/core\los_task.c **** 
 237:D:/iot/felix2/kernel/base/core\los_task.c ****     LOS_ListDelete(&pstTaskCB->stTimerList);
 672              		.loc 2 237 0
 673 004e 7B68     		ldr	r3, [r7, #4]
 674 0050 3033     		adds	r3, r3, #48
 675 0052 1846     		mov	r0, r3
 676 0054 FFF7FEFF 		bl	LOS_ListDelete
 238:D:/iot/felix2/kernel/base/core\los_task.c **** }
 677              		.loc 2 238 0
 678 0058 00BF     		nop
 679 005a 1837     		adds	r7, r7, #24
 680              	.LCFI44:
 681              		.cfi_def_cfa_offset 8
 682 005c BD46     		mov	sp, r7
 683              	.LCFI45:
 684              		.cfi_def_cfa_register 13
 685              		@ sp needed
 686 005e 80BD     		pop	{r7, pc}
 687              	.L29:
 688              		.align	2
 689              	.L28:
 690 0060 00000000 		.word	g_stTskSortLink
 691              		.cfi_endproc
 692              	.LFE136:
 694              		.section	.text.osTaskScan,"ax",%progbits
 695              		.align	1
 696              		.global	osTaskScan
 697              		.syntax unified
 698              		.thumb
 699              		.thumb_func
ARM GAS  C:\Users\91458\AppData\Local\Temp\cc2AQj9q.s 			page 21


 700              		.fpu fpv4-sp-d16
 702              	osTaskScan:
 703              	.LFB137:
 239:D:/iot/felix2/kernel/base/core\los_task.c **** 
 240:D:/iot/felix2/kernel/base/core\los_task.c **** LITE_OS_SEC_TEXT VOID osTaskScan(VOID)
 241:D:/iot/felix2/kernel/base/core\los_task.c **** {
 704              		.loc 2 241 0
 705              		.cfi_startproc
 706              		@ args = 0, pretend = 0, frame = 16
 707              		@ frame_needed = 1, uses_anonymous_args = 0
 708 0000 80B5     		push	{r7, lr}
 709              	.LCFI46:
 710              		.cfi_def_cfa_offset 8
 711              		.cfi_offset 7, -8
 712              		.cfi_offset 14, -4
 713 0002 84B0     		sub	sp, sp, #16
 714              	.LCFI47:
 715              		.cfi_def_cfa_offset 24
 716 0004 00AF     		add	r7, sp, #0
 717              	.LCFI48:
 718              		.cfi_def_cfa_register 7
 242:D:/iot/felix2/kernel/base/core\los_task.c ****     LOS_TASK_CB *pstTaskCB;
 243:D:/iot/felix2/kernel/base/core\los_task.c ****     BOOL bNeedSchedule = FALSE;
 719              		.loc 2 243 0
 720 0006 0023     		movs	r3, #0
 721 0008 BB60     		str	r3, [r7, #8]
 244:D:/iot/felix2/kernel/base/core\los_task.c ****     LOS_DL_LIST *pstListObject;
 245:D:/iot/felix2/kernel/base/core\los_task.c ****     UINT16 usTempStatus;
 246:D:/iot/felix2/kernel/base/core\los_task.c **** 
 247:D:/iot/felix2/kernel/base/core\los_task.c ****     g_stTskSortLink.usCursor = (g_stTskSortLink.usCursor + 1) % OS_TSK_SORTLINK_LEN;
 722              		.loc 2 247 0
 723 000a 4F4B     		ldr	r3, .L43
 724 000c 9B88     		ldrh	r3, [r3, #4]
 725 000e 0133     		adds	r3, r3, #1
 726 0010 5A42     		rsbs	r2, r3, #0
 727 0012 03F01F03 		and	r3, r3, #31
 728 0016 02F01F02 		and	r2, r2, #31
 729 001a 58BF     		it	pl
 730 001c 5342     		rsbpl	r3, r2, #0
 731 001e 9AB2     		uxth	r2, r3
 732 0020 494B     		ldr	r3, .L43
 733 0022 9A80     		strh	r2, [r3, #4]	@ movhi
 248:D:/iot/felix2/kernel/base/core\los_task.c ****     pstListObject = g_stTskSortLink.pstSortLink + g_stTskSortLink.usCursor;
 734              		.loc 2 248 0
 735 0024 484B     		ldr	r3, .L43
 736 0026 1A68     		ldr	r2, [r3]
 737 0028 474B     		ldr	r3, .L43
 738 002a 9B88     		ldrh	r3, [r3, #4]
 739 002c DB00     		lsls	r3, r3, #3
 740 002e 1344     		add	r3, r3, r2
 741 0030 7B60     		str	r3, [r7, #4]
 249:D:/iot/felix2/kernel/base/core\los_task.c ****     if (pstListObject->pstNext == pstListObject)
 742              		.loc 2 249 0
 743 0032 7B68     		ldr	r3, [r7, #4]
 744 0034 5B68     		ldr	r3, [r3, #4]
 745 0036 7A68     		ldr	r2, [r7, #4]
 746 0038 9A42     		cmp	r2, r3
ARM GAS  C:\Users\91458\AppData\Local\Temp\cc2AQj9q.s 			page 22


 747 003a 00F08180 		beq	.L42
 250:D:/iot/felix2/kernel/base/core\los_task.c ****     {
 251:D:/iot/felix2/kernel/base/core\los_task.c ****         return;
 252:D:/iot/felix2/kernel/base/core\los_task.c ****     }
 253:D:/iot/felix2/kernel/base/core\los_task.c **** 
 254:D:/iot/felix2/kernel/base/core\los_task.c ****     for (pstTaskCB = LOS_DL_LIST_ENTRY((pstListObject)->pstNext, LOS_TASK_CB, stTimerList);&pstTask
 748              		.loc 2 254 0
 749 003e 7B68     		ldr	r3, [r7, #4]
 750 0040 5B68     		ldr	r3, [r3, #4]
 751 0042 303B     		subs	r3, r3, #48
 752 0044 FB60     		str	r3, [r7, #12]
 753 0046 70E0     		b	.L33
 754              	.L41:
 255:D:/iot/felix2/kernel/base/core\los_task.c ****     {
 256:D:/iot/felix2/kernel/base/core\los_task.c ****         usTempStatus = pstTaskCB->usTaskStatus;
 755              		.loc 2 256 0
 756 0048 FB68     		ldr	r3, [r7, #12]
 757 004a 9B88     		ldrh	r3, [r3, #4]	@ movhi
 758 004c 7B80     		strh	r3, [r7, #2]	@ movhi
 257:D:/iot/felix2/kernel/base/core\los_task.c ****         if (UWROLLNUM(pstTaskCB->uwIdxRollNum) > 0)
 759              		.loc 2 257 0
 760 004e FB68     		ldr	r3, [r7, #12]
 761 0050 9B6B     		ldr	r3, [r3, #56]
 762 0052 23F07843 		bic	r3, r3, #-134217728
 763 0056 002B     		cmp	r3, #0
 764 0058 05D0     		beq	.L34
 258:D:/iot/felix2/kernel/base/core\los_task.c ****         {
 259:D:/iot/felix2/kernel/base/core\los_task.c ****             UWROLLNUMDEC(pstTaskCB->uwIdxRollNum);
 765              		.loc 2 259 0
 766 005a FB68     		ldr	r3, [r7, #12]
 767 005c 9B6B     		ldr	r3, [r3, #56]
 768 005e 5A1E     		subs	r2, r3, #1
 769 0060 FB68     		ldr	r3, [r7, #12]
 770 0062 9A63     		str	r2, [r3, #56]
 260:D:/iot/felix2/kernel/base/core\los_task.c ****             break;
 771              		.loc 2 260 0
 772 0064 66E0     		b	.L35
 773              	.L34:
 261:D:/iot/felix2/kernel/base/core\los_task.c ****         }
 262:D:/iot/felix2/kernel/base/core\los_task.c **** 
 263:D:/iot/felix2/kernel/base/core\los_task.c ****         LOS_ListDelete(&pstTaskCB->stTimerList);
 774              		.loc 2 263 0
 775 0066 FB68     		ldr	r3, [r7, #12]
 776 0068 3033     		adds	r3, r3, #48
 777 006a 1846     		mov	r0, r3
 778 006c FFF7FEFF 		bl	LOS_ListDelete
 264:D:/iot/felix2/kernel/base/core\los_task.c ****         if (OS_TASK_STATUS_PEND & usTempStatus)
 779              		.loc 2 264 0
 780 0070 7B88     		ldrh	r3, [r7, #2]	@ movhi
 781 0072 03F00803 		and	r3, r3, #8
 782 0076 9BB2     		uxth	r3, r3
 783 0078 002B     		cmp	r3, #0
 784 007a 12D0     		beq	.L36
 265:D:/iot/felix2/kernel/base/core\los_task.c ****         {
 266:D:/iot/felix2/kernel/base/core\los_task.c ****             pstTaskCB->usTaskStatus &= ~(OS_TASK_STATUS_PEND);
 785              		.loc 2 266 0
 786 007c FB68     		ldr	r3, [r7, #12]
ARM GAS  C:\Users\91458\AppData\Local\Temp\cc2AQj9q.s 			page 23


 787 007e 9B88     		ldrh	r3, [r3, #4]
 788 0080 23F00803 		bic	r3, r3, #8
 789 0084 9AB2     		uxth	r2, r3
 790 0086 FB68     		ldr	r3, [r7, #12]
 791 0088 9A80     		strh	r2, [r3, #4]	@ movhi
 267:D:/iot/felix2/kernel/base/core\los_task.c ****             LOS_ListDelete(&pstTaskCB->stPendList);
 792              		.loc 2 267 0
 793 008a FB68     		ldr	r3, [r7, #12]
 794 008c 2833     		adds	r3, r3, #40
 795 008e 1846     		mov	r0, r3
 796 0090 FFF7FEFF 		bl	LOS_ListDelete
 268:D:/iot/felix2/kernel/base/core\los_task.c ****             pstTaskCB->pTaskSem = NULL;
 797              		.loc 2 268 0
 798 0094 FB68     		ldr	r3, [r7, #12]
 799 0096 0022     		movs	r2, #0
 800 0098 9A61     		str	r2, [r3, #24]
 269:D:/iot/felix2/kernel/base/core\los_task.c ****             pstTaskCB->pTaskMux = NULL;
 801              		.loc 2 269 0
 802 009a FB68     		ldr	r3, [r7, #12]
 803 009c 0022     		movs	r2, #0
 804 009e DA61     		str	r2, [r3, #28]
 805 00a0 27E0     		b	.L37
 806              	.L36:
 270:D:/iot/felix2/kernel/base/core\los_task.c ****         }
 271:D:/iot/felix2/kernel/base/core\los_task.c ****         else if (OS_TASK_STATUS_EVENT & usTempStatus)
 807              		.loc 2 271 0
 808 00a2 7B88     		ldrh	r3, [r7, #2]	@ movhi
 809 00a4 03F48063 		and	r3, r3, #1024
 810 00a8 9BB2     		uxth	r3, r3
 811 00aa 002B     		cmp	r3, #0
 812 00ac 07D0     		beq	.L38
 272:D:/iot/felix2/kernel/base/core\los_task.c ****         {
 273:D:/iot/felix2/kernel/base/core\los_task.c ****             pstTaskCB->usTaskStatus &= ~(OS_TASK_STATUS_EVENT);
 813              		.loc 2 273 0
 814 00ae FB68     		ldr	r3, [r7, #12]
 815 00b0 9B88     		ldrh	r3, [r3, #4]
 816 00b2 23F48063 		bic	r3, r3, #1024
 817 00b6 9AB2     		uxth	r2, r3
 818 00b8 FB68     		ldr	r3, [r7, #12]
 819 00ba 9A80     		strh	r2, [r3, #4]	@ movhi
 820 00bc 19E0     		b	.L37
 821              	.L38:
 274:D:/iot/felix2/kernel/base/core\los_task.c ****         }
 275:D:/iot/felix2/kernel/base/core\los_task.c ****         else if (OS_TASK_STATUS_PEND_QUEUE & usTempStatus)
 822              		.loc 2 275 0
 823 00be 7B88     		ldrh	r3, [r7, #2]	@ movhi
 824 00c0 03F40053 		and	r3, r3, #8192
 825 00c4 9BB2     		uxth	r3, r3
 826 00c6 002B     		cmp	r3, #0
 827 00c8 0CD0     		beq	.L39
 276:D:/iot/felix2/kernel/base/core\los_task.c ****         {
 277:D:/iot/felix2/kernel/base/core\los_task.c ****             LOS_ListDelete(&pstTaskCB->stPendList);
 828              		.loc 2 277 0
 829 00ca FB68     		ldr	r3, [r7, #12]
 830 00cc 2833     		adds	r3, r3, #40
 831 00ce 1846     		mov	r0, r3
 832 00d0 FFF7FEFF 		bl	LOS_ListDelete
ARM GAS  C:\Users\91458\AppData\Local\Temp\cc2AQj9q.s 			page 24


 278:D:/iot/felix2/kernel/base/core\los_task.c ****             pstTaskCB->usTaskStatus &= ~(OS_TASK_STATUS_PEND_QUEUE);
 833              		.loc 2 278 0
 834 00d4 FB68     		ldr	r3, [r7, #12]
 835 00d6 9B88     		ldrh	r3, [r3, #4]
 836 00d8 23F40053 		bic	r3, r3, #8192
 837 00dc 9AB2     		uxth	r2, r3
 838 00de FB68     		ldr	r3, [r7, #12]
 839 00e0 9A80     		strh	r2, [r3, #4]	@ movhi
 840 00e2 06E0     		b	.L37
 841              	.L39:
 279:D:/iot/felix2/kernel/base/core\los_task.c ****         }
 280:D:/iot/felix2/kernel/base/core\los_task.c ****         else
 281:D:/iot/felix2/kernel/base/core\los_task.c ****         {
 282:D:/iot/felix2/kernel/base/core\los_task.c ****             pstTaskCB->usTaskStatus &= ~(OS_TASK_STATUS_DELAY);
 842              		.loc 2 282 0
 843 00e4 FB68     		ldr	r3, [r7, #12]
 844 00e6 9B88     		ldrh	r3, [r3, #4]
 845 00e8 23F02003 		bic	r3, r3, #32
 846 00ec 9AB2     		uxth	r2, r3
 847 00ee FB68     		ldr	r3, [r7, #12]
 848 00f0 9A80     		strh	r2, [r3, #4]	@ movhi
 849              	.L37:
 283:D:/iot/felix2/kernel/base/core\los_task.c ****         }
 284:D:/iot/felix2/kernel/base/core\los_task.c **** 
 285:D:/iot/felix2/kernel/base/core\los_task.c ****         if (!((OS_TASK_STATUS_SUSPEND) & usTempStatus))
 850              		.loc 2 285 0
 851 00f2 7B88     		ldrh	r3, [r7, #2]	@ movhi
 852 00f4 03F00203 		and	r3, r3, #2
 853 00f8 9BB2     		uxth	r3, r3
 854 00fa 002B     		cmp	r3, #0
 855 00fc 11D1     		bne	.L40
 286:D:/iot/felix2/kernel/base/core\los_task.c ****         {
 287:D:/iot/felix2/kernel/base/core\los_task.c ****             pstTaskCB->usTaskStatus |= OS_TASK_STATUS_READY;
 856              		.loc 2 287 0
 857 00fe FB68     		ldr	r3, [r7, #12]
 858 0100 9B88     		ldrh	r3, [r3, #4]
 859 0102 43F00403 		orr	r3, r3, #4
 860 0106 9AB2     		uxth	r2, r3
 861 0108 FB68     		ldr	r3, [r7, #12]
 862 010a 9A80     		strh	r2, [r3, #4]	@ movhi
 288:D:/iot/felix2/kernel/base/core\los_task.c ****             osPriqueueEnqueue(&pstTaskCB->stPendList, pstTaskCB->usPriority);
 863              		.loc 2 288 0
 864 010c FB68     		ldr	r3, [r7, #12]
 865 010e 03F12802 		add	r2, r3, #40
 866 0112 FB68     		ldr	r3, [r7, #12]
 867 0114 DB88     		ldrh	r3, [r3, #6]
 868 0116 1946     		mov	r1, r3
 869 0118 1046     		mov	r0, r2
 870 011a FFF7FEFF 		bl	osPriqueueEnqueue
 289:D:/iot/felix2/kernel/base/core\los_task.c ****             bNeedSchedule = TRUE;
 871              		.loc 2 289 0
 872 011e 0123     		movs	r3, #1
 873 0120 BB60     		str	r3, [r7, #8]
 874              	.L40:
 290:D:/iot/felix2/kernel/base/core\los_task.c ****         }
 291:D:/iot/felix2/kernel/base/core\los_task.c **** 
 292:D:/iot/felix2/kernel/base/core\los_task.c ****         pstTaskCB = LOS_DL_LIST_ENTRY(pstListObject->pstNext, LOS_TASK_CB, stTimerList); /*lint !e4
ARM GAS  C:\Users\91458\AppData\Local\Temp\cc2AQj9q.s 			page 25


 875              		.loc 2 292 0
 876 0122 7B68     		ldr	r3, [r7, #4]
 877 0124 5B68     		ldr	r3, [r3, #4]
 878 0126 303B     		subs	r3, r3, #48
 879 0128 FB60     		str	r3, [r7, #12]
 880              	.L33:
 254:D:/iot/felix2/kernel/base/core\los_task.c ****     {
 881              		.loc 2 254 0 discriminator 1
 882 012a FB68     		ldr	r3, [r7, #12]
 883 012c 3033     		adds	r3, r3, #48
 884 012e 7A68     		ldr	r2, [r7, #4]
 885 0130 9A42     		cmp	r2, r3
 886 0132 89D1     		bne	.L41
 887              	.L35:
 293:D:/iot/felix2/kernel/base/core\los_task.c ****     }
 294:D:/iot/felix2/kernel/base/core\los_task.c **** 
 295:D:/iot/felix2/kernel/base/core\los_task.c ****     if (bNeedSchedule)
 888              		.loc 2 295 0
 889 0134 BB68     		ldr	r3, [r7, #8]
 890 0136 002B     		cmp	r3, #0
 891 0138 03D0     		beq	.L30
 296:D:/iot/felix2/kernel/base/core\los_task.c ****     {
 297:D:/iot/felix2/kernel/base/core\los_task.c ****         LOS_Schedule();
 892              		.loc 2 297 0
 893 013a FFF7FEFF 		bl	LOS_Schedule
 894 013e 00E0     		b	.L30
 895              	.L42:
 251:D:/iot/felix2/kernel/base/core\los_task.c ****     }
 896              		.loc 2 251 0
 897 0140 00BF     		nop
 898              	.L30:
 298:D:/iot/felix2/kernel/base/core\los_task.c ****     }
 299:D:/iot/felix2/kernel/base/core\los_task.c **** }
 899              		.loc 2 299 0
 900 0142 1037     		adds	r7, r7, #16
 901              	.LCFI49:
 902              		.cfi_def_cfa_offset 8
 903 0144 BD46     		mov	sp, r7
 904              	.LCFI50:
 905              		.cfi_def_cfa_register 13
 906              		@ sp needed
 907 0146 80BD     		pop	{r7, pc}
 908              	.L44:
 909              		.align	2
 910              	.L43:
 911 0148 00000000 		.word	g_stTskSortLink
 912              		.cfi_endproc
 913              	.LFE137:
 915              		.section	.rodata
 916              		.align	2
 917              	.LC0:
 918 0000 52756E6E 		.ascii	"Running\000"
 918      696E6700 
 919              		.align	2
 920              	.LC1:
 921 0008 52656164 		.ascii	"Ready\000"
 921      7900
ARM GAS  C:\Users\91458\AppData\Local\Temp\cc2AQj9q.s 			page 26


 922 000e 0000     		.align	2
 923              	.LC2:
 924 0010 44656C61 		.ascii	"Delay\000"
 924      7900
 925 0016 0000     		.align	2
 926              	.LC3:
 927 0018 50656E64 		.ascii	"PendTimeOut\000"
 927      54696D65 
 927      4F757400 
 928              		.align	2
 929              	.LC4:
 930 0024 50656E64 		.ascii	"Pend\000"
 930      00
 931 0029 000000   		.align	2
 932              	.LC5:
 933 002c 53757370 		.ascii	"Suspend\000"
 933      656E6400 
 934              		.align	2
 935              	.LC6:
 936 0034 51756575 		.ascii	"QueuePendTimeOut\000"
 936      6550656E 
 936      6454696D 
 936      654F7574 
 936      00
 937 0045 000000   		.align	2
 938              	.LC7:
 939 0048 51756575 		.ascii	"QueuePend\000"
 939      6550656E 
 939      6400
 940 0052 0000     		.align	2
 941              	.LC8:
 942 0054 496D706F 		.ascii	"Impossible\000"
 942      73736962 
 942      6C6500
 943              		.section	.text.osConvertTskStatus,"ax",%progbits
 944              		.align	1
 945              		.global	osConvertTskStatus
 946              		.syntax unified
 947              		.thumb
 948              		.thumb_func
 949              		.fpu fpv4-sp-d16
 951              	osConvertTskStatus:
 952              	.LFB138:
 300:D:/iot/felix2/kernel/base/core\los_task.c **** 
 301:D:/iot/felix2/kernel/base/core\los_task.c **** /*****************************************************************************
 302:D:/iot/felix2/kernel/base/core\los_task.c ****  Function : osConvertTskStatus
 303:D:/iot/felix2/kernel/base/core\los_task.c ****  Description : Convert task status to string.
 304:D:/iot/felix2/kernel/base/core\los_task.c ****  Input       : usTaskStatus    --- task status
 305:D:/iot/felix2/kernel/base/core\los_task.c ****  Output      : None
 306:D:/iot/felix2/kernel/base/core\los_task.c ****  Return      : string
 307:D:/iot/felix2/kernel/base/core\los_task.c ****  *****************************************************************************/
 308:D:/iot/felix2/kernel/base/core\los_task.c **** LITE_OS_SEC_TEXT_MINOR UINT8 *osConvertTskStatus(UINT16 usTaskStatus)
 309:D:/iot/felix2/kernel/base/core\los_task.c **** {
 953              		.loc 2 309 0
 954              		.cfi_startproc
 955              		@ args = 0, pretend = 0, frame = 8
 956              		@ frame_needed = 1, uses_anonymous_args = 0
ARM GAS  C:\Users\91458\AppData\Local\Temp\cc2AQj9q.s 			page 27


 957              		@ link register save eliminated.
 958 0000 80B4     		push	{r7}
 959              	.LCFI51:
 960              		.cfi_def_cfa_offset 4
 961              		.cfi_offset 7, -4
 962 0002 83B0     		sub	sp, sp, #12
 963              	.LCFI52:
 964              		.cfi_def_cfa_offset 16
 965 0004 00AF     		add	r7, sp, #0
 966              	.LCFI53:
 967              		.cfi_def_cfa_register 7
 968 0006 0346     		mov	r3, r0
 969 0008 FB80     		strh	r3, [r7, #6]	@ movhi
 310:D:/iot/felix2/kernel/base/core\los_task.c ****     if (OS_TASK_STATUS_RUNNING & usTaskStatus)
 970              		.loc 2 310 0
 971 000a FB88     		ldrh	r3, [r7, #6]	@ movhi
 972 000c 03F01003 		and	r3, r3, #16
 973 0010 9BB2     		uxth	r3, r3
 974 0012 002B     		cmp	r3, #0
 975 0014 01D0     		beq	.L46
 311:D:/iot/felix2/kernel/base/core\los_task.c ****     {
 312:D:/iot/felix2/kernel/base/core\los_task.c ****         return (UINT8 *)"Running";
 976              		.loc 2 312 0
 977 0016 204B     		ldr	r3, .L55
 978 0018 38E0     		b	.L47
 979              	.L46:
 313:D:/iot/felix2/kernel/base/core\los_task.c ****     }
 314:D:/iot/felix2/kernel/base/core\los_task.c ****     else if (OS_TASK_STATUS_READY &  usTaskStatus)
 980              		.loc 2 314 0
 981 001a FB88     		ldrh	r3, [r7, #6]	@ movhi
 982 001c 03F00403 		and	r3, r3, #4
 983 0020 9BB2     		uxth	r3, r3
 984 0022 002B     		cmp	r3, #0
 985 0024 01D0     		beq	.L48
 315:D:/iot/felix2/kernel/base/core\los_task.c ****     {
 316:D:/iot/felix2/kernel/base/core\los_task.c ****         return (UINT8 *)"Ready";
 986              		.loc 2 316 0
 987 0026 1D4B     		ldr	r3, .L55+4
 988 0028 30E0     		b	.L47
 989              	.L48:
 317:D:/iot/felix2/kernel/base/core\los_task.c ****     }
 318:D:/iot/felix2/kernel/base/core\los_task.c ****     else if (OS_TASK_STATUS_DELAY &  usTaskStatus)
 990              		.loc 2 318 0
 991 002a FB88     		ldrh	r3, [r7, #6]	@ movhi
 992 002c 03F02003 		and	r3, r3, #32
 993 0030 9BB2     		uxth	r3, r3
 994 0032 002B     		cmp	r3, #0
 995 0034 01D0     		beq	.L49
 319:D:/iot/felix2/kernel/base/core\los_task.c ****     {
 320:D:/iot/felix2/kernel/base/core\los_task.c ****         return (UINT8 *)"Delay";
 996              		.loc 2 320 0
 997 0036 1A4B     		ldr	r3, .L55+8
 998 0038 28E0     		b	.L47
 999              	.L49:
 321:D:/iot/felix2/kernel/base/core\los_task.c ****     }
 322:D:/iot/felix2/kernel/base/core\los_task.c ****     else if (OS_TASK_STATUS_PEND & usTaskStatus)
 1000              		.loc 2 322 0
ARM GAS  C:\Users\91458\AppData\Local\Temp\cc2AQj9q.s 			page 28


 1001 003a FB88     		ldrh	r3, [r7, #6]	@ movhi
 1002 003c 03F00803 		and	r3, r3, #8
 1003 0040 9BB2     		uxth	r3, r3
 1004 0042 002B     		cmp	r3, #0
 1005 0044 09D0     		beq	.L50
 323:D:/iot/felix2/kernel/base/core\los_task.c ****     {
 324:D:/iot/felix2/kernel/base/core\los_task.c ****         if (OS_TASK_STATUS_TIMEOUT & usTaskStatus)
 1006              		.loc 2 324 0
 1007 0046 FB88     		ldrh	r3, [r7, #6]	@ movhi
 1008 0048 03F04003 		and	r3, r3, #64
 1009 004c 9BB2     		uxth	r3, r3
 1010 004e 002B     		cmp	r3, #0
 1011 0050 01D0     		beq	.L51
 325:D:/iot/felix2/kernel/base/core\los_task.c ****         {
 326:D:/iot/felix2/kernel/base/core\los_task.c ****             return (UINT8 *)"PendTimeOut";
 1012              		.loc 2 326 0
 1013 0052 144B     		ldr	r3, .L55+12
 1014 0054 1AE0     		b	.L47
 1015              	.L51:
 327:D:/iot/felix2/kernel/base/core\los_task.c ****         }
 328:D:/iot/felix2/kernel/base/core\los_task.c **** 
 329:D:/iot/felix2/kernel/base/core\los_task.c ****         return (UINT8 *)"Pend";
 1016              		.loc 2 329 0
 1017 0056 144B     		ldr	r3, .L55+16
 1018 0058 18E0     		b	.L47
 1019              	.L50:
 330:D:/iot/felix2/kernel/base/core\los_task.c ****     }
 331:D:/iot/felix2/kernel/base/core\los_task.c ****     else if (OS_TASK_STATUS_SUSPEND & usTaskStatus)
 1020              		.loc 2 331 0
 1021 005a FB88     		ldrh	r3, [r7, #6]	@ movhi
 1022 005c 03F00203 		and	r3, r3, #2
 1023 0060 9BB2     		uxth	r3, r3
 1024 0062 002B     		cmp	r3, #0
 1025 0064 01D0     		beq	.L52
 332:D:/iot/felix2/kernel/base/core\los_task.c ****     {
 333:D:/iot/felix2/kernel/base/core\los_task.c ****         return (UINT8 *)"Suspend";
 1026              		.loc 2 333 0
 1027 0066 114B     		ldr	r3, .L55+20
 1028 0068 10E0     		b	.L47
 1029              	.L52:
 334:D:/iot/felix2/kernel/base/core\los_task.c ****     }
 335:D:/iot/felix2/kernel/base/core\los_task.c ****     else if (OS_TASK_STATUS_PEND_QUEUE& usTaskStatus)
 1030              		.loc 2 335 0
 1031 006a FB88     		ldrh	r3, [r7, #6]	@ movhi
 1032 006c 03F40053 		and	r3, r3, #8192
 1033 0070 9BB2     		uxth	r3, r3
 1034 0072 002B     		cmp	r3, #0
 1035 0074 09D0     		beq	.L53
 336:D:/iot/felix2/kernel/base/core\los_task.c ****     {
 337:D:/iot/felix2/kernel/base/core\los_task.c ****         if (OS_TASK_STATUS_TIMEOUT & usTaskStatus)
 1036              		.loc 2 337 0
 1037 0076 FB88     		ldrh	r3, [r7, #6]	@ movhi
 1038 0078 03F04003 		and	r3, r3, #64
 1039 007c 9BB2     		uxth	r3, r3
 1040 007e 002B     		cmp	r3, #0
 1041 0080 01D0     		beq	.L54
 338:D:/iot/felix2/kernel/base/core\los_task.c ****         {
ARM GAS  C:\Users\91458\AppData\Local\Temp\cc2AQj9q.s 			page 29


 339:D:/iot/felix2/kernel/base/core\los_task.c ****             return (UINT8 *)"QueuePendTimeOut";
 1042              		.loc 2 339 0
 1043 0082 0B4B     		ldr	r3, .L55+24
 1044 0084 02E0     		b	.L47
 1045              	.L54:
 340:D:/iot/felix2/kernel/base/core\los_task.c ****         }
 341:D:/iot/felix2/kernel/base/core\los_task.c **** 
 342:D:/iot/felix2/kernel/base/core\los_task.c ****         return (UINT8 *)"QueuePend";
 1046              		.loc 2 342 0
 1047 0086 0B4B     		ldr	r3, .L55+28
 1048 0088 00E0     		b	.L47
 1049              	.L53:
 343:D:/iot/felix2/kernel/base/core\los_task.c ****     }
 344:D:/iot/felix2/kernel/base/core\los_task.c **** 
 345:D:/iot/felix2/kernel/base/core\los_task.c ****     return (UINT8 *)"Impossible";
 1050              		.loc 2 345 0
 1051 008a 0B4B     		ldr	r3, .L55+32
 1052              	.L47:
 346:D:/iot/felix2/kernel/base/core\los_task.c **** }
 1053              		.loc 2 346 0
 1054 008c 1846     		mov	r0, r3
 1055 008e 0C37     		adds	r7, r7, #12
 1056              	.LCFI54:
 1057              		.cfi_def_cfa_offset 4
 1058 0090 BD46     		mov	sp, r7
 1059              	.LCFI55:
 1060              		.cfi_def_cfa_register 13
 1061              		@ sp needed
 1062 0092 5DF8047B 		ldr	r7, [sp], #4
 1063              	.LCFI56:
 1064              		.cfi_restore 7
 1065              		.cfi_def_cfa_offset 0
 1066 0096 7047     		bx	lr
 1067              	.L56:
 1068              		.align	2
 1069              	.L55:
 1070 0098 00000000 		.word	.LC0
 1071 009c 08000000 		.word	.LC1
 1072 00a0 10000000 		.word	.LC2
 1073 00a4 18000000 		.word	.LC3
 1074 00a8 24000000 		.word	.LC4
 1075 00ac 2C000000 		.word	.LC5
 1076 00b0 34000000 		.word	.LC6
 1077 00b4 48000000 		.word	.LC7
 1078 00b8 54000000 		.word	.LC8
 1079              		.cfi_endproc
 1080              	.LFE138:
 1082              		.section	.rodata
 1083 005f 00       		.align	2
 1084              	.LC9:
 1085 0060 5B455252 		.ascii	"[ERR] \000"
 1085      5D2000
 1086 0067 00       		.align	2
 1087              	.LC10:
 1088 0068 43555252 		.ascii	"CURRENT task %s stack overflow!\012\000"
 1088      454E5420 
 1088      7461736B 
ARM GAS  C:\Users\91458\AppData\Local\Temp\cc2AQj9q.s 			page 30


 1088      20257320 
 1088      73746163 
 1089              		.section	.text.osGetTaskWaterLine,"ax",%progbits
 1090              		.align	1
 1091              		.global	osGetTaskWaterLine
 1092              		.syntax unified
 1093              		.thumb
 1094              		.thumb_func
 1095              		.fpu fpv4-sp-d16
 1097              	osGetTaskWaterLine:
 1098              	.LFB139:
 347:D:/iot/felix2/kernel/base/core\los_task.c **** 
 348:D:/iot/felix2/kernel/base/core\los_task.c **** LITE_OS_SEC_TEXT_MINOR UINT32 osGetTaskWaterLine(UINT32 uwTaskID)
 349:D:/iot/felix2/kernel/base/core\los_task.c **** {
 1099              		.loc 2 349 0
 1100              		.cfi_startproc
 1101              		@ args = 0, pretend = 0, frame = 16
 1102              		@ frame_needed = 1, uses_anonymous_args = 0
 1103 0000 80B5     		push	{r7, lr}
 1104              	.LCFI57:
 1105              		.cfi_def_cfa_offset 8
 1106              		.cfi_offset 7, -8
 1107              		.cfi_offset 14, -4
 1108 0002 84B0     		sub	sp, sp, #16
 1109              	.LCFI58:
 1110              		.cfi_def_cfa_offset 24
 1111 0004 00AF     		add	r7, sp, #0
 1112              	.LCFI59:
 1113              		.cfi_def_cfa_register 7
 1114 0006 7860     		str	r0, [r7, #4]
 350:D:/iot/felix2/kernel/base/core\los_task.c ****     UINT32 *puwStack;
 351:D:/iot/felix2/kernel/base/core\los_task.c ****     UINT32 uwPeakUsed;
 352:D:/iot/felix2/kernel/base/core\los_task.c **** 
 353:D:/iot/felix2/kernel/base/core\los_task.c ****     if (OS_TASK_MAGIC_WORD == *(UINT32 *)(((LOS_TASK_CB *)g_pstTaskCBArray) + uwTaskID)->uwTopOfSta
 1115              		.loc 2 353 0
 1116 0008 2A4B     		ldr	r3, .L64
 1117 000a 1A68     		ldr	r2, [r3]
 1118 000c 7B68     		ldr	r3, [r7, #4]
 1119 000e 5421     		movs	r1, #84
 1120 0010 01FB03F3 		mul	r3, r1, r3
 1121 0014 1344     		add	r3, r3, r2
 1122 0016 DB68     		ldr	r3, [r3, #12]
 1123 0018 1B68     		ldr	r3, [r3]
 1124 001a B3F1CC3F 		cmp	r3, #-858993460
 1125 001e 32D1     		bne	.L58
 354:D:/iot/felix2/kernel/base/core\los_task.c ****     {
 355:D:/iot/felix2/kernel/base/core\los_task.c ****         puwStack = (UINT32 *)((((LOS_TASK_CB *)g_pstTaskCBArray) + uwTaskID)->uwTopOfStack + 4);
 1126              		.loc 2 355 0
 1127 0020 244B     		ldr	r3, .L64
 1128 0022 1A68     		ldr	r2, [r3]
 1129 0024 7B68     		ldr	r3, [r7, #4]
 1130 0026 5421     		movs	r1, #84
 1131 0028 01FB03F3 		mul	r3, r1, r3
 1132 002c 1344     		add	r3, r3, r2
 1133 002e DB68     		ldr	r3, [r3, #12]
 1134 0030 0433     		adds	r3, r3, #4
 1135 0032 FB60     		str	r3, [r7, #12]
ARM GAS  C:\Users\91458\AppData\Local\Temp\cc2AQj9q.s 			page 31


 356:D:/iot/felix2/kernel/base/core\los_task.c ****         while ((puwStack < (UINT32 *)(((LOS_TASK_CB *)g_pstTaskCBArray) + uwTaskID)->pStackPointer)
 1136              		.loc 2 356 0
 1137 0034 02E0     		b	.L59
 1138              	.L61:
 357:D:/iot/felix2/kernel/base/core\los_task.c ****         {
 358:D:/iot/felix2/kernel/base/core\los_task.c ****             puwStack += 1;
 1139              		.loc 2 358 0
 1140 0036 FB68     		ldr	r3, [r7, #12]
 1141 0038 0433     		adds	r3, r3, #4
 1142 003a FB60     		str	r3, [r7, #12]
 1143              	.L59:
 356:D:/iot/felix2/kernel/base/core\los_task.c ****         while ((puwStack < (UINT32 *)(((LOS_TASK_CB *)g_pstTaskCBArray) + uwTaskID)->pStackPointer)
 1144              		.loc 2 356 0
 1145 003c 1D4B     		ldr	r3, .L64
 1146 003e 1A68     		ldr	r2, [r3]
 1147 0040 7B68     		ldr	r3, [r7, #4]
 1148 0042 5421     		movs	r1, #84
 1149 0044 01FB03F3 		mul	r3, r1, r3
 1150 0048 1344     		add	r3, r3, r2
 1151 004a 1B68     		ldr	r3, [r3]
 1152 004c FA68     		ldr	r2, [r7, #12]
 1153 004e 9A42     		cmp	r2, r3
 1154 0050 04D2     		bcs	.L60
 356:D:/iot/felix2/kernel/base/core\los_task.c ****         while ((puwStack < (UINT32 *)(((LOS_TASK_CB *)g_pstTaskCBArray) + uwTaskID)->pStackPointer)
 1155              		.loc 2 356 0 is_stmt 0 discriminator 1
 1156 0052 FB68     		ldr	r3, [r7, #12]
 1157 0054 1B68     		ldr	r3, [r3]
 1158 0056 B3F1CA3F 		cmp	r3, #-892679478
 1159 005a ECD0     		beq	.L61
 1160              	.L60:
 359:D:/iot/felix2/kernel/base/core\los_task.c ****         }
 360:D:/iot/felix2/kernel/base/core\los_task.c ****         uwPeakUsed = ((((LOS_TASK_CB *)g_pstTaskCBArray) + uwTaskID)->uwStackSize - ((UINT32)puwSta
 1161              		.loc 2 360 0 is_stmt 1
 1162 005c 154B     		ldr	r3, .L64
 1163 005e 1A68     		ldr	r2, [r3]
 1164 0060 7B68     		ldr	r3, [r7, #4]
 1165 0062 5421     		movs	r1, #84
 1166 0064 01FB03F3 		mul	r3, r1, r3
 1167 0068 1344     		add	r3, r3, r2
 1168 006a 9A68     		ldr	r2, [r3, #8]
 1169 006c 114B     		ldr	r3, .L64
 1170 006e 1968     		ldr	r1, [r3]
 1171 0070 7B68     		ldr	r3, [r7, #4]
 1172 0072 5420     		movs	r0, #84
 1173 0074 00FB03F3 		mul	r3, r0, r3
 1174 0078 0B44     		add	r3, r3, r1
 1175 007a D968     		ldr	r1, [r3, #12]
 1176 007c FB68     		ldr	r3, [r7, #12]
 1177 007e CB1A     		subs	r3, r1, r3
 1178 0080 1344     		add	r3, r3, r2
 1179 0082 BB60     		str	r3, [r7, #8]
 1180 0084 11E0     		b	.L62
 1181              	.L58:
 361:D:/iot/felix2/kernel/base/core\los_task.c ****     }
 362:D:/iot/felix2/kernel/base/core\los_task.c ****     else
 363:D:/iot/felix2/kernel/base/core\los_task.c ****     {
 364:D:/iot/felix2/kernel/base/core\los_task.c ****         PRINT_ERR("CURRENT task %s stack overflow!\n", (((LOS_TASK_CB *)g_pstTaskCBArray) + uwTaskI
ARM GAS  C:\Users\91458\AppData\Local\Temp\cc2AQj9q.s 			page 32


 1182              		.loc 2 364 0
 1183 0086 0C48     		ldr	r0, .L64+4
 1184 0088 FFF7FEFF 		bl	printf
 1185 008c 094B     		ldr	r3, .L64
 1186 008e 1A68     		ldr	r2, [r3]
 1187 0090 7B68     		ldr	r3, [r7, #4]
 1188 0092 5421     		movs	r1, #84
 1189 0094 01FB03F3 		mul	r3, r1, r3
 1190 0098 1344     		add	r3, r3, r2
 1191 009a 5B6A     		ldr	r3, [r3, #36]
 1192 009c 1946     		mov	r1, r3
 1193 009e 0748     		ldr	r0, .L64+8
 1194 00a0 FFF7FEFF 		bl	printf
 365:D:/iot/felix2/kernel/base/core\los_task.c ****         uwPeakUsed = 0xFFFFFFFF;
 1195              		.loc 2 365 0
 1196 00a4 4FF0FF33 		mov	r3, #-1
 1197 00a8 BB60     		str	r3, [r7, #8]
 1198              	.L62:
 366:D:/iot/felix2/kernel/base/core\los_task.c ****     }
 367:D:/iot/felix2/kernel/base/core\los_task.c ****     return uwPeakUsed;
 1199              		.loc 2 367 0
 1200 00aa BB68     		ldr	r3, [r7, #8]
 368:D:/iot/felix2/kernel/base/core\los_task.c **** }
 1201              		.loc 2 368 0
 1202 00ac 1846     		mov	r0, r3
 1203 00ae 1037     		adds	r7, r7, #16
 1204              	.LCFI60:
 1205              		.cfi_def_cfa_offset 8
 1206 00b0 BD46     		mov	sp, r7
 1207              	.LCFI61:
 1208              		.cfi_def_cfa_register 13
 1209              		@ sp needed
 1210 00b2 80BD     		pop	{r7, pc}
 1211              	.L65:
 1212              		.align	2
 1213              	.L64:
 1214 00b4 00000000 		.word	g_pstTaskCBArray
 1215 00b8 60000000 		.word	.LC9
 1216 00bc 68000000 		.word	.LC10
 1217              		.cfi_endproc
 1218              	.LFE139:
 1220              		.section	.rodata
 1221 0089 000000   		.align	2
 1222              	.LC11:
 1223 008c 0D0A4E61 		.ascii	"\015\012Name                          TID    Priori"
 1223      6D652020 
 1223      20202020 
 1223      20202020 
 1223      20202020 
 1224 00b9 74792020 		.ascii	"ty   Status       StackSize    WaterLine    StackPo"
 1224      20537461 
 1224      74757320 
 1224      20202020 
 1224      20205374 
 1225 00ec 696E7420 		.ascii	"int  TopOfStack   EventMask  SemID\000"
 1225      20546F70 
 1225      4F665374 
ARM GAS  C:\Users\91458\AppData\Local\Temp\cc2AQj9q.s 			page 33


 1225      61636B20 
 1225      20204576 
 1226 010f 00       		.align	2
 1227              	.LC12:
 1228 0110 2D2D2D2D 		.ascii	"----                          ---    --------   ---"
 1228      20202020 
 1228      20202020 
 1228      20202020 
 1228      20202020 
 1229 0143 2D2D2D2D 		.ascii	"-----     ---------    ----------   ----------  ---"
 1229      2D202020 
 1229      20202D2D 
 1229      2D2D2D2D 
 1229      2D2D2D20 
 1230 0176 2D2D2D2D 		.ascii	"-------   ---------  -----\000"
 1230      2D2D2D20 
 1230      20202D2D 
 1230      2D2D2D2D 
 1230      2D2D2D20 
 1231 0191 000000   		.align	2
 1232              	.LC13:
 1233 0194 252D3330 		.ascii	"%-30s, 0x%-5x, %-11d, %-13s, 0x%-11x, 0x%-11x, 0x%-"
 1233      732C2030 
 1233      78252D35 
 1233      782C2025 
 1233      2D313164 
 1234 01c7 3130782C 		.ascii	"10x, 0x%-11x, 0x%-9x\000"
 1234      20307825 
 1234      2D313178 
 1234      2C203078 
 1234      252D3978 
 1235              		.align	2
 1236              	.LC14:
 1237 01dc 3078252D 		.ascii	"0x%-7x\000"
 1237      377800
 1238              		.section	.text.osGetAllTskInfo,"ax",%progbits
 1239              		.align	1
 1240              		.global	osGetAllTskInfo
 1241              		.syntax unified
 1242              		.thumb
 1243              		.thumb_func
 1244              		.fpu fpv4-sp-d16
 1246              	osGetAllTskInfo:
 1247              	.LFB140:
 369:D:/iot/felix2/kernel/base/core\los_task.c **** 
 370:D:/iot/felix2/kernel/base/core\los_task.c **** /*****************************************************************************
 371:D:/iot/felix2/kernel/base/core\los_task.c ****  Function : osGetAllTskInfo
 372:D:/iot/felix2/kernel/base/core\los_task.c ****  Description : Get all task info.
 373:D:/iot/felix2/kernel/base/core\los_task.c ****  Input       : None
 374:D:/iot/felix2/kernel/base/core\los_task.c ****  Output      : None
 375:D:/iot/felix2/kernel/base/core\los_task.c ****  Return      : None
 376:D:/iot/felix2/kernel/base/core\los_task.c ****  *****************************************************************************/
 377:D:/iot/felix2/kernel/base/core\los_task.c **** LITE_OS_SEC_TEXT_MINOR UINT32 osGetAllTskInfo(VOID)
 378:D:/iot/felix2/kernel/base/core\los_task.c **** {
 1248              		.loc 2 378 0
 1249              		.cfi_startproc
 1250              		@ args = 0, pretend = 0, frame = 16
ARM GAS  C:\Users\91458\AppData\Local\Temp\cc2AQj9q.s 			page 34


 1251              		@ frame_needed = 1, uses_anonymous_args = 0
 1252 0000 2DE9F041 		push	{r4, r5, r6, r7, r8, lr}
 1253              	.LCFI62:
 1254              		.cfi_def_cfa_offset 24
 1255              		.cfi_offset 4, -24
 1256              		.cfi_offset 5, -20
 1257              		.cfi_offset 6, -16
 1258              		.cfi_offset 7, -12
 1259              		.cfi_offset 8, -8
 1260              		.cfi_offset 14, -4
 1261 0004 8AB0     		sub	sp, sp, #40
 1262              	.LCFI63:
 1263              		.cfi_def_cfa_offset 64
 1264 0006 06AF     		add	r7, sp, #24
 1265              	.LCFI64:
 1266              		.cfi_def_cfa 7, 40
 379:D:/iot/felix2/kernel/base/core\los_task.c ****     LOS_TASK_CB *pstTaskCB;
 380:D:/iot/felix2/kernel/base/core\los_task.c ****     UINT32       uwLoop;
 381:D:/iot/felix2/kernel/base/core\los_task.c **** #if (LOSCFG_BASE_CORE_CPUP == YES)
 382:D:/iot/felix2/kernel/base/core\los_task.c ****     CPUP_INFO_S *pstCpu = (CPUP_INFO_S *)NULL;
 383:D:/iot/felix2/kernel/base/core\los_task.c ****     CPUP_INFO_S *pstCpu10s = (CPUP_INFO_S *)NULL;
 384:D:/iot/felix2/kernel/base/core\los_task.c ****     CPUP_INFO_S *pstCpu1s = (CPUP_INFO_S *)NULL;
 385:D:/iot/felix2/kernel/base/core\los_task.c **** #endif
 386:D:/iot/felix2/kernel/base/core\los_task.c **** 
 387:D:/iot/felix2/kernel/base/core\los_task.c **** #if (LOSCFG_BASE_CORE_CPUP == YES)
 388:D:/iot/felix2/kernel/base/core\los_task.c ****     pstCpu = (CPUP_INFO_S *)LOS_MemAlloc((VOID *)OS_SYS_MEM_ADDR, sizeof(CPUP_INFO_S) * g_uwTskMaxN
 389:D:/iot/felix2/kernel/base/core\los_task.c ****     if (pstCpu == NULL)
 390:D:/iot/felix2/kernel/base/core\los_task.c ****     {
 391:D:/iot/felix2/kernel/base/core\los_task.c ****         PRINT_ERR("%s[%d] malloc failure!\n", __FUNCTION__, __LINE__);/*lint !e515*/
 392:D:/iot/felix2/kernel/base/core\los_task.c ****         return OS_ERROR;
 393:D:/iot/felix2/kernel/base/core\los_task.c ****     }
 394:D:/iot/felix2/kernel/base/core\los_task.c ****     (VOID)memset((VOID *)pstCpu, (int)0, sizeof(CPUP_INFO_S) * g_uwTskMaxNum);
 395:D:/iot/felix2/kernel/base/core\los_task.c **** 
 396:D:/iot/felix2/kernel/base/core\los_task.c ****     pstCpu10s = (CPUP_INFO_S *)LOS_MemAlloc((VOID *)OS_SYS_MEM_ADDR, sizeof(CPUP_INFO_S) * g_uwTskM
 397:D:/iot/felix2/kernel/base/core\los_task.c ****     if (pstCpu10s == NULL)
 398:D:/iot/felix2/kernel/base/core\los_task.c ****     {
 399:D:/iot/felix2/kernel/base/core\los_task.c ****         PRINT_ERR("%s[%d] malloc failure!\n", __FUNCTION__, __LINE__);/*lint !e515*/
 400:D:/iot/felix2/kernel/base/core\los_task.c ****         (VOID)LOS_MemFree((VOID *)OS_SYS_MEM_ADDR, pstCpu);
 401:D:/iot/felix2/kernel/base/core\los_task.c ****         return OS_ERROR;
 402:D:/iot/felix2/kernel/base/core\los_task.c ****     }
 403:D:/iot/felix2/kernel/base/core\los_task.c ****     (VOID)memset((VOID *)pstCpu10s, (int)0, sizeof(CPUP_INFO_S) * g_uwTskMaxNum);
 404:D:/iot/felix2/kernel/base/core\los_task.c **** 
 405:D:/iot/felix2/kernel/base/core\los_task.c ****     pstCpu1s = (CPUP_INFO_S *)LOS_MemAlloc((VOID *)OS_SYS_MEM_ADDR, sizeof(CPUP_INFO_S) * g_uwTskMa
 406:D:/iot/felix2/kernel/base/core\los_task.c ****     if (pstCpu1s == NULL)
 407:D:/iot/felix2/kernel/base/core\los_task.c ****     {
 408:D:/iot/felix2/kernel/base/core\los_task.c ****         PRINT_ERR("%s[%d] malloc failure!\n", __FUNCTION__, __LINE__);/*lint !e515*/
 409:D:/iot/felix2/kernel/base/core\los_task.c ****         (VOID)LOS_MemFree((VOID *)OS_SYS_MEM_ADDR, pstCpu);
 410:D:/iot/felix2/kernel/base/core\los_task.c ****         (VOID)LOS_MemFree((VOID *)OS_SYS_MEM_ADDR, pstCpu10s);
 411:D:/iot/felix2/kernel/base/core\los_task.c ****         return OS_ERROR;
 412:D:/iot/felix2/kernel/base/core\los_task.c ****     }
 413:D:/iot/felix2/kernel/base/core\los_task.c ****     (VOID)memset((VOID *)pstCpu1s, (int)0, sizeof(CPUP_INFO_S) * g_uwTskMaxNum);
 414:D:/iot/felix2/kernel/base/core\los_task.c **** 
 415:D:/iot/felix2/kernel/base/core\los_task.c ****     LOS_TaskLock();
 416:D:/iot/felix2/kernel/base/core\los_task.c ****     (VOID)LOS_AllTaskCpuUsage(g_uwTskMaxNum, pstCpu, 0xffff);
 417:D:/iot/felix2/kernel/base/core\los_task.c ****     (VOID)LOS_AllTaskCpuUsage(g_uwTskMaxNum, pstCpu10s, 0);
 418:D:/iot/felix2/kernel/base/core\los_task.c ****     (VOID)LOS_AllTaskCpuUsage(g_uwTskMaxNum, pstCpu1s, 1);
 419:D:/iot/felix2/kernel/base/core\los_task.c ****     LOS_TaskUnlock();
ARM GAS  C:\Users\91458\AppData\Local\Temp\cc2AQj9q.s 			page 35


 420:D:/iot/felix2/kernel/base/core\los_task.c **** #endif
 421:D:/iot/felix2/kernel/base/core\los_task.c **** 
 422:D:/iot/felix2/kernel/base/core\los_task.c ****     PRINT_ERR("\r\nName                          TID    Priority   Status       StackSize    WaterL
 1267              		.loc 2 422 0
 1268 0008 4048     		ldr	r0, .L75
 1269 000a FFF7FEFF 		bl	printf
 1270 000e 4048     		ldr	r0, .L75+4
 1271 0010 FFF7FEFF 		bl	printf
 423:D:/iot/felix2/kernel/base/core\los_task.c **** #if (LOSCFG_BASE_CORE_CPUP == YES)
 424:D:/iot/felix2/kernel/base/core\los_task.c ****     PRINT_ERR(" CPUUSE   CPUUSE10s  CPUUSE1s  ");/*lint !e515*/
 425:D:/iot/felix2/kernel/base/core\los_task.c **** #endif /* LOSCFG_BASE_CORE_CPUP */
 426:D:/iot/felix2/kernel/base/core\los_task.c ****     PRINT_ERR("\n");/*lint !e515*/
 1272              		.loc 2 426 0
 1273 0014 3D48     		ldr	r0, .L75
 1274 0016 FFF7FEFF 		bl	printf
 1275 001a 0A20     		movs	r0, #10
 1276 001c FFF7FEFF 		bl	putchar
 427:D:/iot/felix2/kernel/base/core\los_task.c ****     PRINT_ERR("----                          ---    --------   --------     ---------    ----------
 1277              		.loc 2 427 0
 1278 0020 3A48     		ldr	r0, .L75
 1279 0022 FFF7FEFF 		bl	printf
 1280 0026 3B48     		ldr	r0, .L75+8
 1281 0028 FFF7FEFF 		bl	printf
 428:D:/iot/felix2/kernel/base/core\los_task.c **** #if (LOSCFG_BASE_CORE_CPUP == YES)
 429:D:/iot/felix2/kernel/base/core\los_task.c ****     PRINT_ERR("  ------- ---------  ---------");/*lint !e515*/
 430:D:/iot/felix2/kernel/base/core\los_task.c **** #endif /* LOSCFG_BASE_CORE_CPUP */
 431:D:/iot/felix2/kernel/base/core\los_task.c ****     PRINT_ERR("\n");/*lint !e515*/
 1282              		.loc 2 431 0
 1283 002c 3748     		ldr	r0, .L75
 1284 002e FFF7FEFF 		bl	printf
 1285 0032 0A20     		movs	r0, #10
 1286 0034 FFF7FEFF 		bl	putchar
 432:D:/iot/felix2/kernel/base/core\los_task.c **** 
 433:D:/iot/felix2/kernel/base/core\los_task.c ****     for (uwLoop = 0; uwLoop < g_uwTskMaxNum; uwLoop++)
 1287              		.loc 2 433 0
 1288 0038 0023     		movs	r3, #0
 1289 003a FB60     		str	r3, [r7, #12]
 1290 003c 5BE0     		b	.L67
 1291              	.L72:
 434:D:/iot/felix2/kernel/base/core\los_task.c ****     {
 435:D:/iot/felix2/kernel/base/core\los_task.c ****         //uvIntSave = LOS_IntLock();
 436:D:/iot/felix2/kernel/base/core\los_task.c ****         pstTaskCB = (((LOS_TASK_CB *)g_pstTaskCBArray) + uwLoop);
 1292              		.loc 2 436 0
 1293 003e 364B     		ldr	r3, .L75+12
 1294 0040 1A68     		ldr	r2, [r3]
 1295 0042 FB68     		ldr	r3, [r7, #12]
 1296 0044 5421     		movs	r1, #84
 1297 0046 01FB03F3 		mul	r3, r1, r3
 1298 004a 1344     		add	r3, r3, r2
 1299 004c BB60     		str	r3, [r7, #8]
 437:D:/iot/felix2/kernel/base/core\los_task.c ****         if (pstTaskCB->usTaskStatus & OS_TASK_STATUS_UNUSED)
 1300              		.loc 2 437 0
 1301 004e BB68     		ldr	r3, [r7, #8]
 1302 0050 9B88     		ldrh	r3, [r3, #4]
 1303 0052 03F00103 		and	r3, r3, #1
 1304 0056 002B     		cmp	r3, #0
 1305 0058 49D1     		bne	.L74
ARM GAS  C:\Users\91458\AppData\Local\Temp\cc2AQj9q.s 			page 36


 438:D:/iot/felix2/kernel/base/core\los_task.c ****         {
 439:D:/iot/felix2/kernel/base/core\los_task.c ****             //LOS_IntRestore(uvIntSave);
 440:D:/iot/felix2/kernel/base/core\los_task.c ****             continue;
 441:D:/iot/felix2/kernel/base/core\los_task.c ****         }
 442:D:/iot/felix2/kernel/base/core\los_task.c **** 
 443:D:/iot/felix2/kernel/base/core\los_task.c ****         PRINT_ERR("%-30s, 0x%-5x, %-11d, %-13s, 0x%-11x, 0x%-11x, 0x%-10x, 0x%-11x, 0x%-9x",
 1306              		.loc 2 443 0
 1307 005a 2C48     		ldr	r0, .L75
 1308 005c FFF7FEFF 		bl	printf
 1309 0060 BB68     		ldr	r3, [r7, #8]
 1310 0062 5D6A     		ldr	r5, [r3, #36]
 1311 0064 BB68     		ldr	r3, [r7, #8]
 1312 0066 1E69     		ldr	r6, [r3, #16]
 1313 0068 BB68     		ldr	r3, [r7, #8]
 1314 006a DB88     		ldrh	r3, [r3, #6]
 1315 006c 9846     		mov	r8, r3
 1316 006e BB68     		ldr	r3, [r7, #8]
 1317 0070 9B88     		ldrh	r3, [r3, #4]
 1318 0072 1846     		mov	r0, r3
 1319 0074 FFF7FEFF 		bl	osConvertTskStatus
 1320 0078 7860     		str	r0, [r7, #4]
 1321 007a BB68     		ldr	r3, [r7, #8]
 1322 007c 9C68     		ldr	r4, [r3, #8]
 1323 007e BB68     		ldr	r3, [r7, #8]
 1324 0080 1B69     		ldr	r3, [r3, #16]
 1325 0082 1846     		mov	r0, r3
 1326 0084 FFF7FEFF 		bl	osGetTaskWaterLine
 1327 0088 0146     		mov	r1, r0
 1328 008a BB68     		ldr	r3, [r7, #8]
 1329 008c 1B68     		ldr	r3, [r3]
 1330 008e 1846     		mov	r0, r3
 1331 0090 BB68     		ldr	r3, [r7, #8]
 1332 0092 DB68     		ldr	r3, [r3, #12]
 1333 0094 BA68     		ldr	r2, [r7, #8]
 1334 0096 926C     		ldr	r2, [r2, #72]
 1335 0098 0592     		str	r2, [sp, #20]
 1336 009a 0493     		str	r3, [sp, #16]
 1337 009c 0390     		str	r0, [sp, #12]
 1338 009e 0291     		str	r1, [sp, #8]
 1339 00a0 0194     		str	r4, [sp, #4]
 1340 00a2 7B68     		ldr	r3, [r7, #4]
 1341 00a4 0093     		str	r3, [sp]
 1342 00a6 4346     		mov	r3, r8
 1343 00a8 3246     		mov	r2, r6
 1344 00aa 2946     		mov	r1, r5
 1345 00ac 1B48     		ldr	r0, .L75+16
 1346 00ae FFF7FEFF 		bl	printf
 444:D:/iot/felix2/kernel/base/core\los_task.c ****                           pstTaskCB->pcTaskName,
 445:D:/iot/felix2/kernel/base/core\los_task.c ****                           pstTaskCB->uwTaskID,
 446:D:/iot/felix2/kernel/base/core\los_task.c ****                           pstTaskCB->usPriority,
 447:D:/iot/felix2/kernel/base/core\los_task.c ****                           osConvertTskStatus(pstTaskCB->usTaskStatus),
 448:D:/iot/felix2/kernel/base/core\los_task.c ****                           pstTaskCB->uwStackSize,
 449:D:/iot/felix2/kernel/base/core\los_task.c ****                           osGetTaskWaterLine(pstTaskCB->uwTaskID),
 450:D:/iot/felix2/kernel/base/core\los_task.c ****                           (UINT32)pstTaskCB->pStackPointer,
 451:D:/iot/felix2/kernel/base/core\los_task.c ****                           pstTaskCB->uwTopOfStack,
 452:D:/iot/felix2/kernel/base/core\los_task.c ****                           pstTaskCB->uwEventMask);/*lint !e515*/
 453:D:/iot/felix2/kernel/base/core\los_task.c **** 
ARM GAS  C:\Users\91458\AppData\Local\Temp\cc2AQj9q.s 			page 37


 454:D:/iot/felix2/kernel/base/core\los_task.c ****         if (pstTaskCB->pTaskSem != NULL)
 1347              		.loc 2 454 0
 1348 00b2 BB68     		ldr	r3, [r7, #8]
 1349 00b4 9B69     		ldr	r3, [r3, #24]
 1350 00b6 002B     		cmp	r3, #0
 1351 00b8 0AD0     		beq	.L70
 455:D:/iot/felix2/kernel/base/core\los_task.c ****         {
 456:D:/iot/felix2/kernel/base/core\los_task.c ****             PRINT_ERR("0x%-7x", ((SEM_CB_S *)pstTaskCB->pTaskSem)->usSemID);/*lint !e516*/
 1352              		.loc 2 456 0
 1353 00ba 1448     		ldr	r0, .L75
 1354 00bc FFF7FEFF 		bl	printf
 1355 00c0 BB68     		ldr	r3, [r7, #8]
 1356 00c2 9B69     		ldr	r3, [r3, #24]
 1357 00c4 DB88     		ldrh	r3, [r3, #6]
 1358 00c6 1946     		mov	r1, r3
 1359 00c8 1548     		ldr	r0, .L75+20
 1360 00ca FFF7FEFF 		bl	printf
 1361 00ce 07E0     		b	.L71
 1362              	.L70:
 457:D:/iot/felix2/kernel/base/core\los_task.c ****         }
 458:D:/iot/felix2/kernel/base/core\los_task.c ****         else
 459:D:/iot/felix2/kernel/base/core\los_task.c ****         {
 460:D:/iot/felix2/kernel/base/core\los_task.c ****             PRINT_ERR("0x%-7x", 0xFFFF);
 1363              		.loc 2 460 0
 1364 00d0 0E48     		ldr	r0, .L75
 1365 00d2 FFF7FEFF 		bl	printf
 1366 00d6 4FF6FF71 		movw	r1, #65535
 1367 00da 1148     		ldr	r0, .L75+20
 1368 00dc FFF7FEFF 		bl	printf
 1369              	.L71:
 461:D:/iot/felix2/kernel/base/core\los_task.c ****         }
 462:D:/iot/felix2/kernel/base/core\los_task.c **** 
 463:D:/iot/felix2/kernel/base/core\los_task.c **** #if (LOSCFG_BASE_CORE_CPUP == YES)
 464:D:/iot/felix2/kernel/base/core\los_task.c ****         PRINT_ERR("%2d.%-7d"
 465:D:/iot/felix2/kernel/base/core\los_task.c ****                           "%2d.%-9d"
 466:D:/iot/felix2/kernel/base/core\los_task.c ****                           "%2d.%-6d",
 467:D:/iot/felix2/kernel/base/core\los_task.c ****                           pstCpu[pstTaskCB->uwTaskID].uwUsage / LOS_CPUP_PRECISION_MULT,
 468:D:/iot/felix2/kernel/base/core\los_task.c ****                           pstCpu[pstTaskCB->uwTaskID].uwUsage % LOS_CPUP_PRECISION_MULT,
 469:D:/iot/felix2/kernel/base/core\los_task.c ****                           pstCpu10s[pstTaskCB->uwTaskID].uwUsage / LOS_CPUP_PRECISION_MULT,
 470:D:/iot/felix2/kernel/base/core\los_task.c ****                           pstCpu10s[pstTaskCB->uwTaskID].uwUsage % LOS_CPUP_PRECISION_MULT,
 471:D:/iot/felix2/kernel/base/core\los_task.c ****                           pstCpu1s[pstTaskCB->uwTaskID].uwUsage / LOS_CPUP_PRECISION_MULT,
 472:D:/iot/felix2/kernel/base/core\los_task.c ****                           pstCpu1s[pstTaskCB->uwTaskID].uwUsage % LOS_CPUP_PRECISION_MULT);/*lint !
 473:D:/iot/felix2/kernel/base/core\los_task.c **** #endif /* LOSCFG_BASE_CORE_CPUP */
 474:D:/iot/felix2/kernel/base/core\los_task.c ****         PRINT_ERR("\n");/*lint !e515*/
 1370              		.loc 2 474 0
 1371 00e0 0A48     		ldr	r0, .L75
 1372 00e2 FFF7FEFF 		bl	printf
 1373 00e6 0A20     		movs	r0, #10
 1374 00e8 FFF7FEFF 		bl	putchar
 1375 00ec 00E0     		b	.L69
 1376              	.L74:
 440:D:/iot/felix2/kernel/base/core\los_task.c ****         }
 1377              		.loc 2 440 0
 1378 00ee 00BF     		nop
 1379              	.L69:
 433:D:/iot/felix2/kernel/base/core\los_task.c ****     {
 1380              		.loc 2 433 0 discriminator 2
ARM GAS  C:\Users\91458\AppData\Local\Temp\cc2AQj9q.s 			page 38


 1381 00f0 FB68     		ldr	r3, [r7, #12]
 1382 00f2 0133     		adds	r3, r3, #1
 1383 00f4 FB60     		str	r3, [r7, #12]
 1384              	.L67:
 433:D:/iot/felix2/kernel/base/core\los_task.c ****     {
 1385              		.loc 2 433 0 is_stmt 0 discriminator 1
 1386 00f6 0B4B     		ldr	r3, .L75+24
 1387 00f8 1B68     		ldr	r3, [r3]
 1388 00fa FA68     		ldr	r2, [r7, #12]
 1389 00fc 9A42     		cmp	r2, r3
 1390 00fe 9ED3     		bcc	.L72
 475:D:/iot/felix2/kernel/base/core\los_task.c ****     }
 476:D:/iot/felix2/kernel/base/core\los_task.c **** 
 477:D:/iot/felix2/kernel/base/core\los_task.c **** #if (LOSCFG_BASE_CORE_CPUP == YES)
 478:D:/iot/felix2/kernel/base/core\los_task.c ****     (VOID)LOS_MemFree((VOID *)OS_SYS_MEM_ADDR, pstCpu);
 479:D:/iot/felix2/kernel/base/core\los_task.c ****     (VOID)LOS_MemFree((VOID *)OS_SYS_MEM_ADDR, pstCpu10s);
 480:D:/iot/felix2/kernel/base/core\los_task.c ****     (VOID)LOS_MemFree((VOID *)OS_SYS_MEM_ADDR, pstCpu1s);
 481:D:/iot/felix2/kernel/base/core\los_task.c **** #endif
 482:D:/iot/felix2/kernel/base/core\los_task.c **** 
 483:D:/iot/felix2/kernel/base/core\los_task.c ****     return LOS_OK;
 1391              		.loc 2 483 0 is_stmt 1
 1392 0100 0023     		movs	r3, #0
 484:D:/iot/felix2/kernel/base/core\los_task.c **** }
 1393              		.loc 2 484 0
 1394 0102 1846     		mov	r0, r3
 1395 0104 1037     		adds	r7, r7, #16
 1396              	.LCFI65:
 1397              		.cfi_def_cfa_offset 24
 1398 0106 BD46     		mov	sp, r7
 1399              	.LCFI66:
 1400              		.cfi_def_cfa_register 13
 1401              		@ sp needed
 1402 0108 BDE8F081 		pop	{r4, r5, r6, r7, r8, pc}
 1403              	.L76:
 1404              		.align	2
 1405              	.L75:
 1406 010c 60000000 		.word	.LC9
 1407 0110 8C000000 		.word	.LC11
 1408 0114 10010000 		.word	.LC12
 1409 0118 00000000 		.word	g_pstTaskCBArray
 1410 011c 94010000 		.word	.LC13
 1411 0120 DC010000 		.word	.LC14
 1412 0124 00000000 		.word	g_uwTskMaxNum
 1413              		.cfi_endproc
 1414              	.LFE140:
 1416              		.section	.text.osTaskInit,"ax",%progbits
 1417              		.align	1
 1418              		.global	osTaskInit
 1419              		.syntax unified
 1420              		.thumb
 1421              		.thumb_func
 1422              		.fpu fpv4-sp-d16
 1424              	osTaskInit:
 1425              	.LFB141:
 485:D:/iot/felix2/kernel/base/core\los_task.c **** 
 486:D:/iot/felix2/kernel/base/core\los_task.c **** /*****************************************************************************
 487:D:/iot/felix2/kernel/base/core\los_task.c ****  Function : osTaskInit
ARM GAS  C:\Users\91458\AppData\Local\Temp\cc2AQj9q.s 			page 39


 488:D:/iot/felix2/kernel/base/core\los_task.c ****  Description : Task init function.
 489:D:/iot/felix2/kernel/base/core\los_task.c ****  Input       : None
 490:D:/iot/felix2/kernel/base/core\los_task.c ****  Output      : None
 491:D:/iot/felix2/kernel/base/core\los_task.c ****  Return      : LOS_OK on success or error code on failure
 492:D:/iot/felix2/kernel/base/core\los_task.c ****  *****************************************************************************/
 493:D:/iot/felix2/kernel/base/core\los_task.c **** LITE_OS_SEC_TEXT_INIT UINT32 osTaskInit(VOID)
 494:D:/iot/felix2/kernel/base/core\los_task.c **** {
 1426              		.loc 2 494 0
 1427              		.cfi_startproc
 1428              		@ args = 0, pretend = 0, frame = 16
 1429              		@ frame_needed = 1, uses_anonymous_args = 0
 1430 0000 80B5     		push	{r7, lr}
 1431              	.LCFI67:
 1432              		.cfi_def_cfa_offset 8
 1433              		.cfi_offset 7, -8
 1434              		.cfi_offset 14, -4
 1435 0002 84B0     		sub	sp, sp, #16
 1436              	.LCFI68:
 1437              		.cfi_def_cfa_offset 24
 1438 0004 00AF     		add	r7, sp, #0
 1439              	.LCFI69:
 1440              		.cfi_def_cfa_register 7
 495:D:/iot/felix2/kernel/base/core\los_task.c ****     UINT32 uwSize;
 496:D:/iot/felix2/kernel/base/core\los_task.c ****     UINT32 uwIndex;
 497:D:/iot/felix2/kernel/base/core\los_task.c ****     LOS_DL_LIST *pstListObject;
 498:D:/iot/felix2/kernel/base/core\los_task.c **** 
 499:D:/iot/felix2/kernel/base/core\los_task.c ****     uwSize = (g_uwTskMaxNum + 1) * sizeof(LOS_TASK_CB);
 1441              		.loc 2 499 0
 1442 0006 4C4B     		ldr	r3, .L85
 1443 0008 1B68     		ldr	r3, [r3]
 1444 000a 0133     		adds	r3, r3, #1
 1445 000c 5422     		movs	r2, #84
 1446 000e 02FB03F3 		mul	r3, r2, r3
 1447 0012 7B60     		str	r3, [r7, #4]
 500:D:/iot/felix2/kernel/base/core\los_task.c ****     g_pstTaskCBArray = (LOS_TASK_CB *)LOS_MemAlloc(m_aucSysMem0, uwSize);
 1448              		.loc 2 500 0
 1449 0014 494B     		ldr	r3, .L85+4
 1450 0016 1B68     		ldr	r3, [r3]
 1451 0018 7968     		ldr	r1, [r7, #4]
 1452 001a 1846     		mov	r0, r3
 1453 001c FFF7FEFF 		bl	LOS_MemAlloc
 1454 0020 0246     		mov	r2, r0
 1455 0022 474B     		ldr	r3, .L85+8
 1456 0024 1A60     		str	r2, [r3]
 501:D:/iot/felix2/kernel/base/core\los_task.c ****     if (NULL == g_pstTaskCBArray)
 1457              		.loc 2 501 0
 1458 0026 464B     		ldr	r3, .L85+8
 1459 0028 1B68     		ldr	r3, [r3]
 1460 002a 002B     		cmp	r3, #0
 1461 002c 01D1     		bne	.L78
 502:D:/iot/felix2/kernel/base/core\los_task.c ****     {
 503:D:/iot/felix2/kernel/base/core\los_task.c ****         return LOS_ERRNO_TSK_NO_MEMORY;
 1462              		.loc 2 503 0
 1463 002e 454B     		ldr	r3, .L85+12
 1464 0030 7DE0     		b	.L79
 1465              	.L78:
 504:D:/iot/felix2/kernel/base/core\los_task.c ****     }
ARM GAS  C:\Users\91458\AppData\Local\Temp\cc2AQj9q.s 			page 40


 505:D:/iot/felix2/kernel/base/core\los_task.c **** 
 506:D:/iot/felix2/kernel/base/core\los_task.c ****     (VOID)memset(g_pstTaskCBArray, 0, uwSize);
 1466              		.loc 2 506 0
 1467 0032 434B     		ldr	r3, .L85+8
 1468 0034 1B68     		ldr	r3, [r3]
 1469 0036 7A68     		ldr	r2, [r7, #4]
 1470 0038 0021     		movs	r1, #0
 1471 003a 1846     		mov	r0, r3
 1472 003c FFF7FEFF 		bl	memset
 507:D:/iot/felix2/kernel/base/core\los_task.c ****     LOS_ListInit(&g_stTaskTimerList);
 1473              		.loc 2 507 0
 1474 0040 4148     		ldr	r0, .L85+16
 1475 0042 FFF7FEFF 		bl	LOS_ListInit
 508:D:/iot/felix2/kernel/base/core\los_task.c ****     LOS_ListInit(&g_stLosFreeTask);
 1476              		.loc 2 508 0
 1477 0046 4148     		ldr	r0, .L85+20
 1478 0048 FFF7FEFF 		bl	LOS_ListInit
 509:D:/iot/felix2/kernel/base/core\los_task.c ****     LOS_ListInit(&g_stTskRecyleList);
 1479              		.loc 2 509 0
 1480 004c 4048     		ldr	r0, .L85+24
 1481 004e FFF7FEFF 		bl	LOS_ListInit
 510:D:/iot/felix2/kernel/base/core\los_task.c ****     for (uwIndex = 0; uwIndex <= LOSCFG_BASE_CORE_TSK_LIMIT; uwIndex++)
 1482              		.loc 2 510 0
 1483 0052 0023     		movs	r3, #0
 1484 0054 FB60     		str	r3, [r7, #12]
 1485 0056 20E0     		b	.L80
 1486              	.L81:
 511:D:/iot/felix2/kernel/base/core\los_task.c ****     {
 512:D:/iot/felix2/kernel/base/core\los_task.c ****         g_pstTaskCBArray[uwIndex].usTaskStatus = OS_TASK_STATUS_UNUSED;
 1487              		.loc 2 512 0 discriminator 3
 1488 0058 394B     		ldr	r3, .L85+8
 1489 005a 1A68     		ldr	r2, [r3]
 1490 005c FB68     		ldr	r3, [r7, #12]
 1491 005e 5421     		movs	r1, #84
 1492 0060 01FB03F3 		mul	r3, r1, r3
 1493 0064 1344     		add	r3, r3, r2
 1494 0066 0122     		movs	r2, #1
 1495 0068 9A80     		strh	r2, [r3, #4]	@ movhi
 513:D:/iot/felix2/kernel/base/core\los_task.c ****         g_pstTaskCBArray[uwIndex].uwTaskID = uwIndex;
 1496              		.loc 2 513 0 discriminator 3
 1497 006a 354B     		ldr	r3, .L85+8
 1498 006c 1A68     		ldr	r2, [r3]
 1499 006e FB68     		ldr	r3, [r7, #12]
 1500 0070 5421     		movs	r1, #84
 1501 0072 01FB03F3 		mul	r3, r1, r3
 1502 0076 1344     		add	r3, r3, r2
 1503 0078 FA68     		ldr	r2, [r7, #12]
 1504 007a 1A61     		str	r2, [r3, #16]
 514:D:/iot/felix2/kernel/base/core\los_task.c ****         LOS_ListTailInsert(&g_stLosFreeTask, &g_pstTaskCBArray[uwIndex].stPendList);
 1505              		.loc 2 514 0 discriminator 3
 1506 007c 304B     		ldr	r3, .L85+8
 1507 007e 1A68     		ldr	r2, [r3]
 1508 0080 FB68     		ldr	r3, [r7, #12]
 1509 0082 5421     		movs	r1, #84
 1510 0084 01FB03F3 		mul	r3, r1, r3
 1511 0088 1344     		add	r3, r3, r2
 1512 008a 2833     		adds	r3, r3, #40
ARM GAS  C:\Users\91458\AppData\Local\Temp\cc2AQj9q.s 			page 41


 1513 008c 1946     		mov	r1, r3
 1514 008e 2F48     		ldr	r0, .L85+20
 1515 0090 FFF7FEFF 		bl	LOS_ListTailInsert
 510:D:/iot/felix2/kernel/base/core\los_task.c ****     {
 1516              		.loc 2 510 0 discriminator 3
 1517 0094 FB68     		ldr	r3, [r7, #12]
 1518 0096 0133     		adds	r3, r3, #1
 1519 0098 FB60     		str	r3, [r7, #12]
 1520              	.L80:
 510:D:/iot/felix2/kernel/base/core\los_task.c ****     {
 1521              		.loc 2 510 0 is_stmt 0 discriminator 1
 1522 009a FB68     		ldr	r3, [r7, #12]
 1523 009c 0F2B     		cmp	r3, #15
 1524 009e DBD9     		bls	.L81
 515:D:/iot/felix2/kernel/base/core\los_task.c ****     }
 516:D:/iot/felix2/kernel/base/core\los_task.c **** 
 517:D:/iot/felix2/kernel/base/core\los_task.c ****     (VOID)memset((VOID *)(&g_stLosTask), 0, sizeof(g_stLosTask));
 1525              		.loc 2 517 0 is_stmt 1
 1526 00a0 0822     		movs	r2, #8
 1527 00a2 0021     		movs	r1, #0
 1528 00a4 2B48     		ldr	r0, .L85+28
 1529 00a6 FFF7FEFF 		bl	memset
 518:D:/iot/felix2/kernel/base/core\los_task.c ****     g_stLosTask.pstRunTask = &g_pstTaskCBArray[g_uwTskMaxNum];
 1530              		.loc 2 518 0
 1531 00aa 254B     		ldr	r3, .L85+8
 1532 00ac 1A68     		ldr	r2, [r3]
 1533 00ae 224B     		ldr	r3, .L85
 1534 00b0 1B68     		ldr	r3, [r3]
 1535 00b2 5421     		movs	r1, #84
 1536 00b4 01FB03F3 		mul	r3, r1, r3
 1537 00b8 1344     		add	r3, r3, r2
 1538 00ba 264A     		ldr	r2, .L85+28
 1539 00bc 1360     		str	r3, [r2]
 519:D:/iot/felix2/kernel/base/core\los_task.c ****     g_stLosTask.pstRunTask->uwTaskID = uwIndex;
 1540              		.loc 2 519 0
 1541 00be 254B     		ldr	r3, .L85+28
 1542 00c0 1B68     		ldr	r3, [r3]
 1543 00c2 FA68     		ldr	r2, [r7, #12]
 1544 00c4 1A61     		str	r2, [r3, #16]
 520:D:/iot/felix2/kernel/base/core\los_task.c ****     g_stLosTask.pstRunTask->usTaskStatus = (OS_TASK_STATUS_UNUSED | OS_TASK_STATUS_RUNNING);
 1545              		.loc 2 520 0
 1546 00c6 234B     		ldr	r3, .L85+28
 1547 00c8 1B68     		ldr	r3, [r3]
 1548 00ca 1122     		movs	r2, #17
 1549 00cc 9A80     		strh	r2, [r3, #4]	@ movhi
 521:D:/iot/felix2/kernel/base/core\los_task.c ****     g_stLosTask.pstRunTask->usPriority = OS_TASK_PRIORITY_LOWEST + 1;
 1550              		.loc 2 521 0
 1551 00ce 214B     		ldr	r3, .L85+28
 1552 00d0 1B68     		ldr	r3, [r3]
 1553 00d2 2022     		movs	r2, #32
 1554 00d4 DA80     		strh	r2, [r3, #6]	@ movhi
 522:D:/iot/felix2/kernel/base/core\los_task.c ****     osPriqueueInit();
 1555              		.loc 2 522 0
 1556 00d6 FFF7FEFF 		bl	osPriqueueInit
 523:D:/iot/felix2/kernel/base/core\los_task.c ****     uwSize = sizeof(LOS_DL_LIST) * OS_TSK_SORTLINK_LEN;
 1557              		.loc 2 523 0
 1558 00da 4FF48073 		mov	r3, #256
ARM GAS  C:\Users\91458\AppData\Local\Temp\cc2AQj9q.s 			page 42


 1559 00de 7B60     		str	r3, [r7, #4]
 524:D:/iot/felix2/kernel/base/core\los_task.c ****     pstListObject = (LOS_DL_LIST *)LOS_MemAlloc(m_aucSysMem0, uwSize);
 1560              		.loc 2 524 0
 1561 00e0 164B     		ldr	r3, .L85+4
 1562 00e2 1B68     		ldr	r3, [r3]
 1563 00e4 7968     		ldr	r1, [r7, #4]
 1564 00e6 1846     		mov	r0, r3
 1565 00e8 FFF7FEFF 		bl	LOS_MemAlloc
 1566 00ec B860     		str	r0, [r7, #8]
 525:D:/iot/felix2/kernel/base/core\los_task.c ****     if (NULL == pstListObject)
 1567              		.loc 2 525 0
 1568 00ee BB68     		ldr	r3, [r7, #8]
 1569 00f0 002B     		cmp	r3, #0
 1570 00f2 01D1     		bne	.L82
 526:D:/iot/felix2/kernel/base/core\los_task.c ****     {
 527:D:/iot/felix2/kernel/base/core\los_task.c ****         return LOS_ERRNO_TSK_NO_MEMORY;
 1571              		.loc 2 527 0
 1572 00f4 134B     		ldr	r3, .L85+12
 1573 00f6 1AE0     		b	.L79
 1574              	.L82:
 528:D:/iot/felix2/kernel/base/core\los_task.c ****     }
 529:D:/iot/felix2/kernel/base/core\los_task.c **** 
 530:D:/iot/felix2/kernel/base/core\los_task.c ****     (VOID)memset((VOID *)pstListObject, 0, uwSize);
 1575              		.loc 2 530 0
 1576 00f8 7A68     		ldr	r2, [r7, #4]
 1577 00fa 0021     		movs	r1, #0
 1578 00fc B868     		ldr	r0, [r7, #8]
 1579 00fe FFF7FEFF 		bl	memset
 531:D:/iot/felix2/kernel/base/core\los_task.c ****     g_stTskSortLink.pstSortLink = pstListObject;
 1580              		.loc 2 531 0
 1581 0102 154A     		ldr	r2, .L85+32
 1582 0104 BB68     		ldr	r3, [r7, #8]
 1583 0106 1360     		str	r3, [r2]
 532:D:/iot/felix2/kernel/base/core\los_task.c ****     g_stTskSortLink.usCursor = 0;
 1584              		.loc 2 532 0
 1585 0108 134B     		ldr	r3, .L85+32
 1586 010a 0022     		movs	r2, #0
 1587 010c 9A80     		strh	r2, [r3, #4]	@ movhi
 533:D:/iot/felix2/kernel/base/core\los_task.c ****     for (uwIndex = 0; uwIndex < OS_TSK_SORTLINK_LEN; uwIndex++, pstListObject++)
 1588              		.loc 2 533 0
 1589 010e 0023     		movs	r3, #0
 1590 0110 FB60     		str	r3, [r7, #12]
 1591 0112 08E0     		b	.L83
 1592              	.L84:
 534:D:/iot/felix2/kernel/base/core\los_task.c ****     {
 535:D:/iot/felix2/kernel/base/core\los_task.c ****         LOS_ListInit(pstListObject);
 1593              		.loc 2 535 0 discriminator 3
 1594 0114 B868     		ldr	r0, [r7, #8]
 1595 0116 FFF7FEFF 		bl	LOS_ListInit
 533:D:/iot/felix2/kernel/base/core\los_task.c ****     for (uwIndex = 0; uwIndex < OS_TSK_SORTLINK_LEN; uwIndex++, pstListObject++)
 1596              		.loc 2 533 0 discriminator 3
 1597 011a FB68     		ldr	r3, [r7, #12]
 1598 011c 0133     		adds	r3, r3, #1
 1599 011e FB60     		str	r3, [r7, #12]
 1600 0120 BB68     		ldr	r3, [r7, #8]
 1601 0122 0833     		adds	r3, r3, #8
 1602 0124 BB60     		str	r3, [r7, #8]
ARM GAS  C:\Users\91458\AppData\Local\Temp\cc2AQj9q.s 			page 43


 1603              	.L83:
 533:D:/iot/felix2/kernel/base/core\los_task.c ****     for (uwIndex = 0; uwIndex < OS_TSK_SORTLINK_LEN; uwIndex++, pstListObject++)
 1604              		.loc 2 533 0 is_stmt 0 discriminator 1
 1605 0126 FB68     		ldr	r3, [r7, #12]
 1606 0128 1F2B     		cmp	r3, #31
 1607 012a F3D9     		bls	.L84
 536:D:/iot/felix2/kernel/base/core\los_task.c ****     }
 537:D:/iot/felix2/kernel/base/core\los_task.c **** 
 538:D:/iot/felix2/kernel/base/core\los_task.c **** #if ((LOSCFG_PLATFORM_EXC == YES) && (LOSCFG_SAVE_EXC_INFO == YES))
 539:D:/iot/felix2/kernel/base/core\los_task.c ****     osExcRegister((EXC_INFO_TYPE)OS_EXC_TYPE_TSK, (EXC_INFO_SAVE_CALLBACK)LOS_TaskInfoGet, &g_uwTsk
 540:D:/iot/felix2/kernel/base/core\los_task.c **** #endif
 541:D:/iot/felix2/kernel/base/core\los_task.c **** 
 542:D:/iot/felix2/kernel/base/core\los_task.c **** #if (LOSCFG_LIB_LIBC_NEWLIB_REENT == YES)
 543:D:/iot/felix2/kernel/base/core\los_task.c ****     extern LITE_OS_SEC_TEXT VOID osTaskSwitchImpurePtr(VOID);
 544:D:/iot/felix2/kernel/base/core\los_task.c ****     g_pfnTskSwitchImpurePtrHook = osTaskSwitchImpurePtr;
 545:D:/iot/felix2/kernel/base/core\los_task.c **** #endif
 546:D:/iot/felix2/kernel/base/core\los_task.c ****     return LOS_OK;
 1608              		.loc 2 546 0 is_stmt 1
 1609 012c 0023     		movs	r3, #0
 1610              	.L79:
 547:D:/iot/felix2/kernel/base/core\los_task.c **** }
 1611              		.loc 2 547 0
 1612 012e 1846     		mov	r0, r3
 1613 0130 1037     		adds	r7, r7, #16
 1614              	.LCFI70:
 1615              		.cfi_def_cfa_offset 8
 1616 0132 BD46     		mov	sp, r7
 1617              	.LCFI71:
 1618              		.cfi_def_cfa_register 13
 1619              		@ sp needed
 1620 0134 80BD     		pop	{r7, pc}
 1621              	.L86:
 1622 0136 00BF     		.align	2
 1623              	.L85:
 1624 0138 00000000 		.word	g_uwTskMaxNum
 1625 013c 00000000 		.word	m_aucSysMem0
 1626 0140 00000000 		.word	g_pstTaskCBArray
 1627 0144 00020003 		.word	50332160
 1628 0148 00000000 		.word	g_stTaskTimerList
 1629 014c 00000000 		.word	g_stLosFreeTask
 1630 0150 00000000 		.word	g_stTskRecyleList
 1631 0154 00000000 		.word	g_stLosTask
 1632 0158 00000000 		.word	g_stTskSortLink
 1633              		.cfi_endproc
 1634              	.LFE141:
 1636              		.section	.rodata
 1637 01e3 00       		.align	2
 1638              	.LC15:
 1639 01e4 49646C65 		.ascii	"IdleCore000\000"
 1639      436F7265 
 1639      30303000 
 1640              		.section	.text.osIdleTaskCreate,"ax",%progbits
 1641              		.align	1
 1642              		.global	osIdleTaskCreate
 1643              		.syntax unified
 1644              		.thumb
 1645              		.thumb_func
ARM GAS  C:\Users\91458\AppData\Local\Temp\cc2AQj9q.s 			page 44


 1646              		.fpu fpv4-sp-d16
 1648              	osIdleTaskCreate:
 1649              	.LFB142:
 548:D:/iot/felix2/kernel/base/core\los_task.c **** 
 549:D:/iot/felix2/kernel/base/core\los_task.c **** 
 550:D:/iot/felix2/kernel/base/core\los_task.c **** /*****************************************************************************
 551:D:/iot/felix2/kernel/base/core\los_task.c ****  Function : osIdleTaskCreate
 552:D:/iot/felix2/kernel/base/core\los_task.c ****  Description : Create idle task.
 553:D:/iot/felix2/kernel/base/core\los_task.c ****  Input       : None
 554:D:/iot/felix2/kernel/base/core\los_task.c ****  Output      : None
 555:D:/iot/felix2/kernel/base/core\los_task.c ****  Return      : LOS_OK on success or error code on failure
 556:D:/iot/felix2/kernel/base/core\los_task.c ****  *****************************************************************************/
 557:D:/iot/felix2/kernel/base/core\los_task.c **** LITE_OS_SEC_TEXT_INIT UINT32 osIdleTaskCreate(VOID)
 558:D:/iot/felix2/kernel/base/core\los_task.c **** {
 1650              		.loc 2 558 0
 1651              		.cfi_startproc
 1652              		@ args = 0, pretend = 0, frame = 32
 1653              		@ frame_needed = 1, uses_anonymous_args = 0
 1654 0000 80B5     		push	{r7, lr}
 1655              	.LCFI72:
 1656              		.cfi_def_cfa_offset 8
 1657              		.cfi_offset 7, -8
 1658              		.cfi_offset 14, -4
 1659 0002 88B0     		sub	sp, sp, #32
 1660              	.LCFI73:
 1661              		.cfi_def_cfa_offset 40
 1662 0004 00AF     		add	r7, sp, #0
 1663              	.LCFI74:
 1664              		.cfi_def_cfa_register 7
 559:D:/iot/felix2/kernel/base/core\los_task.c ****     UINT32 uwRet;
 560:D:/iot/felix2/kernel/base/core\los_task.c ****     TSK_INIT_PARAM_S stTaskInitParam;
 561:D:/iot/felix2/kernel/base/core\los_task.c **** 
 562:D:/iot/felix2/kernel/base/core\los_task.c ****     (VOID)memset((VOID *)(&stTaskInitParam), 0, sizeof(TSK_INIT_PARAM_S));
 1665              		.loc 2 562 0
 1666 0006 3B1D     		adds	r3, r7, #4
 1667 0008 1822     		movs	r2, #24
 1668 000a 0021     		movs	r1, #0
 1669 000c 1846     		mov	r0, r3
 1670 000e FFF7FEFF 		bl	memset
 563:D:/iot/felix2/kernel/base/core\los_task.c ****     stTaskInitParam.pfnTaskEntry = (TSK_ENTRY_FUNC)osIdleTask;
 1671              		.loc 2 563 0
 1672 0012 0C4B     		ldr	r3, .L91
 1673 0014 7B60     		str	r3, [r7, #4]
 564:D:/iot/felix2/kernel/base/core\los_task.c ****     stTaskInitParam.uwStackSize = LOSCFG_BASE_CORE_TSK_IDLE_STACK_SIZE;
 1674              		.loc 2 564 0
 1675 0016 4FF4A063 		mov	r3, #1280
 1676 001a 3B61     		str	r3, [r7, #16]
 565:D:/iot/felix2/kernel/base/core\los_task.c ****     stTaskInitParam.pcName = "IdleCore000";
 1677              		.loc 2 565 0
 1678 001c 0A4B     		ldr	r3, .L91+4
 1679 001e 7B61     		str	r3, [r7, #20]
 566:D:/iot/felix2/kernel/base/core\los_task.c ****     stTaskInitParam.usTaskPrio = OS_TASK_PRIORITY_LOWEST;
 1680              		.loc 2 566 0
 1681 0020 1F23     		movs	r3, #31
 1682 0022 3B81     		strh	r3, [r7, #8]	@ movhi
 567:D:/iot/felix2/kernel/base/core\los_task.c ****     uwRet = LOS_TaskCreate(&g_uwIdleTaskID, &stTaskInitParam);
 1683              		.loc 2 567 0
ARM GAS  C:\Users\91458\AppData\Local\Temp\cc2AQj9q.s 			page 45


 1684 0024 3B1D     		adds	r3, r7, #4
 1685 0026 1946     		mov	r1, r3
 1686 0028 0848     		ldr	r0, .L91+8
 1687 002a FFF7FEFF 		bl	LOS_TaskCreate
 1688 002e F861     		str	r0, [r7, #28]
 568:D:/iot/felix2/kernel/base/core\los_task.c **** 
 569:D:/iot/felix2/kernel/base/core\los_task.c ****     if (uwRet != LOS_OK)
 1689              		.loc 2 569 0
 1690 0030 FB69     		ldr	r3, [r7, #28]
 1691 0032 002B     		cmp	r3, #0
 1692 0034 01D0     		beq	.L88
 570:D:/iot/felix2/kernel/base/core\los_task.c ****     {
 571:D:/iot/felix2/kernel/base/core\los_task.c ****         return uwRet;
 1693              		.loc 2 571 0
 1694 0036 FB69     		ldr	r3, [r7, #28]
 1695 0038 00E0     		b	.L90
 1696              	.L88:
 572:D:/iot/felix2/kernel/base/core\los_task.c ****     }
 573:D:/iot/felix2/kernel/base/core\los_task.c **** 
 574:D:/iot/felix2/kernel/base/core\los_task.c ****     return LOS_OK;
 1697              		.loc 2 574 0
 1698 003a 0023     		movs	r3, #0
 1699              	.L90:
 575:D:/iot/felix2/kernel/base/core\los_task.c **** }
 1700              		.loc 2 575 0 discriminator 1
 1701 003c 1846     		mov	r0, r3
 1702 003e 2037     		adds	r7, r7, #32
 1703              	.LCFI75:
 1704              		.cfi_def_cfa_offset 8
 1705 0040 BD46     		mov	sp, r7
 1706              	.LCFI76:
 1707              		.cfi_def_cfa_register 13
 1708              		@ sp needed
 1709 0042 80BD     		pop	{r7, pc}
 1710              	.L92:
 1711              		.align	2
 1712              	.L91:
 1713 0044 00000000 		.word	osIdleTask
 1714 0048 E4010000 		.word	.LC15
 1715 004c 00000000 		.word	g_uwIdleTaskID
 1716              		.cfi_endproc
 1717              	.LFE142:
 1719              		.section	.text.LOS_CurTaskIDGet,"ax",%progbits
 1720              		.align	1
 1721              		.global	LOS_CurTaskIDGet
 1722              		.syntax unified
 1723              		.thumb
 1724              		.thumb_func
 1725              		.fpu fpv4-sp-d16
 1727              	LOS_CurTaskIDGet:
 1728              	.LFB143:
 576:D:/iot/felix2/kernel/base/core\los_task.c **** 
 577:D:/iot/felix2/kernel/base/core\los_task.c **** /*****************************************************************************
 578:D:/iot/felix2/kernel/base/core\los_task.c ****  Function : LOS_CurTaskIDGet
 579:D:/iot/felix2/kernel/base/core\los_task.c ****  Description : get id of current running task.
 580:D:/iot/felix2/kernel/base/core\los_task.c ****  Input       : None
 581:D:/iot/felix2/kernel/base/core\los_task.c ****  Output      : None
ARM GAS  C:\Users\91458\AppData\Local\Temp\cc2AQj9q.s 			page 46


 582:D:/iot/felix2/kernel/base/core\los_task.c ****  Return      : task id
 583:D:/iot/felix2/kernel/base/core\los_task.c ****  *****************************************************************************/
 584:D:/iot/felix2/kernel/base/core\los_task.c **** LITE_OS_SEC_TEXT UINT32 LOS_CurTaskIDGet(VOID)
 585:D:/iot/felix2/kernel/base/core\los_task.c **** {
 1729              		.loc 2 585 0
 1730              		.cfi_startproc
 1731              		@ args = 0, pretend = 0, frame = 0
 1732              		@ frame_needed = 1, uses_anonymous_args = 0
 1733              		@ link register save eliminated.
 1734 0000 80B4     		push	{r7}
 1735              	.LCFI77:
 1736              		.cfi_def_cfa_offset 4
 1737              		.cfi_offset 7, -4
 1738 0002 00AF     		add	r7, sp, #0
 1739              	.LCFI78:
 1740              		.cfi_def_cfa_register 7
 586:D:/iot/felix2/kernel/base/core\los_task.c ****     if (NULL == g_stLosTask.pstRunTask)
 1741              		.loc 2 586 0
 1742 0004 064B     		ldr	r3, .L96
 1743 0006 1B68     		ldr	r3, [r3]
 1744 0008 002B     		cmp	r3, #0
 1745 000a 01D1     		bne	.L94
 587:D:/iot/felix2/kernel/base/core\los_task.c ****     {
 588:D:/iot/felix2/kernel/base/core\los_task.c ****         return LOS_ERRNO_TSK_ID_INVALID;
 1746              		.loc 2 588 0
 1747 000c 054B     		ldr	r3, .L96+4
 1748 000e 02E0     		b	.L95
 1749              	.L94:
 589:D:/iot/felix2/kernel/base/core\los_task.c ****     }
 590:D:/iot/felix2/kernel/base/core\los_task.c ****     return g_stLosTask.pstRunTask->uwTaskID;
 1750              		.loc 2 590 0
 1751 0010 034B     		ldr	r3, .L96
 1752 0012 1B68     		ldr	r3, [r3]
 1753 0014 1B69     		ldr	r3, [r3, #16]
 1754              	.L95:
 591:D:/iot/felix2/kernel/base/core\los_task.c **** }
 1755              		.loc 2 591 0
 1756 0016 1846     		mov	r0, r3
 1757 0018 BD46     		mov	sp, r7
 1758              	.LCFI79:
 1759              		.cfi_def_cfa_register 13
 1760              		@ sp needed
 1761 001a 5DF8047B 		ldr	r7, [sp], #4
 1762              	.LCFI80:
 1763              		.cfi_restore 7
 1764              		.cfi_def_cfa_offset 0
 1765 001e 7047     		bx	lr
 1766              	.L97:
 1767              		.align	2
 1768              	.L96:
 1769 0020 00000000 		.word	g_stLosTask
 1770 0024 07020002 		.word	33554951
 1771              		.cfi_endproc
 1772              	.LFE143:
 1774              		.section	.text.LOS_NextTaskIDGet,"ax",%progbits
 1775              		.align	1
 1776              		.global	LOS_NextTaskIDGet
ARM GAS  C:\Users\91458\AppData\Local\Temp\cc2AQj9q.s 			page 47


 1777              		.syntax unified
 1778              		.thumb
 1779              		.thumb_func
 1780              		.fpu fpv4-sp-d16
 1782              	LOS_NextTaskIDGet:
 1783              	.LFB144:
 592:D:/iot/felix2/kernel/base/core\los_task.c **** 
 593:D:/iot/felix2/kernel/base/core\los_task.c **** /*****************************************************************************
 594:D:/iot/felix2/kernel/base/core\los_task.c ****  Function : LOS_NextTaskIDGet
 595:D:/iot/felix2/kernel/base/core\los_task.c ****  Description : get id of next running task.
 596:D:/iot/felix2/kernel/base/core\los_task.c ****  Input       : None
 597:D:/iot/felix2/kernel/base/core\los_task.c ****  Output      : None
 598:D:/iot/felix2/kernel/base/core\los_task.c ****  Return      : task id
 599:D:/iot/felix2/kernel/base/core\los_task.c ****  *****************************************************************************/
 600:D:/iot/felix2/kernel/base/core\los_task.c **** LITE_OS_SEC_TEXT UINT32 LOS_NextTaskIDGet(VOID)
 601:D:/iot/felix2/kernel/base/core\los_task.c **** {
 1784              		.loc 2 601 0
 1785              		.cfi_startproc
 1786              		@ args = 0, pretend = 0, frame = 0
 1787              		@ frame_needed = 1, uses_anonymous_args = 0
 1788              		@ link register save eliminated.
 1789 0000 80B4     		push	{r7}
 1790              	.LCFI81:
 1791              		.cfi_def_cfa_offset 4
 1792              		.cfi_offset 7, -4
 1793 0002 00AF     		add	r7, sp, #0
 1794              	.LCFI82:
 1795              		.cfi_def_cfa_register 7
 602:D:/iot/felix2/kernel/base/core\los_task.c ****     if (NULL == g_stLosTask.pstNewTask)
 1796              		.loc 2 602 0
 1797 0004 064B     		ldr	r3, .L101
 1798 0006 5B68     		ldr	r3, [r3, #4]
 1799 0008 002B     		cmp	r3, #0
 1800 000a 01D1     		bne	.L99
 603:D:/iot/felix2/kernel/base/core\los_task.c ****     {
 604:D:/iot/felix2/kernel/base/core\los_task.c ****         return LOS_ERRNO_TSK_ID_INVALID;
 1801              		.loc 2 604 0
 1802 000c 054B     		ldr	r3, .L101+4
 1803 000e 02E0     		b	.L100
 1804              	.L99:
 605:D:/iot/felix2/kernel/base/core\los_task.c ****     }
 606:D:/iot/felix2/kernel/base/core\los_task.c ****     return g_stLosTask.pstNewTask->uwTaskID;
 1805              		.loc 2 606 0
 1806 0010 034B     		ldr	r3, .L101
 1807 0012 5B68     		ldr	r3, [r3, #4]
 1808 0014 1B69     		ldr	r3, [r3, #16]
 1809              	.L100:
 607:D:/iot/felix2/kernel/base/core\los_task.c **** }
 1810              		.loc 2 607 0
 1811 0016 1846     		mov	r0, r3
 1812 0018 BD46     		mov	sp, r7
 1813              	.LCFI83:
 1814              		.cfi_def_cfa_register 13
 1815              		@ sp needed
 1816 001a 5DF8047B 		ldr	r7, [sp], #4
 1817              	.LCFI84:
 1818              		.cfi_restore 7
ARM GAS  C:\Users\91458\AppData\Local\Temp\cc2AQj9q.s 			page 48


 1819              		.cfi_def_cfa_offset 0
 1820 001e 7047     		bx	lr
 1821              	.L102:
 1822              		.align	2
 1823              	.L101:
 1824 0020 00000000 		.word	g_stLosTask
 1825 0024 07020002 		.word	33554951
 1826              		.cfi_endproc
 1827              	.LFE144:
 1829              		.section	.text.LOS_CurTaskNameGet,"ax",%progbits
 1830              		.align	1
 1831              		.global	LOS_CurTaskNameGet
 1832              		.syntax unified
 1833              		.thumb
 1834              		.thumb_func
 1835              		.fpu fpv4-sp-d16
 1837              	LOS_CurTaskNameGet:
 1838              	.LFB145:
 608:D:/iot/felix2/kernel/base/core\los_task.c **** 
 609:D:/iot/felix2/kernel/base/core\los_task.c **** /*****************************************************************************
 610:D:/iot/felix2/kernel/base/core\los_task.c ****  Function : LOS_CurTaskNameGet
 611:D:/iot/felix2/kernel/base/core\los_task.c ****  Description : get name of current running task.
 612:D:/iot/felix2/kernel/base/core\los_task.c ****  Input       : None
 613:D:/iot/felix2/kernel/base/core\los_task.c ****  Output      : None
 614:D:/iot/felix2/kernel/base/core\los_task.c ****  Return      : task name
 615:D:/iot/felix2/kernel/base/core\los_task.c ****  *****************************************************************************/
 616:D:/iot/felix2/kernel/base/core\los_task.c **** LITE_OS_SEC_TEXT CHAR *LOS_CurTaskNameGet(VOID)
 617:D:/iot/felix2/kernel/base/core\los_task.c **** {
 1839              		.loc 2 617 0
 1840              		.cfi_startproc
 1841              		@ args = 0, pretend = 0, frame = 8
 1842              		@ frame_needed = 1, uses_anonymous_args = 0
 1843              		@ link register save eliminated.
 1844 0000 80B4     		push	{r7}
 1845              	.LCFI85:
 1846              		.cfi_def_cfa_offset 4
 1847              		.cfi_offset 7, -4
 1848 0002 83B0     		sub	sp, sp, #12
 1849              	.LCFI86:
 1850              		.cfi_def_cfa_offset 16
 1851 0004 00AF     		add	r7, sp, #0
 1852              	.LCFI87:
 1853              		.cfi_def_cfa_register 7
 618:D:/iot/felix2/kernel/base/core\los_task.c ****     CHAR *pcTaskName = NULL;
 1854              		.loc 2 618 0
 1855 0006 0023     		movs	r3, #0
 1856 0008 7B60     		str	r3, [r7, #4]
 619:D:/iot/felix2/kernel/base/core\los_task.c **** 
 620:D:/iot/felix2/kernel/base/core\los_task.c ****     if (NULL != g_stLosTask.pstRunTask)
 1857              		.loc 2 620 0
 1858 000a 074B     		ldr	r3, .L106
 1859 000c 1B68     		ldr	r3, [r3]
 1860 000e 002B     		cmp	r3, #0
 1861 0010 03D0     		beq	.L104
 621:D:/iot/felix2/kernel/base/core\los_task.c ****     {
 622:D:/iot/felix2/kernel/base/core\los_task.c ****         pcTaskName = g_stLosTask.pstRunTask->pcTaskName;
 1862              		.loc 2 622 0
ARM GAS  C:\Users\91458\AppData\Local\Temp\cc2AQj9q.s 			page 49


 1863 0012 054B     		ldr	r3, .L106
 1864 0014 1B68     		ldr	r3, [r3]
 1865 0016 5B6A     		ldr	r3, [r3, #36]
 1866 0018 7B60     		str	r3, [r7, #4]
 1867              	.L104:
 623:D:/iot/felix2/kernel/base/core\los_task.c ****     }
 624:D:/iot/felix2/kernel/base/core\los_task.c **** 
 625:D:/iot/felix2/kernel/base/core\los_task.c ****     return pcTaskName;
 1868              		.loc 2 625 0
 1869 001a 7B68     		ldr	r3, [r7, #4]
 626:D:/iot/felix2/kernel/base/core\los_task.c **** }
 1870              		.loc 2 626 0
 1871 001c 1846     		mov	r0, r3
 1872 001e 0C37     		adds	r7, r7, #12
 1873              	.LCFI88:
 1874              		.cfi_def_cfa_offset 4
 1875 0020 BD46     		mov	sp, r7
 1876              	.LCFI89:
 1877              		.cfi_def_cfa_register 13
 1878              		@ sp needed
 1879 0022 5DF8047B 		ldr	r7, [sp], #4
 1880              	.LCFI90:
 1881              		.cfi_restore 7
 1882              		.cfi_def_cfa_offset 0
 1883 0026 7047     		bx	lr
 1884              	.L107:
 1885              		.align	2
 1886              	.L106:
 1887 0028 00000000 		.word	g_stLosTask
 1888              		.cfi_endproc
 1889              	.LFE145:
 1891              		.section	.rodata
 1892              		.align	2
 1893              	.LC16:
 1894 01f0 43555252 		.ascii	"CURRENT task ID: %s:%d stack overflow!\012\000"
 1894      454E5420 
 1894      7461736B 
 1894      2049443A 
 1894      2025733A 
 1895              		.align	2
 1896              	.LC17:
 1897 0218 48494748 		.ascii	"HIGHEST task ID: %s:%d SP error!\012\000"
 1897      45535420 
 1897      7461736B 
 1897      2049443A 
 1897      2025733A 
 1898 023a 0000     		.align	2
 1899              	.LC18:
 1900 023c 48494748 		.ascii	"HIGHEST task StackPointer: 0x%x TopOfStack: 0x%x\012"
 1900      45535420 
 1900      7461736B 
 1900      20537461 
 1900      636B506F 
 1901 026d 00       		.ascii	"\000"
 1902              		.section	.text.osTaskSwitchCheck,"ax",%progbits
 1903              		.align	1
 1904              		.global	osTaskSwitchCheck
ARM GAS  C:\Users\91458\AppData\Local\Temp\cc2AQj9q.s 			page 50


 1905              		.syntax unified
 1906              		.thumb
 1907              		.thumb_func
 1908              		.fpu fpv4-sp-d16
 1910              	osTaskSwitchCheck:
 1911              	.LFB146:
 627:D:/iot/felix2/kernel/base/core\los_task.c **** 
 628:D:/iot/felix2/kernel/base/core\los_task.c **** /*****************************************************************************
 629:D:/iot/felix2/kernel/base/core\los_task.c ****  Function : osTaskSwitchCheck
 630:D:/iot/felix2/kernel/base/core\los_task.c ****  Description : Check task switch
 631:D:/iot/felix2/kernel/base/core\los_task.c ****  Input       : Node
 632:D:/iot/felix2/kernel/base/core\los_task.c ****  Output      : None
 633:D:/iot/felix2/kernel/base/core\los_task.c ****  Return      : None
 634:D:/iot/felix2/kernel/base/core\los_task.c ****  *****************************************************************************/
 635:D:/iot/felix2/kernel/base/core\los_task.c **** #if (LOSCFG_BASE_CORE_TSK_MONITOR == YES)
 636:D:/iot/felix2/kernel/base/core\los_task.c **** LITE_OS_SEC_TEXT VOID osTaskSwitchCheck(VOID)
 637:D:/iot/felix2/kernel/base/core\los_task.c **** {
 1912              		.loc 2 637 0
 1913              		.cfi_startproc
 1914              		@ args = 0, pretend = 0, frame = 0
 1915              		@ frame_needed = 1, uses_anonymous_args = 0
 1916 0000 80B5     		push	{r7, lr}
 1917              	.LCFI91:
 1918              		.cfi_def_cfa_offset 8
 1919              		.cfi_offset 7, -8
 1920              		.cfi_offset 14, -4
 1921 0002 00AF     		add	r7, sp, #0
 1922              	.LCFI92:
 1923              		.cfi_def_cfa_register 7
 638:D:/iot/felix2/kernel/base/core\los_task.c ****     if ((*(UINT32 *)(g_stLosTask.pstRunTask->uwTopOfStack)) != OS_TASK_MAGIC_WORD)
 1924              		.loc 2 638 0
 1925 0004 414B     		ldr	r3, .L115
 1926 0006 1B68     		ldr	r3, [r3]
 1927 0008 DB68     		ldr	r3, [r3, #12]
 1928 000a 1B68     		ldr	r3, [r3]
 1929 000c B3F1CC3F 		cmp	r3, #-858993460
 1930 0010 0CD0     		beq	.L109
 639:D:/iot/felix2/kernel/base/core\los_task.c ****     {
 640:D:/iot/felix2/kernel/base/core\los_task.c ****         PRINT_ERR("CURRENT task ID: %s:%d stack overflow!\n", g_stLosTask.pstRunTask->pcTaskName, g
 1931              		.loc 2 640 0
 1932 0012 3F48     		ldr	r0, .L115+4
 1933 0014 FFF7FEFF 		bl	printf
 1934 0018 3C4B     		ldr	r3, .L115
 1935 001a 1B68     		ldr	r3, [r3]
 1936 001c 596A     		ldr	r1, [r3, #36]
 1937 001e 3B4B     		ldr	r3, .L115
 1938 0020 1B68     		ldr	r3, [r3]
 1939 0022 1B69     		ldr	r3, [r3, #16]
 1940 0024 1A46     		mov	r2, r3
 1941 0026 3B48     		ldr	r0, .L115+8
 1942 0028 FFF7FEFF 		bl	printf
 1943              	.L109:
 641:D:/iot/felix2/kernel/base/core\los_task.c ****     }
 642:D:/iot/felix2/kernel/base/core\los_task.c ****     if (((UINT32)(g_stLosTask.pstNewTask->pStackPointer) <= g_stLosTask.pstNewTask->uwTopOfStack) |
 1944              		.loc 2 642 0
 1945 002c 374B     		ldr	r3, .L115
 1946 002e 5B68     		ldr	r3, [r3, #4]
ARM GAS  C:\Users\91458\AppData\Local\Temp\cc2AQj9q.s 			page 51


 1947 0030 1B68     		ldr	r3, [r3]
 1948 0032 1A46     		mov	r2, r3
 1949 0034 354B     		ldr	r3, .L115
 1950 0036 5B68     		ldr	r3, [r3, #4]
 1951 0038 DB68     		ldr	r3, [r3, #12]
 1952 003a 9A42     		cmp	r2, r3
 1953 003c 0CD9     		bls	.L110
 643:D:/iot/felix2/kernel/base/core\los_task.c ****         ((UINT32)(g_stLosTask.pstNewTask->pStackPointer) > g_stLosTask.pstNewTask->uwTopOfStack + g
 1954              		.loc 2 643 0 discriminator 1
 1955 003e 334B     		ldr	r3, .L115
 1956 0040 5B68     		ldr	r3, [r3, #4]
 1957 0042 1B68     		ldr	r3, [r3]
 1958 0044 1946     		mov	r1, r3
 1959 0046 314B     		ldr	r3, .L115
 1960 0048 5B68     		ldr	r3, [r3, #4]
 1961 004a DA68     		ldr	r2, [r3, #12]
 1962 004c 2F4B     		ldr	r3, .L115
 1963 004e 5B68     		ldr	r3, [r3, #4]
 1964 0050 9B68     		ldr	r3, [r3, #8]
 1965 0052 1344     		add	r3, r3, r2
 642:D:/iot/felix2/kernel/base/core\los_task.c ****         ((UINT32)(g_stLosTask.pstNewTask->pStackPointer) > g_stLosTask.pstNewTask->uwTopOfStack + g
 1966              		.loc 2 642 0 discriminator 1
 1967 0054 9942     		cmp	r1, r3
 1968 0056 1AD9     		bls	.L111
 1969              	.L110:
 644:D:/iot/felix2/kernel/base/core\los_task.c ****     {
 645:D:/iot/felix2/kernel/base/core\los_task.c ****         PRINT_ERR("HIGHEST task ID: %s:%d SP error!\n", g_stLosTask.pstNewTask->pcTaskName, g_stLos
 1970              		.loc 2 645 0
 1971 0058 2D48     		ldr	r0, .L115+4
 1972 005a FFF7FEFF 		bl	printf
 1973 005e 2B4B     		ldr	r3, .L115
 1974 0060 5B68     		ldr	r3, [r3, #4]
 1975 0062 596A     		ldr	r1, [r3, #36]
 1976 0064 294B     		ldr	r3, .L115
 1977 0066 5B68     		ldr	r3, [r3, #4]
 1978 0068 1B69     		ldr	r3, [r3, #16]
 1979 006a 1A46     		mov	r2, r3
 1980 006c 2A48     		ldr	r0, .L115+12
 1981 006e FFF7FEFF 		bl	printf
 646:D:/iot/felix2/kernel/base/core\los_task.c ****         PRINT_ERR("HIGHEST task StackPointer: 0x%x TopOfStack: 0x%x\n", (UINT32)(g_stLosTask.pstNew
 1982              		.loc 2 646 0
 1983 0072 2748     		ldr	r0, .L115+4
 1984 0074 FFF7FEFF 		bl	printf
 1985 0078 244B     		ldr	r3, .L115
 1986 007a 5B68     		ldr	r3, [r3, #4]
 1987 007c 1B68     		ldr	r3, [r3]
 1988 007e 1946     		mov	r1, r3
 1989 0080 224B     		ldr	r3, .L115
 1990 0082 5B68     		ldr	r3, [r3, #4]
 1991 0084 DB68     		ldr	r3, [r3, #12]
 1992 0086 1A46     		mov	r2, r3
 1993 0088 2448     		ldr	r0, .L115+16
 1994 008a FFF7FEFF 		bl	printf
 1995              	.L111:
 647:D:/iot/felix2/kernel/base/core\los_task.c ****     }
 648:D:/iot/felix2/kernel/base/core\los_task.c **** 
 649:D:/iot/felix2/kernel/base/core\los_task.c **** #if (LOSCFG_BASE_CORE_EXC_TSK_SWITCH == YES)
ARM GAS  C:\Users\91458\AppData\Local\Temp\cc2AQj9q.s 			page 52


 650:D:/iot/felix2/kernel/base/core\los_task.c ****     /* record task switch info */
 651:D:/iot/felix2/kernel/base/core\los_task.c ****     g_astTskSwitchInfo.auwPID[g_astTskSwitchInfo.ucIdx] = (UINT16)(g_stLosTask.pstNewTask->uwTaskID
 1996              		.loc 2 651 0
 1997 008e 1F4B     		ldr	r3, .L115
 1998 0090 5B68     		ldr	r3, [r3, #4]
 1999 0092 1A69     		ldr	r2, [r3, #16]
 2000 0094 224B     		ldr	r3, .L115+20
 2001 0096 1B78     		ldrb	r3, [r3]	@ zero_extendqisi2
 2002 0098 91B2     		uxth	r1, r2
 2003 009a 214A     		ldr	r2, .L115+20
 2004 009c 5B00     		lsls	r3, r3, #1
 2005 009e 1344     		add	r3, r3, r2
 2006 00a0 0A46     		mov	r2, r1	@ movhi
 2007 00a2 5A80     		strh	r2, [r3, #2]	@ movhi
 652:D:/iot/felix2/kernel/base/core\los_task.c ****     memcpy(g_astTskSwitchInfo.acName[g_astTskSwitchInfo.ucIdx], g_stLosTask.pstNewTask->pcTaskName,
 2008              		.loc 2 652 0
 2009 00a4 1E4B     		ldr	r3, .L115+20
 2010 00a6 1B78     		ldrb	r3, [r3]	@ zero_extendqisi2
 2011 00a8 5B01     		lsls	r3, r3, #5
 2012 00aa 1033     		adds	r3, r3, #16
 2013 00ac 1C4A     		ldr	r2, .L115+20
 2014 00ae 1344     		add	r3, r3, r2
 2015 00b0 981D     		adds	r0, r3, #6
 2016 00b2 164B     		ldr	r3, .L115
 2017 00b4 5B68     		ldr	r3, [r3, #4]
 2018 00b6 5B6A     		ldr	r3, [r3, #36]
 2019 00b8 2022     		movs	r2, #32
 2020 00ba 1946     		mov	r1, r3
 2021 00bc FFF7FEFF 		bl	memcpy
 653:D:/iot/felix2/kernel/base/core\los_task.c ****     g_astTskSwitchInfo.acName[g_astTskSwitchInfo.ucIdx][LOS_TASK_NAMELEN -1] = '\0';
 2022              		.loc 2 653 0
 2023 00c0 174B     		ldr	r3, .L115+20
 2024 00c2 1B78     		ldrb	r3, [r3]	@ zero_extendqisi2
 2025 00c4 164A     		ldr	r2, .L115+20
 2026 00c6 5B01     		lsls	r3, r3, #5
 2027 00c8 1344     		add	r3, r3, r2
 2028 00ca 3533     		adds	r3, r3, #53
 2029 00cc 0022     		movs	r2, #0
 2030 00ce 1A70     		strb	r2, [r3]
 654:D:/iot/felix2/kernel/base/core\los_task.c **** 
 655:D:/iot/felix2/kernel/base/core\los_task.c ****     if (++g_astTskSwitchInfo.ucIdx == OS_TASK_SWITCH_INFO_COUNT)
 2031              		.loc 2 655 0
 2032 00d0 134B     		ldr	r3, .L115+20
 2033 00d2 1B78     		ldrb	r3, [r3]	@ zero_extendqisi2
 2034 00d4 0133     		adds	r3, r3, #1
 2035 00d6 DAB2     		uxtb	r2, r3
 2036 00d8 114B     		ldr	r3, .L115+20
 2037 00da 1A70     		strb	r2, [r3]
 2038 00dc 104B     		ldr	r3, .L115+20
 2039 00de 1B78     		ldrb	r3, [r3]	@ zero_extendqisi2
 2040 00e0 0A2B     		cmp	r3, #10
 2041 00e2 09D1     		bne	.L112
 656:D:/iot/felix2/kernel/base/core\los_task.c ****     {
 657:D:/iot/felix2/kernel/base/core\los_task.c ****         g_astTskSwitchInfo.ucIdx = 0;
 2042              		.loc 2 657 0
 2043 00e4 0E4B     		ldr	r3, .L115+20
 2044 00e6 0022     		movs	r2, #0
ARM GAS  C:\Users\91458\AppData\Local\Temp\cc2AQj9q.s 			page 53


 2045 00e8 1A70     		strb	r2, [r3]
 658:D:/iot/felix2/kernel/base/core\los_task.c ****         g_astTskSwitchInfo.ucIsFull |= 0x80;
 2046              		.loc 2 658 0
 2047 00ea 0D4B     		ldr	r3, .L115+20
 2048 00ec 5B78     		ldrb	r3, [r3, #1]	@ zero_extendqisi2
 2049 00ee 63F07F03 		orn	r3, r3, #127
 2050 00f2 DAB2     		uxtb	r2, r3
 2051 00f4 0A4B     		ldr	r3, .L115+20
 2052 00f6 5A70     		strb	r2, [r3, #1]
 2053              	.L112:
 659:D:/iot/felix2/kernel/base/core\los_task.c ****     }
 660:D:/iot/felix2/kernel/base/core\los_task.c **** #endif
 661:D:/iot/felix2/kernel/base/core\los_task.c **** 
 662:D:/iot/felix2/kernel/base/core\los_task.c ****     if (g_pfnUsrTskSwitchHook != NULL)
 2054              		.loc 2 662 0
 2055 00f8 0A4B     		ldr	r3, .L115+24
 2056 00fa 1B68     		ldr	r3, [r3]
 2057 00fc 002B     		cmp	r3, #0
 2058 00fe 02D0     		beq	.L114
 663:D:/iot/felix2/kernel/base/core\los_task.c ****     {
 664:D:/iot/felix2/kernel/base/core\los_task.c ****         g_pfnUsrTskSwitchHook();
 2059              		.loc 2 664 0
 2060 0100 084B     		ldr	r3, .L115+24
 2061 0102 1B68     		ldr	r3, [r3]
 2062 0104 9847     		blx	r3
 2063              	.LVL0:
 2064              	.L114:
 665:D:/iot/felix2/kernel/base/core\los_task.c ****     }
 666:D:/iot/felix2/kernel/base/core\los_task.c **** 
 667:D:/iot/felix2/kernel/base/core\los_task.c **** #if (LOSCFG_BASE_CORE_CPUP == YES)
 668:D:/iot/felix2/kernel/base/core\los_task.c ****     osTskCycleEndStart();
 669:D:/iot/felix2/kernel/base/core\los_task.c **** #endif /* LOSCFG_BASE_CORE_CPUP */
 670:D:/iot/felix2/kernel/base/core\los_task.c **** }
 2065              		.loc 2 670 0
 2066 0106 00BF     		nop
 2067 0108 80BD     		pop	{r7, pc}
 2068              	.L116:
 2069 010a 00BF     		.align	2
 2070              	.L115:
 2071 010c 00000000 		.word	g_stLosTask
 2072 0110 60000000 		.word	.LC9
 2073 0114 F0010000 		.word	.LC16
 2074 0118 18020000 		.word	.LC17
 2075 011c 3C020000 		.word	.LC18
 2076 0120 00000000 		.word	g_astTskSwitchInfo
 2077 0124 00000000 		.word	g_pfnUsrTskSwitchHook
 2078              		.cfi_endproc
 2079              	.LFE146:
 2081              		.section	.text.osTaskMonInit,"ax",%progbits
 2082              		.align	1
 2083              		.global	osTaskMonInit
 2084              		.syntax unified
 2085              		.thumb
 2086              		.thumb_func
 2087              		.fpu fpv4-sp-d16
 2089              	osTaskMonInit:
 2090              	.LFB147:
ARM GAS  C:\Users\91458\AppData\Local\Temp\cc2AQj9q.s 			page 54


 671:D:/iot/felix2/kernel/base/core\los_task.c **** 
 672:D:/iot/felix2/kernel/base/core\los_task.c **** LITE_OS_SEC_TEXT_MINOR VOID osTaskMonInit(VOID)
 673:D:/iot/felix2/kernel/base/core\los_task.c **** {
 2091              		.loc 2 673 0
 2092              		.cfi_startproc
 2093              		@ args = 0, pretend = 0, frame = 0
 2094              		@ frame_needed = 1, uses_anonymous_args = 0
 2095 0000 80B5     		push	{r7, lr}
 2096              	.LCFI93:
 2097              		.cfi_def_cfa_offset 8
 2098              		.cfi_offset 7, -8
 2099              		.cfi_offset 14, -4
 2100 0002 00AF     		add	r7, sp, #0
 2101              	.LCFI94:
 2102              		.cfi_def_cfa_register 7
 674:D:/iot/felix2/kernel/base/core\los_task.c **** #if (LOSCFG_BASE_CORE_EXC_TSK_SWITCH == YES)
 675:D:/iot/felix2/kernel/base/core\los_task.c ****     (VOID)memset(&g_astTskSwitchInfo, 0, sizeof(OS_TASK_SWITCH_INFO));
 2103              		.loc 2 675 0
 2104 0004 4FF4AB72 		mov	r2, #342
 2105 0008 0021     		movs	r1, #0
 2106 000a 0748     		ldr	r0, .L119
 2107 000c FFF7FEFF 		bl	memset
 676:D:/iot/felix2/kernel/base/core\los_task.c ****     g_astTskSwitchInfo.ucIsFull = 0x7F & OS_TASK_SWITCH_INFO_COUNT;
 2108              		.loc 2 676 0
 2109 0010 054B     		ldr	r3, .L119
 2110 0012 0A22     		movs	r2, #10
 2111 0014 5A70     		strb	r2, [r3, #1]
 677:D:/iot/felix2/kernel/base/core\los_task.c **** #if ((LOSCFG_PLATFORM_EXC == YES) && (LOSCFG_SAVE_EXC_INFO == YES))
 678:D:/iot/felix2/kernel/base/core\los_task.c ****     osExcRegister((EXC_INFO_TYPE)OS_EXC_TYPE_TSK_SWITCH, (EXC_INFO_SAVE_CALLBACK)LOS_TaskSwitchInfo
 679:D:/iot/felix2/kernel/base/core\los_task.c **** #endif
 680:D:/iot/felix2/kernel/base/core\los_task.c **** #endif
 681:D:/iot/felix2/kernel/base/core\los_task.c ****     g_pfnTskSwitchHook = osTaskSwitchCheck;
 2112              		.loc 2 681 0
 2113 0016 054B     		ldr	r3, .L119+4
 2114 0018 054A     		ldr	r2, .L119+8
 2115 001a 1A60     		str	r2, [r3]
 682:D:/iot/felix2/kernel/base/core\los_task.c ****     g_pfnUsrTskSwitchHook = (TSKSWITCHHOOK)NULL; /*lint !e611*/
 2116              		.loc 2 682 0
 2117 001c 054B     		ldr	r3, .L119+12
 2118 001e 0022     		movs	r2, #0
 2119 0020 1A60     		str	r2, [r3]
 683:D:/iot/felix2/kernel/base/core\los_task.c ****     return ;
 2120              		.loc 2 683 0
 2121 0022 00BF     		nop
 684:D:/iot/felix2/kernel/base/core\los_task.c **** }
 2122              		.loc 2 684 0
 2123 0024 80BD     		pop	{r7, pc}
 2124              	.L120:
 2125 0026 00BF     		.align	2
 2126              	.L119:
 2127 0028 00000000 		.word	g_astTskSwitchInfo
 2128 002c 00000000 		.word	g_pfnTskSwitchHook
 2129 0030 00000000 		.word	osTaskSwitchCheck
 2130 0034 00000000 		.word	g_pfnUsrTskSwitchHook
 2131              		.cfi_endproc
 2132              	.LFE147:
 2134              		.section	.text.osTaskEntry,"ax",%progbits
ARM GAS  C:\Users\91458\AppData\Local\Temp\cc2AQj9q.s 			page 55


 2135              		.align	1
 2136              		.global	osTaskEntry
 2137              		.syntax unified
 2138              		.thumb
 2139              		.thumb_func
 2140              		.fpu fpv4-sp-d16
 2142              	osTaskEntry:
 2143              	.LFB148:
 685:D:/iot/felix2/kernel/base/core\los_task.c **** #endif
 686:D:/iot/felix2/kernel/base/core\los_task.c **** 
 687:D:/iot/felix2/kernel/base/core\los_task.c **** /*****************************************************************************
 688:D:/iot/felix2/kernel/base/core\los_task.c ****  Function : osTaskEntry
 689:D:/iot/felix2/kernel/base/core\los_task.c ****  Description : All task entry
 690:D:/iot/felix2/kernel/base/core\los_task.c ****  Input       : uwTaskID     --- The ID of the task to be run
 691:D:/iot/felix2/kernel/base/core\los_task.c ****  Output      : None
 692:D:/iot/felix2/kernel/base/core\los_task.c ****  Return      : None
 693:D:/iot/felix2/kernel/base/core\los_task.c ****  *****************************************************************************/
 694:D:/iot/felix2/kernel/base/core\los_task.c **** LITE_OS_SEC_TEXT_INIT VOID osTaskEntry(UINT32 uwTaskID)
 695:D:/iot/felix2/kernel/base/core\los_task.c **** {
 2144              		.loc 2 695 0
 2145              		.cfi_startproc
 2146              		@ args = 0, pretend = 0, frame = 16
 2147              		@ frame_needed = 1, uses_anonymous_args = 0
 2148 0000 80B5     		push	{r7, lr}
 2149              	.LCFI95:
 2150              		.cfi_def_cfa_offset 8
 2151              		.cfi_offset 7, -8
 2152              		.cfi_offset 14, -4
 2153 0002 84B0     		sub	sp, sp, #16
 2154              	.LCFI96:
 2155              		.cfi_def_cfa_offset 24
 2156 0004 00AF     		add	r7, sp, #0
 2157              	.LCFI97:
 2158              		.cfi_def_cfa_register 7
 2159 0006 7860     		str	r0, [r7, #4]
 696:D:/iot/felix2/kernel/base/core\los_task.c ****     LOS_TASK_CB *pstTaskCB;
 697:D:/iot/felix2/kernel/base/core\los_task.c **** 
 698:D:/iot/felix2/kernel/base/core\los_task.c ****     OS_TASK_ID_CHECK(uwTaskID);
 699:D:/iot/felix2/kernel/base/core\los_task.c **** 
 700:D:/iot/felix2/kernel/base/core\los_task.c ****     pstTaskCB = OS_TCB_FROM_TID(uwTaskID);
 2160              		.loc 2 700 0
 2161 0008 0C4B     		ldr	r3, .L122
 2162 000a 1A68     		ldr	r2, [r3]
 2163 000c 7B68     		ldr	r3, [r7, #4]
 2164 000e 5421     		movs	r1, #84
 2165 0010 01FB03F3 		mul	r3, r1, r3
 2166 0014 1344     		add	r3, r3, r2
 2167 0016 FB60     		str	r3, [r7, #12]
 701:D:/iot/felix2/kernel/base/core\los_task.c **** 
 702:D:/iot/felix2/kernel/base/core\los_task.c ****     (VOID)pstTaskCB->pfnTaskEntry(pstTaskCB->uwArg);
 2168              		.loc 2 702 0
 2169 0018 FB68     		ldr	r3, [r7, #12]
 2170 001a 5B69     		ldr	r3, [r3, #20]
 2171 001c FA68     		ldr	r2, [r7, #12]
 2172 001e 126A     		ldr	r2, [r2, #32]
 2173 0020 1046     		mov	r0, r2
 2174 0022 9847     		blx	r3
ARM GAS  C:\Users\91458\AppData\Local\Temp\cc2AQj9q.s 			page 56


 2175              	.LVL1:
 703:D:/iot/felix2/kernel/base/core\los_task.c **** 
 704:D:/iot/felix2/kernel/base/core\los_task.c ****     g_usLosTaskLock = 0;
 2176              		.loc 2 704 0
 2177 0024 064B     		ldr	r3, .L122+4
 2178 0026 0022     		movs	r2, #0
 2179 0028 1A80     		strh	r2, [r3]	@ movhi
 705:D:/iot/felix2/kernel/base/core\los_task.c ****     (VOID)LOS_TaskDelete(pstTaskCB->uwTaskID);
 2180              		.loc 2 705 0
 2181 002a FB68     		ldr	r3, [r7, #12]
 2182 002c 1B69     		ldr	r3, [r3, #16]
 2183 002e 1846     		mov	r0, r3
 2184 0030 FFF7FEFF 		bl	LOS_TaskDelete
 706:D:/iot/felix2/kernel/base/core\los_task.c **** }
 2185              		.loc 2 706 0
 2186 0034 00BF     		nop
 2187 0036 1037     		adds	r7, r7, #16
 2188              	.LCFI98:
 2189              		.cfi_def_cfa_offset 8
 2190 0038 BD46     		mov	sp, r7
 2191              	.LCFI99:
 2192              		.cfi_def_cfa_register 13
 2193              		@ sp needed
 2194 003a 80BD     		pop	{r7, pc}
 2195              	.L123:
 2196              		.align	2
 2197              	.L122:
 2198 003c 00000000 		.word	g_pstTaskCBArray
 2199 0040 00000000 		.word	g_usLosTaskLock
 2200              		.cfi_endproc
 2201              	.LFE148:
 2203              		.section	.text.LOS_TaskCreateOnly,"ax",%progbits
 2204              		.align	1
 2205              		.global	LOS_TaskCreateOnly
 2206              		.syntax unified
 2207              		.thumb
 2208              		.thumb_func
 2209              		.fpu fpv4-sp-d16
 2211              	LOS_TaskCreateOnly:
 2212              	.LFB149:
 707:D:/iot/felix2/kernel/base/core\los_task.c **** 
 708:D:/iot/felix2/kernel/base/core\los_task.c **** /*****************************************************************************
 709:D:/iot/felix2/kernel/base/core\los_task.c ****  Function : LOS_TaskCreateOnly
 710:D:/iot/felix2/kernel/base/core\los_task.c ****  Description : Create a task and suspend
 711:D:/iot/felix2/kernel/base/core\los_task.c ****  Input       : pstInitParam --- Task init parameters
 712:D:/iot/felix2/kernel/base/core\los_task.c ****  Output      : puwTaskID    --- Save task ID
 713:D:/iot/felix2/kernel/base/core\los_task.c ****  Return      : LOS_OK on success or error code on failure
 714:D:/iot/felix2/kernel/base/core\los_task.c ****  *****************************************************************************/
 715:D:/iot/felix2/kernel/base/core\los_task.c **** LITE_OS_SEC_TEXT_INIT UINT32 LOS_TaskCreateOnly(UINT32 *puwTaskID, TSK_INIT_PARAM_S *pstInitParam)
 716:D:/iot/felix2/kernel/base/core\los_task.c **** {
 2213              		.loc 2 716 0
 2214              		.cfi_startproc
 2215              		@ args = 0, pretend = 0, frame = 32
 2216              		@ frame_needed = 1, uses_anonymous_args = 0
 2217 0000 80B5     		push	{r7, lr}
 2218              	.LCFI100:
 2219              		.cfi_def_cfa_offset 8
ARM GAS  C:\Users\91458\AppData\Local\Temp\cc2AQj9q.s 			page 57


 2220              		.cfi_offset 7, -8
 2221              		.cfi_offset 14, -4
 2222 0002 88B0     		sub	sp, sp, #32
 2223              	.LCFI101:
 2224              		.cfi_def_cfa_offset 40
 2225 0004 00AF     		add	r7, sp, #0
 2226              	.LCFI102:
 2227              		.cfi_def_cfa_register 7
 2228 0006 7860     		str	r0, [r7, #4]
 2229 0008 3960     		str	r1, [r7]
 717:D:/iot/felix2/kernel/base/core\los_task.c ****     UINT32 uwTaskID = 0;
 2230              		.loc 2 717 0
 2231 000a 0023     		movs	r3, #0
 2232 000c 7B61     		str	r3, [r7, #20]
 718:D:/iot/felix2/kernel/base/core\los_task.c ****     UINTPTR uvIntSave;
 719:D:/iot/felix2/kernel/base/core\los_task.c ****     VOID  *pTopStack;
 720:D:/iot/felix2/kernel/base/core\los_task.c ****     VOID  *pStackPtr;
 721:D:/iot/felix2/kernel/base/core\los_task.c ****     LOS_TASK_CB *pstTaskCB;
 722:D:/iot/felix2/kernel/base/core\los_task.c ****     UINT32 uwErrRet = OS_ERROR;
 2233              		.loc 2 722 0
 2234 000e 4FF0FF33 		mov	r3, #-1
 2235 0012 BB61     		str	r3, [r7, #24]
 723:D:/iot/felix2/kernel/base/core\los_task.c **** 
 724:D:/iot/felix2/kernel/base/core\los_task.c ****     if (NULL == puwTaskID)
 2236              		.loc 2 724 0
 2237 0014 7B68     		ldr	r3, [r7, #4]
 2238 0016 002B     		cmp	r3, #0
 2239 0018 01D1     		bne	.L125
 725:D:/iot/felix2/kernel/base/core\los_task.c ****     {
 726:D:/iot/felix2/kernel/base/core\los_task.c ****         return LOS_ERRNO_TSK_ID_INVALID;
 2240              		.loc 2 726 0
 2241 001a 6C4B     		ldr	r3, .L140
 2242 001c D2E0     		b	.L126
 2243              	.L125:
 727:D:/iot/felix2/kernel/base/core\los_task.c ****     }
 728:D:/iot/felix2/kernel/base/core\los_task.c **** 
 729:D:/iot/felix2/kernel/base/core\los_task.c ****     if (NULL == pstInitParam)
 2244              		.loc 2 729 0
 2245 001e 3B68     		ldr	r3, [r7]
 2246 0020 002B     		cmp	r3, #0
 2247 0022 01D1     		bne	.L127
 730:D:/iot/felix2/kernel/base/core\los_task.c ****     {
 731:D:/iot/felix2/kernel/base/core\los_task.c ****         return LOS_ERRNO_TSK_PTR_NULL;
 2248              		.loc 2 731 0
 2249 0024 6A4B     		ldr	r3, .L140+4
 2250 0026 CDE0     		b	.L126
 2251              	.L127:
 732:D:/iot/felix2/kernel/base/core\los_task.c ****     }
 733:D:/iot/felix2/kernel/base/core\los_task.c **** 
 734:D:/iot/felix2/kernel/base/core\los_task.c ****     if (NULL == pstInitParam->pcName)
 2252              		.loc 2 734 0
 2253 0028 3B68     		ldr	r3, [r7]
 2254 002a 1B69     		ldr	r3, [r3, #16]
 2255 002c 002B     		cmp	r3, #0
 2256 002e 01D1     		bne	.L128
 735:D:/iot/felix2/kernel/base/core\los_task.c ****     {
 736:D:/iot/felix2/kernel/base/core\los_task.c ****         return LOS_ERRNO_TSK_NAME_EMPTY;
ARM GAS  C:\Users\91458\AppData\Local\Temp\cc2AQj9q.s 			page 58


 2257              		.loc 2 736 0
 2258 0030 684B     		ldr	r3, .L140+8
 2259 0032 C7E0     		b	.L126
 2260              	.L128:
 737:D:/iot/felix2/kernel/base/core\los_task.c ****     }
 738:D:/iot/felix2/kernel/base/core\los_task.c **** 
 739:D:/iot/felix2/kernel/base/core\los_task.c ****     if (NULL == pstInitParam->pfnTaskEntry)
 2261              		.loc 2 739 0
 2262 0034 3B68     		ldr	r3, [r7]
 2263 0036 1B68     		ldr	r3, [r3]
 2264 0038 002B     		cmp	r3, #0
 2265 003a 01D1     		bne	.L129
 740:D:/iot/felix2/kernel/base/core\los_task.c ****     {
 741:D:/iot/felix2/kernel/base/core\los_task.c ****         return LOS_ERRNO_TSK_ENTRY_NULL;
 2266              		.loc 2 741 0
 2267 003c 664B     		ldr	r3, .L140+12
 2268 003e C1E0     		b	.L126
 2269              	.L129:
 742:D:/iot/felix2/kernel/base/core\los_task.c ****     }
 743:D:/iot/felix2/kernel/base/core\los_task.c **** 
 744:D:/iot/felix2/kernel/base/core\los_task.c ****     if ((pstInitParam->usTaskPrio) > OS_TASK_PRIORITY_LOWEST)
 2270              		.loc 2 744 0
 2271 0040 3B68     		ldr	r3, [r7]
 2272 0042 9B88     		ldrh	r3, [r3, #4]
 2273 0044 1F2B     		cmp	r3, #31
 2274 0046 01D9     		bls	.L130
 745:D:/iot/felix2/kernel/base/core\los_task.c ****     {
 746:D:/iot/felix2/kernel/base/core\los_task.c ****         return LOS_ERRNO_TSK_PRIOR_ERROR;
 2275              		.loc 2 746 0
 2276 0048 644B     		ldr	r3, .L140+16
 2277 004a BBE0     		b	.L126
 2278              	.L130:
 747:D:/iot/felix2/kernel/base/core\los_task.c ****     }
 748:D:/iot/felix2/kernel/base/core\los_task.c **** 
 749:D:/iot/felix2/kernel/base/core\los_task.c ****     if (((pstInitParam->usTaskPrio) == OS_TASK_PRIORITY_LOWEST)
 2279              		.loc 2 749 0
 2280 004c 3B68     		ldr	r3, [r7]
 2281 004e 9B88     		ldrh	r3, [r3, #4]
 2282 0050 1F2B     		cmp	r3, #31
 2283 0052 06D1     		bne	.L131
 750:D:/iot/felix2/kernel/base/core\los_task.c ****         && (pstInitParam->pfnTaskEntry != OS_IDLE_TASK_ENTRY))
 2284              		.loc 2 750 0
 2285 0054 3B68     		ldr	r3, [r7]
 2286 0056 1B68     		ldr	r3, [r3]
 2287 0058 614A     		ldr	r2, .L140+20
 2288 005a 9342     		cmp	r3, r2
 2289 005c 01D0     		beq	.L131
 751:D:/iot/felix2/kernel/base/core\los_task.c ****     {
 752:D:/iot/felix2/kernel/base/core\los_task.c ****         return LOS_ERRNO_TSK_PRIOR_ERROR;
 2290              		.loc 2 752 0
 2291 005e 5F4B     		ldr	r3, .L140+16
 2292 0060 B0E0     		b	.L126
 2293              	.L131:
 753:D:/iot/felix2/kernel/base/core\los_task.c ****     }
 754:D:/iot/felix2/kernel/base/core\los_task.c **** 
 755:D:/iot/felix2/kernel/base/core\los_task.c ****     if (pstInitParam->uwStackSize > OS_SYS_MEM_SIZE)
 2294              		.loc 2 755 0
ARM GAS  C:\Users\91458\AppData\Local\Temp\cc2AQj9q.s 			page 59


 2295 0062 3B68     		ldr	r3, [r7]
 2296 0064 DB68     		ldr	r3, [r3, #12]
 2297 0066 5F4A     		ldr	r2, .L140+24
 2298 0068 0132     		adds	r2, r2, #1
 2299 006a 5F49     		ldr	r1, .L140+28
 2300 006c 521A     		subs	r2, r2, r1
 2301 006e 9342     		cmp	r3, r2
 2302 0070 01D9     		bls	.L132
 756:D:/iot/felix2/kernel/base/core\los_task.c ****     {
 757:D:/iot/felix2/kernel/base/core\los_task.c ****         return LOS_ERRNO_TSK_STKSZ_TOO_LARGE;
 2303              		.loc 2 757 0
 2304 0072 5E4B     		ldr	r3, .L140+32
 2305 0074 A6E0     		b	.L126
 2306              	.L132:
 758:D:/iot/felix2/kernel/base/core\los_task.c ****     }
 759:D:/iot/felix2/kernel/base/core\los_task.c **** 
 760:D:/iot/felix2/kernel/base/core\los_task.c ****     if (0 == pstInitParam->uwStackSize)
 2307              		.loc 2 760 0
 2308 0076 3B68     		ldr	r3, [r7]
 2309 0078 DB68     		ldr	r3, [r3, #12]
 2310 007a 002B     		cmp	r3, #0
 2311 007c 03D1     		bne	.L133
 761:D:/iot/felix2/kernel/base/core\los_task.c ****     {
 762:D:/iot/felix2/kernel/base/core\los_task.c ****         pstInitParam->uwStackSize = LOSCFG_BASE_CORE_TSK_DEFAULT_STACK_SIZE;
 2312              		.loc 2 762 0
 2313 007e 3B68     		ldr	r3, [r7]
 2314 0080 4FF43472 		mov	r2, #720
 2315 0084 DA60     		str	r2, [r3, #12]
 2316              	.L133:
 763:D:/iot/felix2/kernel/base/core\los_task.c ****     }
 764:D:/iot/felix2/kernel/base/core\los_task.c ****     pstInitParam->uwStackSize = ALIGN(pstInitParam->uwStackSize , LOSCFG_STACK_POINT_ALIGN_SIZE);
 2317              		.loc 2 764 0
 2318 0086 3B68     		ldr	r3, [r7]
 2319 0088 DB68     		ldr	r3, [r3, #12]
 2320 008a 0821     		movs	r1, #8
 2321 008c 1846     		mov	r0, r3
 2322 008e FFF7FEFF 		bl	LOS_Align
 2323 0092 0246     		mov	r2, r0
 2324 0094 3B68     		ldr	r3, [r7]
 2325 0096 DA60     		str	r2, [r3, #12]
 765:D:/iot/felix2/kernel/base/core\los_task.c **** 
 766:D:/iot/felix2/kernel/base/core\los_task.c ****     if (pstInitParam->uwStackSize < LOSCFG_BASE_CORE_TSK_MIN_STACK_SIZE)
 2326              		.loc 2 766 0
 2327 0098 3B68     		ldr	r3, [r7]
 2328 009a DB68     		ldr	r3, [r3, #12]
 2329 009c B3F5987F 		cmp	r3, #304
 2330 00a0 01D2     		bcs	.L134
 767:D:/iot/felix2/kernel/base/core\los_task.c ****     {
 768:D:/iot/felix2/kernel/base/core\los_task.c ****         return LOS_ERRNO_TSK_STKSZ_TOO_SMALL;
 2331              		.loc 2 768 0
 2332 00a2 534B     		ldr	r3, .L140+36
 2333 00a4 8EE0     		b	.L126
 2334              	.L134:
 769:D:/iot/felix2/kernel/base/core\los_task.c ****     }
 770:D:/iot/felix2/kernel/base/core\los_task.c **** 
 771:D:/iot/felix2/kernel/base/core\los_task.c ****     uvIntSave = LOS_IntLock();
 2335              		.loc 2 771 0
ARM GAS  C:\Users\91458\AppData\Local\Temp\cc2AQj9q.s 			page 60


 2336 00a6 FFF7FEFF 		bl	LOS_IntLock
 2337 00aa F861     		str	r0, [r7, #28]
 772:D:/iot/felix2/kernel/base/core\los_task.c ****     while (!LOS_ListEmpty(&g_stTskRecyleList))
 2338              		.loc 2 772 0
 2339 00ac 17E0     		b	.L135
 2340              	.L136:
 773:D:/iot/felix2/kernel/base/core\los_task.c ****     {
 774:D:/iot/felix2/kernel/base/core\los_task.c ****         pstTaskCB = OS_TCB_FROM_PENDLIST(LOS_DL_LIST_FIRST(&g_stTskRecyleList)); /*lint !e413*/
 2341              		.loc 2 774 0
 2342 00ae 514B     		ldr	r3, .L140+40
 2343 00b0 5B68     		ldr	r3, [r3, #4]
 2344 00b2 283B     		subs	r3, r3, #40
 2345 00b4 3B61     		str	r3, [r7, #16]
 775:D:/iot/felix2/kernel/base/core\los_task.c ****         LOS_ListDelete(LOS_DL_LIST_FIRST(&g_stTskRecyleList));
 2346              		.loc 2 775 0
 2347 00b6 4F4B     		ldr	r3, .L140+40
 2348 00b8 5B68     		ldr	r3, [r3, #4]
 2349 00ba 1846     		mov	r0, r3
 2350 00bc FFF7FEFF 		bl	LOS_ListDelete
 776:D:/iot/felix2/kernel/base/core\los_task.c ****         LOS_ListAdd(&g_stLosFreeTask, &pstTaskCB->stPendList);
 2351              		.loc 2 776 0
 2352 00c0 3B69     		ldr	r3, [r7, #16]
 2353 00c2 2833     		adds	r3, r3, #40
 2354 00c4 1946     		mov	r1, r3
 2355 00c6 4C48     		ldr	r0, .L140+44
 2356 00c8 FFF7FEFF 		bl	LOS_ListAdd
 777:D:/iot/felix2/kernel/base/core\los_task.c ****         (VOID)LOS_MemFree(OS_TASK_STACK_ADDR, (VOID *)pstTaskCB->uwTopOfStack);
 2357              		.loc 2 777 0
 2358 00cc 3B69     		ldr	r3, [r7, #16]
 2359 00ce DB68     		ldr	r3, [r3, #12]
 2360 00d0 1946     		mov	r1, r3
 2361 00d2 4548     		ldr	r0, .L140+28
 2362 00d4 FFF7FEFF 		bl	LOS_MemFree
 778:D:/iot/felix2/kernel/base/core\los_task.c ****         pstTaskCB->uwTopOfStack = (UINT32)NULL;
 2363              		.loc 2 778 0
 2364 00d8 3B69     		ldr	r3, [r7, #16]
 2365 00da 0022     		movs	r2, #0
 2366 00dc DA60     		str	r2, [r3, #12]
 2367              	.L135:
 772:D:/iot/felix2/kernel/base/core\los_task.c ****     {
 2368              		.loc 2 772 0
 2369 00de 4548     		ldr	r0, .L140+40
 2370 00e0 FFF7FEFF 		bl	LOS_ListEmpty
 2371 00e4 0346     		mov	r3, r0
 2372 00e6 002B     		cmp	r3, #0
 2373 00e8 E1D0     		beq	.L136
 779:D:/iot/felix2/kernel/base/core\los_task.c ****     }
 780:D:/iot/felix2/kernel/base/core\los_task.c **** 
 781:D:/iot/felix2/kernel/base/core\los_task.c ****     if (LOS_ListEmpty(&g_stLosFreeTask))
 2374              		.loc 2 781 0
 2375 00ea 4348     		ldr	r0, .L140+44
 2376 00ec FFF7FEFF 		bl	LOS_ListEmpty
 2377 00f0 0346     		mov	r3, r0
 2378 00f2 002B     		cmp	r3, #0
 2379 00f4 02D0     		beq	.L137
 782:D:/iot/felix2/kernel/base/core\los_task.c ****     {
 783:D:/iot/felix2/kernel/base/core\los_task.c ****         uwErrRet = LOS_ERRNO_TSK_TCB_UNAVAILABLE;
ARM GAS  C:\Users\91458\AppData\Local\Temp\cc2AQj9q.s 			page 61


 2380              		.loc 2 783 0
 2381 00f6 414B     		ldr	r3, .L140+48
 2382 00f8 BB61     		str	r3, [r7, #24]
 784:D:/iot/felix2/kernel/base/core\los_task.c ****         OS_GOTO_ERREND();
 2383              		.loc 2 784 0
 2384 00fa 5FE0     		b	.L138
 2385              	.L137:
 785:D:/iot/felix2/kernel/base/core\los_task.c ****     }
 786:D:/iot/felix2/kernel/base/core\los_task.c **** 
 787:D:/iot/felix2/kernel/base/core\los_task.c ****     pstTaskCB = OS_TCB_FROM_PENDLIST(LOS_DL_LIST_FIRST(&g_stLosFreeTask)); /*lint !e413*/
 2386              		.loc 2 787 0
 2387 00fc 3E4B     		ldr	r3, .L140+44
 2388 00fe 5B68     		ldr	r3, [r3, #4]
 2389 0100 283B     		subs	r3, r3, #40
 2390 0102 3B61     		str	r3, [r7, #16]
 788:D:/iot/felix2/kernel/base/core\los_task.c ****     LOS_ListDelete(LOS_DL_LIST_FIRST(&g_stLosFreeTask));
 2391              		.loc 2 788 0
 2392 0104 3C4B     		ldr	r3, .L140+44
 2393 0106 5B68     		ldr	r3, [r3, #4]
 2394 0108 1846     		mov	r0, r3
 2395 010a FFF7FEFF 		bl	LOS_ListDelete
 789:D:/iot/felix2/kernel/base/core\los_task.c ****     (VOID)LOS_IntRestore(uvIntSave);
 2396              		.loc 2 789 0
 2397 010e F869     		ldr	r0, [r7, #28]
 2398 0110 FFF7FEFF 		bl	LOS_IntRestore
 790:D:/iot/felix2/kernel/base/core\los_task.c ****     uwTaskID = pstTaskCB->uwTaskID;
 2399              		.loc 2 790 0
 2400 0114 3B69     		ldr	r3, [r7, #16]
 2401 0116 1B69     		ldr	r3, [r3, #16]
 2402 0118 7B61     		str	r3, [r7, #20]
 791:D:/iot/felix2/kernel/base/core\los_task.c **** 
 792:D:/iot/felix2/kernel/base/core\los_task.c ****     pTopStack = (VOID *)LOS_MemAllocAlign(OS_TASK_STACK_ADDR, pstInitParam->uwStackSize, LOSCFG_STA
 2403              		.loc 2 792 0
 2404 011a 3B68     		ldr	r3, [r7]
 2405 011c DB68     		ldr	r3, [r3, #12]
 2406 011e 0822     		movs	r2, #8
 2407 0120 1946     		mov	r1, r3
 2408 0122 3148     		ldr	r0, .L140+28
 2409 0124 FFF7FEFF 		bl	LOS_MemAllocAlign
 2410 0128 F860     		str	r0, [r7, #12]
 793:D:/iot/felix2/kernel/base/core\los_task.c **** 
 794:D:/iot/felix2/kernel/base/core\los_task.c ****     if (NULL == pTopStack)
 2411              		.loc 2 794 0
 2412 012a FB68     		ldr	r3, [r7, #12]
 2413 012c 002B     		cmp	r3, #0
 2414 012e 0BD1     		bne	.L139
 795:D:/iot/felix2/kernel/base/core\los_task.c ****     {
 796:D:/iot/felix2/kernel/base/core\los_task.c ****         uvIntSave = LOS_IntLock();
 2415              		.loc 2 796 0
 2416 0130 FFF7FEFF 		bl	LOS_IntLock
 2417 0134 F861     		str	r0, [r7, #28]
 797:D:/iot/felix2/kernel/base/core\los_task.c ****         LOS_ListAdd(&g_stLosFreeTask, &pstTaskCB->stPendList);
 2418              		.loc 2 797 0
 2419 0136 3B69     		ldr	r3, [r7, #16]
 2420 0138 2833     		adds	r3, r3, #40
 2421 013a 1946     		mov	r1, r3
 2422 013c 2E48     		ldr	r0, .L140+44
ARM GAS  C:\Users\91458\AppData\Local\Temp\cc2AQj9q.s 			page 62


 2423 013e FFF7FEFF 		bl	LOS_ListAdd
 798:D:/iot/felix2/kernel/base/core\los_task.c ****         uwErrRet = LOS_ERRNO_TSK_NO_MEMORY;
 2424              		.loc 2 798 0
 2425 0142 2F4B     		ldr	r3, .L140+52
 2426 0144 BB61     		str	r3, [r7, #24]
 799:D:/iot/felix2/kernel/base/core\los_task.c ****         OS_GOTO_ERREND();
 2427              		.loc 2 799 0
 2428 0146 39E0     		b	.L138
 2429              	.L139:
 800:D:/iot/felix2/kernel/base/core\los_task.c ****     }
 801:D:/iot/felix2/kernel/base/core\los_task.c **** 
 802:D:/iot/felix2/kernel/base/core\los_task.c ****     pStackPtr = osTskStackInit(uwTaskID, pstInitParam->uwStackSize, pTopStack);
 2430              		.loc 2 802 0
 2431 0148 3B68     		ldr	r3, [r7]
 2432 014a DB68     		ldr	r3, [r3, #12]
 2433 014c FA68     		ldr	r2, [r7, #12]
 2434 014e 1946     		mov	r1, r3
 2435 0150 7869     		ldr	r0, [r7, #20]
 2436 0152 FFF7FEFF 		bl	osTskStackInit
 2437 0156 B860     		str	r0, [r7, #8]
 803:D:/iot/felix2/kernel/base/core\los_task.c ****     pstTaskCB->pStackPointer     = pStackPtr;
 2438              		.loc 2 803 0
 2439 0158 3B69     		ldr	r3, [r7, #16]
 2440 015a BA68     		ldr	r2, [r7, #8]
 2441 015c 1A60     		str	r2, [r3]
 804:D:/iot/felix2/kernel/base/core\los_task.c ****     pstTaskCB->uwArg             = pstInitParam->uwArg;
 2442              		.loc 2 804 0
 2443 015e 3B68     		ldr	r3, [r7]
 2444 0160 9A68     		ldr	r2, [r3, #8]
 2445 0162 3B69     		ldr	r3, [r7, #16]
 2446 0164 1A62     		str	r2, [r3, #32]
 805:D:/iot/felix2/kernel/base/core\los_task.c ****     pstTaskCB->uwTopOfStack      = (UINT32)pTopStack;
 2447              		.loc 2 805 0
 2448 0166 FA68     		ldr	r2, [r7, #12]
 2449 0168 3B69     		ldr	r3, [r7, #16]
 2450 016a DA60     		str	r2, [r3, #12]
 806:D:/iot/felix2/kernel/base/core\los_task.c ****     pstTaskCB->uwStackSize       = pstInitParam->uwStackSize;
 2451              		.loc 2 806 0
 2452 016c 3B68     		ldr	r3, [r7]
 2453 016e DA68     		ldr	r2, [r3, #12]
 2454 0170 3B69     		ldr	r3, [r7, #16]
 2455 0172 9A60     		str	r2, [r3, #8]
 807:D:/iot/felix2/kernel/base/core\los_task.c ****     pstTaskCB->pTaskSem          = NULL;
 2456              		.loc 2 807 0
 2457 0174 3B69     		ldr	r3, [r7, #16]
 2458 0176 0022     		movs	r2, #0
 2459 0178 9A61     		str	r2, [r3, #24]
 808:D:/iot/felix2/kernel/base/core\los_task.c ****     pstTaskCB->pTaskMux          = NULL;
 2460              		.loc 2 808 0
 2461 017a 3B69     		ldr	r3, [r7, #16]
 2462 017c 0022     		movs	r2, #0
 2463 017e DA61     		str	r2, [r3, #28]
 809:D:/iot/felix2/kernel/base/core\los_task.c ****     pstTaskCB->usTaskStatus      = OS_TASK_STATUS_SUSPEND;
 2464              		.loc 2 809 0
 2465 0180 3B69     		ldr	r3, [r7, #16]
 2466 0182 0222     		movs	r2, #2
 2467 0184 9A80     		strh	r2, [r3, #4]	@ movhi
ARM GAS  C:\Users\91458\AppData\Local\Temp\cc2AQj9q.s 			page 63


 810:D:/iot/felix2/kernel/base/core\los_task.c ****     pstTaskCB->usPriority        = pstInitParam->usTaskPrio;
 2468              		.loc 2 810 0
 2469 0186 3B68     		ldr	r3, [r7]
 2470 0188 9A88     		ldrh	r2, [r3, #4]
 2471 018a 3B69     		ldr	r3, [r7, #16]
 2472 018c DA80     		strh	r2, [r3, #6]	@ movhi
 811:D:/iot/felix2/kernel/base/core\los_task.c ****     pstTaskCB->pfnTaskEntry      = pstInitParam->pfnTaskEntry;
 2473              		.loc 2 811 0
 2474 018e 3B68     		ldr	r3, [r7]
 2475 0190 1A68     		ldr	r2, [r3]
 2476 0192 3B69     		ldr	r3, [r7, #16]
 2477 0194 5A61     		str	r2, [r3, #20]
 812:D:/iot/felix2/kernel/base/core\los_task.c ****     pstTaskCB->uwEvent.uwEventID = 0xFFFFFFFF;
 2478              		.loc 2 812 0
 2479 0196 3B69     		ldr	r3, [r7, #16]
 2480 0198 4FF0FF32 		mov	r2, #-1
 2481 019c DA63     		str	r2, [r3, #60]
 813:D:/iot/felix2/kernel/base/core\los_task.c ****     pstTaskCB->uwEventMask       = 0;
 2482              		.loc 2 813 0
 2483 019e 3B69     		ldr	r3, [r7, #16]
 2484 01a0 0022     		movs	r2, #0
 2485 01a2 9A64     		str	r2, [r3, #72]
 814:D:/iot/felix2/kernel/base/core\los_task.c ****     pstTaskCB->pcTaskName        = pstInitParam->pcName;
 2486              		.loc 2 814 0
 2487 01a4 3B68     		ldr	r3, [r7]
 2488 01a6 1A69     		ldr	r2, [r3, #16]
 2489 01a8 3B69     		ldr	r3, [r7, #16]
 2490 01aa 5A62     		str	r2, [r3, #36]
 815:D:/iot/felix2/kernel/base/core\los_task.c ****     pstTaskCB->puwMsg = NULL;
 2491              		.loc 2 815 0
 2492 01ac 3B69     		ldr	r3, [r7, #16]
 2493 01ae 0022     		movs	r2, #0
 2494 01b0 1A65     		str	r2, [r3, #80]
 816:D:/iot/felix2/kernel/base/core\los_task.c **** #if (LOSCFG_LIB_LIBC_NEWLIB_REENT == YES)
 817:D:/iot/felix2/kernel/base/core\los_task.c ****     /* Initialise this task's Newlib reent structure. */
 818:D:/iot/felix2/kernel/base/core\los_task.c ****     _REENT_INIT_PTR(&(pstTaskCB->stNewLibReent));
 819:D:/iot/felix2/kernel/base/core\los_task.c **** #endif
 820:D:/iot/felix2/kernel/base/core\los_task.c **** 
 821:D:/iot/felix2/kernel/base/core\los_task.c ****     *puwTaskID = uwTaskID;
 2495              		.loc 2 821 0
 2496 01b2 7B68     		ldr	r3, [r7, #4]
 2497 01b4 7A69     		ldr	r2, [r7, #20]
 2498 01b6 1A60     		str	r2, [r3]
 822:D:/iot/felix2/kernel/base/core\los_task.c ****     return LOS_OK;
 2499              		.loc 2 822 0
 2500 01b8 0023     		movs	r3, #0
 2501 01ba 03E0     		b	.L126
 2502              	.L138:
 823:D:/iot/felix2/kernel/base/core\los_task.c **** 
 824:D:/iot/felix2/kernel/base/core\los_task.c **** LOS_ERREND:
 825:D:/iot/felix2/kernel/base/core\los_task.c ****     (VOID)LOS_IntRestore(uvIntSave);
 2503              		.loc 2 825 0
 2504 01bc F869     		ldr	r0, [r7, #28]
 2505 01be FFF7FEFF 		bl	LOS_IntRestore
 826:D:/iot/felix2/kernel/base/core\los_task.c ****     return uwErrRet;
 2506              		.loc 2 826 0
 2507 01c2 BB69     		ldr	r3, [r7, #24]
ARM GAS  C:\Users\91458\AppData\Local\Temp\cc2AQj9q.s 			page 64


 2508              	.L126:
 827:D:/iot/felix2/kernel/base/core\los_task.c **** }
 2509              		.loc 2 827 0
 2510 01c4 1846     		mov	r0, r3
 2511 01c6 2037     		adds	r7, r7, #32
 2512              	.LCFI103:
 2513              		.cfi_def_cfa_offset 8
 2514 01c8 BD46     		mov	sp, r7
 2515              	.LCFI104:
 2516              		.cfi_def_cfa_register 13
 2517              		@ sp needed
 2518 01ca 80BD     		pop	{r7, pc}
 2519              	.L141:
 2520              		.align	2
 2521              	.L140:
 2522 01cc 07020002 		.word	33554951
 2523 01d0 01020002 		.word	33554945
 2524 01d4 05020002 		.word	33554949
 2525 01d8 04020002 		.word	33554948
 2526 01dc 03020002 		.word	33554947
 2527 01e0 00000000 		.word	osIdleTask
 2528 01e4 00000000 		.word	__los_heap_addr_end__
 2529 01e8 00000000 		.word	__los_heap_addr_start__
 2530 01ec 20020002 		.word	33554976
 2531 01f0 06020002 		.word	33554950
 2532 01f4 00000000 		.word	g_stTskRecyleList
 2533 01f8 00000000 		.word	g_stLosFreeTask
 2534 01fc 11020002 		.word	33554961
 2535 0200 00020003 		.word	50332160
 2536              		.cfi_endproc
 2537              	.LFE149:
 2539              		.section	.text.LOS_TaskCreate,"ax",%progbits
 2540              		.align	1
 2541              		.global	LOS_TaskCreate
 2542              		.syntax unified
 2543              		.thumb
 2544              		.thumb_func
 2545              		.fpu fpv4-sp-d16
 2547              	LOS_TaskCreate:
 2548              	.LFB150:
 828:D:/iot/felix2/kernel/base/core\los_task.c **** 
 829:D:/iot/felix2/kernel/base/core\los_task.c **** 
 830:D:/iot/felix2/kernel/base/core\los_task.c **** /*****************************************************************************
 831:D:/iot/felix2/kernel/base/core\los_task.c ****  Function : LOS_TaskCreate
 832:D:/iot/felix2/kernel/base/core\los_task.c ****  Description : Create a task
 833:D:/iot/felix2/kernel/base/core\los_task.c ****  Input       : pstInitParam --- Task init parameters
 834:D:/iot/felix2/kernel/base/core\los_task.c ****  Output      : puwTaskID    --- Save task ID
 835:D:/iot/felix2/kernel/base/core\los_task.c ****  Return      : LOS_OK on success or error code on failure
 836:D:/iot/felix2/kernel/base/core\los_task.c ****  *****************************************************************************/
 837:D:/iot/felix2/kernel/base/core\los_task.c **** LITE_OS_SEC_TEXT_INIT UINT32 LOS_TaskCreate(UINT32 *puwTaskID, TSK_INIT_PARAM_S *pstInitParam)
 838:D:/iot/felix2/kernel/base/core\los_task.c **** {
 2549              		.loc 2 838 0
 2550              		.cfi_startproc
 2551              		@ args = 0, pretend = 0, frame = 24
 2552              		@ frame_needed = 1, uses_anonymous_args = 0
 2553 0000 80B5     		push	{r7, lr}
 2554              	.LCFI105:
ARM GAS  C:\Users\91458\AppData\Local\Temp\cc2AQj9q.s 			page 65


 2555              		.cfi_def_cfa_offset 8
 2556              		.cfi_offset 7, -8
 2557              		.cfi_offset 14, -4
 2558 0002 86B0     		sub	sp, sp, #24
 2559              	.LCFI106:
 2560              		.cfi_def_cfa_offset 32
 2561 0004 00AF     		add	r7, sp, #0
 2562              	.LCFI107:
 2563              		.cfi_def_cfa_register 7
 2564 0006 7860     		str	r0, [r7, #4]
 2565 0008 3960     		str	r1, [r7]
 839:D:/iot/felix2/kernel/base/core\los_task.c ****     UINT32 uwRet = LOS_OK;
 2566              		.loc 2 839 0
 2567 000a 0023     		movs	r3, #0
 2568 000c 7B61     		str	r3, [r7, #20]
 840:D:/iot/felix2/kernel/base/core\los_task.c ****     UINTPTR uvIntSave;
 841:D:/iot/felix2/kernel/base/core\los_task.c ****     LOS_TASK_CB *pstTaskCB;
 842:D:/iot/felix2/kernel/base/core\los_task.c **** 
 843:D:/iot/felix2/kernel/base/core\los_task.c ****     uwRet = LOS_TaskCreateOnly(puwTaskID, pstInitParam);
 2569              		.loc 2 843 0
 2570 000e 3968     		ldr	r1, [r7]
 2571 0010 7868     		ldr	r0, [r7, #4]
 2572 0012 FFF7FEFF 		bl	LOS_TaskCreateOnly
 2573 0016 7861     		str	r0, [r7, #20]
 844:D:/iot/felix2/kernel/base/core\los_task.c ****     if (LOS_OK != uwRet)
 2574              		.loc 2 844 0
 2575 0018 7B69     		ldr	r3, [r7, #20]
 2576 001a 002B     		cmp	r3, #0
 2577 001c 01D0     		beq	.L143
 845:D:/iot/felix2/kernel/base/core\los_task.c ****     {
 846:D:/iot/felix2/kernel/base/core\los_task.c ****         return uwRet;
 2578              		.loc 2 846 0
 2579 001e 7B69     		ldr	r3, [r7, #20]
 2580 0020 45E0     		b	.L144
 2581              	.L143:
 847:D:/iot/felix2/kernel/base/core\los_task.c ****     }
 848:D:/iot/felix2/kernel/base/core\los_task.c ****     pstTaskCB = OS_TCB_FROM_TID(*puwTaskID);
 2582              		.loc 2 848 0
 2583 0022 254B     		ldr	r3, .L146
 2584 0024 1A68     		ldr	r2, [r3]
 2585 0026 7B68     		ldr	r3, [r7, #4]
 2586 0028 1B68     		ldr	r3, [r3]
 2587 002a 5421     		movs	r1, #84
 2588 002c 01FB03F3 		mul	r3, r1, r3
 2589 0030 1344     		add	r3, r3, r2
 2590 0032 3B61     		str	r3, [r7, #16]
 849:D:/iot/felix2/kernel/base/core\los_task.c **** 
 850:D:/iot/felix2/kernel/base/core\los_task.c ****     uvIntSave = LOS_IntLock();
 2591              		.loc 2 850 0
 2592 0034 FFF7FEFF 		bl	LOS_IntLock
 2593 0038 F860     		str	r0, [r7, #12]
 851:D:/iot/felix2/kernel/base/core\los_task.c ****     pstTaskCB->usTaskStatus &= (~OS_TASK_STATUS_SUSPEND);
 2594              		.loc 2 851 0
 2595 003a 3B69     		ldr	r3, [r7, #16]
 2596 003c 9B88     		ldrh	r3, [r3, #4]
 2597 003e 23F00203 		bic	r3, r3, #2
 2598 0042 9AB2     		uxth	r2, r3
ARM GAS  C:\Users\91458\AppData\Local\Temp\cc2AQj9q.s 			page 66


 2599 0044 3B69     		ldr	r3, [r7, #16]
 2600 0046 9A80     		strh	r2, [r3, #4]	@ movhi
 852:D:/iot/felix2/kernel/base/core\los_task.c ****     pstTaskCB->usTaskStatus |= OS_TASK_STATUS_READY;
 2601              		.loc 2 852 0
 2602 0048 3B69     		ldr	r3, [r7, #16]
 2603 004a 9B88     		ldrh	r3, [r3, #4]
 2604 004c 43F00403 		orr	r3, r3, #4
 2605 0050 9AB2     		uxth	r2, r3
 2606 0052 3B69     		ldr	r3, [r7, #16]
 2607 0054 9A80     		strh	r2, [r3, #4]	@ movhi
 853:D:/iot/felix2/kernel/base/core\los_task.c **** 
 854:D:/iot/felix2/kernel/base/core\los_task.c **** #if (LOSCFG_BASE_CORE_CPUP == YES)
 855:D:/iot/felix2/kernel/base/core\los_task.c ****     g_pstCpup[pstTaskCB->uwTaskID].uwID = pstTaskCB->uwTaskID;
 856:D:/iot/felix2/kernel/base/core\los_task.c ****     g_pstCpup[pstTaskCB->uwTaskID].usStatus = pstTaskCB->usTaskStatus;
 857:D:/iot/felix2/kernel/base/core\los_task.c **** #endif
 858:D:/iot/felix2/kernel/base/core\los_task.c **** 
 859:D:/iot/felix2/kernel/base/core\los_task.c ****     osPriqueueEnqueue(&pstTaskCB->stPendList, pstTaskCB->usPriority);
 2608              		.loc 2 859 0
 2609 0056 3B69     		ldr	r3, [r7, #16]
 2610 0058 03F12802 		add	r2, r3, #40
 2611 005c 3B69     		ldr	r3, [r7, #16]
 2612 005e DB88     		ldrh	r3, [r3, #6]
 2613 0060 1946     		mov	r1, r3
 2614 0062 1046     		mov	r0, r2
 2615 0064 FFF7FEFF 		bl	osPriqueueEnqueue
 860:D:/iot/felix2/kernel/base/core\los_task.c ****     g_stLosTask.pstNewTask = LOS_DL_LIST_ENTRY(osPriqueueTop(), LOS_TASK_CB, stPendList); /*lint !e
 2616              		.loc 2 860 0
 2617 0068 FFF7FEFF 		bl	osPriqueueTop
 2618 006c 0346     		mov	r3, r0
 2619 006e 283B     		subs	r3, r3, #40
 2620 0070 124A     		ldr	r2, .L146+4
 2621 0072 5360     		str	r3, [r2, #4]
 861:D:/iot/felix2/kernel/base/core\los_task.c **** 
 862:D:/iot/felix2/kernel/base/core\los_task.c ****     if ((g_bTaskScheduled) && (g_usLosTaskLock == 0))
 2622              		.loc 2 862 0
 2623 0074 124B     		ldr	r3, .L146+8
 2624 0076 1B68     		ldr	r3, [r3]
 2625 0078 002B     		cmp	r3, #0
 2626 007a 14D0     		beq	.L145
 2627              		.loc 2 862 0 is_stmt 0 discriminator 1
 2628 007c 114B     		ldr	r3, .L146+12
 2629 007e 1B88     		ldrh	r3, [r3]
 2630 0080 002B     		cmp	r3, #0
 2631 0082 10D1     		bne	.L145
 863:D:/iot/felix2/kernel/base/core\los_task.c ****     {
 864:D:/iot/felix2/kernel/base/core\los_task.c ****         if (g_stLosTask.pstRunTask != g_stLosTask.pstNewTask)
 2632              		.loc 2 864 0 is_stmt 1
 2633 0084 0D4B     		ldr	r3, .L146+4
 2634 0086 1A68     		ldr	r2, [r3]
 2635 0088 0C4B     		ldr	r3, .L146+4
 2636 008a 5B68     		ldr	r3, [r3, #4]
 2637 008c 9A42     		cmp	r2, r3
 2638 008e 0AD0     		beq	.L145
 865:D:/iot/felix2/kernel/base/core\los_task.c ****         {
 866:D:/iot/felix2/kernel/base/core\los_task.c ****             if (LOS_CHECK_SCHEDULE)
 2639              		.loc 2 866 0
 2640 0090 0C4B     		ldr	r3, .L146+12
ARM GAS  C:\Users\91458\AppData\Local\Temp\cc2AQj9q.s 			page 67


 2641 0092 1B88     		ldrh	r3, [r3]
 2642 0094 002B     		cmp	r3, #0
 2643 0096 06D1     		bne	.L145
 867:D:/iot/felix2/kernel/base/core\los_task.c ****             {
 868:D:/iot/felix2/kernel/base/core\los_task.c ****                 (VOID)LOS_IntRestore(uvIntSave);
 2644              		.loc 2 868 0
 2645 0098 F868     		ldr	r0, [r7, #12]
 2646 009a FFF7FEFF 		bl	LOS_IntRestore
 869:D:/iot/felix2/kernel/base/core\los_task.c ****                 osSchedule();
 2647              		.loc 2 869 0
 2648 009e FFF7FEFF 		bl	osSchedule
 870:D:/iot/felix2/kernel/base/core\los_task.c ****                 return LOS_OK;
 2649              		.loc 2 870 0
 2650 00a2 0023     		movs	r3, #0
 2651 00a4 03E0     		b	.L144
 2652              	.L145:
 871:D:/iot/felix2/kernel/base/core\los_task.c ****             }
 872:D:/iot/felix2/kernel/base/core\los_task.c ****         }
 873:D:/iot/felix2/kernel/base/core\los_task.c ****     }
 874:D:/iot/felix2/kernel/base/core\los_task.c **** 
 875:D:/iot/felix2/kernel/base/core\los_task.c ****     (VOID)LOS_IntRestore(uvIntSave);
 2653              		.loc 2 875 0
 2654 00a6 F868     		ldr	r0, [r7, #12]
 2655 00a8 FFF7FEFF 		bl	LOS_IntRestore
 876:D:/iot/felix2/kernel/base/core\los_task.c ****     return LOS_OK;
 2656              		.loc 2 876 0
 2657 00ac 0023     		movs	r3, #0
 2658              	.L144:
 877:D:/iot/felix2/kernel/base/core\los_task.c **** }
 2659              		.loc 2 877 0
 2660 00ae 1846     		mov	r0, r3
 2661 00b0 1837     		adds	r7, r7, #24
 2662              	.LCFI108:
 2663              		.cfi_def_cfa_offset 8
 2664 00b2 BD46     		mov	sp, r7
 2665              	.LCFI109:
 2666              		.cfi_def_cfa_register 13
 2667              		@ sp needed
 2668 00b4 80BD     		pop	{r7, pc}
 2669              	.L147:
 2670 00b6 00BF     		.align	2
 2671              	.L146:
 2672 00b8 00000000 		.word	g_pstTaskCBArray
 2673 00bc 00000000 		.word	g_stLosTask
 2674 00c0 00000000 		.word	g_bTaskScheduled
 2675 00c4 00000000 		.word	g_usLosTaskLock
 2676              		.cfi_endproc
 2677              	.LFE150:
 2679              		.section	.text.LOS_TaskResume,"ax",%progbits
 2680              		.align	1
 2681              		.global	LOS_TaskResume
 2682              		.syntax unified
 2683              		.thumb
 2684              		.thumb_func
 2685              		.fpu fpv4-sp-d16
 2687              	LOS_TaskResume:
 2688              	.LFB151:
ARM GAS  C:\Users\91458\AppData\Local\Temp\cc2AQj9q.s 			page 68


 878:D:/iot/felix2/kernel/base/core\los_task.c **** 
 879:D:/iot/felix2/kernel/base/core\los_task.c **** /*****************************************************************************
 880:D:/iot/felix2/kernel/base/core\los_task.c ****  Function : LOS_TaskResume
 881:D:/iot/felix2/kernel/base/core\los_task.c ****  Description : Resume suspend task
 882:D:/iot/felix2/kernel/base/core\los_task.c ****  Input       : uwTaskID --- Task ID
 883:D:/iot/felix2/kernel/base/core\los_task.c ****  Output      : None
 884:D:/iot/felix2/kernel/base/core\los_task.c ****  Return      : LOS_OK on success or error code on failure
 885:D:/iot/felix2/kernel/base/core\los_task.c ****  *****************************************************************************/
 886:D:/iot/felix2/kernel/base/core\los_task.c **** LITE_OS_SEC_TEXT_INIT UINT32 LOS_TaskResume(UINT32 uwTaskID)
 887:D:/iot/felix2/kernel/base/core\los_task.c **** {
 2689              		.loc 2 887 0
 2690              		.cfi_startproc
 2691              		@ args = 0, pretend = 0, frame = 24
 2692              		@ frame_needed = 1, uses_anonymous_args = 0
 2693 0000 80B5     		push	{r7, lr}
 2694              	.LCFI110:
 2695              		.cfi_def_cfa_offset 8
 2696              		.cfi_offset 7, -8
 2697              		.cfi_offset 14, -4
 2698 0002 86B0     		sub	sp, sp, #24
 2699              	.LCFI111:
 2700              		.cfi_def_cfa_offset 32
 2701 0004 00AF     		add	r7, sp, #0
 2702              	.LCFI112:
 2703              		.cfi_def_cfa_register 7
 2704 0006 7860     		str	r0, [r7, #4]
 888:D:/iot/felix2/kernel/base/core\los_task.c ****     UINTPTR uvIntSave;
 889:D:/iot/felix2/kernel/base/core\los_task.c ****     LOS_TASK_CB *pstTaskCB;
 890:D:/iot/felix2/kernel/base/core\los_task.c ****     UINT16 usTempStatus;
 891:D:/iot/felix2/kernel/base/core\los_task.c ****     UINT32 uwErrRet = OS_ERROR;
 2705              		.loc 2 891 0
 2706 0008 4FF0FF33 		mov	r3, #-1
 2707 000c 7B61     		str	r3, [r7, #20]
 892:D:/iot/felix2/kernel/base/core\los_task.c **** 
 893:D:/iot/felix2/kernel/base/core\los_task.c ****     if (uwTaskID > LOSCFG_BASE_CORE_TSK_LIMIT)
 2708              		.loc 2 893 0
 2709 000e 7B68     		ldr	r3, [r7, #4]
 2710 0010 0F2B     		cmp	r3, #15
 2711 0012 01D9     		bls	.L149
 894:D:/iot/felix2/kernel/base/core\los_task.c ****     {
 895:D:/iot/felix2/kernel/base/core\los_task.c ****         return LOS_ERRNO_TSK_ID_INVALID;
 2712              		.loc 2 895 0
 2713 0014 2F4B     		ldr	r3, .L156
 2714 0016 58E0     		b	.L150
 2715              	.L149:
 896:D:/iot/felix2/kernel/base/core\los_task.c ****     }
 897:D:/iot/felix2/kernel/base/core\los_task.c **** 
 898:D:/iot/felix2/kernel/base/core\los_task.c ****     pstTaskCB = OS_TCB_FROM_TID(uwTaskID);
 2716              		.loc 2 898 0
 2717 0018 2F4B     		ldr	r3, .L156+4
 2718 001a 1A68     		ldr	r2, [r3]
 2719 001c 7B68     		ldr	r3, [r7, #4]
 2720 001e 5421     		movs	r1, #84
 2721 0020 01FB03F3 		mul	r3, r1, r3
 2722 0024 1344     		add	r3, r3, r2
 2723 0026 3B61     		str	r3, [r7, #16]
 899:D:/iot/felix2/kernel/base/core\los_task.c ****     uvIntSave = LOS_IntLock();
ARM GAS  C:\Users\91458\AppData\Local\Temp\cc2AQj9q.s 			page 69


 2724              		.loc 2 899 0
 2725 0028 FFF7FEFF 		bl	LOS_IntLock
 2726 002c F860     		str	r0, [r7, #12]
 900:D:/iot/felix2/kernel/base/core\los_task.c ****     usTempStatus = pstTaskCB->usTaskStatus;
 2727              		.loc 2 900 0
 2728 002e 3B69     		ldr	r3, [r7, #16]
 2729 0030 9B88     		ldrh	r3, [r3, #4]	@ movhi
 2730 0032 7B81     		strh	r3, [r7, #10]	@ movhi
 901:D:/iot/felix2/kernel/base/core\los_task.c **** 
 902:D:/iot/felix2/kernel/base/core\los_task.c ****     if (OS_TASK_STATUS_UNUSED & usTempStatus)
 2731              		.loc 2 902 0
 2732 0034 7B89     		ldrh	r3, [r7, #10]	@ movhi
 2733 0036 03F00103 		and	r3, r3, #1
 2734 003a 9BB2     		uxth	r3, r3
 2735 003c 002B     		cmp	r3, #0
 2736 003e 02D0     		beq	.L151
 903:D:/iot/felix2/kernel/base/core\los_task.c ****     {
 904:D:/iot/felix2/kernel/base/core\los_task.c ****         uwErrRet = LOS_ERRNO_TSK_NOT_CREATED;
 2737              		.loc 2 904 0
 2738 0040 264B     		ldr	r3, .L156+8
 2739 0042 7B61     		str	r3, [r7, #20]
 905:D:/iot/felix2/kernel/base/core\los_task.c ****         OS_GOTO_ERREND();
 2740              		.loc 2 905 0
 2741 0044 3DE0     		b	.L152
 2742              	.L151:
 906:D:/iot/felix2/kernel/base/core\los_task.c ****     }
 907:D:/iot/felix2/kernel/base/core\los_task.c ****     else if (!(OS_TASK_STATUS_SUSPEND & usTempStatus))
 2743              		.loc 2 907 0
 2744 0046 7B89     		ldrh	r3, [r7, #10]	@ movhi
 2745 0048 03F00203 		and	r3, r3, #2
 2746 004c 9BB2     		uxth	r3, r3
 2747 004e 002B     		cmp	r3, #0
 2748 0050 02D1     		bne	.L153
 908:D:/iot/felix2/kernel/base/core\los_task.c ****     {
 909:D:/iot/felix2/kernel/base/core\los_task.c ****         uwErrRet = LOS_ERRNO_TSK_NOT_SUSPENDED;
 2749              		.loc 2 909 0
 2750 0052 234B     		ldr	r3, .L156+12
 2751 0054 7B61     		str	r3, [r7, #20]
 910:D:/iot/felix2/kernel/base/core\los_task.c ****         OS_GOTO_ERREND();
 2752              		.loc 2 910 0
 2753 0056 34E0     		b	.L152
 2754              	.L153:
 911:D:/iot/felix2/kernel/base/core\los_task.c ****     }
 912:D:/iot/felix2/kernel/base/core\los_task.c **** 
 913:D:/iot/felix2/kernel/base/core\los_task.c ****     pstTaskCB->usTaskStatus &= (~OS_TASK_STATUS_SUSPEND);
 2755              		.loc 2 913 0
 2756 0058 3B69     		ldr	r3, [r7, #16]
 2757 005a 9B88     		ldrh	r3, [r3, #4]
 2758 005c 23F00203 		bic	r3, r3, #2
 2759 0060 9AB2     		uxth	r2, r3
 2760 0062 3B69     		ldr	r3, [r7, #16]
 2761 0064 9A80     		strh	r2, [r3, #4]	@ movhi
 914:D:/iot/felix2/kernel/base/core\los_task.c ****     if (!(OS_CHECK_TASK_BLOCK & pstTaskCB->usTaskStatus) )
 2762              		.loc 2 914 0
 2763 0066 3B69     		ldr	r3, [r7, #16]
 2764 0068 9A88     		ldrh	r2, [r3, #4]
 2765 006a 42F22A43 		movw	r3, #9258
ARM GAS  C:\Users\91458\AppData\Local\Temp\cc2AQj9q.s 			page 70


 2766 006e 1340     		ands	r3, r3, r2
 2767 0070 9BB2     		uxth	r3, r3
 2768 0072 002B     		cmp	r3, #0
 2769 0074 20D1     		bne	.L154
 915:D:/iot/felix2/kernel/base/core\los_task.c ****     {
 916:D:/iot/felix2/kernel/base/core\los_task.c ****         pstTaskCB->usTaskStatus |= OS_TASK_STATUS_READY;
 2770              		.loc 2 916 0
 2771 0076 3B69     		ldr	r3, [r7, #16]
 2772 0078 9B88     		ldrh	r3, [r3, #4]
 2773 007a 43F00403 		orr	r3, r3, #4
 2774 007e 9AB2     		uxth	r2, r3
 2775 0080 3B69     		ldr	r3, [r7, #16]
 2776 0082 9A80     		strh	r2, [r3, #4]	@ movhi
 917:D:/iot/felix2/kernel/base/core\los_task.c ****         osPriqueueEnqueue(&pstTaskCB->stPendList, pstTaskCB->usPriority);
 2777              		.loc 2 917 0
 2778 0084 3B69     		ldr	r3, [r7, #16]
 2779 0086 03F12802 		add	r2, r3, #40
 2780 008a 3B69     		ldr	r3, [r7, #16]
 2781 008c DB88     		ldrh	r3, [r3, #6]
 2782 008e 1946     		mov	r1, r3
 2783 0090 1046     		mov	r0, r2
 2784 0092 FFF7FEFF 		bl	osPriqueueEnqueue
 918:D:/iot/felix2/kernel/base/core\los_task.c ****         if (g_bTaskScheduled)
 2785              		.loc 2 918 0
 2786 0096 134B     		ldr	r3, .L156+16
 2787 0098 1B68     		ldr	r3, [r3]
 2788 009a 002B     		cmp	r3, #0
 2789 009c 06D0     		beq	.L155
 919:D:/iot/felix2/kernel/base/core\los_task.c ****         {
 920:D:/iot/felix2/kernel/base/core\los_task.c ****             (VOID)LOS_IntRestore(uvIntSave);
 2790              		.loc 2 920 0
 2791 009e F868     		ldr	r0, [r7, #12]
 2792 00a0 FFF7FEFF 		bl	LOS_IntRestore
 921:D:/iot/felix2/kernel/base/core\los_task.c ****             LOS_Schedule();
 2793              		.loc 2 921 0
 2794 00a4 FFF7FEFF 		bl	LOS_Schedule
 922:D:/iot/felix2/kernel/base/core\los_task.c ****             return LOS_OK;
 2795              		.loc 2 922 0
 2796 00a8 0023     		movs	r3, #0
 2797 00aa 0EE0     		b	.L150
 2798              	.L155:
 923:D:/iot/felix2/kernel/base/core\los_task.c ****         }
 924:D:/iot/felix2/kernel/base/core\los_task.c ****         g_stLosTask.pstNewTask = LOS_DL_LIST_ENTRY(osPriqueueTop(), LOS_TASK_CB, stPendList); /*lin
 2799              		.loc 2 924 0
 2800 00ac FFF7FEFF 		bl	osPriqueueTop
 2801 00b0 0346     		mov	r3, r0
 2802 00b2 283B     		subs	r3, r3, #40
 2803 00b4 0C4A     		ldr	r2, .L156+20
 2804 00b6 5360     		str	r3, [r2, #4]
 2805              	.L154:
 925:D:/iot/felix2/kernel/base/core\los_task.c ****     }
 926:D:/iot/felix2/kernel/base/core\los_task.c **** 
 927:D:/iot/felix2/kernel/base/core\los_task.c ****     (VOID)LOS_IntRestore(uvIntSave);
 2806              		.loc 2 927 0
 2807 00b8 F868     		ldr	r0, [r7, #12]
 2808 00ba FFF7FEFF 		bl	LOS_IntRestore
 928:D:/iot/felix2/kernel/base/core\los_task.c ****     return LOS_OK;
ARM GAS  C:\Users\91458\AppData\Local\Temp\cc2AQj9q.s 			page 71


 2809              		.loc 2 928 0
 2810 00be 0023     		movs	r3, #0
 2811 00c0 03E0     		b	.L150
 2812              	.L152:
 929:D:/iot/felix2/kernel/base/core\los_task.c **** 
 930:D:/iot/felix2/kernel/base/core\los_task.c **** LOS_ERREND:
 931:D:/iot/felix2/kernel/base/core\los_task.c ****     (VOID)LOS_IntRestore(uvIntSave);
 2813              		.loc 2 931 0
 2814 00c2 F868     		ldr	r0, [r7, #12]
 2815 00c4 FFF7FEFF 		bl	LOS_IntRestore
 932:D:/iot/felix2/kernel/base/core\los_task.c ****     return uwErrRet;
 2816              		.loc 2 932 0
 2817 00c8 7B69     		ldr	r3, [r7, #20]
 2818              	.L150:
 933:D:/iot/felix2/kernel/base/core\los_task.c **** }
 2819              		.loc 2 933 0
 2820 00ca 1846     		mov	r0, r3
 2821 00cc 1837     		adds	r7, r7, #24
 2822              	.LCFI113:
 2823              		.cfi_def_cfa_offset 8
 2824 00ce BD46     		mov	sp, r7
 2825              	.LCFI114:
 2826              		.cfi_def_cfa_register 13
 2827              		@ sp needed
 2828 00d0 80BD     		pop	{r7, pc}
 2829              	.L157:
 2830 00d2 00BF     		.align	2
 2831              	.L156:
 2832 00d4 07020002 		.word	33554951
 2833 00d8 00000000 		.word	g_pstTaskCBArray
 2834 00dc 0A020002 		.word	33554954
 2835 00e0 09020002 		.word	33554953
 2836 00e4 00000000 		.word	g_bTaskScheduled
 2837 00e8 00000000 		.word	g_stLosTask
 2838              		.cfi_endproc
 2839              	.LFE151:
 2841              		.section	.text.LOS_TaskSuspend,"ax",%progbits
 2842              		.align	1
 2843              		.global	LOS_TaskSuspend
 2844              		.syntax unified
 2845              		.thumb
 2846              		.thumb_func
 2847              		.fpu fpv4-sp-d16
 2849              	LOS_TaskSuspend:
 2850              	.LFB152:
 934:D:/iot/felix2/kernel/base/core\los_task.c **** 
 935:D:/iot/felix2/kernel/base/core\los_task.c **** /*****************************************************************************
 936:D:/iot/felix2/kernel/base/core\los_task.c ****  Function : LOS_TaskSuspend
 937:D:/iot/felix2/kernel/base/core\los_task.c ****  Description : Suspend task
 938:D:/iot/felix2/kernel/base/core\los_task.c ****  Input       : uwTaskID --- Task ID
 939:D:/iot/felix2/kernel/base/core\los_task.c ****  Output      : None
 940:D:/iot/felix2/kernel/base/core\los_task.c ****  Return      : LOS_OK on success or error code on failure
 941:D:/iot/felix2/kernel/base/core\los_task.c ****  *****************************************************************************/
 942:D:/iot/felix2/kernel/base/core\los_task.c **** LITE_OS_SEC_TEXT_INIT UINT32 LOS_TaskSuspend(UINT32 uwTaskID)
 943:D:/iot/felix2/kernel/base/core\los_task.c **** {
 2851              		.loc 2 943 0
 2852              		.cfi_startproc
ARM GAS  C:\Users\91458\AppData\Local\Temp\cc2AQj9q.s 			page 72


 2853              		@ args = 0, pretend = 0, frame = 24
 2854              		@ frame_needed = 1, uses_anonymous_args = 0
 2855 0000 80B5     		push	{r7, lr}
 2856              	.LCFI115:
 2857              		.cfi_def_cfa_offset 8
 2858              		.cfi_offset 7, -8
 2859              		.cfi_offset 14, -4
 2860 0002 86B0     		sub	sp, sp, #24
 2861              	.LCFI116:
 2862              		.cfi_def_cfa_offset 32
 2863 0004 00AF     		add	r7, sp, #0
 2864              	.LCFI117:
 2865              		.cfi_def_cfa_register 7
 2866 0006 7860     		str	r0, [r7, #4]
 944:D:/iot/felix2/kernel/base/core\los_task.c ****     UINTPTR uvIntSave;
 945:D:/iot/felix2/kernel/base/core\los_task.c ****     LOS_TASK_CB *pstTaskCB;
 946:D:/iot/felix2/kernel/base/core\los_task.c ****     UINT16 usTempStatus;
 947:D:/iot/felix2/kernel/base/core\los_task.c ****     UINT32 uwErrRet = OS_ERROR;
 2867              		.loc 2 947 0
 2868 0008 4FF0FF33 		mov	r3, #-1
 2869 000c 7B61     		str	r3, [r7, #20]
 948:D:/iot/felix2/kernel/base/core\los_task.c **** 
 949:D:/iot/felix2/kernel/base/core\los_task.c ****     CHECK_TASKID(uwTaskID);
 2870              		.loc 2 949 0
 2871 000e 3A4B     		ldr	r3, .L169
 2872 0010 1B68     		ldr	r3, [r3]
 2873 0012 7A68     		ldr	r2, [r7, #4]
 2874 0014 9A42     		cmp	r2, r3
 2875 0016 01D1     		bne	.L159
 2876              		.loc 2 949 0 is_stmt 0 discriminator 1
 2877 0018 384B     		ldr	r3, .L169+4
 2878 001a 69E0     		b	.L160
 2879              	.L159:
 2880              		.loc 2 949 0 discriminator 2
 2881 001c 384B     		ldr	r3, .L169+8
 2882 001e 1B68     		ldr	r3, [r3]
 2883 0020 7A68     		ldr	r2, [r7, #4]
 2884 0022 9A42     		cmp	r2, r3
 2885 0024 01D1     		bne	.L161
 2886              		.loc 2 949 0 discriminator 3
 2887 0026 374B     		ldr	r3, .L169+12
 2888 0028 62E0     		b	.L160
 2889              	.L161:
 2890              		.loc 2 949 0 discriminator 4
 2891 002a 374B     		ldr	r3, .L169+16
 2892 002c 1B68     		ldr	r3, [r3]
 2893 002e 7A68     		ldr	r2, [r7, #4]
 2894 0030 9A42     		cmp	r2, r3
 2895 0032 01D3     		bcc	.L162
 2896              		.loc 2 949 0 discriminator 5
 2897 0034 354B     		ldr	r3, .L169+20
 2898 0036 5BE0     		b	.L160
 2899              	.L162:
 950:D:/iot/felix2/kernel/base/core\los_task.c ****     pstTaskCB = OS_TCB_FROM_TID(uwTaskID);
 2900              		.loc 2 950 0 is_stmt 1
 2901 0038 354B     		ldr	r3, .L169+24
 2902 003a 1A68     		ldr	r2, [r3]
ARM GAS  C:\Users\91458\AppData\Local\Temp\cc2AQj9q.s 			page 73


 2903 003c 7B68     		ldr	r3, [r7, #4]
 2904 003e 5421     		movs	r1, #84
 2905 0040 01FB03F3 		mul	r3, r1, r3
 2906 0044 1344     		add	r3, r3, r2
 2907 0046 3B61     		str	r3, [r7, #16]
 951:D:/iot/felix2/kernel/base/core\los_task.c ****     uvIntSave = LOS_IntLock();
 2908              		.loc 2 951 0
 2909 0048 FFF7FEFF 		bl	LOS_IntLock
 2910 004c F860     		str	r0, [r7, #12]
 952:D:/iot/felix2/kernel/base/core\los_task.c ****     usTempStatus = pstTaskCB->usTaskStatus;
 2911              		.loc 2 952 0
 2912 004e 3B69     		ldr	r3, [r7, #16]
 2913 0050 9B88     		ldrh	r3, [r3, #4]	@ movhi
 2914 0052 7B81     		strh	r3, [r7, #10]	@ movhi
 953:D:/iot/felix2/kernel/base/core\los_task.c ****     if (OS_TASK_STATUS_UNUSED & usTempStatus)
 2915              		.loc 2 953 0
 2916 0054 7B89     		ldrh	r3, [r7, #10]	@ movhi
 2917 0056 03F00103 		and	r3, r3, #1
 2918 005a 9BB2     		uxth	r3, r3
 2919 005c 002B     		cmp	r3, #0
 2920 005e 02D0     		beq	.L163
 954:D:/iot/felix2/kernel/base/core\los_task.c ****     {
 955:D:/iot/felix2/kernel/base/core\los_task.c ****         uwErrRet = LOS_ERRNO_TSK_NOT_CREATED;
 2921              		.loc 2 955 0
 2922 0060 2C4B     		ldr	r3, .L169+28
 2923 0062 7B61     		str	r3, [r7, #20]
 956:D:/iot/felix2/kernel/base/core\los_task.c ****         OS_GOTO_ERREND();
 2924              		.loc 2 956 0
 2925 0064 40E0     		b	.L164
 2926              	.L163:
 957:D:/iot/felix2/kernel/base/core\los_task.c ****     }
 958:D:/iot/felix2/kernel/base/core\los_task.c **** 
 959:D:/iot/felix2/kernel/base/core\los_task.c ****     if (OS_TASK_STATUS_SUSPEND & usTempStatus)
 2927              		.loc 2 959 0
 2928 0066 7B89     		ldrh	r3, [r7, #10]	@ movhi
 2929 0068 03F00203 		and	r3, r3, #2
 2930 006c 9BB2     		uxth	r3, r3
 2931 006e 002B     		cmp	r3, #0
 2932 0070 02D0     		beq	.L165
 960:D:/iot/felix2/kernel/base/core\los_task.c ****     {
 961:D:/iot/felix2/kernel/base/core\los_task.c ****         uwErrRet = LOS_ERRNO_TSK_ALREADY_SUSPENDED;
 2933              		.loc 2 961 0
 2934 0072 294B     		ldr	r3, .L169+32
 2935 0074 7B61     		str	r3, [r7, #20]
 962:D:/iot/felix2/kernel/base/core\los_task.c ****         OS_GOTO_ERREND();
 2936              		.loc 2 962 0
 2937 0076 37E0     		b	.L164
 2938              	.L165:
 963:D:/iot/felix2/kernel/base/core\los_task.c ****     }
 964:D:/iot/felix2/kernel/base/core\los_task.c **** 
 965:D:/iot/felix2/kernel/base/core\los_task.c ****     if ((OS_TASK_STATUS_RUNNING & usTempStatus) && (g_usLosTaskLock != 0))
 2939              		.loc 2 965 0
 2940 0078 7B89     		ldrh	r3, [r7, #10]	@ movhi
 2941 007a 03F01003 		and	r3, r3, #16
 2942 007e 9BB2     		uxth	r3, r3
 2943 0080 002B     		cmp	r3, #0
 2944 0082 06D0     		beq	.L166
ARM GAS  C:\Users\91458\AppData\Local\Temp\cc2AQj9q.s 			page 74


 2945              		.loc 2 965 0 is_stmt 0 discriminator 1
 2946 0084 254B     		ldr	r3, .L169+36
 2947 0086 1B88     		ldrh	r3, [r3]
 2948 0088 002B     		cmp	r3, #0
 2949 008a 02D0     		beq	.L166
 966:D:/iot/felix2/kernel/base/core\los_task.c ****     {
 967:D:/iot/felix2/kernel/base/core\los_task.c ****         uwErrRet = LOS_ERRNO_TSK_SUSPEND_LOCKED;
 2950              		.loc 2 967 0 is_stmt 1
 2951 008c 244B     		ldr	r3, .L169+40
 2952 008e 7B61     		str	r3, [r7, #20]
 968:D:/iot/felix2/kernel/base/core\los_task.c ****         OS_GOTO_ERREND();
 2953              		.loc 2 968 0
 2954 0090 2AE0     		b	.L164
 2955              	.L166:
 969:D:/iot/felix2/kernel/base/core\los_task.c ****     }
 970:D:/iot/felix2/kernel/base/core\los_task.c **** 
 971:D:/iot/felix2/kernel/base/core\los_task.c ****     if (OS_TASK_STATUS_READY & usTempStatus)
 2956              		.loc 2 971 0
 2957 0092 7B89     		ldrh	r3, [r7, #10]	@ movhi
 2958 0094 03F00403 		and	r3, r3, #4
 2959 0098 9BB2     		uxth	r3, r3
 2960 009a 002B     		cmp	r3, #0
 2961 009c 0BD0     		beq	.L167
 972:D:/iot/felix2/kernel/base/core\los_task.c ****     {
 973:D:/iot/felix2/kernel/base/core\los_task.c ****         osPriqueueDequeue(&pstTaskCB->stPendList);
 2962              		.loc 2 973 0
 2963 009e 3B69     		ldr	r3, [r7, #16]
 2964 00a0 2833     		adds	r3, r3, #40
 2965 00a2 1846     		mov	r0, r3
 2966 00a4 FFF7FEFF 		bl	osPriqueueDequeue
 974:D:/iot/felix2/kernel/base/core\los_task.c ****         pstTaskCB->usTaskStatus &= (~OS_TASK_STATUS_READY);
 2967              		.loc 2 974 0
 2968 00a8 3B69     		ldr	r3, [r7, #16]
 2969 00aa 9B88     		ldrh	r3, [r3, #4]
 2970 00ac 23F00403 		bic	r3, r3, #4
 2971 00b0 9AB2     		uxth	r2, r3
 2972 00b2 3B69     		ldr	r3, [r7, #16]
 2973 00b4 9A80     		strh	r2, [r3, #4]	@ movhi
 2974              	.L167:
 975:D:/iot/felix2/kernel/base/core\los_task.c ****     }
 976:D:/iot/felix2/kernel/base/core\los_task.c **** 
 977:D:/iot/felix2/kernel/base/core\los_task.c ****     pstTaskCB->usTaskStatus |= OS_TASK_STATUS_SUSPEND;
 2975              		.loc 2 977 0
 2976 00b6 3B69     		ldr	r3, [r7, #16]
 2977 00b8 9B88     		ldrh	r3, [r3, #4]
 2978 00ba 43F00203 		orr	r3, r3, #2
 2979 00be 9AB2     		uxth	r2, r3
 2980 00c0 3B69     		ldr	r3, [r7, #16]
 2981 00c2 9A80     		strh	r2, [r3, #4]	@ movhi
 978:D:/iot/felix2/kernel/base/core\los_task.c ****     if (uwTaskID == g_stLosTask.pstRunTask->uwTaskID)
 2982              		.loc 2 978 0
 2983 00c4 174B     		ldr	r3, .L169+44
 2984 00c6 1B68     		ldr	r3, [r3]
 2985 00c8 1B69     		ldr	r3, [r3, #16]
 2986 00ca 7A68     		ldr	r2, [r7, #4]
 2987 00cc 9A42     		cmp	r2, r3
 2988 00ce 06D1     		bne	.L168
ARM GAS  C:\Users\91458\AppData\Local\Temp\cc2AQj9q.s 			page 75


 979:D:/iot/felix2/kernel/base/core\los_task.c ****     {
 980:D:/iot/felix2/kernel/base/core\los_task.c ****         (VOID)LOS_IntRestore(uvIntSave);
 2989              		.loc 2 980 0
 2990 00d0 F868     		ldr	r0, [r7, #12]
 2991 00d2 FFF7FEFF 		bl	LOS_IntRestore
 981:D:/iot/felix2/kernel/base/core\los_task.c ****         LOS_Schedule();
 2992              		.loc 2 981 0
 2993 00d6 FFF7FEFF 		bl	LOS_Schedule
 982:D:/iot/felix2/kernel/base/core\los_task.c ****         return LOS_OK;
 2994              		.loc 2 982 0
 2995 00da 0023     		movs	r3, #0
 2996 00dc 08E0     		b	.L160
 2997              	.L168:
 983:D:/iot/felix2/kernel/base/core\los_task.c ****     }
 984:D:/iot/felix2/kernel/base/core\los_task.c **** 
 985:D:/iot/felix2/kernel/base/core\los_task.c ****     (VOID)LOS_IntRestore(uvIntSave);
 2998              		.loc 2 985 0
 2999 00de F868     		ldr	r0, [r7, #12]
 3000 00e0 FFF7FEFF 		bl	LOS_IntRestore
 986:D:/iot/felix2/kernel/base/core\los_task.c ****     return LOS_OK;
 3001              		.loc 2 986 0
 3002 00e4 0023     		movs	r3, #0
 3003 00e6 03E0     		b	.L160
 3004              	.L164:
 987:D:/iot/felix2/kernel/base/core\los_task.c **** 
 988:D:/iot/felix2/kernel/base/core\los_task.c **** LOS_ERREND:
 989:D:/iot/felix2/kernel/base/core\los_task.c ****     (VOID)LOS_IntRestore(uvIntSave);
 3005              		.loc 2 989 0
 3006 00e8 F868     		ldr	r0, [r7, #12]
 3007 00ea FFF7FEFF 		bl	LOS_IntRestore
 990:D:/iot/felix2/kernel/base/core\los_task.c ****     return uwErrRet;
 3008              		.loc 2 990 0
 3009 00ee 7B69     		ldr	r3, [r7, #20]
 3010              	.L160:
 991:D:/iot/felix2/kernel/base/core\los_task.c **** }
 3011              		.loc 2 991 0
 3012 00f0 1846     		mov	r0, r3
 3013 00f2 1837     		adds	r7, r7, #24
 3014              	.LCFI118:
 3015              		.cfi_def_cfa_offset 8
 3016 00f4 BD46     		mov	sp, r7
 3017              	.LCFI119:
 3018              		.cfi_def_cfa_register 13
 3019              		@ sp needed
 3020 00f6 80BD     		pop	{r7, pc}
 3021              	.L170:
 3022              		.align	2
 3023              	.L169:
 3024 00f8 00000000 		.word	g_uwIdleTaskID
 3025 00fc 14020002 		.word	33554964
 3026 0100 00000000 		.word	g_uwSwtmrTaskID
 3027 0104 21020002 		.word	33554977
 3028 0108 00000000 		.word	g_uwTskMaxNum
 3029 010c 07020002 		.word	33554951
 3030 0110 00000000 		.word	g_pstTaskCBArray
 3031 0114 0A020002 		.word	33554954
 3032 0118 08020002 		.word	33554952
ARM GAS  C:\Users\91458\AppData\Local\Temp\cc2AQj9q.s 			page 76


 3033 011c 00000000 		.word	g_usLosTaskLock
 3034 0120 15020003 		.word	50332181
 3035 0124 00000000 		.word	g_stLosTask
 3036              		.cfi_endproc
 3037              	.LFE152:
 3039              		.section	.text.LOS_TaskDelete,"ax",%progbits
 3040              		.align	1
 3041              		.global	LOS_TaskDelete
 3042              		.syntax unified
 3043              		.thumb
 3044              		.thumb_func
 3045              		.fpu fpv4-sp-d16
 3047              	LOS_TaskDelete:
 3048              	.LFB153:
 992:D:/iot/felix2/kernel/base/core\los_task.c **** 
 993:D:/iot/felix2/kernel/base/core\los_task.c **** /*****************************************************************************
 994:D:/iot/felix2/kernel/base/core\los_task.c ****  Function : LOS_TaskDelete
 995:D:/iot/felix2/kernel/base/core\los_task.c ****  Description : Delete a task
 996:D:/iot/felix2/kernel/base/core\los_task.c ****  Input       : uwTaskID --- Task ID
 997:D:/iot/felix2/kernel/base/core\los_task.c ****  Output      : None
 998:D:/iot/felix2/kernel/base/core\los_task.c ****  Return      : LOS_OK on success or error code on failure
 999:D:/iot/felix2/kernel/base/core\los_task.c ****  *****************************************************************************/
1000:D:/iot/felix2/kernel/base/core\los_task.c **** LITE_OS_SEC_TEXT_INIT UINT32 LOS_TaskDelete(UINT32 uwTaskID)
1001:D:/iot/felix2/kernel/base/core\los_task.c **** {
 3049              		.loc 2 1001 0
 3050              		.cfi_startproc
 3051              		@ args = 0, pretend = 0, frame = 24
 3052              		@ frame_needed = 1, uses_anonymous_args = 0
 3053 0000 80B5     		push	{r7, lr}
 3054              	.LCFI120:
 3055              		.cfi_def_cfa_offset 8
 3056              		.cfi_offset 7, -8
 3057              		.cfi_offset 14, -4
 3058 0002 86B0     		sub	sp, sp, #24
 3059              	.LCFI121:
 3060              		.cfi_def_cfa_offset 32
 3061 0004 00AF     		add	r7, sp, #0
 3062              	.LCFI122:
 3063              		.cfi_def_cfa_register 7
 3064 0006 7860     		str	r0, [r7, #4]
1002:D:/iot/felix2/kernel/base/core\los_task.c ****     UINTPTR uvIntSave;
1003:D:/iot/felix2/kernel/base/core\los_task.c ****     LOS_TASK_CB *pstTaskCB;
1004:D:/iot/felix2/kernel/base/core\los_task.c ****     UINT16 usTempStatus;
1005:D:/iot/felix2/kernel/base/core\los_task.c ****     UINT32 uwErrRet = OS_ERROR;
 3065              		.loc 2 1005 0
 3066 0008 4FF0FF33 		mov	r3, #-1
 3067 000c 7B61     		str	r3, [r7, #20]
1006:D:/iot/felix2/kernel/base/core\los_task.c **** 
1007:D:/iot/felix2/kernel/base/core\los_task.c ****     CHECK_TASKID(uwTaskID);
 3068              		.loc 2 1007 0
 3069 000e 6A4B     		ldr	r3, .L184
 3070 0010 1B68     		ldr	r3, [r3]
 3071 0012 7A68     		ldr	r2, [r7, #4]
 3072 0014 9A42     		cmp	r2, r3
 3073 0016 01D1     		bne	.L172
 3074              		.loc 2 1007 0 is_stmt 0 discriminator 1
 3075 0018 684B     		ldr	r3, .L184+4
ARM GAS  C:\Users\91458\AppData\Local\Temp\cc2AQj9q.s 			page 77


 3076 001a C8E0     		b	.L173
 3077              	.L172:
 3078              		.loc 2 1007 0 discriminator 2
 3079 001c 684B     		ldr	r3, .L184+8
 3080 001e 1B68     		ldr	r3, [r3]
 3081 0020 7A68     		ldr	r2, [r7, #4]
 3082 0022 9A42     		cmp	r2, r3
 3083 0024 01D1     		bne	.L174
 3084              		.loc 2 1007 0 discriminator 3
 3085 0026 674B     		ldr	r3, .L184+12
 3086 0028 C1E0     		b	.L173
 3087              	.L174:
 3088              		.loc 2 1007 0 discriminator 4
 3089 002a 674B     		ldr	r3, .L184+16
 3090 002c 1B68     		ldr	r3, [r3]
 3091 002e 7A68     		ldr	r2, [r7, #4]
 3092 0030 9A42     		cmp	r2, r3
 3093 0032 01D3     		bcc	.L175
 3094              		.loc 2 1007 0 discriminator 5
 3095 0034 654B     		ldr	r3, .L184+20
 3096 0036 BAE0     		b	.L173
 3097              	.L175:
1008:D:/iot/felix2/kernel/base/core\los_task.c ****     uvIntSave = LOS_IntLock();
 3098              		.loc 2 1008 0 is_stmt 1
 3099 0038 FFF7FEFF 		bl	LOS_IntLock
 3100 003c 3861     		str	r0, [r7, #16]
1009:D:/iot/felix2/kernel/base/core\los_task.c **** 
1010:D:/iot/felix2/kernel/base/core\los_task.c ****     pstTaskCB = OS_TCB_FROM_TID(uwTaskID);
 3101              		.loc 2 1010 0
 3102 003e 644B     		ldr	r3, .L184+24
 3103 0040 1A68     		ldr	r2, [r3]
 3104 0042 7B68     		ldr	r3, [r7, #4]
 3105 0044 5421     		movs	r1, #84
 3106 0046 01FB03F3 		mul	r3, r1, r3
 3107 004a 1344     		add	r3, r3, r2
 3108 004c FB60     		str	r3, [r7, #12]
1011:D:/iot/felix2/kernel/base/core\los_task.c **** 
1012:D:/iot/felix2/kernel/base/core\los_task.c ****     usTempStatus = pstTaskCB->usTaskStatus;
 3109              		.loc 2 1012 0
 3110 004e FB68     		ldr	r3, [r7, #12]
 3111 0050 9B88     		ldrh	r3, [r3, #4]	@ movhi
 3112 0052 7B81     		strh	r3, [r7, #10]	@ movhi
1013:D:/iot/felix2/kernel/base/core\los_task.c **** 
1014:D:/iot/felix2/kernel/base/core\los_task.c ****     if (OS_TASK_STATUS_UNUSED & usTempStatus)
 3113              		.loc 2 1014 0
 3114 0054 7B89     		ldrh	r3, [r7, #10]	@ movhi
 3115 0056 03F00103 		and	r3, r3, #1
 3116 005a 9BB2     		uxth	r3, r3
 3117 005c 002B     		cmp	r3, #0
 3118 005e 07D0     		beq	.L176
1015:D:/iot/felix2/kernel/base/core\los_task.c ****     {
1016:D:/iot/felix2/kernel/base/core\los_task.c ****         uwErrRet = LOS_ERRNO_TSK_NOT_CREATED;
 3119              		.loc 2 1016 0
 3120 0060 5C4B     		ldr	r3, .L184+28
 3121 0062 7B61     		str	r3, [r7, #20]
1017:D:/iot/felix2/kernel/base/core\los_task.c ****         OS_GOTO_ERREND();
 3122              		.loc 2 1017 0
ARM GAS  C:\Users\91458\AppData\Local\Temp\cc2AQj9q.s 			page 78


 3123 0064 00BF     		nop
 3124              	.L177:
1018:D:/iot/felix2/kernel/base/core\los_task.c ****     }
1019:D:/iot/felix2/kernel/base/core\los_task.c **** 
1020:D:/iot/felix2/kernel/base/core\los_task.c ****     /* If the task is running and scheduler is locked then you can not delete it */
1021:D:/iot/felix2/kernel/base/core\los_task.c ****     if ((OS_TASK_STATUS_RUNNING & usTempStatus) && (g_usLosTaskLock != 0))
1022:D:/iot/felix2/kernel/base/core\los_task.c ****     {
1023:D:/iot/felix2/kernel/base/core\los_task.c ****         PRINT_INFO("In case of task lock, task deletion is not recommended\n");
1024:D:/iot/felix2/kernel/base/core\los_task.c ****         g_usLosTaskLock = 0;
1025:D:/iot/felix2/kernel/base/core\los_task.c ****     }
1026:D:/iot/felix2/kernel/base/core\los_task.c **** 
1027:D:/iot/felix2/kernel/base/core\los_task.c ****     if (OS_TASK_STATUS_READY & usTempStatus)
1028:D:/iot/felix2/kernel/base/core\los_task.c ****     {
1029:D:/iot/felix2/kernel/base/core\los_task.c ****         osPriqueueDequeue(&pstTaskCB->stPendList);
1030:D:/iot/felix2/kernel/base/core\los_task.c ****         pstTaskCB->usTaskStatus &= (~OS_TASK_STATUS_READY);
1031:D:/iot/felix2/kernel/base/core\los_task.c ****     }
1032:D:/iot/felix2/kernel/base/core\los_task.c ****     else if ((OS_TASK_STATUS_PEND & usTempStatus) || (OS_TASK_STATUS_PEND_QUEUE & usTempStatus))
1033:D:/iot/felix2/kernel/base/core\los_task.c ****     {
1034:D:/iot/felix2/kernel/base/core\los_task.c ****         LOS_ListDelete(&pstTaskCB->stPendList);
1035:D:/iot/felix2/kernel/base/core\los_task.c ****     }
1036:D:/iot/felix2/kernel/base/core\los_task.c **** 
1037:D:/iot/felix2/kernel/base/core\los_task.c ****     if ((OS_TASK_STATUS_DELAY | OS_TASK_STATUS_TIMEOUT) & usTempStatus)
1038:D:/iot/felix2/kernel/base/core\los_task.c ****     {
1039:D:/iot/felix2/kernel/base/core\los_task.c ****         osTimerListDelete(pstTaskCB);
1040:D:/iot/felix2/kernel/base/core\los_task.c ****     }
1041:D:/iot/felix2/kernel/base/core\los_task.c **** 
1042:D:/iot/felix2/kernel/base/core\los_task.c ****     pstTaskCB->usTaskStatus &= (~(OS_TASK_STATUS_SUSPEND));
1043:D:/iot/felix2/kernel/base/core\los_task.c ****     pstTaskCB->usTaskStatus |= OS_TASK_STATUS_UNUSED;
1044:D:/iot/felix2/kernel/base/core\los_task.c ****     pstTaskCB->uwEvent.uwEventID = 0xFFFFFFFF;
1045:D:/iot/felix2/kernel/base/core\los_task.c ****     pstTaskCB->uwEventMask = 0;
1046:D:/iot/felix2/kernel/base/core\los_task.c **** #if (LOSCFG_BASE_CORE_CPUP == YES)
1047:D:/iot/felix2/kernel/base/core\los_task.c ****     (VOID)memset((VOID *)&g_pstCpup[pstTaskCB->uwTaskID], 0, sizeof(OS_CPUP_S));
1048:D:/iot/felix2/kernel/base/core\los_task.c **** #endif
1049:D:/iot/felix2/kernel/base/core\los_task.c ****     g_stLosTask.pstNewTask = LOS_DL_LIST_ENTRY(osPriqueueTop(), LOS_TASK_CB, stPendList); /*lint !e
1050:D:/iot/felix2/kernel/base/core\los_task.c ****     if (OS_TASK_STATUS_RUNNING & pstTaskCB->usTaskStatus)
1051:D:/iot/felix2/kernel/base/core\los_task.c ****     {
1052:D:/iot/felix2/kernel/base/core\los_task.c ****         LOS_ListTailInsert(&g_stTskRecyleList, &pstTaskCB->stPendList);
1053:D:/iot/felix2/kernel/base/core\los_task.c ****         g_stLosTask.pstRunTask = &g_pstTaskCBArray[g_uwTskMaxNum];
1054:D:/iot/felix2/kernel/base/core\los_task.c ****         g_stLosTask.pstRunTask->uwTaskID = uwTaskID;
1055:D:/iot/felix2/kernel/base/core\los_task.c ****         g_stLosTask.pstRunTask->usTaskStatus = pstTaskCB->usTaskStatus;
1056:D:/iot/felix2/kernel/base/core\los_task.c ****         g_stLosTask.pstRunTask->uwTopOfStack = pstTaskCB->uwTopOfStack;
1057:D:/iot/felix2/kernel/base/core\los_task.c ****         g_stLosTask.pstRunTask->pcTaskName = pstTaskCB->pcTaskName;
1058:D:/iot/felix2/kernel/base/core\los_task.c ****         pstTaskCB->usTaskStatus = OS_TASK_STATUS_UNUSED;
1059:D:/iot/felix2/kernel/base/core\los_task.c ****         (VOID)LOS_IntRestore(uvIntSave);
1060:D:/iot/felix2/kernel/base/core\los_task.c ****         osSchedule();
1061:D:/iot/felix2/kernel/base/core\los_task.c ****         return LOS_OK;
1062:D:/iot/felix2/kernel/base/core\los_task.c ****     }
1063:D:/iot/felix2/kernel/base/core\los_task.c ****     else
1064:D:/iot/felix2/kernel/base/core\los_task.c ****     {
1065:D:/iot/felix2/kernel/base/core\los_task.c ****         pstTaskCB->usTaskStatus = OS_TASK_STATUS_UNUSED;
1066:D:/iot/felix2/kernel/base/core\los_task.c ****         LOS_ListAdd(&g_stLosFreeTask, &pstTaskCB->stPendList);
1067:D:/iot/felix2/kernel/base/core\los_task.c ****         (VOID)LOS_MemFree(OS_TASK_STACK_ADDR, (VOID *)pstTaskCB->uwTopOfStack);
1068:D:/iot/felix2/kernel/base/core\los_task.c ****         pstTaskCB->uwTopOfStack = (UINT32)NULL;
1069:D:/iot/felix2/kernel/base/core\los_task.c ****     }
1070:D:/iot/felix2/kernel/base/core\los_task.c **** 
1071:D:/iot/felix2/kernel/base/core\los_task.c ****     (VOID)LOS_IntRestore(uvIntSave);
1072:D:/iot/felix2/kernel/base/core\los_task.c ****     return LOS_OK;
ARM GAS  C:\Users\91458\AppData\Local\Temp\cc2AQj9q.s 			page 79


1073:D:/iot/felix2/kernel/base/core\los_task.c **** 
1074:D:/iot/felix2/kernel/base/core\los_task.c **** LOS_ERREND:
1075:D:/iot/felix2/kernel/base/core\los_task.c ****     (VOID)LOS_IntRestore(uvIntSave);
 3125              		.loc 2 1075 0
 3126 0066 3869     		ldr	r0, [r7, #16]
 3127 0068 FFF7FEFF 		bl	LOS_IntRestore
1076:D:/iot/felix2/kernel/base/core\los_task.c ****     return uwErrRet;
 3128              		.loc 2 1076 0
 3129 006c 7B69     		ldr	r3, [r7, #20]
 3130 006e 9EE0     		b	.L173
 3131              	.L176:
1021:D:/iot/felix2/kernel/base/core\los_task.c ****     {
 3132              		.loc 2 1021 0
 3133 0070 7B89     		ldrh	r3, [r7, #10]	@ movhi
 3134 0072 03F01003 		and	r3, r3, #16
 3135 0076 9BB2     		uxth	r3, r3
 3136 0078 002B     		cmp	r3, #0
 3137 007a 06D0     		beq	.L178
1021:D:/iot/felix2/kernel/base/core\los_task.c ****     {
 3138              		.loc 2 1021 0 is_stmt 0 discriminator 1
 3139 007c 564B     		ldr	r3, .L184+32
 3140 007e 1B88     		ldrh	r3, [r3]
 3141 0080 002B     		cmp	r3, #0
 3142 0082 02D0     		beq	.L178
1024:D:/iot/felix2/kernel/base/core\los_task.c ****     }
 3143              		.loc 2 1024 0 is_stmt 1
 3144 0084 544B     		ldr	r3, .L184+32
 3145 0086 0022     		movs	r2, #0
 3146 0088 1A80     		strh	r2, [r3]	@ movhi
 3147              	.L178:
1027:D:/iot/felix2/kernel/base/core\los_task.c ****     {
 3148              		.loc 2 1027 0
 3149 008a 7B89     		ldrh	r3, [r7, #10]	@ movhi
 3150 008c 03F00403 		and	r3, r3, #4
 3151 0090 9BB2     		uxth	r3, r3
 3152 0092 002B     		cmp	r3, #0
 3153 0094 0CD0     		beq	.L179
1029:D:/iot/felix2/kernel/base/core\los_task.c ****         pstTaskCB->usTaskStatus &= (~OS_TASK_STATUS_READY);
 3154              		.loc 2 1029 0
 3155 0096 FB68     		ldr	r3, [r7, #12]
 3156 0098 2833     		adds	r3, r3, #40
 3157 009a 1846     		mov	r0, r3
 3158 009c FFF7FEFF 		bl	osPriqueueDequeue
1030:D:/iot/felix2/kernel/base/core\los_task.c ****     }
 3159              		.loc 2 1030 0
 3160 00a0 FB68     		ldr	r3, [r7, #12]
 3161 00a2 9B88     		ldrh	r3, [r3, #4]
 3162 00a4 23F00403 		bic	r3, r3, #4
 3163 00a8 9AB2     		uxth	r2, r3
 3164 00aa FB68     		ldr	r3, [r7, #12]
 3165 00ac 9A80     		strh	r2, [r3, #4]	@ movhi
 3166 00ae 10E0     		b	.L180
 3167              	.L179:
1032:D:/iot/felix2/kernel/base/core\los_task.c ****     {
 3168              		.loc 2 1032 0
 3169 00b0 7B89     		ldrh	r3, [r7, #10]	@ movhi
 3170 00b2 03F00803 		and	r3, r3, #8
ARM GAS  C:\Users\91458\AppData\Local\Temp\cc2AQj9q.s 			page 80


 3171 00b6 9BB2     		uxth	r3, r3
 3172 00b8 002B     		cmp	r3, #0
 3173 00ba 05D1     		bne	.L181
1032:D:/iot/felix2/kernel/base/core\los_task.c ****     {
 3174              		.loc 2 1032 0 is_stmt 0 discriminator 1
 3175 00bc 7B89     		ldrh	r3, [r7, #10]	@ movhi
 3176 00be 03F40053 		and	r3, r3, #8192
 3177 00c2 9BB2     		uxth	r3, r3
 3178 00c4 002B     		cmp	r3, #0
 3179 00c6 04D0     		beq	.L180
 3180              	.L181:
1034:D:/iot/felix2/kernel/base/core\los_task.c ****     }
 3181              		.loc 2 1034 0 is_stmt 1
 3182 00c8 FB68     		ldr	r3, [r7, #12]
 3183 00ca 2833     		adds	r3, r3, #40
 3184 00cc 1846     		mov	r0, r3
 3185 00ce FFF7FEFF 		bl	LOS_ListDelete
 3186              	.L180:
1037:D:/iot/felix2/kernel/base/core\los_task.c ****     {
 3187              		.loc 2 1037 0
 3188 00d2 7B89     		ldrh	r3, [r7, #10]	@ movhi
 3189 00d4 03F06003 		and	r3, r3, #96
 3190 00d8 9BB2     		uxth	r3, r3
 3191 00da 002B     		cmp	r3, #0
 3192 00dc 02D0     		beq	.L182
1039:D:/iot/felix2/kernel/base/core\los_task.c ****     }
 3193              		.loc 2 1039 0
 3194 00de F868     		ldr	r0, [r7, #12]
 3195 00e0 FFF7FEFF 		bl	osTimerListDelete
 3196              	.L182:
1042:D:/iot/felix2/kernel/base/core\los_task.c ****     pstTaskCB->usTaskStatus |= OS_TASK_STATUS_UNUSED;
 3197              		.loc 2 1042 0
 3198 00e4 FB68     		ldr	r3, [r7, #12]
 3199 00e6 9B88     		ldrh	r3, [r3, #4]
 3200 00e8 23F00203 		bic	r3, r3, #2
 3201 00ec 9AB2     		uxth	r2, r3
 3202 00ee FB68     		ldr	r3, [r7, #12]
 3203 00f0 9A80     		strh	r2, [r3, #4]	@ movhi
1043:D:/iot/felix2/kernel/base/core\los_task.c ****     pstTaskCB->uwEvent.uwEventID = 0xFFFFFFFF;
 3204              		.loc 2 1043 0
 3205 00f2 FB68     		ldr	r3, [r7, #12]
 3206 00f4 9B88     		ldrh	r3, [r3, #4]
 3207 00f6 43F00103 		orr	r3, r3, #1
 3208 00fa 9AB2     		uxth	r2, r3
 3209 00fc FB68     		ldr	r3, [r7, #12]
 3210 00fe 9A80     		strh	r2, [r3, #4]	@ movhi
1044:D:/iot/felix2/kernel/base/core\los_task.c ****     pstTaskCB->uwEventMask = 0;
 3211              		.loc 2 1044 0
 3212 0100 FB68     		ldr	r3, [r7, #12]
 3213 0102 4FF0FF32 		mov	r2, #-1
 3214 0106 DA63     		str	r2, [r3, #60]
1045:D:/iot/felix2/kernel/base/core\los_task.c **** #if (LOSCFG_BASE_CORE_CPUP == YES)
 3215              		.loc 2 1045 0
 3216 0108 FB68     		ldr	r3, [r7, #12]
 3217 010a 0022     		movs	r2, #0
 3218 010c 9A64     		str	r2, [r3, #72]
1049:D:/iot/felix2/kernel/base/core\los_task.c ****     if (OS_TASK_STATUS_RUNNING & pstTaskCB->usTaskStatus)
ARM GAS  C:\Users\91458\AppData\Local\Temp\cc2AQj9q.s 			page 81


 3219              		.loc 2 1049 0
 3220 010e FFF7FEFF 		bl	osPriqueueTop
 3221 0112 0346     		mov	r3, r0
 3222 0114 283B     		subs	r3, r3, #40
 3223 0116 314A     		ldr	r2, .L184+36
 3224 0118 5360     		str	r3, [r2, #4]
1050:D:/iot/felix2/kernel/base/core\los_task.c ****     {
 3225              		.loc 2 1050 0
 3226 011a FB68     		ldr	r3, [r7, #12]
 3227 011c 9B88     		ldrh	r3, [r3, #4]
 3228 011e 03F01003 		and	r3, r3, #16
 3229 0122 9BB2     		uxth	r3, r3
 3230 0124 002B     		cmp	r3, #0
 3231 0126 2CD0     		beq	.L183
1052:D:/iot/felix2/kernel/base/core\los_task.c ****         g_stLosTask.pstRunTask = &g_pstTaskCBArray[g_uwTskMaxNum];
 3232              		.loc 2 1052 0
 3233 0128 FB68     		ldr	r3, [r7, #12]
 3234 012a 2833     		adds	r3, r3, #40
 3235 012c 1946     		mov	r1, r3
 3236 012e 2C48     		ldr	r0, .L184+40
 3237 0130 FFF7FEFF 		bl	LOS_ListTailInsert
1053:D:/iot/felix2/kernel/base/core\los_task.c ****         g_stLosTask.pstRunTask->uwTaskID = uwTaskID;
 3238              		.loc 2 1053 0
 3239 0134 264B     		ldr	r3, .L184+24
 3240 0136 1A68     		ldr	r2, [r3]
 3241 0138 234B     		ldr	r3, .L184+16
 3242 013a 1B68     		ldr	r3, [r3]
 3243 013c 5421     		movs	r1, #84
 3244 013e 01FB03F3 		mul	r3, r1, r3
 3245 0142 1344     		add	r3, r3, r2
 3246 0144 254A     		ldr	r2, .L184+36
 3247 0146 1360     		str	r3, [r2]
1054:D:/iot/felix2/kernel/base/core\los_task.c ****         g_stLosTask.pstRunTask->usTaskStatus = pstTaskCB->usTaskStatus;
 3248              		.loc 2 1054 0
 3249 0148 244B     		ldr	r3, .L184+36
 3250 014a 1B68     		ldr	r3, [r3]
 3251 014c 7A68     		ldr	r2, [r7, #4]
 3252 014e 1A61     		str	r2, [r3, #16]
1055:D:/iot/felix2/kernel/base/core\los_task.c ****         g_stLosTask.pstRunTask->uwTopOfStack = pstTaskCB->uwTopOfStack;
 3253              		.loc 2 1055 0
 3254 0150 224B     		ldr	r3, .L184+36
 3255 0152 1B68     		ldr	r3, [r3]
 3256 0154 FA68     		ldr	r2, [r7, #12]
 3257 0156 9288     		ldrh	r2, [r2, #4]
 3258 0158 9A80     		strh	r2, [r3, #4]	@ movhi
1056:D:/iot/felix2/kernel/base/core\los_task.c ****         g_stLosTask.pstRunTask->pcTaskName = pstTaskCB->pcTaskName;
 3259              		.loc 2 1056 0
 3260 015a 204B     		ldr	r3, .L184+36
 3261 015c 1B68     		ldr	r3, [r3]
 3262 015e FA68     		ldr	r2, [r7, #12]
 3263 0160 D268     		ldr	r2, [r2, #12]
 3264 0162 DA60     		str	r2, [r3, #12]
1057:D:/iot/felix2/kernel/base/core\los_task.c ****         pstTaskCB->usTaskStatus = OS_TASK_STATUS_UNUSED;
 3265              		.loc 2 1057 0
 3266 0164 1D4B     		ldr	r3, .L184+36
 3267 0166 1B68     		ldr	r3, [r3]
 3268 0168 FA68     		ldr	r2, [r7, #12]
ARM GAS  C:\Users\91458\AppData\Local\Temp\cc2AQj9q.s 			page 82


 3269 016a 526A     		ldr	r2, [r2, #36]
 3270 016c 5A62     		str	r2, [r3, #36]
1058:D:/iot/felix2/kernel/base/core\los_task.c ****         (VOID)LOS_IntRestore(uvIntSave);
 3271              		.loc 2 1058 0
 3272 016e FB68     		ldr	r3, [r7, #12]
 3273 0170 0122     		movs	r2, #1
 3274 0172 9A80     		strh	r2, [r3, #4]	@ movhi
1059:D:/iot/felix2/kernel/base/core\los_task.c ****         osSchedule();
 3275              		.loc 2 1059 0
 3276 0174 3869     		ldr	r0, [r7, #16]
 3277 0176 FFF7FEFF 		bl	LOS_IntRestore
1060:D:/iot/felix2/kernel/base/core\los_task.c ****         return LOS_OK;
 3278              		.loc 2 1060 0
 3279 017a FFF7FEFF 		bl	osSchedule
1061:D:/iot/felix2/kernel/base/core\los_task.c ****     }
 3280              		.loc 2 1061 0
 3281 017e 0023     		movs	r3, #0
 3282 0180 15E0     		b	.L173
 3283              	.L183:
1065:D:/iot/felix2/kernel/base/core\los_task.c ****         LOS_ListAdd(&g_stLosFreeTask, &pstTaskCB->stPendList);
 3284              		.loc 2 1065 0
 3285 0182 FB68     		ldr	r3, [r7, #12]
 3286 0184 0122     		movs	r2, #1
 3287 0186 9A80     		strh	r2, [r3, #4]	@ movhi
1066:D:/iot/felix2/kernel/base/core\los_task.c ****         (VOID)LOS_MemFree(OS_TASK_STACK_ADDR, (VOID *)pstTaskCB->uwTopOfStack);
 3288              		.loc 2 1066 0
 3289 0188 FB68     		ldr	r3, [r7, #12]
 3290 018a 2833     		adds	r3, r3, #40
 3291 018c 1946     		mov	r1, r3
 3292 018e 1548     		ldr	r0, .L184+44
 3293 0190 FFF7FEFF 		bl	LOS_ListAdd
1067:D:/iot/felix2/kernel/base/core\los_task.c ****         pstTaskCB->uwTopOfStack = (UINT32)NULL;
 3294              		.loc 2 1067 0
 3295 0194 FB68     		ldr	r3, [r7, #12]
 3296 0196 DB68     		ldr	r3, [r3, #12]
 3297 0198 1946     		mov	r1, r3
 3298 019a 1348     		ldr	r0, .L184+48
 3299 019c FFF7FEFF 		bl	LOS_MemFree
1068:D:/iot/felix2/kernel/base/core\los_task.c ****     }
 3300              		.loc 2 1068 0
 3301 01a0 FB68     		ldr	r3, [r7, #12]
 3302 01a2 0022     		movs	r2, #0
 3303 01a4 DA60     		str	r2, [r3, #12]
1071:D:/iot/felix2/kernel/base/core\los_task.c ****     return LOS_OK;
 3304              		.loc 2 1071 0
 3305 01a6 3869     		ldr	r0, [r7, #16]
 3306 01a8 FFF7FEFF 		bl	LOS_IntRestore
1072:D:/iot/felix2/kernel/base/core\los_task.c **** 
 3307              		.loc 2 1072 0
 3308 01ac 0023     		movs	r3, #0
 3309              	.L173:
1077:D:/iot/felix2/kernel/base/core\los_task.c **** }
 3310              		.loc 2 1077 0
 3311 01ae 1846     		mov	r0, r3
 3312 01b0 1837     		adds	r7, r7, #24
 3313              	.LCFI123:
 3314              		.cfi_def_cfa_offset 8
ARM GAS  C:\Users\91458\AppData\Local\Temp\cc2AQj9q.s 			page 83


 3315 01b2 BD46     		mov	sp, r7
 3316              	.LCFI124:
 3317              		.cfi_def_cfa_register 13
 3318              		@ sp needed
 3319 01b4 80BD     		pop	{r7, pc}
 3320              	.L185:
 3321 01b6 00BF     		.align	2
 3322              	.L184:
 3323 01b8 00000000 		.word	g_uwIdleTaskID
 3324 01bc 14020002 		.word	33554964
 3325 01c0 00000000 		.word	g_uwSwtmrTaskID
 3326 01c4 21020002 		.word	33554977
 3327 01c8 00000000 		.word	g_uwTskMaxNum
 3328 01cc 07020002 		.word	33554951
 3329 01d0 00000000 		.word	g_pstTaskCBArray
 3330 01d4 0A020002 		.word	33554954
 3331 01d8 00000000 		.word	g_usLosTaskLock
 3332 01dc 00000000 		.word	g_stLosTask
 3333 01e0 00000000 		.word	g_stTskRecyleList
 3334 01e4 00000000 		.word	g_stLosFreeTask
 3335 01e8 00000000 		.word	__los_heap_addr_start__
 3336              		.cfi_endproc
 3337              	.LFE153:
 3339              		.section	.text.LOS_TaskDelay,"ax",%progbits
 3340              		.align	1
 3341              		.global	LOS_TaskDelay
 3342              		.syntax unified
 3343              		.thumb
 3344              		.thumb_func
 3345              		.fpu fpv4-sp-d16
 3347              	LOS_TaskDelay:
 3348              	.LFB154:
1078:D:/iot/felix2/kernel/base/core\los_task.c **** 
1079:D:/iot/felix2/kernel/base/core\los_task.c **** /*****************************************************************************
1080:D:/iot/felix2/kernel/base/core\los_task.c ****  Function : LOS_TaskDelay
1081:D:/iot/felix2/kernel/base/core\los_task.c ****  Description : delay the current task
1082:D:/iot/felix2/kernel/base/core\los_task.c ****  Input       : uwTick    --- time
1083:D:/iot/felix2/kernel/base/core\los_task.c ****  Output      :None
1084:D:/iot/felix2/kernel/base/core\los_task.c ****  Return      : LOS_OK on success or error code on failure
1085:D:/iot/felix2/kernel/base/core\los_task.c ****  *****************************************************************************/
1086:D:/iot/felix2/kernel/base/core\los_task.c **** LITE_OS_SEC_TEXT UINT32 LOS_TaskDelay(UINT32 uwTick)
1087:D:/iot/felix2/kernel/base/core\los_task.c **** {
 3349              		.loc 2 1087 0
 3350              		.cfi_startproc
 3351              		@ args = 0, pretend = 0, frame = 16
 3352              		@ frame_needed = 1, uses_anonymous_args = 0
 3353 0000 80B5     		push	{r7, lr}
 3354              	.LCFI125:
 3355              		.cfi_def_cfa_offset 8
 3356              		.cfi_offset 7, -8
 3357              		.cfi_offset 14, -4
 3358 0002 84B0     		sub	sp, sp, #16
 3359              	.LCFI126:
 3360              		.cfi_def_cfa_offset 24
 3361 0004 00AF     		add	r7, sp, #0
 3362              	.LCFI127:
 3363              		.cfi_def_cfa_register 7
ARM GAS  C:\Users\91458\AppData\Local\Temp\cc2AQj9q.s 			page 84


 3364 0006 7860     		str	r0, [r7, #4]
