ARM GAS  C:\Users\91458\AppData\Local\Temp\ccFd4Rch.s 			page 1


   1              		.cpu cortex-m4
   2              		.eabi_attribute 27, 1
   3              		.eabi_attribute 28, 1
   4              		.eabi_attribute 20, 1
   5              		.eabi_attribute 21, 1
   6              		.eabi_attribute 23, 3
   7              		.eabi_attribute 24, 1
   8              		.eabi_attribute 25, 1
   9              		.eabi_attribute 26, 1
  10              		.eabi_attribute 30, 6
  11              		.eabi_attribute 34, 1
  12              		.eabi_attribute 18, 4
  13              		.file	"objects.c"
  14              		.text
  15              	.Ltext0:
  16              		.cfi_sections	.debug_frame
  17              		.section	.text.object_checkReadable,"ax",%progbits
  18              		.align	1
  19              		.global	object_checkReadable
  20              		.syntax unified
  21              		.thumb
  22              		.thumb_func
  23              		.fpu fpv4-sp-d16
  25              	object_checkReadable:
  26              	.LFB142:
  27              		.file 1 "D:/iot/felix2/components/connectivity/lwm2m/core/objects.c"
   1:D:/iot/felix2/components/connectivity/lwm2m/core\objects.c **** /*----------------------------------------------------------------------------
   2:D:/iot/felix2/components/connectivity/lwm2m/core\objects.c ****  * Copyright (c) <2016-2018>, <Huawei Technologies Co., Ltd>
   3:D:/iot/felix2/components/connectivity/lwm2m/core\objects.c ****  * All rights reserved.
   4:D:/iot/felix2/components/connectivity/lwm2m/core\objects.c ****  * Redistribution and use in source and binary forms, with or without modification,
   5:D:/iot/felix2/components/connectivity/lwm2m/core\objects.c ****  * are permitted provided that the following conditions are met:
   6:D:/iot/felix2/components/connectivity/lwm2m/core\objects.c ****  * 1. Redistributions of source code must retain the above copyright notice, this list of
   7:D:/iot/felix2/components/connectivity/lwm2m/core\objects.c ****  * conditions and the following disclaimer.
   8:D:/iot/felix2/components/connectivity/lwm2m/core\objects.c ****  * 2. Redistributions in binary form must reproduce the above copyright notice, this list
   9:D:/iot/felix2/components/connectivity/lwm2m/core\objects.c ****  * of conditions and the following disclaimer in the documentation and/or other materials
  10:D:/iot/felix2/components/connectivity/lwm2m/core\objects.c ****  * provided with the distribution.
  11:D:/iot/felix2/components/connectivity/lwm2m/core\objects.c ****  * 3. Neither the name of the copyright holder nor the names of its contributors may be used
  12:D:/iot/felix2/components/connectivity/lwm2m/core\objects.c ****  * to endorse or promote products derived from this software without specific prior written
  13:D:/iot/felix2/components/connectivity/lwm2m/core\objects.c ****  * permission.
  14:D:/iot/felix2/components/connectivity/lwm2m/core\objects.c ****  * THIS SOFTWARE IS PROVIDED BY THE COPYRIGHT HOLDERS AND CONTRIBUTORS
  15:D:/iot/felix2/components/connectivity/lwm2m/core\objects.c ****  * "AS IS" AND ANY EXPRESS OR IMPLIED WARRANTIES, INCLUDING, BUT NOT LIMITED TO,
  16:D:/iot/felix2/components/connectivity/lwm2m/core\objects.c ****  * THE IMPLIED WARRANTIES OF MERCHANTABILITY AND FITNESS FOR A PARTICULAR
  17:D:/iot/felix2/components/connectivity/lwm2m/core\objects.c ****  * PURPOSE ARE DISCLAIMED. IN NO EVENT SHALL THE COPYRIGHT HOLDER OR
  18:D:/iot/felix2/components/connectivity/lwm2m/core\objects.c ****  * CONTRIBUTORS BE LIABLE FOR ANY DIRECT, INDIRECT, INCIDENTAL, SPECIAL,
  19:D:/iot/felix2/components/connectivity/lwm2m/core\objects.c ****  * EXEMPLARY, OR CONSEQUENTIAL DAMAGES (INCLUDING, BUT NOT LIMITED TO,
  20:D:/iot/felix2/components/connectivity/lwm2m/core\objects.c ****  * PROCUREMENT OF SUBSTITUTE GOODS OR SERVICES; LOSS OF USE, DATA, OR PROFITS;
  21:D:/iot/felix2/components/connectivity/lwm2m/core\objects.c ****  * OR BUSINESS INTERRUPTION) HOWEVER CAUSED AND ON ANY THEORY OF LIABILITY,
  22:D:/iot/felix2/components/connectivity/lwm2m/core\objects.c ****  * WHETHER IN CONTRACT, STRICT LIABILITY, OR TORT (INCLUDING NEGLIGENCE OR
  23:D:/iot/felix2/components/connectivity/lwm2m/core\objects.c ****  * OTHERWISE) ARISING IN ANY WAY OUT OF THE USE OF THIS SOFTWARE, EVEN IF
  24:D:/iot/felix2/components/connectivity/lwm2m/core\objects.c ****  * ADVISED OF THE POSSIBILITY OF SUCH DAMAGE.
  25:D:/iot/felix2/components/connectivity/lwm2m/core\objects.c ****  *---------------------------------------------------------------------------*/
  26:D:/iot/felix2/components/connectivity/lwm2m/core\objects.c **** /*----------------------------------------------------------------------------
  27:D:/iot/felix2/components/connectivity/lwm2m/core\objects.c ****  * Notice of Export Control Law
  28:D:/iot/felix2/components/connectivity/lwm2m/core\objects.c ****  * ===============================================
  29:D:/iot/felix2/components/connectivity/lwm2m/core\objects.c ****  * Huawei LiteOS may be subject to applicable export control laws and regulations, which might
  30:D:/iot/felix2/components/connectivity/lwm2m/core\objects.c ****  * include those applicable to Huawei LiteOS of U.S. and the country in which you are located.
  31:D:/iot/felix2/components/connectivity/lwm2m/core\objects.c ****  * Import, export and usage of Huawei LiteOS in any manner by you shall be in compliance with such
ARM GAS  C:\Users\91458\AppData\Local\Temp\ccFd4Rch.s 			page 2


  32:D:/iot/felix2/components/connectivity/lwm2m/core\objects.c ****  * applicable export control laws and regulations.
  33:D:/iot/felix2/components/connectivity/lwm2m/core\objects.c ****  *---------------------------------------------------------------------------*/
  34:D:/iot/felix2/components/connectivity/lwm2m/core\objects.c **** 
  35:D:/iot/felix2/components/connectivity/lwm2m/core\objects.c **** /*******************************************************************************
  36:D:/iot/felix2/components/connectivity/lwm2m/core\objects.c ****  *
  37:D:/iot/felix2/components/connectivity/lwm2m/core\objects.c ****  * Copyright (c) 2013, 2014 Intel Corporation and others.
  38:D:/iot/felix2/components/connectivity/lwm2m/core\objects.c ****  * All rights reserved. This program and the accompanying materials
  39:D:/iot/felix2/components/connectivity/lwm2m/core\objects.c ****  * are made available under the terms of the Eclipse Public License v1.0
  40:D:/iot/felix2/components/connectivity/lwm2m/core\objects.c ****  * and Eclipse Distribution License v1.0 which accompany this distribution.
  41:D:/iot/felix2/components/connectivity/lwm2m/core\objects.c ****  *
  42:D:/iot/felix2/components/connectivity/lwm2m/core\objects.c ****  * The Eclipse Public License is available at
  43:D:/iot/felix2/components/connectivity/lwm2m/core\objects.c ****  *    http://www.eclipse.org/legal/epl-v10.html
  44:D:/iot/felix2/components/connectivity/lwm2m/core\objects.c ****  * The Eclipse Distribution License is available at
  45:D:/iot/felix2/components/connectivity/lwm2m/core\objects.c ****  *    http://www.eclipse.org/org/documents/edl-v10.php.
  46:D:/iot/felix2/components/connectivity/lwm2m/core\objects.c ****  *
  47:D:/iot/felix2/components/connectivity/lwm2m/core\objects.c ****  * Contributors:
  48:D:/iot/felix2/components/connectivity/lwm2m/core\objects.c ****  *    David Navarro, Intel Corporation - initial API and implementation
  49:D:/iot/felix2/components/connectivity/lwm2m/core\objects.c ****  *    Fabien Fleutot - Please refer to git log
  50:D:/iot/felix2/components/connectivity/lwm2m/core\objects.c ****  *    Toby Jaffey - Please refer to git log
  51:D:/iot/felix2/components/connectivity/lwm2m/core\objects.c ****  *    Benjamin Cabe? - Please refer to git log
  52:D:/iot/felix2/components/connectivity/lwm2m/core\objects.c ****  *    Bosch Software Innovations GmbH - Please refer to git log
  53:D:/iot/felix2/components/connectivity/lwm2m/core\objects.c ****  *    Pascal Rieux - Please refer to git log
  54:D:/iot/felix2/components/connectivity/lwm2m/core\objects.c ****  *    Scott Bertin - Please refer to git log
  55:D:/iot/felix2/components/connectivity/lwm2m/core\objects.c ****  *
  56:D:/iot/felix2/components/connectivity/lwm2m/core\objects.c ****  *******************************************************************************/
  57:D:/iot/felix2/components/connectivity/lwm2m/core\objects.c **** 
  58:D:/iot/felix2/components/connectivity/lwm2m/core\objects.c **** /*
  59:D:/iot/felix2/components/connectivity/lwm2m/core\objects.c ****  Copyright (c) 2013, 2014 Intel Corporation
  60:D:/iot/felix2/components/connectivity/lwm2m/core\objects.c **** 
  61:D:/iot/felix2/components/connectivity/lwm2m/core\objects.c ****  Redistribution and use in source and binary forms, with or without modification,
  62:D:/iot/felix2/components/connectivity/lwm2m/core\objects.c ****  are permitted provided that the following conditions are met:
  63:D:/iot/felix2/components/connectivity/lwm2m/core\objects.c **** 
  64:D:/iot/felix2/components/connectivity/lwm2m/core\objects.c ****      * Redistributions of source code must retain the above copyright notice,
  65:D:/iot/felix2/components/connectivity/lwm2m/core\objects.c ****        this list of conditions and the following disclaimer.
  66:D:/iot/felix2/components/connectivity/lwm2m/core\objects.c ****      * Redistributions in binary form must reproduce the above copyright notice,
  67:D:/iot/felix2/components/connectivity/lwm2m/core\objects.c ****        this list of conditions and the following disclaimer in the documentation
  68:D:/iot/felix2/components/connectivity/lwm2m/core\objects.c ****        and/or other materials provided with the distribution.
  69:D:/iot/felix2/components/connectivity/lwm2m/core\objects.c ****      * Neither the name of Intel Corporation nor the names of its contributors
  70:D:/iot/felix2/components/connectivity/lwm2m/core\objects.c ****        may be used to endorse or promote products derived from this software
  71:D:/iot/felix2/components/connectivity/lwm2m/core\objects.c ****        without specific prior written permission.
  72:D:/iot/felix2/components/connectivity/lwm2m/core\objects.c **** 
  73:D:/iot/felix2/components/connectivity/lwm2m/core\objects.c ****  THIS SOFTWARE IS PROVIDED BY THE COPYRIGHT HOLDERS AND CONTRIBUTORS "AS IS" AND
  74:D:/iot/felix2/components/connectivity/lwm2m/core\objects.c ****  ANY EXPRESS OR IMPLIED WARRANTIES, INCLUDING, BUT NOT LIMITED TO, THE IMPLIED
  75:D:/iot/felix2/components/connectivity/lwm2m/core\objects.c ****  WARRANTIES OF MERCHANTABILITY AND FITNESS FOR A PARTICULAR PURPOSE ARE DISCLAIMED.
  76:D:/iot/felix2/components/connectivity/lwm2m/core\objects.c ****  IN NO EVENT SHALL THE COPYRIGHT OWNER OR CONTRIBUTORS BE LIABLE FOR ANY DIRECT,
  77:D:/iot/felix2/components/connectivity/lwm2m/core\objects.c ****  INDIRECT, INCIDENTAL, SPECIAL, EXEMPLARY, OR CONSEQUENTIAL DAMAGES (INCLUDING,
  78:D:/iot/felix2/components/connectivity/lwm2m/core\objects.c ****  BUT NOT LIMITED TO, PROCUREMENT OF SUBSTITUTE GOODS OR SERVICES; LOSS OF USE,
  79:D:/iot/felix2/components/connectivity/lwm2m/core\objects.c ****  DATA, OR PROFITS; OR BUSINESS INTERRUPTION) HOWEVER CAUSED AND ON ANY THEORY OF
  80:D:/iot/felix2/components/connectivity/lwm2m/core\objects.c ****  LIABILITY, WHETHER IN CONTRACT, STRICT LIABILITY, OR TORT (INCLUDING NEGLIGENCE OR
  81:D:/iot/felix2/components/connectivity/lwm2m/core\objects.c ****  OTHERWISE) ARISING IN ANY WAY OUT OF THE USE OF THIS SOFTWARE, EVEN IF ADVISED OF
  82:D:/iot/felix2/components/connectivity/lwm2m/core\objects.c ****  THE POSSIBILITY OF SUCH DAMAGE.
  83:D:/iot/felix2/components/connectivity/lwm2m/core\objects.c **** 
  84:D:/iot/felix2/components/connectivity/lwm2m/core\objects.c ****  David Navarro <david.navarro@intel.com>
  85:D:/iot/felix2/components/connectivity/lwm2m/core\objects.c **** 
  86:D:/iot/felix2/components/connectivity/lwm2m/core\objects.c **** */
  87:D:/iot/felix2/components/connectivity/lwm2m/core\objects.c **** #include "internals.h"
  88:D:/iot/felix2/components/connectivity/lwm2m/core\objects.c **** 
ARM GAS  C:\Users\91458\AppData\Local\Temp\ccFd4Rch.s 			page 3


  89:D:/iot/felix2/components/connectivity/lwm2m/core\objects.c **** #ifdef LWM2M_CLIENT_MODE
  90:D:/iot/felix2/components/connectivity/lwm2m/core\objects.c **** 
  91:D:/iot/felix2/components/connectivity/lwm2m/core\objects.c **** 
  92:D:/iot/felix2/components/connectivity/lwm2m/core\objects.c **** #include <stdlib.h>
  93:D:/iot/felix2/components/connectivity/lwm2m/core\objects.c **** #include <string.h>
  94:D:/iot/felix2/components/connectivity/lwm2m/core\objects.c **** #include <stdio.h>
  95:D:/iot/felix2/components/connectivity/lwm2m/core\objects.c **** #include "object_comm.h"
  96:D:/iot/felix2/components/connectivity/lwm2m/core\objects.c **** 
  97:D:/iot/felix2/components/connectivity/lwm2m/core\objects.c **** uint8_t object_checkReadable(lwm2m_context_t *contextP,
  98:D:/iot/felix2/components/connectivity/lwm2m/core\objects.c ****                              lwm2m_uri_t *uriP)
  99:D:/iot/felix2/components/connectivity/lwm2m/core\objects.c **** {
  28              		.loc 1 99 0
  29              		.cfi_startproc
  30              		@ args = 0, pretend = 0, frame = 24
  31              		@ frame_needed = 1, uses_anonymous_args = 0
  32 0000 90B5     		push	{r4, r7, lr}
  33              	.LCFI0:
  34              		.cfi_def_cfa_offset 12
  35              		.cfi_offset 4, -12
  36              		.cfi_offset 7, -8
  37              		.cfi_offset 14, -4
  38 0002 89B0     		sub	sp, sp, #36
  39              	.LCFI1:
  40              		.cfi_def_cfa_offset 48
  41 0004 02AF     		add	r7, sp, #8
  42              	.LCFI2:
  43              		.cfi_def_cfa 7, 40
  44 0006 7860     		str	r0, [r7, #4]
  45 0008 3960     		str	r1, [r7]
 100:D:/iot/felix2/components/connectivity/lwm2m/core\objects.c ****     uint8_t result;
 101:D:/iot/felix2/components/connectivity/lwm2m/core\objects.c ****     lwm2m_object_t *targetP;
 102:D:/iot/felix2/components/connectivity/lwm2m/core\objects.c ****     lwm2m_data_t *dataP = NULL;
  46              		.loc 1 102 0
  47 000a 0023     		movs	r3, #0
  48 000c FB60     		str	r3, [r7, #12]
 103:D:/iot/felix2/components/connectivity/lwm2m/core\objects.c ****     int size;
 104:D:/iot/felix2/components/connectivity/lwm2m/core\objects.c **** 
 105:D:/iot/felix2/components/connectivity/lwm2m/core\objects.c ****     LOG_URI(uriP);
 106:D:/iot/felix2/components/connectivity/lwm2m/core\objects.c ****     targetP = (lwm2m_object_t *)LWM2M_LIST_FIND(contextP->objectList, uriP->objectId);
  49              		.loc 1 106 0
  50 000e 7B68     		ldr	r3, [r7, #4]
  51 0010 9A69     		ldr	r2, [r3, #24]
  52 0012 3B68     		ldr	r3, [r7]
  53 0014 5B88     		ldrh	r3, [r3, #2]
  54 0016 1946     		mov	r1, r3
  55 0018 1046     		mov	r0, r2
  56 001a FFF7FEFF 		bl	lwm2m_list_find
  57 001e 7861     		str	r0, [r7, #20]
 107:D:/iot/felix2/components/connectivity/lwm2m/core\objects.c ****     if (NULL == targetP) return COAP_404_NOT_FOUND;
  58              		.loc 1 107 0
  59 0020 7B69     		ldr	r3, [r7, #20]
  60 0022 002B     		cmp	r3, #0
  61 0024 01D1     		bne	.L2
  62              		.loc 1 107 0 is_stmt 0 discriminator 1
  63 0026 8423     		movs	r3, #132
  64 0028 46E0     		b	.L9
  65              	.L2:
ARM GAS  C:\Users\91458\AppData\Local\Temp\ccFd4Rch.s 			page 4


 108:D:/iot/felix2/components/connectivity/lwm2m/core\objects.c ****     if (NULL == targetP->readFunc) return COAP_405_METHOD_NOT_ALLOWED;
  66              		.loc 1 108 0 is_stmt 1
  67 002a 7B69     		ldr	r3, [r7, #20]
  68 002c DB68     		ldr	r3, [r3, #12]
  69 002e 002B     		cmp	r3, #0
  70 0030 01D1     		bne	.L4
  71              		.loc 1 108 0 is_stmt 0 discriminator 1
  72 0032 8523     		movs	r3, #133
  73 0034 40E0     		b	.L9
  74              	.L4:
 109:D:/iot/felix2/components/connectivity/lwm2m/core\objects.c **** 
 110:D:/iot/felix2/components/connectivity/lwm2m/core\objects.c ****     if (!LWM2M_URI_IS_SET_INSTANCE(uriP)) return COAP_205_CONTENT;
  75              		.loc 1 110 0 is_stmt 1
  76 0036 3B68     		ldr	r3, [r7]
  77 0038 1B78     		ldrb	r3, [r3]	@ zero_extendqisi2
  78 003a 03F00203 		and	r3, r3, #2
  79 003e 002B     		cmp	r3, #0
  80 0040 01D1     		bne	.L5
  81              		.loc 1 110 0 is_stmt 0 discriminator 1
  82 0042 4523     		movs	r3, #69
  83 0044 38E0     		b	.L9
  84              	.L5:
 111:D:/iot/felix2/components/connectivity/lwm2m/core\objects.c **** 
 112:D:/iot/felix2/components/connectivity/lwm2m/core\objects.c ****     if (NULL == lwm2m_list_find(targetP->instanceList, uriP->instanceId)) return COAP_404_NOT_FOUND
  85              		.loc 1 112 0 is_stmt 1
  86 0046 7B69     		ldr	r3, [r7, #20]
  87 0048 9A68     		ldr	r2, [r3, #8]
  88 004a 3B68     		ldr	r3, [r7]
  89 004c 9B88     		ldrh	r3, [r3, #4]
  90 004e 1946     		mov	r1, r3
  91 0050 1046     		mov	r0, r2
  92 0052 FFF7FEFF 		bl	lwm2m_list_find
  93 0056 0346     		mov	r3, r0
  94 0058 002B     		cmp	r3, #0
  95 005a 01D1     		bne	.L6
  96              		.loc 1 112 0 is_stmt 0 discriminator 1
  97 005c 8423     		movs	r3, #132
  98 005e 2BE0     		b	.L9
  99              	.L6:
 113:D:/iot/felix2/components/connectivity/lwm2m/core\objects.c **** 
 114:D:/iot/felix2/components/connectivity/lwm2m/core\objects.c ****     if (!LWM2M_URI_IS_SET_RESOURCE(uriP)) return COAP_205_CONTENT;
 100              		.loc 1 114 0 is_stmt 1
 101 0060 3B68     		ldr	r3, [r7]
 102 0062 1B78     		ldrb	r3, [r3]	@ zero_extendqisi2
 103 0064 03F00103 		and	r3, r3, #1
 104 0068 002B     		cmp	r3, #0
 105 006a 01D1     		bne	.L7
 106              		.loc 1 114 0 is_stmt 0 discriminator 1
 107 006c 4523     		movs	r3, #69
 108 006e 23E0     		b	.L9
 109              	.L7:
 115:D:/iot/felix2/components/connectivity/lwm2m/core\objects.c **** 
 116:D:/iot/felix2/components/connectivity/lwm2m/core\objects.c ****     size = 1;
 110              		.loc 1 116 0 is_stmt 1
 111 0070 0123     		movs	r3, #1
 112 0072 BB60     		str	r3, [r7, #8]
 117:D:/iot/felix2/components/connectivity/lwm2m/core\objects.c ****     dataP = lwm2m_data_new(1);
ARM GAS  C:\Users\91458\AppData\Local\Temp\ccFd4Rch.s 			page 5


 113              		.loc 1 117 0
 114 0074 0120     		movs	r0, #1
 115 0076 FFF7FEFF 		bl	lwm2m_data_new
 116 007a 0346     		mov	r3, r0
 117 007c FB60     		str	r3, [r7, #12]
 118:D:/iot/felix2/components/connectivity/lwm2m/core\objects.c ****     if (dataP == NULL) return COAP_500_INTERNAL_SERVER_ERROR;
 118              		.loc 1 118 0
 119 007e FB68     		ldr	r3, [r7, #12]
 120 0080 002B     		cmp	r3, #0
 121 0082 01D1     		bne	.L8
 122              		.loc 1 118 0 is_stmt 0 discriminator 1
 123 0084 A023     		movs	r3, #160
 124 0086 17E0     		b	.L9
 125              	.L8:
 119:D:/iot/felix2/components/connectivity/lwm2m/core\objects.c **** 
 120:D:/iot/felix2/components/connectivity/lwm2m/core\objects.c ****     dataP->id = uriP->resourceId;
 126              		.loc 1 120 0 is_stmt 1
 127 0088 FB68     		ldr	r3, [r7, #12]
 128 008a 3A68     		ldr	r2, [r7]
 129 008c D288     		ldrh	r2, [r2, #6]
 130 008e 5A80     		strh	r2, [r3, #2]	@ movhi
 121:D:/iot/felix2/components/connectivity/lwm2m/core\objects.c **** 
 122:D:/iot/felix2/components/connectivity/lwm2m/core\objects.c ****     result = targetP->readFunc(uriP->instanceId, &size, &dataP, NULL, targetP);
 131              		.loc 1 122 0
 132 0090 7B69     		ldr	r3, [r7, #20]
 133 0092 DC68     		ldr	r4, [r3, #12]
 134 0094 3B68     		ldr	r3, [r7]
 135 0096 9888     		ldrh	r0, [r3, #4]
 136 0098 07F10C02 		add	r2, r7, #12
 137 009c 07F10801 		add	r1, r7, #8
 138 00a0 7B69     		ldr	r3, [r7, #20]
 139 00a2 0093     		str	r3, [sp]
 140 00a4 0023     		movs	r3, #0
 141 00a6 A047     		blx	r4
 142              	.LVL0:
 143 00a8 0346     		mov	r3, r0
 144 00aa FB74     		strb	r3, [r7, #19]
 123:D:/iot/felix2/components/connectivity/lwm2m/core\objects.c ****     lwm2m_data_free(1, dataP);
 145              		.loc 1 123 0
 146 00ac FB68     		ldr	r3, [r7, #12]
 147 00ae 1946     		mov	r1, r3
 148 00b0 0120     		movs	r0, #1
 149 00b2 FFF7FEFF 		bl	lwm2m_data_free
 124:D:/iot/felix2/components/connectivity/lwm2m/core\objects.c **** 
 125:D:/iot/felix2/components/connectivity/lwm2m/core\objects.c ****     return result;
 150              		.loc 1 125 0
 151 00b6 FB7C     		ldrb	r3, [r7, #19]	@ zero_extendqisi2
 152              	.L9:
 126:D:/iot/felix2/components/connectivity/lwm2m/core\objects.c **** }
 153              		.loc 1 126 0 discriminator 1
 154 00b8 1846     		mov	r0, r3
 155 00ba 1C37     		adds	r7, r7, #28
 156              	.LCFI3:
 157              		.cfi_def_cfa_offset 12
 158 00bc BD46     		mov	sp, r7
 159              	.LCFI4:
 160              		.cfi_def_cfa_register 13
ARM GAS  C:\Users\91458\AppData\Local\Temp\ccFd4Rch.s 			page 6


 161              		@ sp needed
 162 00be 90BD     		pop	{r4, r7, pc}
 163              		.cfi_endproc
 164              	.LFE142:
 166              		.section	.text.object_checkNumeric,"ax",%progbits
 167              		.align	1
 168              		.global	object_checkNumeric
 169              		.syntax unified
 170              		.thumb
 171              		.thumb_func
 172              		.fpu fpv4-sp-d16
 174              	object_checkNumeric:
 175              	.LFB143:
 127:D:/iot/felix2/components/connectivity/lwm2m/core\objects.c **** 
 128:D:/iot/felix2/components/connectivity/lwm2m/core\objects.c **** uint8_t object_checkNumeric(lwm2m_context_t *contextP,
 129:D:/iot/felix2/components/connectivity/lwm2m/core\objects.c ****                             lwm2m_uri_t *uriP)
 130:D:/iot/felix2/components/connectivity/lwm2m/core\objects.c **** {
 176              		.loc 1 130 0
 177              		.cfi_startproc
 178              		@ args = 0, pretend = 0, frame = 24
 179              		@ frame_needed = 1, uses_anonymous_args = 0
 180 0000 90B5     		push	{r4, r7, lr}
 181              	.LCFI5:
 182              		.cfi_def_cfa_offset 12
 183              		.cfi_offset 4, -12
 184              		.cfi_offset 7, -8
 185              		.cfi_offset 14, -4
 186 0002 89B0     		sub	sp, sp, #36
 187              	.LCFI6:
 188              		.cfi_def_cfa_offset 48
 189 0004 02AF     		add	r7, sp, #8
 190              	.LCFI7:
 191              		.cfi_def_cfa 7, 40
 192 0006 7860     		str	r0, [r7, #4]
 193 0008 3960     		str	r1, [r7]
 131:D:/iot/felix2/components/connectivity/lwm2m/core\objects.c ****     uint8_t result;
 132:D:/iot/felix2/components/connectivity/lwm2m/core\objects.c ****     lwm2m_object_t *targetP;
 133:D:/iot/felix2/components/connectivity/lwm2m/core\objects.c ****     lwm2m_data_t *dataP = NULL;
 194              		.loc 1 133 0
 195 000a 0023     		movs	r3, #0
 196 000c FB60     		str	r3, [r7, #12]
 134:D:/iot/felix2/components/connectivity/lwm2m/core\objects.c ****     int size;
 135:D:/iot/felix2/components/connectivity/lwm2m/core\objects.c **** 
 136:D:/iot/felix2/components/connectivity/lwm2m/core\objects.c ****     LOG_URI(uriP);
 137:D:/iot/felix2/components/connectivity/lwm2m/core\objects.c ****     if (!LWM2M_URI_IS_SET_RESOURCE(uriP)) return COAP_405_METHOD_NOT_ALLOWED;
 197              		.loc 1 137 0
 198 000e 3B68     		ldr	r3, [r7]
 199 0010 1B78     		ldrb	r3, [r3]	@ zero_extendqisi2
 200 0012 03F00103 		and	r3, r3, #1
 201 0016 002B     		cmp	r3, #0
 202 0018 01D1     		bne	.L11
 203              		.loc 1 137 0 is_stmt 0 discriminator 1
 204 001a 8523     		movs	r3, #133
 205 001c 45E0     		b	.L19
 206              	.L11:
 138:D:/iot/felix2/components/connectivity/lwm2m/core\objects.c **** 
 139:D:/iot/felix2/components/connectivity/lwm2m/core\objects.c ****     targetP = (lwm2m_object_t *)LWM2M_LIST_FIND(contextP->objectList, uriP->objectId);
ARM GAS  C:\Users\91458\AppData\Local\Temp\ccFd4Rch.s 			page 7


 207              		.loc 1 139 0 is_stmt 1
 208 001e 7B68     		ldr	r3, [r7, #4]
 209 0020 9A69     		ldr	r2, [r3, #24]
 210 0022 3B68     		ldr	r3, [r7]
 211 0024 5B88     		ldrh	r3, [r3, #2]
 212 0026 1946     		mov	r1, r3
 213 0028 1046     		mov	r0, r2
 214 002a FFF7FEFF 		bl	lwm2m_list_find
 215 002e 3861     		str	r0, [r7, #16]
 140:D:/iot/felix2/components/connectivity/lwm2m/core\objects.c ****     if (NULL == targetP) return COAP_404_NOT_FOUND;
 216              		.loc 1 140 0
 217 0030 3B69     		ldr	r3, [r7, #16]
 218 0032 002B     		cmp	r3, #0
 219 0034 01D1     		bne	.L13
 220              		.loc 1 140 0 is_stmt 0 discriminator 1
 221 0036 8423     		movs	r3, #132
 222 0038 37E0     		b	.L19
 223              	.L13:
 141:D:/iot/felix2/components/connectivity/lwm2m/core\objects.c ****     if (NULL == targetP->readFunc) return COAP_405_METHOD_NOT_ALLOWED;
 224              		.loc 1 141 0 is_stmt 1
 225 003a 3B69     		ldr	r3, [r7, #16]
 226 003c DB68     		ldr	r3, [r3, #12]
 227 003e 002B     		cmp	r3, #0
 228 0040 01D1     		bne	.L14
 229              		.loc 1 141 0 is_stmt 0 discriminator 1
 230 0042 8523     		movs	r3, #133
 231 0044 31E0     		b	.L19
 232              	.L14:
 142:D:/iot/felix2/components/connectivity/lwm2m/core\objects.c **** 
 143:D:/iot/felix2/components/connectivity/lwm2m/core\objects.c ****     size = 1;
 233              		.loc 1 143 0 is_stmt 1
 234 0046 0123     		movs	r3, #1
 235 0048 BB60     		str	r3, [r7, #8]
 144:D:/iot/felix2/components/connectivity/lwm2m/core\objects.c ****     dataP = lwm2m_data_new(1);
 236              		.loc 1 144 0
 237 004a 0120     		movs	r0, #1
 238 004c FFF7FEFF 		bl	lwm2m_data_new
 239 0050 0346     		mov	r3, r0
 240 0052 FB60     		str	r3, [r7, #12]
 145:D:/iot/felix2/components/connectivity/lwm2m/core\objects.c ****     if (dataP == NULL) return COAP_500_INTERNAL_SERVER_ERROR;
 241              		.loc 1 145 0
 242 0054 FB68     		ldr	r3, [r7, #12]
 243 0056 002B     		cmp	r3, #0
 244 0058 01D1     		bne	.L15
 245              		.loc 1 145 0 is_stmt 0 discriminator 1
 246 005a A023     		movs	r3, #160
 247 005c 25E0     		b	.L19
 248              	.L15:
 146:D:/iot/felix2/components/connectivity/lwm2m/core\objects.c **** 
 147:D:/iot/felix2/components/connectivity/lwm2m/core\objects.c ****     dataP->id = uriP->resourceId;
 249              		.loc 1 147 0 is_stmt 1
 250 005e FB68     		ldr	r3, [r7, #12]
 251 0060 3A68     		ldr	r2, [r7]
 252 0062 D288     		ldrh	r2, [r2, #6]
 253 0064 5A80     		strh	r2, [r3, #2]	@ movhi
 148:D:/iot/felix2/components/connectivity/lwm2m/core\objects.c **** 
 149:D:/iot/felix2/components/connectivity/lwm2m/core\objects.c ****     result = targetP->readFunc(uriP->instanceId, &size, &dataP, NULL, targetP);
ARM GAS  C:\Users\91458\AppData\Local\Temp\ccFd4Rch.s 			page 8


 254              		.loc 1 149 0
 255 0066 3B69     		ldr	r3, [r7, #16]
 256 0068 DC68     		ldr	r4, [r3, #12]
 257 006a 3B68     		ldr	r3, [r7]
 258 006c 9888     		ldrh	r0, [r3, #4]
 259 006e 07F10C02 		add	r2, r7, #12
 260 0072 07F10801 		add	r1, r7, #8
 261 0076 3B69     		ldr	r3, [r7, #16]
 262 0078 0093     		str	r3, [sp]
 263 007a 0023     		movs	r3, #0
 264 007c A047     		blx	r4
 265              	.LVL1:
 266 007e 0346     		mov	r3, r0
 267 0080 FB75     		strb	r3, [r7, #23]
 150:D:/iot/felix2/components/connectivity/lwm2m/core\objects.c ****     if (result == COAP_205_CONTENT)
 268              		.loc 1 150 0
 269 0082 FB7D     		ldrb	r3, [r7, #23]	@ zero_extendqisi2
 270 0084 452B     		cmp	r3, #69
 271 0086 07D1     		bne	.L20
 151:D:/iot/felix2/components/connectivity/lwm2m/core\objects.c ****     {
 152:D:/iot/felix2/components/connectivity/lwm2m/core\objects.c ****         switch (dataP->type)
 272              		.loc 1 152 0
 273 0088 FB68     		ldr	r3, [r7, #12]
 274 008a 1B78     		ldrb	r3, [r3]	@ zero_extendqisi2
 275 008c 063B     		subs	r3, r3, #6
 276 008e 012B     		cmp	r3, #1
 277 0090 04D9     		bls	.L21
 153:D:/iot/felix2/components/connectivity/lwm2m/core\objects.c ****         {
 154:D:/iot/felix2/components/connectivity/lwm2m/core\objects.c ****         case LWM2M_TYPE_INTEGER:
 155:D:/iot/felix2/components/connectivity/lwm2m/core\objects.c ****         case LWM2M_TYPE_FLOAT:
 156:D:/iot/felix2/components/connectivity/lwm2m/core\objects.c ****             break;
 157:D:/iot/felix2/components/connectivity/lwm2m/core\objects.c ****         default:
 158:D:/iot/felix2/components/connectivity/lwm2m/core\objects.c ****             result = COAP_405_METHOD_NOT_ALLOWED;
 278              		.loc 1 158 0
 279 0092 8523     		movs	r3, #133
 280 0094 FB75     		strb	r3, [r7, #23]
 281 0096 02E0     		b	.L16
 282              	.L20:
 159:D:/iot/felix2/components/connectivity/lwm2m/core\objects.c ****         }
 160:D:/iot/felix2/components/connectivity/lwm2m/core\objects.c ****     }
 283              		.loc 1 160 0
 284 0098 00BF     		nop
 285 009a 00E0     		b	.L16
 286              	.L21:
 156:D:/iot/felix2/components/connectivity/lwm2m/core\objects.c ****         default:
 287              		.loc 1 156 0
 288 009c 00BF     		nop
 289              	.L16:
 161:D:/iot/felix2/components/connectivity/lwm2m/core\objects.c **** 
 162:D:/iot/felix2/components/connectivity/lwm2m/core\objects.c ****     lwm2m_data_free(1, dataP);
 290              		.loc 1 162 0
 291 009e FB68     		ldr	r3, [r7, #12]
 292 00a0 1946     		mov	r1, r3
 293 00a2 0120     		movs	r0, #1
 294 00a4 FFF7FEFF 		bl	lwm2m_data_free
 163:D:/iot/felix2/components/connectivity/lwm2m/core\objects.c **** 
 164:D:/iot/felix2/components/connectivity/lwm2m/core\objects.c ****     return result;
ARM GAS  C:\Users\91458\AppData\Local\Temp\ccFd4Rch.s 			page 9


 295              		.loc 1 164 0
 296 00a8 FB7D     		ldrb	r3, [r7, #23]	@ zero_extendqisi2
 297              	.L19:
 165:D:/iot/felix2/components/connectivity/lwm2m/core\objects.c **** }
 298              		.loc 1 165 0 discriminator 1
 299 00aa 1846     		mov	r0, r3
 300 00ac 1C37     		adds	r7, r7, #28
 301              	.LCFI8:
 302              		.cfi_def_cfa_offset 12
 303 00ae BD46     		mov	sp, r7
 304              	.LCFI9:
 305              		.cfi_def_cfa_register 13
 306              		@ sp needed
 307 00b0 90BD     		pop	{r4, r7, pc}
 308              		.cfi_endproc
 309              	.LFE143:
 311              		.section	.text.prv_init_forbidden,"ax",%progbits
 312              		.align	1
 313              		.syntax unified
 314              		.thumb
 315              		.thumb_func
 316              		.fpu fpv4-sp-d16
 318              	prv_init_forbidden:
 319              	.LFB144:
 166:D:/iot/felix2/components/connectivity/lwm2m/core\objects.c **** 
 167:D:/iot/felix2/components/connectivity/lwm2m/core\objects.c **** static uint8_t prv_init_forbidden(lwm2m_context_t *contextP,
 168:D:/iot/felix2/components/connectivity/lwm2m/core\objects.c ****                                   lwm2m_object_t *targetP,
 169:D:/iot/felix2/components/connectivity/lwm2m/core\objects.c ****                                   uint16_t objId,
 170:D:/iot/felix2/components/connectivity/lwm2m/core\objects.c ****                                   uint16_t serverId,
 171:D:/iot/felix2/components/connectivity/lwm2m/core\objects.c ****                                   int *sizeP,
 172:D:/iot/felix2/components/connectivity/lwm2m/core\objects.c ****                                   uint8_t **forbidden)
 173:D:/iot/felix2/components/connectivity/lwm2m/core\objects.c **** {
 320              		.loc 1 173 0
 321              		.cfi_startproc
 322              		@ args = 8, pretend = 0, frame = 32
 323              		@ frame_needed = 1, uses_anonymous_args = 0
 324 0000 80B5     		push	{r7, lr}
 325              	.LCFI10:
 326              		.cfi_def_cfa_offset 8
 327              		.cfi_offset 7, -8
 328              		.cfi_offset 14, -4
 329 0002 88B0     		sub	sp, sp, #32
 330              	.LCFI11:
 331              		.cfi_def_cfa_offset 40
 332 0004 00AF     		add	r7, sp, #0
 333              	.LCFI12:
 334              		.cfi_def_cfa_register 7
 335 0006 F860     		str	r0, [r7, #12]
 336 0008 B960     		str	r1, [r7, #8]
 337 000a 1146     		mov	r1, r2
 338 000c 1A46     		mov	r2, r3
 339 000e 0B46     		mov	r3, r1	@ movhi
 340 0010 FB80     		strh	r3, [r7, #6]	@ movhi
 341 0012 1346     		mov	r3, r2	@ movhi
 342 0014 BB80     		strh	r3, [r7, #4]	@ movhi
 174:D:/iot/felix2/components/connectivity/lwm2m/core\objects.c ****     lwm2m_list_t *instanceP;
 175:D:/iot/felix2/components/connectivity/lwm2m/core\objects.c ****     lwm2m_uri_t uriP;
ARM GAS  C:\Users\91458\AppData\Local\Temp\ccFd4Rch.s 			page 10


 176:D:/iot/felix2/components/connectivity/lwm2m/core\objects.c ****     int i;
 177:D:/iot/felix2/components/connectivity/lwm2m/core\objects.c **** 
 178:D:/iot/felix2/components/connectivity/lwm2m/core\objects.c ****     uriP.flag = LWM2M_URI_FLAG_INSTANCE_ID;
 343              		.loc 1 178 0
 344 0016 0223     		movs	r3, #2
 345 0018 3B74     		strb	r3, [r7, #16]
 179:D:/iot/felix2/components/connectivity/lwm2m/core\objects.c ****     uriP.objectId = objId;
 346              		.loc 1 179 0
 347 001a FB88     		ldrh	r3, [r7, #6]	@ movhi
 348 001c 7B82     		strh	r3, [r7, #18]	@ movhi
 180:D:/iot/felix2/components/connectivity/lwm2m/core\objects.c **** 
 181:D:/iot/felix2/components/connectivity/lwm2m/core\objects.c ****     i = 0;
 349              		.loc 1 181 0
 350 001e 0023     		movs	r3, #0
 351 0020 BB61     		str	r3, [r7, #24]
 182:D:/iot/felix2/components/connectivity/lwm2m/core\objects.c ****     *forbidden = (uint8_t *)lwm2m_malloc(*sizeP);
 352              		.loc 1 182 0
 353 0022 BB6A     		ldr	r3, [r7, #40]
 354 0024 1B68     		ldr	r3, [r3]
 355 0026 1846     		mov	r0, r3
 356 0028 FFF7FEFF 		bl	lwm2m_malloc
 357 002c 0246     		mov	r2, r0
 358 002e FB6A     		ldr	r3, [r7, #44]
 359 0030 1A60     		str	r2, [r3]
 183:D:/iot/felix2/components/connectivity/lwm2m/core\objects.c ****     if (*forbidden == NULL)
 360              		.loc 1 183 0
 361 0032 FB6A     		ldr	r3, [r7, #44]
 362 0034 1B68     		ldr	r3, [r3]
 363 0036 002B     		cmp	r3, #0
 364 0038 01D1     		bne	.L23
 184:D:/iot/felix2/components/connectivity/lwm2m/core\objects.c ****     {
 185:D:/iot/felix2/components/connectivity/lwm2m/core\objects.c ****         return COAP_500_INTERNAL_SERVER_ERROR;
 365              		.loc 1 185 0
 366 003a A023     		movs	r3, #160
 367 003c 38E0     		b	.L29
 368              	.L23:
 186:D:/iot/felix2/components/connectivity/lwm2m/core\objects.c ****     }
 187:D:/iot/felix2/components/connectivity/lwm2m/core\objects.c ****     memset(*forbidden, 0, *sizeP);
 369              		.loc 1 187 0
 370 003e FB6A     		ldr	r3, [r7, #44]
 371 0040 1868     		ldr	r0, [r3]
 372 0042 BB6A     		ldr	r3, [r7, #40]
 373 0044 1B68     		ldr	r3, [r3]
 374 0046 1A46     		mov	r2, r3
 375 0048 0021     		movs	r1, #0
 376 004a FFF7FEFF 		bl	memset
 188:D:/iot/felix2/components/connectivity/lwm2m/core\objects.c ****     for (instanceP = targetP->instanceList; instanceP != NULL ; instanceP = instanceP->next)
 377              		.loc 1 188 0
 378 004e BB68     		ldr	r3, [r7, #8]
 379 0050 9B68     		ldr	r3, [r3, #8]
 380 0052 FB61     		str	r3, [r7, #28]
 381 0054 1DE0     		b	.L25
 382              	.L27:
 189:D:/iot/felix2/components/connectivity/lwm2m/core\objects.c ****     {
 190:D:/iot/felix2/components/connectivity/lwm2m/core\objects.c ****         uriP.instanceId = instanceP->id;
 383              		.loc 1 190 0
 384 0056 FB69     		ldr	r3, [r7, #28]
ARM GAS  C:\Users\91458\AppData\Local\Temp\ccFd4Rch.s 			page 11


 385 0058 9B88     		ldrh	r3, [r3, #4]
 386 005a BB82     		strh	r3, [r7, #20]	@ movhi
 191:D:/iot/felix2/components/connectivity/lwm2m/core\objects.c ****         if (acc_auth_operate(contextP, &uriP, OBJ_ACC_READ, serverId) != COAP_NO_ERROR)
 387              		.loc 1 191 0
 388 005c BB88     		ldrh	r3, [r7, #4]
 389 005e 07F11001 		add	r1, r7, #16
 390 0062 0022     		movs	r2, #0
 391 0064 F868     		ldr	r0, [r7, #12]
 392 0066 FFF7FEFF 		bl	acc_auth_operate
 393 006a 0346     		mov	r3, r0
 394 006c 002B     		cmp	r3, #0
 395 006e 0AD0     		beq	.L26
 192:D:/iot/felix2/components/connectivity/lwm2m/core\objects.c ****         {
 193:D:/iot/felix2/components/connectivity/lwm2m/core\objects.c ****             (*sizeP)--;
 396              		.loc 1 193 0
 397 0070 BB6A     		ldr	r3, [r7, #40]
 398 0072 1B68     		ldr	r3, [r3]
 399 0074 5A1E     		subs	r2, r3, #1
 400 0076 BB6A     		ldr	r3, [r7, #40]
 401 0078 1A60     		str	r2, [r3]
 194:D:/iot/felix2/components/connectivity/lwm2m/core\objects.c ****             (*forbidden)[i] = 1;
 402              		.loc 1 194 0
 403 007a FB6A     		ldr	r3, [r7, #44]
 404 007c 1A68     		ldr	r2, [r3]
 405 007e BB69     		ldr	r3, [r7, #24]
 406 0080 1344     		add	r3, r3, r2
 407 0082 0122     		movs	r2, #1
 408 0084 1A70     		strb	r2, [r3]
 409              	.L26:
 195:D:/iot/felix2/components/connectivity/lwm2m/core\objects.c ****         }
 196:D:/iot/felix2/components/connectivity/lwm2m/core\objects.c ****         ++i;
 410              		.loc 1 196 0 discriminator 2
 411 0086 BB69     		ldr	r3, [r7, #24]
 412 0088 0133     		adds	r3, r3, #1
 413 008a BB61     		str	r3, [r7, #24]
 188:D:/iot/felix2/components/connectivity/lwm2m/core\objects.c ****     {
 414              		.loc 1 188 0 discriminator 2
 415 008c FB69     		ldr	r3, [r7, #28]
 416 008e 1B68     		ldr	r3, [r3]
 417 0090 FB61     		str	r3, [r7, #28]
 418              	.L25:
 188:D:/iot/felix2/components/connectivity/lwm2m/core\objects.c ****     {
 419              		.loc 1 188 0 is_stmt 0 discriminator 1
 420 0092 FB69     		ldr	r3, [r7, #28]
 421 0094 002B     		cmp	r3, #0
 422 0096 DED1     		bne	.L27
 197:D:/iot/felix2/components/connectivity/lwm2m/core\objects.c ****     }
 198:D:/iot/felix2/components/connectivity/lwm2m/core\objects.c **** 
 199:D:/iot/felix2/components/connectivity/lwm2m/core\objects.c ****     if (*sizeP == 0)
 423              		.loc 1 199 0 is_stmt 1
 424 0098 BB6A     		ldr	r3, [r7, #40]
 425 009a 1B68     		ldr	r3, [r3]
 426 009c 002B     		cmp	r3, #0
 427 009e 06D1     		bne	.L28
 200:D:/iot/felix2/components/connectivity/lwm2m/core\objects.c ****     {
 201:D:/iot/felix2/components/connectivity/lwm2m/core\objects.c ****         lwm2m_free(*forbidden);
 428              		.loc 1 201 0
ARM GAS  C:\Users\91458\AppData\Local\Temp\ccFd4Rch.s 			page 12


 429 00a0 FB6A     		ldr	r3, [r7, #44]
 430 00a2 1B68     		ldr	r3, [r3]
 431 00a4 1846     		mov	r0, r3
 432 00a6 FFF7FEFF 		bl	lwm2m_free
 202:D:/iot/felix2/components/connectivity/lwm2m/core\objects.c ****         return COAP_500_INTERNAL_SERVER_ERROR;
 433              		.loc 1 202 0
 434 00aa A023     		movs	r3, #160
 435 00ac 00E0     		b	.L29
 436              	.L28:
 203:D:/iot/felix2/components/connectivity/lwm2m/core\objects.c ****     }
 204:D:/iot/felix2/components/connectivity/lwm2m/core\objects.c **** 
 205:D:/iot/felix2/components/connectivity/lwm2m/core\objects.c ****     return COAP_NO_ERROR;
 437              		.loc 1 205 0
 438 00ae 0023     		movs	r3, #0
 439              	.L29:
 206:D:/iot/felix2/components/connectivity/lwm2m/core\objects.c **** }
 440              		.loc 1 206 0 discriminator 1
 441 00b0 1846     		mov	r0, r3
 442 00b2 2037     		adds	r7, r7, #32
 443              	.LCFI13:
 444              		.cfi_def_cfa_offset 8
 445 00b4 BD46     		mov	sp, r7
 446              	.LCFI14:
 447              		.cfi_def_cfa_register 13
 448              		@ sp needed
 449 00b6 80BD     		pop	{r7, pc}
 450              		.cfi_endproc
 451              	.LFE144:
 453              		.section	.text.object_readData,"ax",%progbits
 454              		.align	1
 455              		.global	object_readData
 456              		.syntax unified
 457              		.thumb
 458              		.thumb_func
 459              		.fpu fpv4-sp-d16
 461              	object_readData:
 462              	.LFB145:
 207:D:/iot/felix2/components/connectivity/lwm2m/core\objects.c **** 
 208:D:/iot/felix2/components/connectivity/lwm2m/core\objects.c **** uint8_t object_readData(lwm2m_context_t *contextP,
 209:D:/iot/felix2/components/connectivity/lwm2m/core\objects.c ****                         lwm2m_uri_t *uriP,
 210:D:/iot/felix2/components/connectivity/lwm2m/core\objects.c ****                         int *sizeP,
 211:D:/iot/felix2/components/connectivity/lwm2m/core\objects.c ****                         lwm2m_data_t **dataP,
 212:D:/iot/felix2/components/connectivity/lwm2m/core\objects.c ****                         lwm2m_data_cfg_t *cfg,
 213:D:/iot/felix2/components/connectivity/lwm2m/core\objects.c ****                         uint16_t serverId)
 214:D:/iot/felix2/components/connectivity/lwm2m/core\objects.c **** {
 463              		.loc 1 214 0
 464              		.cfi_startproc
 465              		@ args = 8, pretend = 0, frame = 40
 466              		@ frame_needed = 1, uses_anonymous_args = 0
 467 0000 90B5     		push	{r4, r7, lr}
 468              	.LCFI15:
 469              		.cfi_def_cfa_offset 12
 470              		.cfi_offset 4, -12
 471              		.cfi_offset 7, -8
 472              		.cfi_offset 14, -4
 473 0002 8DB0     		sub	sp, sp, #52
 474              	.LCFI16:
ARM GAS  C:\Users\91458\AppData\Local\Temp\ccFd4Rch.s 			page 13


 475              		.cfi_def_cfa_offset 64
 476 0004 02AF     		add	r7, sp, #8
 477              	.LCFI17:
 478              		.cfi_def_cfa 7, 56
 479 0006 F860     		str	r0, [r7, #12]
 480 0008 B960     		str	r1, [r7, #8]
 481 000a 7A60     		str	r2, [r7, #4]
 482 000c 3B60     		str	r3, [r7]
 215:D:/iot/felix2/components/connectivity/lwm2m/core\objects.c ****     uint8_t result;
 216:D:/iot/felix2/components/connectivity/lwm2m/core\objects.c ****     lwm2m_object_t *targetP;
 217:D:/iot/felix2/components/connectivity/lwm2m/core\objects.c **** 
 218:D:/iot/felix2/components/connectivity/lwm2m/core\objects.c ****     LOG_URI(uriP);
 219:D:/iot/felix2/components/connectivity/lwm2m/core\objects.c ****     targetP = (lwm2m_object_t *)LWM2M_LIST_FIND(contextP->objectList, uriP->objectId);
 483              		.loc 1 219 0
 484 000e FB68     		ldr	r3, [r7, #12]
 485 0010 9A69     		ldr	r2, [r3, #24]
 486 0012 BB68     		ldr	r3, [r7, #8]
 487 0014 5B88     		ldrh	r3, [r3, #2]
 488 0016 1946     		mov	r1, r3
 489 0018 1046     		mov	r0, r2
 490 001a FFF7FEFF 		bl	lwm2m_list_find
 491 001e 7861     		str	r0, [r7, #20]
 220:D:/iot/felix2/components/connectivity/lwm2m/core\objects.c ****     if (NULL == targetP) return COAP_404_NOT_FOUND;
 492              		.loc 1 220 0
 493 0020 7B69     		ldr	r3, [r7, #20]
 494 0022 002B     		cmp	r3, #0
 495 0024 01D1     		bne	.L31
 496              		.loc 1 220 0 is_stmt 0 discriminator 1
 497 0026 8423     		movs	r3, #132
 498 0028 DFE0     		b	.L32
 499              	.L31:
 221:D:/iot/felix2/components/connectivity/lwm2m/core\objects.c ****     if (NULL == targetP->readFunc) return COAP_405_METHOD_NOT_ALLOWED;
 500              		.loc 1 221 0 is_stmt 1
 501 002a 7B69     		ldr	r3, [r7, #20]
 502 002c DB68     		ldr	r3, [r3, #12]
 503 002e 002B     		cmp	r3, #0
 504 0030 01D1     		bne	.L33
 505              		.loc 1 221 0 is_stmt 0 discriminator 1
 506 0032 8523     		movs	r3, #133
 507 0034 D9E0     		b	.L32
 508              	.L33:
 222:D:/iot/felix2/components/connectivity/lwm2m/core\objects.c **** 
 223:D:/iot/felix2/components/connectivity/lwm2m/core\objects.c ****     if (LWM2M_URI_IS_SET_INSTANCE(uriP))
 509              		.loc 1 223 0 is_stmt 1
 510 0036 BB68     		ldr	r3, [r7, #8]
 511 0038 1B78     		ldrb	r3, [r3]	@ zero_extendqisi2
 512 003a 03F00203 		and	r3, r3, #2
 513 003e 002B     		cmp	r3, #0
 514 0040 36D0     		beq	.L34
 224:D:/iot/felix2/components/connectivity/lwm2m/core\objects.c ****     {
 225:D:/iot/felix2/components/connectivity/lwm2m/core\objects.c ****         if (NULL == lwm2m_list_find(targetP->instanceList, uriP->instanceId)) return COAP_404_NOT_F
 515              		.loc 1 225 0
 516 0042 7B69     		ldr	r3, [r7, #20]
 517 0044 9A68     		ldr	r2, [r3, #8]
 518 0046 BB68     		ldr	r3, [r7, #8]
 519 0048 9B88     		ldrh	r3, [r3, #4]
 520 004a 1946     		mov	r1, r3
ARM GAS  C:\Users\91458\AppData\Local\Temp\ccFd4Rch.s 			page 14


 521 004c 1046     		mov	r0, r2
 522 004e FFF7FEFF 		bl	lwm2m_list_find
 523 0052 0346     		mov	r3, r0
 524 0054 002B     		cmp	r3, #0
 525 0056 01D1     		bne	.L35
 526              		.loc 1 225 0 is_stmt 0 discriminator 1
 527 0058 8423     		movs	r3, #132
 528 005a C6E0     		b	.L32
 529              	.L35:
 226:D:/iot/felix2/components/connectivity/lwm2m/core\objects.c **** 
 227:D:/iot/felix2/components/connectivity/lwm2m/core\objects.c ****         // single instance read
 228:D:/iot/felix2/components/connectivity/lwm2m/core\objects.c ****         if (LWM2M_URI_IS_SET_RESOURCE(uriP))
 530              		.loc 1 228 0 is_stmt 1
 531 005c BB68     		ldr	r3, [r7, #8]
 532 005e 1B78     		ldrb	r3, [r3]	@ zero_extendqisi2
 533 0060 03F00103 		and	r3, r3, #1
 534 0064 002B     		cmp	r3, #0
 535 0066 15D0     		beq	.L36
 229:D:/iot/felix2/components/connectivity/lwm2m/core\objects.c ****         {
 230:D:/iot/felix2/components/connectivity/lwm2m/core\objects.c ****             *sizeP = 1;
 536              		.loc 1 230 0
 537 0068 7B68     		ldr	r3, [r7, #4]
 538 006a 0122     		movs	r2, #1
 539 006c 1A60     		str	r2, [r3]
 231:D:/iot/felix2/components/connectivity/lwm2m/core\objects.c ****             *dataP = lwm2m_data_new(*sizeP);
 540              		.loc 1 231 0
 541 006e 7B68     		ldr	r3, [r7, #4]
 542 0070 1B68     		ldr	r3, [r3]
 543 0072 1846     		mov	r0, r3
 544 0074 FFF7FEFF 		bl	lwm2m_data_new
 545 0078 0246     		mov	r2, r0
 546 007a 3B68     		ldr	r3, [r7]
 547 007c 1A60     		str	r2, [r3]
 232:D:/iot/felix2/components/connectivity/lwm2m/core\objects.c ****             if (*dataP == NULL) return COAP_500_INTERNAL_SERVER_ERROR;
 548              		.loc 1 232 0
 549 007e 3B68     		ldr	r3, [r7]
 550 0080 1B68     		ldr	r3, [r3]
 551 0082 002B     		cmp	r3, #0
 552 0084 01D1     		bne	.L37
 553              		.loc 1 232 0 is_stmt 0 discriminator 1
 554 0086 A023     		movs	r3, #160
 555 0088 AFE0     		b	.L32
 556              	.L37:
 233:D:/iot/felix2/components/connectivity/lwm2m/core\objects.c **** 
 234:D:/iot/felix2/components/connectivity/lwm2m/core\objects.c ****             (*dataP)->id = uriP->resourceId;
 557              		.loc 1 234 0 is_stmt 1
 558 008a 3B68     		ldr	r3, [r7]
 559 008c 1B68     		ldr	r3, [r3]
 560 008e BA68     		ldr	r2, [r7, #8]
 561 0090 D288     		ldrh	r2, [r2, #6]
 562 0092 5A80     		strh	r2, [r3, #2]	@ movhi
 563              	.L36:
 235:D:/iot/felix2/components/connectivity/lwm2m/core\objects.c ****         }
 236:D:/iot/felix2/components/connectivity/lwm2m/core\objects.c **** 
 237:D:/iot/felix2/components/connectivity/lwm2m/core\objects.c ****         result = targetP->readFunc(uriP->instanceId, sizeP, dataP, cfg, targetP);
 564              		.loc 1 237 0
 565 0094 7B69     		ldr	r3, [r7, #20]
ARM GAS  C:\Users\91458\AppData\Local\Temp\ccFd4Rch.s 			page 15


 566 0096 DC68     		ldr	r4, [r3, #12]
 567 0098 BB68     		ldr	r3, [r7, #8]
 568 009a 9888     		ldrh	r0, [r3, #4]
 569 009c 7B69     		ldr	r3, [r7, #20]
 570 009e 0093     		str	r3, [sp]
 571 00a0 BB6B     		ldr	r3, [r7, #56]
 572 00a2 3A68     		ldr	r2, [r7]
 573 00a4 7968     		ldr	r1, [r7, #4]
 574 00a6 A047     		blx	r4
 575              	.LVL2:
 576 00a8 0346     		mov	r3, r0
 577 00aa 87F82730 		strb	r3, [r7, #39]
 578 00ae 9AE0     		b	.L38
 579              	.L34:
 580              	.LBB2:
 238:D:/iot/felix2/components/connectivity/lwm2m/core\objects.c ****     }
 239:D:/iot/felix2/components/connectivity/lwm2m/core\objects.c ****     else
 240:D:/iot/felix2/components/connectivity/lwm2m/core\objects.c ****     {
 241:D:/iot/felix2/components/connectivity/lwm2m/core\objects.c ****         // multiple object instances read
 242:D:/iot/felix2/components/connectivity/lwm2m/core\objects.c ****         lwm2m_list_t *instanceP;
 243:D:/iot/felix2/components/connectivity/lwm2m/core\objects.c ****         uint8_t *forbidden = NULL;
 581              		.loc 1 243 0
 582 00b0 0023     		movs	r3, #0
 583 00b2 3B61     		str	r3, [r7, #16]
 244:D:/iot/felix2/components/connectivity/lwm2m/core\objects.c ****         int i;
 245:D:/iot/felix2/components/connectivity/lwm2m/core\objects.c ****         int j;
 246:D:/iot/felix2/components/connectivity/lwm2m/core\objects.c **** 
 247:D:/iot/felix2/components/connectivity/lwm2m/core\objects.c ****         result = COAP_205_CONTENT;
 584              		.loc 1 247 0
 585 00b4 4523     		movs	r3, #69
 586 00b6 87F82730 		strb	r3, [r7, #39]
 248:D:/iot/felix2/components/connectivity/lwm2m/core\objects.c **** 
 249:D:/iot/felix2/components/connectivity/lwm2m/core\objects.c ****         *sizeP = 0;
 587              		.loc 1 249 0
 588 00ba 7B68     		ldr	r3, [r7, #4]
 589 00bc 0022     		movs	r2, #0
 590 00be 1A60     		str	r2, [r3]
 250:D:/iot/felix2/components/connectivity/lwm2m/core\objects.c ****         for (instanceP = targetP->instanceList; instanceP != NULL ; instanceP = instanceP->next)
 591              		.loc 1 250 0
 592 00c0 7B69     		ldr	r3, [r7, #20]
 593 00c2 9B68     		ldr	r3, [r3, #8]
 594 00c4 3B62     		str	r3, [r7, #32]
 595 00c6 07E0     		b	.L39
 596              	.L40:
 251:D:/iot/felix2/components/connectivity/lwm2m/core\objects.c ****         {
 252:D:/iot/felix2/components/connectivity/lwm2m/core\objects.c ****             (*sizeP)++;
 597              		.loc 1 252 0 discriminator 3
 598 00c8 7B68     		ldr	r3, [r7, #4]
 599 00ca 1B68     		ldr	r3, [r3]
 600 00cc 5A1C     		adds	r2, r3, #1
 601 00ce 7B68     		ldr	r3, [r7, #4]
 602 00d0 1A60     		str	r2, [r3]
 250:D:/iot/felix2/components/connectivity/lwm2m/core\objects.c ****         for (instanceP = targetP->instanceList; instanceP != NULL ; instanceP = instanceP->next)
 603              		.loc 1 250 0 discriminator 3
 604 00d2 3B6A     		ldr	r3, [r7, #32]
 605 00d4 1B68     		ldr	r3, [r3]
 606 00d6 3B62     		str	r3, [r7, #32]
ARM GAS  C:\Users\91458\AppData\Local\Temp\ccFd4Rch.s 			page 16


 607              	.L39:
 250:D:/iot/felix2/components/connectivity/lwm2m/core\objects.c ****         for (instanceP = targetP->instanceList; instanceP != NULL ; instanceP = instanceP->next)
 608              		.loc 1 250 0 is_stmt 0 discriminator 1
 609 00d8 3B6A     		ldr	r3, [r7, #32]
 610 00da 002B     		cmp	r3, #0
 611 00dc F4D1     		bne	.L40
 253:D:/iot/felix2/components/connectivity/lwm2m/core\objects.c ****         }
 254:D:/iot/felix2/components/connectivity/lwm2m/core\objects.c **** 
 255:D:/iot/felix2/components/connectivity/lwm2m/core\objects.c ****         if (*sizeP == 0)
 612              		.loc 1 255 0 is_stmt 1
 613 00de 7B68     		ldr	r3, [r7, #4]
 614 00e0 1B68     		ldr	r3, [r3]
 615 00e2 002B     		cmp	r3, #0
 616 00e4 03D1     		bne	.L41
 256:D:/iot/felix2/components/connectivity/lwm2m/core\objects.c ****         {
 257:D:/iot/felix2/components/connectivity/lwm2m/core\objects.c ****             *dataP = NULL;
 617              		.loc 1 257 0
 618 00e6 3B68     		ldr	r3, [r7]
 619 00e8 0022     		movs	r2, #0
 620 00ea 1A60     		str	r2, [r3]
 621 00ec 74E0     		b	.L42
 622              	.L41:
 258:D:/iot/felix2/components/connectivity/lwm2m/core\objects.c ****         }
 259:D:/iot/felix2/components/connectivity/lwm2m/core\objects.c ****         else
 260:D:/iot/felix2/components/connectivity/lwm2m/core\objects.c ****         {
 261:D:/iot/felix2/components/connectivity/lwm2m/core\objects.c ****             if ((result = prv_init_forbidden(contextP, targetP,
 623              		.loc 1 261 0
 624 00ee BB68     		ldr	r3, [r7, #8]
 625 00f0 5A88     		ldrh	r2, [r3, #2]
 626 00f2 B98F     		ldrh	r1, [r7, #60]
 627 00f4 07F11003 		add	r3, r7, #16
 628 00f8 0193     		str	r3, [sp, #4]
 629 00fa 7B68     		ldr	r3, [r7, #4]
 630 00fc 0093     		str	r3, [sp]
 631 00fe 0B46     		mov	r3, r1
 632 0100 7969     		ldr	r1, [r7, #20]
 633 0102 F868     		ldr	r0, [r7, #12]
 634 0104 FFF7FEFF 		bl	prv_init_forbidden
 635 0108 0346     		mov	r3, r0
 636 010a 87F82730 		strb	r3, [r7, #39]
 637 010e 97F82730 		ldrb	r3, [r7, #39]	@ zero_extendqisi2
 638 0112 002B     		cmp	r3, #0
 639 0114 05D0     		beq	.L43
 262:D:/iot/felix2/components/connectivity/lwm2m/core\objects.c ****                                              uriP->objectId, serverId, sizeP, &forbidden)) != COAP_
 263:D:/iot/felix2/components/connectivity/lwm2m/core\objects.c ****             {
 264:D:/iot/felix2/components/connectivity/lwm2m/core\objects.c ****                 *dataP = NULL;
 640              		.loc 1 264 0
 641 0116 3B68     		ldr	r3, [r7]
 642 0118 0022     		movs	r2, #0
 643 011a 1A60     		str	r2, [r3]
 265:D:/iot/felix2/components/connectivity/lwm2m/core\objects.c ****                 return result;
 644              		.loc 1 265 0
 645 011c 97F82730 		ldrb	r3, [r7, #39]	@ zero_extendqisi2
 646 0120 63E0     		b	.L32
 647              	.L43:
 266:D:/iot/felix2/components/connectivity/lwm2m/core\objects.c ****             }
 267:D:/iot/felix2/components/connectivity/lwm2m/core\objects.c **** 
ARM GAS  C:\Users\91458\AppData\Local\Temp\ccFd4Rch.s 			page 17


 268:D:/iot/felix2/components/connectivity/lwm2m/core\objects.c ****             *dataP = lwm2m_data_new(*sizeP);
 648              		.loc 1 268 0
 649 0122 7B68     		ldr	r3, [r7, #4]
 650 0124 1B68     		ldr	r3, [r3]
 651 0126 1846     		mov	r0, r3
 652 0128 FFF7FEFF 		bl	lwm2m_data_new
 653 012c 0246     		mov	r2, r0
 654 012e 3B68     		ldr	r3, [r7]
 655 0130 1A60     		str	r2, [r3]
 269:D:/iot/felix2/components/connectivity/lwm2m/core\objects.c ****             if (*dataP == NULL)
 656              		.loc 1 269 0
 657 0132 3B68     		ldr	r3, [r7]
 658 0134 1B68     		ldr	r3, [r3]
 659 0136 002B     		cmp	r3, #0
 660 0138 08D1     		bne	.L45
 270:D:/iot/felix2/components/connectivity/lwm2m/core\objects.c ****             {
 271:D:/iot/felix2/components/connectivity/lwm2m/core\objects.c ****                 if (forbidden != NULL)
 661              		.loc 1 271 0
 662 013a 3B69     		ldr	r3, [r7, #16]
 663 013c 002B     		cmp	r3, #0
 664 013e 03D0     		beq	.L46
 272:D:/iot/felix2/components/connectivity/lwm2m/core\objects.c ****                 {
 273:D:/iot/felix2/components/connectivity/lwm2m/core\objects.c ****                     lwm2m_free(forbidden);
 665              		.loc 1 273 0
 666 0140 3B69     		ldr	r3, [r7, #16]
 667 0142 1846     		mov	r0, r3
 668 0144 FFF7FEFF 		bl	lwm2m_free
 669              	.L46:
 274:D:/iot/felix2/components/connectivity/lwm2m/core\objects.c ****                 }
 275:D:/iot/felix2/components/connectivity/lwm2m/core\objects.c ****                 return COAP_500_INTERNAL_SERVER_ERROR;
 670              		.loc 1 275 0
 671 0148 A023     		movs	r3, #160
 672 014a 4EE0     		b	.L32
 673              	.L45:
 276:D:/iot/felix2/components/connectivity/lwm2m/core\objects.c ****             }
 277:D:/iot/felix2/components/connectivity/lwm2m/core\objects.c **** 
 278:D:/iot/felix2/components/connectivity/lwm2m/core\objects.c ****             instanceP = targetP->instanceList;
 674              		.loc 1 278 0
 675 014c 7B69     		ldr	r3, [r7, #20]
 676 014e 9B68     		ldr	r3, [r3, #8]
 677 0150 3B62     		str	r3, [r7, #32]
 279:D:/iot/felix2/components/connectivity/lwm2m/core\objects.c ****             i = 0;
 678              		.loc 1 279 0
 679 0152 0023     		movs	r3, #0
 680 0154 FB61     		str	r3, [r7, #28]
 280:D:/iot/felix2/components/connectivity/lwm2m/core\objects.c ****             j = 0;
 681              		.loc 1 280 0
 682 0156 0023     		movs	r3, #0
 683 0158 BB61     		str	r3, [r7, #24]
 281:D:/iot/felix2/components/connectivity/lwm2m/core\objects.c ****             while (instanceP != NULL && result == COAP_205_CONTENT)
 684              		.loc 1 281 0
 685 015a 36E0     		b	.L47
 686              	.L49:
 282:D:/iot/felix2/components/connectivity/lwm2m/core\objects.c ****             {
 283:D:/iot/felix2/components/connectivity/lwm2m/core\objects.c ****                 if (forbidden[i] == 0)
 687              		.loc 1 283 0
 688 015c 3A69     		ldr	r2, [r7, #16]
ARM GAS  C:\Users\91458\AppData\Local\Temp\ccFd4Rch.s 			page 18


 689 015e FB69     		ldr	r3, [r7, #28]
 690 0160 1344     		add	r3, r3, r2
 691 0162 1B78     		ldrb	r3, [r3]	@ zero_extendqisi2
 692 0164 002B     		cmp	r3, #0
 693 0166 2AD1     		bne	.L48
 284:D:/iot/felix2/components/connectivity/lwm2m/core\objects.c ****                 {
 285:D:/iot/felix2/components/connectivity/lwm2m/core\objects.c ****                     result = targetP->readFunc(instanceP->id, (int *) & ((*dataP)[j].value.asChildr
 694              		.loc 1 285 0
 695 0168 7B69     		ldr	r3, [r7, #20]
 696 016a DC68     		ldr	r4, [r3, #12]
 697 016c 3B6A     		ldr	r3, [r7, #32]
 698 016e 9888     		ldrh	r0, [r3, #4]
 699 0170 3B68     		ldr	r3, [r7]
 700 0172 1A68     		ldr	r2, [r3]
 701 0174 BB69     		ldr	r3, [r7, #24]
 702 0176 1B01     		lsls	r3, r3, #4
 703 0178 1344     		add	r3, r3, r2
 704 017a 03F10801 		add	r1, r3, #8
 705 017e 3B68     		ldr	r3, [r7]
 706 0180 1A68     		ldr	r2, [r3]
 707 0182 BB69     		ldr	r3, [r7, #24]
 708 0184 1B01     		lsls	r3, r3, #4
 709 0186 1344     		add	r3, r3, r2
 710 0188 03F10C02 		add	r2, r3, #12
 711 018c 7B69     		ldr	r3, [r7, #20]
 712 018e 0093     		str	r3, [sp]
 713 0190 BB6B     		ldr	r3, [r7, #56]
 714 0192 A047     		blx	r4
 715              	.LVL3:
 716 0194 0346     		mov	r3, r0
 717 0196 87F82730 		strb	r3, [r7, #39]
 286:D:/iot/felix2/components/connectivity/lwm2m/core\objects.c ****                     (*dataP)[j].type = LWM2M_TYPE_OBJECT_INSTANCE;
 718              		.loc 1 286 0
 719 019a 3B68     		ldr	r3, [r7]
 720 019c 1A68     		ldr	r2, [r3]
 721 019e BB69     		ldr	r3, [r7, #24]
 722 01a0 1B01     		lsls	r3, r3, #4
 723 01a2 1344     		add	r3, r3, r2
 724 01a4 0222     		movs	r2, #2
 725 01a6 1A70     		strb	r2, [r3]
 287:D:/iot/felix2/components/connectivity/lwm2m/core\objects.c ****                     (*dataP)[j].id = instanceP->id;
 726              		.loc 1 287 0
 727 01a8 3B68     		ldr	r3, [r7]
 728 01aa 1A68     		ldr	r2, [r3]
 729 01ac BB69     		ldr	r3, [r7, #24]
 730 01ae 1B01     		lsls	r3, r3, #4
 731 01b0 1344     		add	r3, r3, r2
 732 01b2 3A6A     		ldr	r2, [r7, #32]
 733 01b4 9288     		ldrh	r2, [r2, #4]
 734 01b6 5A80     		strh	r2, [r3, #2]	@ movhi
 288:D:/iot/felix2/components/connectivity/lwm2m/core\objects.c ****                     j++;
 735              		.loc 1 288 0
 736 01b8 BB69     		ldr	r3, [r7, #24]
 737 01ba 0133     		adds	r3, r3, #1
 738 01bc BB61     		str	r3, [r7, #24]
 739              	.L48:
 289:D:/iot/felix2/components/connectivity/lwm2m/core\objects.c ****                 }
ARM GAS  C:\Users\91458\AppData\Local\Temp\ccFd4Rch.s 			page 19


 290:D:/iot/felix2/components/connectivity/lwm2m/core\objects.c ****                 instanceP = instanceP->next;
 740              		.loc 1 290 0
 741 01be 3B6A     		ldr	r3, [r7, #32]
 742 01c0 1B68     		ldr	r3, [r3]
 743 01c2 3B62     		str	r3, [r7, #32]
 291:D:/iot/felix2/components/connectivity/lwm2m/core\objects.c ****                 i++;
 744              		.loc 1 291 0
 745 01c4 FB69     		ldr	r3, [r7, #28]
 746 01c6 0133     		adds	r3, r3, #1
 747 01c8 FB61     		str	r3, [r7, #28]
 748              	.L47:
 281:D:/iot/felix2/components/connectivity/lwm2m/core\objects.c ****             {
 749              		.loc 1 281 0
 750 01ca 3B6A     		ldr	r3, [r7, #32]
 751 01cc 002B     		cmp	r3, #0
 752 01ce 03D0     		beq	.L42
 281:D:/iot/felix2/components/connectivity/lwm2m/core\objects.c ****             {
 753              		.loc 1 281 0 is_stmt 0 discriminator 1
 754 01d0 97F82730 		ldrb	r3, [r7, #39]	@ zero_extendqisi2
 755 01d4 452B     		cmp	r3, #69
 756 01d6 C1D0     		beq	.L49
 757              	.L42:
 292:D:/iot/felix2/components/connectivity/lwm2m/core\objects.c ****             }
 293:D:/iot/felix2/components/connectivity/lwm2m/core\objects.c ****         }
 294:D:/iot/felix2/components/connectivity/lwm2m/core\objects.c ****         if (forbidden != NULL)
 758              		.loc 1 294 0 is_stmt 1
 759 01d8 3B69     		ldr	r3, [r7, #16]
 760 01da 002B     		cmp	r3, #0
 761 01dc 03D0     		beq	.L38
 295:D:/iot/felix2/components/connectivity/lwm2m/core\objects.c ****         {
 296:D:/iot/felix2/components/connectivity/lwm2m/core\objects.c ****             lwm2m_free(forbidden);
 762              		.loc 1 296 0
 763 01de 3B69     		ldr	r3, [r7, #16]
 764 01e0 1846     		mov	r0, r3
 765 01e2 FFF7FEFF 		bl	lwm2m_free
 766              	.L38:
 767              	.LBE2:
 297:D:/iot/felix2/components/connectivity/lwm2m/core\objects.c ****         }
 298:D:/iot/felix2/components/connectivity/lwm2m/core\objects.c ****     }
 299:D:/iot/felix2/components/connectivity/lwm2m/core\objects.c **** 
 300:D:/iot/felix2/components/connectivity/lwm2m/core\objects.c ****     LOG_ARG("result: %u.%2u, size: %d", (result & 0xFF) >> 5, (result & 0x1F), *sizeP);
 301:D:/iot/felix2/components/connectivity/lwm2m/core\objects.c ****     return result;
 768              		.loc 1 301 0
 769 01e6 97F82730 		ldrb	r3, [r7, #39]	@ zero_extendqisi2
 770              	.L32:
 302:D:/iot/felix2/components/connectivity/lwm2m/core\objects.c **** }
 771              		.loc 1 302 0
 772 01ea 1846     		mov	r0, r3
 773 01ec 2C37     		adds	r7, r7, #44
 774              	.LCFI18:
 775              		.cfi_def_cfa_offset 12
 776 01ee BD46     		mov	sp, r7
 777              	.LCFI19:
 778              		.cfi_def_cfa_register 13
 779              		@ sp needed
 780 01f0 90BD     		pop	{r4, r7, pc}
 781              		.cfi_endproc
ARM GAS  C:\Users\91458\AppData\Local\Temp\ccFd4Rch.s 			page 20


 782              	.LFE145:
 784              		.section	.text.object_read,"ax",%progbits
 785              		.align	1
 786              		.global	object_read
 787              		.syntax unified
 788              		.thumb
 789              		.thumb_func
 790              		.fpu fpv4-sp-d16
 792              	object_read:
 793              	.LFB146:
 303:D:/iot/felix2/components/connectivity/lwm2m/core\objects.c **** 
 304:D:/iot/felix2/components/connectivity/lwm2m/core\objects.c **** 
 305:D:/iot/felix2/components/connectivity/lwm2m/core\objects.c **** uint8_t object_read(lwm2m_context_t *contextP,
 306:D:/iot/felix2/components/connectivity/lwm2m/core\objects.c ****                     lwm2m_uri_t *uriP,
 307:D:/iot/felix2/components/connectivity/lwm2m/core\objects.c ****                     lwm2m_media_type_t *formatP,
 308:D:/iot/felix2/components/connectivity/lwm2m/core\objects.c ****                     uint8_t **bufferP,
 309:D:/iot/felix2/components/connectivity/lwm2m/core\objects.c ****                     size_t *lengthP,
 310:D:/iot/felix2/components/connectivity/lwm2m/core\objects.c ****                     uint16_t serverId)
 311:D:/iot/felix2/components/connectivity/lwm2m/core\objects.c **** {
 794              		.loc 1 311 0
 795              		.cfi_startproc
 796              		@ args = 8, pretend = 0, frame = 32
 797              		@ frame_needed = 1, uses_anonymous_args = 0
 798 0000 80B5     		push	{r7, lr}
 799              	.LCFI20:
 800              		.cfi_def_cfa_offset 8
 801              		.cfi_offset 7, -8
 802              		.cfi_offset 14, -4
 803 0002 8AB0     		sub	sp, sp, #40
 804              	.LCFI21:
 805              		.cfi_def_cfa_offset 48
 806 0004 02AF     		add	r7, sp, #8
 807              	.LCFI22:
 808              		.cfi_def_cfa 7, 40
 809 0006 F860     		str	r0, [r7, #12]
 810 0008 B960     		str	r1, [r7, #8]
 811 000a 7A60     		str	r2, [r7, #4]
 812 000c 3B60     		str	r3, [r7]
 312:D:/iot/felix2/components/connectivity/lwm2m/core\objects.c ****     uint8_t result;
 313:D:/iot/felix2/components/connectivity/lwm2m/core\objects.c ****     lwm2m_data_t *dataP = NULL;
 813              		.loc 1 313 0
 814 000e 0023     		movs	r3, #0
 815 0010 7B61     		str	r3, [r7, #20]
 314:D:/iot/felix2/components/connectivity/lwm2m/core\objects.c ****     int size = 0;
 816              		.loc 1 314 0
 817 0012 0023     		movs	r3, #0
 818 0014 3B61     		str	r3, [r7, #16]
 315:D:/iot/felix2/components/connectivity/lwm2m/core\objects.c ****     int res;
 316:D:/iot/felix2/components/connectivity/lwm2m/core\objects.c **** 
 317:D:/iot/felix2/components/connectivity/lwm2m/core\objects.c ****     LOG_URI(uriP);
 318:D:/iot/felix2/components/connectivity/lwm2m/core\objects.c ****     result = object_readData(contextP, uriP, &size, &dataP, NULL, serverId);
 819              		.loc 1 318 0
 820 0016 07F11401 		add	r1, r7, #20
 821 001a 07F11002 		add	r2, r7, #16
 822 001e BB8D     		ldrh	r3, [r7, #44]
 823 0020 0193     		str	r3, [sp, #4]
 824 0022 0023     		movs	r3, #0
ARM GAS  C:\Users\91458\AppData\Local\Temp\ccFd4Rch.s 			page 21


 825 0024 0093     		str	r3, [sp]
 826 0026 0B46     		mov	r3, r1
 827 0028 B968     		ldr	r1, [r7, #8]
 828 002a F868     		ldr	r0, [r7, #12]
 829 002c FFF7FEFF 		bl	object_readData
 830 0030 0346     		mov	r3, r0
 831 0032 FB77     		strb	r3, [r7, #31]
 319:D:/iot/felix2/components/connectivity/lwm2m/core\objects.c **** 
 320:D:/iot/felix2/components/connectivity/lwm2m/core\objects.c ****     if (result == COAP_205_CONTENT)
 832              		.loc 1 320 0
 833 0034 FB7F     		ldrb	r3, [r7, #31]	@ zero_extendqisi2
 834 0036 452B     		cmp	r3, #69
 835 0038 11D1     		bne	.L52
 321:D:/iot/felix2/components/connectivity/lwm2m/core\objects.c ****     {
 322:D:/iot/felix2/components/connectivity/lwm2m/core\objects.c ****         res = lwm2m_data_serialize(uriP, size, dataP, formatP, bufferP);
 836              		.loc 1 322 0
 837 003a 3969     		ldr	r1, [r7, #16]
 838 003c 7A69     		ldr	r2, [r7, #20]
 839 003e 3B68     		ldr	r3, [r7]
 840 0040 0093     		str	r3, [sp]
 841 0042 7B68     		ldr	r3, [r7, #4]
 842 0044 B868     		ldr	r0, [r7, #8]
 843 0046 FFF7FEFF 		bl	lwm2m_data_serialize
 844 004a B861     		str	r0, [r7, #24]
 323:D:/iot/felix2/components/connectivity/lwm2m/core\objects.c ****         if (res < 0)
 845              		.loc 1 323 0
 846 004c BB69     		ldr	r3, [r7, #24]
 847 004e 002B     		cmp	r3, #0
 848 0050 02DA     		bge	.L53
 324:D:/iot/felix2/components/connectivity/lwm2m/core\objects.c ****         {
 325:D:/iot/felix2/components/connectivity/lwm2m/core\objects.c ****             result = COAP_500_INTERNAL_SERVER_ERROR;
 849              		.loc 1 325 0
 850 0052 A023     		movs	r3, #160
 851 0054 FB77     		strb	r3, [r7, #31]
 852 0056 02E0     		b	.L52
 853              	.L53:
 326:D:/iot/felix2/components/connectivity/lwm2m/core\objects.c ****         }
 327:D:/iot/felix2/components/connectivity/lwm2m/core\objects.c ****         else
 328:D:/iot/felix2/components/connectivity/lwm2m/core\objects.c ****         {
 329:D:/iot/felix2/components/connectivity/lwm2m/core\objects.c ****             *lengthP = (size_t)res;
 854              		.loc 1 329 0
 855 0058 BA69     		ldr	r2, [r7, #24]
 856 005a BB6A     		ldr	r3, [r7, #40]
 857 005c 1A60     		str	r2, [r3]
 858              	.L52:
 330:D:/iot/felix2/components/connectivity/lwm2m/core\objects.c ****         }
 331:D:/iot/felix2/components/connectivity/lwm2m/core\objects.c ****     }
 332:D:/iot/felix2/components/connectivity/lwm2m/core\objects.c ****     lwm2m_data_free(size, dataP);
 859              		.loc 1 332 0
 860 005e 3B69     		ldr	r3, [r7, #16]
 861 0060 7A69     		ldr	r2, [r7, #20]
 862 0062 1146     		mov	r1, r2
 863 0064 1846     		mov	r0, r3
 864 0066 FFF7FEFF 		bl	lwm2m_data_free
 333:D:/iot/felix2/components/connectivity/lwm2m/core\objects.c **** 
 334:D:/iot/felix2/components/connectivity/lwm2m/core\objects.c ****     LOG_ARG("result: %u.%2u, length: %d", (result & 0xFF) >> 5, (result & 0x1F), *lengthP);
 335:D:/iot/felix2/components/connectivity/lwm2m/core\objects.c **** 
ARM GAS  C:\Users\91458\AppData\Local\Temp\ccFd4Rch.s 			page 22


 336:D:/iot/felix2/components/connectivity/lwm2m/core\objects.c ****     return result;
 865              		.loc 1 336 0
 866 006a FB7F     		ldrb	r3, [r7, #31]	@ zero_extendqisi2
 337:D:/iot/felix2/components/connectivity/lwm2m/core\objects.c **** }
 867              		.loc 1 337 0
 868 006c 1846     		mov	r0, r3
 869 006e 2037     		adds	r7, r7, #32
 870              	.LCFI23:
 871              		.cfi_def_cfa_offset 8
 872 0070 BD46     		mov	sp, r7
 873              	.LCFI24:
 874              		.cfi_def_cfa_register 13
 875              		@ sp needed
 876 0072 80BD     		pop	{r7, pc}
 877              		.cfi_endproc
 878              	.LFE146:
 880              		.section	.text.object_write,"ax",%progbits
 881              		.align	1
 882              		.global	object_write
 883              		.syntax unified
 884              		.thumb
 885              		.thumb_func
 886              		.fpu fpv4-sp-d16
 888              	object_write:
 889              	.LFB147:
 338:D:/iot/felix2/components/connectivity/lwm2m/core\objects.c **** 
 339:D:/iot/felix2/components/connectivity/lwm2m/core\objects.c **** uint8_t object_write(lwm2m_context_t *contextP,
 340:D:/iot/felix2/components/connectivity/lwm2m/core\objects.c ****                      lwm2m_uri_t *uriP,
 341:D:/iot/felix2/components/connectivity/lwm2m/core\objects.c ****                      lwm2m_media_type_t format,
 342:D:/iot/felix2/components/connectivity/lwm2m/core\objects.c ****                      uint8_t *buffer,
 343:D:/iot/felix2/components/connectivity/lwm2m/core\objects.c ****                      size_t length)
 344:D:/iot/felix2/components/connectivity/lwm2m/core\objects.c **** {
 890              		.loc 1 344 0
 891              		.cfi_startproc
 892              		@ args = 4, pretend = 0, frame = 32
 893              		@ frame_needed = 1, uses_anonymous_args = 0
 894 0000 90B5     		push	{r4, r7, lr}
 895              	.LCFI25:
 896              		.cfi_def_cfa_offset 12
 897              		.cfi_offset 4, -12
 898              		.cfi_offset 7, -8
 899              		.cfi_offset 14, -4
 900 0002 8BB0     		sub	sp, sp, #44
 901              	.LCFI26:
 902              		.cfi_def_cfa_offset 56
 903 0004 02AF     		add	r7, sp, #8
 904              	.LCFI27:
 905              		.cfi_def_cfa 7, 48
 906 0006 F860     		str	r0, [r7, #12]
 907 0008 B960     		str	r1, [r7, #8]
 908 000a 3B60     		str	r3, [r7]
 909 000c 1346     		mov	r3, r2	@ movhi
 910 000e FB80     		strh	r3, [r7, #6]	@ movhi
 345:D:/iot/felix2/components/connectivity/lwm2m/core\objects.c ****     uint8_t result = NO_ERROR;
 911              		.loc 1 345 0
 912 0010 0023     		movs	r3, #0
 913 0012 FB77     		strb	r3, [r7, #31]
ARM GAS  C:\Users\91458\AppData\Local\Temp\ccFd4Rch.s 			page 23


 346:D:/iot/felix2/components/connectivity/lwm2m/core\objects.c ****     lwm2m_object_t *targetP;
 347:D:/iot/felix2/components/connectivity/lwm2m/core\objects.c ****     lwm2m_data_t *dataP = NULL;
 914              		.loc 1 347 0
 915 0014 0023     		movs	r3, #0
 916 0016 3B61     		str	r3, [r7, #16]
 348:D:/iot/felix2/components/connectivity/lwm2m/core\objects.c ****     int size = 0;
 917              		.loc 1 348 0
 918 0018 0023     		movs	r3, #0
 919 001a BB61     		str	r3, [r7, #24]
 349:D:/iot/felix2/components/connectivity/lwm2m/core\objects.c **** 
 350:D:/iot/felix2/components/connectivity/lwm2m/core\objects.c ****     LOG_URI(uriP);
 351:D:/iot/felix2/components/connectivity/lwm2m/core\objects.c ****     targetP = (lwm2m_object_t *)LWM2M_LIST_FIND(contextP->objectList, uriP->objectId);
 920              		.loc 1 351 0
 921 001c FB68     		ldr	r3, [r7, #12]
 922 001e 9A69     		ldr	r2, [r3, #24]
 923 0020 BB68     		ldr	r3, [r7, #8]
 924 0022 5B88     		ldrh	r3, [r3, #2]
 925 0024 1946     		mov	r1, r3
 926 0026 1046     		mov	r0, r2
 927 0028 FFF7FEFF 		bl	lwm2m_list_find
 928 002c 7861     		str	r0, [r7, #20]
 352:D:/iot/felix2/components/connectivity/lwm2m/core\objects.c ****     if (NULL == targetP)
 929              		.loc 1 352 0
 930 002e 7B69     		ldr	r3, [r7, #20]
 931 0030 002B     		cmp	r3, #0
 932 0032 02D1     		bne	.L56
 353:D:/iot/felix2/components/connectivity/lwm2m/core\objects.c ****     {
 354:D:/iot/felix2/components/connectivity/lwm2m/core\objects.c ****         result = COAP_404_NOT_FOUND;
 933              		.loc 1 354 0
 934 0034 8423     		movs	r3, #132
 935 0036 FB77     		strb	r3, [r7, #31]
 936 0038 16E0     		b	.L57
 937              	.L56:
 355:D:/iot/felix2/components/connectivity/lwm2m/core\objects.c ****     }
 356:D:/iot/felix2/components/connectivity/lwm2m/core\objects.c ****     else if (NULL == targetP->writeFunc)
 938              		.loc 1 356 0
 939 003a 7B69     		ldr	r3, [r7, #20]
 940 003c 1B69     		ldr	r3, [r3, #16]
 941 003e 002B     		cmp	r3, #0
 942 0040 02D1     		bne	.L58
 357:D:/iot/felix2/components/connectivity/lwm2m/core\objects.c ****     {
 358:D:/iot/felix2/components/connectivity/lwm2m/core\objects.c ****         result = COAP_405_METHOD_NOT_ALLOWED;
 943              		.loc 1 358 0
 944 0042 8523     		movs	r3, #133
 945 0044 FB77     		strb	r3, [r7, #31]
 946 0046 0FE0     		b	.L57
 947              	.L58:
 359:D:/iot/felix2/components/connectivity/lwm2m/core\objects.c ****     }
 360:D:/iot/felix2/components/connectivity/lwm2m/core\objects.c ****     else
 361:D:/iot/felix2/components/connectivity/lwm2m/core\objects.c ****     {
 362:D:/iot/felix2/components/connectivity/lwm2m/core\objects.c ****         size = lwm2m_data_parse(uriP, buffer, length, format, &dataP);
 948              		.loc 1 362 0
 949 0048 FA88     		ldrh	r2, [r7, #6]
 950 004a 07F11003 		add	r3, r7, #16
 951 004e 0093     		str	r3, [sp]
 952 0050 1346     		mov	r3, r2
 953 0052 3A6B     		ldr	r2, [r7, #48]
ARM GAS  C:\Users\91458\AppData\Local\Temp\ccFd4Rch.s 			page 24


 954 0054 3968     		ldr	r1, [r7]
 955 0056 B868     		ldr	r0, [r7, #8]
 956 0058 FFF7FEFF 		bl	lwm2m_data_parse
 957 005c B861     		str	r0, [r7, #24]
 363:D:/iot/felix2/components/connectivity/lwm2m/core\objects.c ****         if (size == 0)
 958              		.loc 1 363 0
 959 005e BB69     		ldr	r3, [r7, #24]
 960 0060 002B     		cmp	r3, #0
 961 0062 01D1     		bne	.L57
 364:D:/iot/felix2/components/connectivity/lwm2m/core\objects.c ****         {
 365:D:/iot/felix2/components/connectivity/lwm2m/core\objects.c ****             result = COAP_406_NOT_ACCEPTABLE;
 962              		.loc 1 365 0
 963 0064 8623     		movs	r3, #134
 964 0066 FB77     		strb	r3, [r7, #31]
 965              	.L57:
 366:D:/iot/felix2/components/connectivity/lwm2m/core\objects.c ****         }
 367:D:/iot/felix2/components/connectivity/lwm2m/core\objects.c ****     }
 368:D:/iot/felix2/components/connectivity/lwm2m/core\objects.c ****     if (result == NO_ERROR)
 966              		.loc 1 368 0
 967 0068 FB7F     		ldrb	r3, [r7, #31]	@ zero_extendqisi2
 968 006a 002B     		cmp	r3, #0
 969 006c 0ED1     		bne	.L59
 369:D:/iot/felix2/components/connectivity/lwm2m/core\objects.c ****     {
 370:D:/iot/felix2/components/connectivity/lwm2m/core\objects.c ****         result = targetP->writeFunc(uriP->instanceId, size, dataP, targetP);
 970              		.loc 1 370 0
 971 006e 7B69     		ldr	r3, [r7, #20]
 972 0070 1C69     		ldr	r4, [r3, #16]
 973 0072 BB68     		ldr	r3, [r7, #8]
 974 0074 9888     		ldrh	r0, [r3, #4]
 975 0076 3A69     		ldr	r2, [r7, #16]
 976 0078 7B69     		ldr	r3, [r7, #20]
 977 007a B969     		ldr	r1, [r7, #24]
 978 007c A047     		blx	r4
 979              	.LVL4:
 980 007e 0346     		mov	r3, r0
 981 0080 FB77     		strb	r3, [r7, #31]
 371:D:/iot/felix2/components/connectivity/lwm2m/core\objects.c ****         lwm2m_data_free(size, dataP);
 982              		.loc 1 371 0
 983 0082 3B69     		ldr	r3, [r7, #16]
 984 0084 1946     		mov	r1, r3
 985 0086 B869     		ldr	r0, [r7, #24]
 986 0088 FFF7FEFF 		bl	lwm2m_data_free
 987              	.L59:
 372:D:/iot/felix2/components/connectivity/lwm2m/core\objects.c ****     }
 373:D:/iot/felix2/components/connectivity/lwm2m/core\objects.c **** 
 374:D:/iot/felix2/components/connectivity/lwm2m/core\objects.c ****     LOG_ARG("result: %u.%2u", (result & 0xFF) >> 5, (result & 0x1F));
 375:D:/iot/felix2/components/connectivity/lwm2m/core\objects.c **** 
 376:D:/iot/felix2/components/connectivity/lwm2m/core\objects.c ****     return result;
 988              		.loc 1 376 0
 989 008c FB7F     		ldrb	r3, [r7, #31]	@ zero_extendqisi2
 377:D:/iot/felix2/components/connectivity/lwm2m/core\objects.c **** }
 990              		.loc 1 377 0
 991 008e 1846     		mov	r0, r3
 992 0090 2437     		adds	r7, r7, #36
 993              	.LCFI28:
 994              		.cfi_def_cfa_offset 12
 995 0092 BD46     		mov	sp, r7
ARM GAS  C:\Users\91458\AppData\Local\Temp\ccFd4Rch.s 			page 25


 996              	.LCFI29:
 997              		.cfi_def_cfa_register 13
 998              		@ sp needed
 999 0094 90BD     		pop	{r4, r7, pc}
 1000              		.cfi_endproc
 1001              	.LFE147:
 1003              		.section	.text.object_execute,"ax",%progbits
 1004              		.align	1
 1005              		.global	object_execute
 1006              		.syntax unified
 1007              		.thumb
 1008              		.thumb_func
 1009              		.fpu fpv4-sp-d16
 1011              	object_execute:
 1012              	.LFB148:
 378:D:/iot/felix2/components/connectivity/lwm2m/core\objects.c **** 
 379:D:/iot/felix2/components/connectivity/lwm2m/core\objects.c **** uint8_t object_execute(lwm2m_context_t *contextP,
 380:D:/iot/felix2/components/connectivity/lwm2m/core\objects.c ****                        lwm2m_uri_t *uriP,
 381:D:/iot/felix2/components/connectivity/lwm2m/core\objects.c ****                        uint8_t *buffer,
 382:D:/iot/felix2/components/connectivity/lwm2m/core\objects.c ****                        size_t length)
 383:D:/iot/felix2/components/connectivity/lwm2m/core\objects.c **** {
 1013              		.loc 1 383 0
 1014              		.cfi_startproc
 1015              		@ args = 0, pretend = 0, frame = 24
 1016              		@ frame_needed = 1, uses_anonymous_args = 0
 1017 0000 90B5     		push	{r4, r7, lr}
 1018              	.LCFI30:
 1019              		.cfi_def_cfa_offset 12
 1020              		.cfi_offset 4, -12
 1021              		.cfi_offset 7, -8
 1022              		.cfi_offset 14, -4
 1023 0002 89B0     		sub	sp, sp, #36
 1024              	.LCFI31:
 1025              		.cfi_def_cfa_offset 48
 1026 0004 02AF     		add	r7, sp, #8
 1027              	.LCFI32:
 1028              		.cfi_def_cfa 7, 40
 1029 0006 F860     		str	r0, [r7, #12]
 1030 0008 B960     		str	r1, [r7, #8]
 1031 000a 7A60     		str	r2, [r7, #4]
 1032 000c 3B60     		str	r3, [r7]
 384:D:/iot/felix2/components/connectivity/lwm2m/core\objects.c ****     lwm2m_object_t *targetP;
 385:D:/iot/felix2/components/connectivity/lwm2m/core\objects.c **** 
 386:D:/iot/felix2/components/connectivity/lwm2m/core\objects.c ****     LOG_URI(uriP);
 387:D:/iot/felix2/components/connectivity/lwm2m/core\objects.c ****     targetP = (lwm2m_object_t *)LWM2M_LIST_FIND(contextP->objectList, uriP->objectId);
 1033              		.loc 1 387 0
 1034 000e FB68     		ldr	r3, [r7, #12]
 1035 0010 9A69     		ldr	r2, [r3, #24]
 1036 0012 BB68     		ldr	r3, [r7, #8]
 1037 0014 5B88     		ldrh	r3, [r3, #2]
 1038 0016 1946     		mov	r1, r3
 1039 0018 1046     		mov	r0, r2
 1040 001a FFF7FEFF 		bl	lwm2m_list_find
 1041 001e 7861     		str	r0, [r7, #20]
 388:D:/iot/felix2/components/connectivity/lwm2m/core\objects.c ****     if (NULL == targetP) return COAP_404_NOT_FOUND;
 1042              		.loc 1 388 0
 1043 0020 7B69     		ldr	r3, [r7, #20]
ARM GAS  C:\Users\91458\AppData\Local\Temp\ccFd4Rch.s 			page 26


 1044 0022 002B     		cmp	r3, #0
 1045 0024 01D1     		bne	.L62
 1046              		.loc 1 388 0 is_stmt 0 discriminator 1
 1047 0026 8423     		movs	r3, #132
 1048 0028 1FE0     		b	.L63
 1049              	.L62:
 389:D:/iot/felix2/components/connectivity/lwm2m/core\objects.c ****     if (NULL == targetP->executeFunc) return COAP_405_METHOD_NOT_ALLOWED;
 1050              		.loc 1 389 0 is_stmt 1
 1051 002a 7B69     		ldr	r3, [r7, #20]
 1052 002c 5B69     		ldr	r3, [r3, #20]
 1053 002e 002B     		cmp	r3, #0
 1054 0030 01D1     		bne	.L64
 1055              		.loc 1 389 0 is_stmt 0 discriminator 1
 1056 0032 8523     		movs	r3, #133
 1057 0034 19E0     		b	.L63
 1058              	.L64:
 390:D:/iot/felix2/components/connectivity/lwm2m/core\objects.c ****     if (NULL == lwm2m_list_find(targetP->instanceList, uriP->instanceId)) return COAP_404_NOT_FOUND
 1059              		.loc 1 390 0 is_stmt 1
 1060 0036 7B69     		ldr	r3, [r7, #20]
 1061 0038 9A68     		ldr	r2, [r3, #8]
 1062 003a BB68     		ldr	r3, [r7, #8]
 1063 003c 9B88     		ldrh	r3, [r3, #4]
 1064 003e 1946     		mov	r1, r3
 1065 0040 1046     		mov	r0, r2
 1066 0042 FFF7FEFF 		bl	lwm2m_list_find
 1067 0046 0346     		mov	r3, r0
 1068 0048 002B     		cmp	r3, #0
 1069 004a 01D1     		bne	.L65
 1070              		.loc 1 390 0 is_stmt 0 discriminator 1
 1071 004c 8423     		movs	r3, #132
 1072 004e 0CE0     		b	.L63
 1073              	.L65:
 391:D:/iot/felix2/components/connectivity/lwm2m/core\objects.c **** 
 392:D:/iot/felix2/components/connectivity/lwm2m/core\objects.c ****     return targetP->executeFunc(uriP->instanceId, uriP->resourceId, buffer, length, targetP);
 1074              		.loc 1 392 0 is_stmt 1
 1075 0050 7B69     		ldr	r3, [r7, #20]
 1076 0052 5C69     		ldr	r4, [r3, #20]
 1077 0054 BB68     		ldr	r3, [r7, #8]
 1078 0056 9888     		ldrh	r0, [r3, #4]
 1079 0058 BB68     		ldr	r3, [r7, #8]
 1080 005a D988     		ldrh	r1, [r3, #6]
 1081 005c 3A68     		ldr	r2, [r7]
 1082 005e 7B69     		ldr	r3, [r7, #20]
 1083 0060 0093     		str	r3, [sp]
 1084 0062 1346     		mov	r3, r2
 1085 0064 7A68     		ldr	r2, [r7, #4]
 1086 0066 A047     		blx	r4
 1087              	.LVL5:
 1088 0068 0346     		mov	r3, r0
 1089              	.L63:
 393:D:/iot/felix2/components/connectivity/lwm2m/core\objects.c **** }
 1090              		.loc 1 393 0
 1091 006a 1846     		mov	r0, r3
 1092 006c 1C37     		adds	r7, r7, #28
 1093              	.LCFI33:
 1094              		.cfi_def_cfa_offset 12
 1095 006e BD46     		mov	sp, r7
ARM GAS  C:\Users\91458\AppData\Local\Temp\ccFd4Rch.s 			page 27


 1096              	.LCFI34:
 1097              		.cfi_def_cfa_register 13
 1098              		@ sp needed
 1099 0070 90BD     		pop	{r4, r7, pc}
 1100              		.cfi_endproc
 1101              	.LFE148:
 1103              		.section	.text.object_create,"ax",%progbits
 1104              		.align	1
 1105              		.global	object_create
 1106              		.syntax unified
 1107              		.thumb
 1108              		.thumb_func
 1109              		.fpu fpv4-sp-d16
 1111              	object_create:
 1112              	.LFB149:
 394:D:/iot/felix2/components/connectivity/lwm2m/core\objects.c **** 
 395:D:/iot/felix2/components/connectivity/lwm2m/core\objects.c **** uint8_t object_create(lwm2m_context_t *contextP,
 396:D:/iot/felix2/components/connectivity/lwm2m/core\objects.c ****                       lwm2m_uri_t *uriP,
 397:D:/iot/felix2/components/connectivity/lwm2m/core\objects.c ****                       lwm2m_media_type_t format,
 398:D:/iot/felix2/components/connectivity/lwm2m/core\objects.c ****                       uint8_t *buffer,
 399:D:/iot/felix2/components/connectivity/lwm2m/core\objects.c ****                       size_t length)
 400:D:/iot/felix2/components/connectivity/lwm2m/core\objects.c **** {
 1113              		.loc 1 400 0
 1114              		.cfi_startproc
 1115              		@ args = 4, pretend = 0, frame = 32
 1116              		@ frame_needed = 1, uses_anonymous_args = 0
 1117 0000 90B5     		push	{r4, r7, lr}
 1118              	.LCFI35:
 1119              		.cfi_def_cfa_offset 12
 1120              		.cfi_offset 4, -12
 1121              		.cfi_offset 7, -8
 1122              		.cfi_offset 14, -4
 1123 0002 8BB0     		sub	sp, sp, #44
 1124              	.LCFI36:
 1125              		.cfi_def_cfa_offset 56
 1126 0004 02AF     		add	r7, sp, #8
 1127              	.LCFI37:
 1128              		.cfi_def_cfa 7, 48
 1129 0006 F860     		str	r0, [r7, #12]
 1130 0008 B960     		str	r1, [r7, #8]
 1131 000a 3B60     		str	r3, [r7]
 1132 000c 1346     		mov	r3, r2	@ movhi
 1133 000e FB80     		strh	r3, [r7, #6]	@ movhi
 401:D:/iot/felix2/components/connectivity/lwm2m/core\objects.c ****     lwm2m_object_t *targetP;
 402:D:/iot/felix2/components/connectivity/lwm2m/core\objects.c ****     lwm2m_data_t *dataP = NULL;
 1134              		.loc 1 402 0
 1135 0010 0023     		movs	r3, #0
 1136 0012 3B61     		str	r3, [r7, #16]
 403:D:/iot/felix2/components/connectivity/lwm2m/core\objects.c ****     int size = 0;
 1137              		.loc 1 403 0
 1138 0014 0023     		movs	r3, #0
 1139 0016 BB61     		str	r3, [r7, #24]
 404:D:/iot/felix2/components/connectivity/lwm2m/core\objects.c ****     uint8_t result;
 405:D:/iot/felix2/components/connectivity/lwm2m/core\objects.c **** 
 406:D:/iot/felix2/components/connectivity/lwm2m/core\objects.c ****     LOG_URI(uriP);
 407:D:/iot/felix2/components/connectivity/lwm2m/core\objects.c **** 
 408:D:/iot/felix2/components/connectivity/lwm2m/core\objects.c ****     if (length == 0 || buffer == 0)
ARM GAS  C:\Users\91458\AppData\Local\Temp\ccFd4Rch.s 			page 28


 1140              		.loc 1 408 0
 1141 0018 3B6B     		ldr	r3, [r7, #48]
 1142 001a 002B     		cmp	r3, #0
 1143 001c 02D0     		beq	.L67
 1144              		.loc 1 408 0 is_stmt 0 discriminator 1
 1145 001e 3B68     		ldr	r3, [r7]
 1146 0020 002B     		cmp	r3, #0
 1147 0022 01D1     		bne	.L68
 1148              	.L67:
 409:D:/iot/felix2/components/connectivity/lwm2m/core\objects.c ****     {
 410:D:/iot/felix2/components/connectivity/lwm2m/core\objects.c ****         return COAP_400_BAD_REQUEST;
 1149              		.loc 1 410 0 is_stmt 1
 1150 0024 8023     		movs	r3, #128
 1151 0026 81E0     		b	.L80
 1152              	.L68:
 411:D:/iot/felix2/components/connectivity/lwm2m/core\objects.c ****     }
 412:D:/iot/felix2/components/connectivity/lwm2m/core\objects.c **** 
 413:D:/iot/felix2/components/connectivity/lwm2m/core\objects.c ****     targetP = (lwm2m_object_t *)LWM2M_LIST_FIND(contextP->objectList, uriP->objectId);
 1153              		.loc 1 413 0
 1154 0028 FB68     		ldr	r3, [r7, #12]
 1155 002a 9A69     		ldr	r2, [r3, #24]
 1156 002c BB68     		ldr	r3, [r7, #8]
 1157 002e 5B88     		ldrh	r3, [r3, #2]
 1158 0030 1946     		mov	r1, r3
 1159 0032 1046     		mov	r0, r2
 1160 0034 FFF7FEFF 		bl	lwm2m_list_find
 1161 0038 7861     		str	r0, [r7, #20]
 414:D:/iot/felix2/components/connectivity/lwm2m/core\objects.c ****     if (NULL == targetP) return COAP_404_NOT_FOUND;
 1162              		.loc 1 414 0
 1163 003a 7B69     		ldr	r3, [r7, #20]
 1164 003c 002B     		cmp	r3, #0
 1165 003e 01D1     		bne	.L70
 1166              		.loc 1 414 0 is_stmt 0 discriminator 1
 1167 0040 8423     		movs	r3, #132
 1168 0042 73E0     		b	.L80
 1169              	.L70:
 415:D:/iot/felix2/components/connectivity/lwm2m/core\objects.c ****     if (NULL == targetP->createFunc) return COAP_405_METHOD_NOT_ALLOWED;
 1170              		.loc 1 415 0 is_stmt 1
 1171 0044 7B69     		ldr	r3, [r7, #20]
 1172 0046 DB69     		ldr	r3, [r3, #28]
 1173 0048 002B     		cmp	r3, #0
 1174 004a 01D1     		bne	.L71
 1175              		.loc 1 415 0 is_stmt 0 discriminator 1
 1176 004c 8523     		movs	r3, #133
 1177 004e 6DE0     		b	.L80
 1178              	.L71:
 416:D:/iot/felix2/components/connectivity/lwm2m/core\objects.c **** 
 417:D:/iot/felix2/components/connectivity/lwm2m/core\objects.c ****     size = lwm2m_data_parse(uriP, buffer, length, format, &dataP);
 1179              		.loc 1 417 0 is_stmt 1
 1180 0050 FA88     		ldrh	r2, [r7, #6]
 1181 0052 07F11003 		add	r3, r7, #16
 1182 0056 0093     		str	r3, [sp]
 1183 0058 1346     		mov	r3, r2
 1184 005a 3A6B     		ldr	r2, [r7, #48]
 1185 005c 3968     		ldr	r1, [r7]
 1186 005e B868     		ldr	r0, [r7, #8]
 1187 0060 FFF7FEFF 		bl	lwm2m_data_parse
ARM GAS  C:\Users\91458\AppData\Local\Temp\ccFd4Rch.s 			page 29


 1188 0064 B861     		str	r0, [r7, #24]
 418:D:/iot/felix2/components/connectivity/lwm2m/core\objects.c ****     if (size <= 0) return COAP_400_BAD_REQUEST;
 1189              		.loc 1 418 0
 1190 0066 BB69     		ldr	r3, [r7, #24]
 1191 0068 002B     		cmp	r3, #0
 1192 006a 01DC     		bgt	.L72
 1193              		.loc 1 418 0 is_stmt 0 discriminator 1
 1194 006c 8023     		movs	r3, #128
 1195 006e 5DE0     		b	.L80
 1196              	.L72:
 419:D:/iot/felix2/components/connectivity/lwm2m/core\objects.c **** 
 420:D:/iot/felix2/components/connectivity/lwm2m/core\objects.c ****     switch (dataP[0].type)
 1197              		.loc 1 420 0 is_stmt 1
 1198 0070 3B69     		ldr	r3, [r7, #16]
 1199 0072 1B78     		ldrb	r3, [r3]	@ zero_extendqisi2
 1200 0074 012B     		cmp	r3, #1
 1201 0076 02D0     		beq	.L74
 1202 0078 022B     		cmp	r3, #2
 1203 007a 03D0     		beq	.L75
 1204 007c 2FE0     		b	.L81
 1205              	.L74:
 421:D:/iot/felix2/components/connectivity/lwm2m/core\objects.c ****     {
 422:D:/iot/felix2/components/connectivity/lwm2m/core\objects.c ****     case LWM2M_TYPE_OBJECT:
 423:D:/iot/felix2/components/connectivity/lwm2m/core\objects.c ****         result = COAP_400_BAD_REQUEST;
 1206              		.loc 1 423 0
 1207 007e 8023     		movs	r3, #128
 1208 0080 FB77     		strb	r3, [r7, #31]
 424:D:/iot/felix2/components/connectivity/lwm2m/core\objects.c ****         goto exit;
 1209              		.loc 1 424 0
 1210 0082 4DE0     		b	.L76
 1211              	.L75:
 425:D:/iot/felix2/components/connectivity/lwm2m/core\objects.c **** 
 426:D:/iot/felix2/components/connectivity/lwm2m/core\objects.c ****     case LWM2M_TYPE_OBJECT_INSTANCE:
 427:D:/iot/felix2/components/connectivity/lwm2m/core\objects.c ****         if (size != 1)
 1212              		.loc 1 427 0
 1213 0084 BB69     		ldr	r3, [r7, #24]
 1214 0086 012B     		cmp	r3, #1
 1215 0088 02D0     		beq	.L77
 428:D:/iot/felix2/components/connectivity/lwm2m/core\objects.c ****         {
 429:D:/iot/felix2/components/connectivity/lwm2m/core\objects.c ****             result = COAP_400_BAD_REQUEST;
 1216              		.loc 1 429 0
 1217 008a 8023     		movs	r3, #128
 1218 008c FB77     		strb	r3, [r7, #31]
 430:D:/iot/felix2/components/connectivity/lwm2m/core\objects.c ****             goto exit;
 1219              		.loc 1 430 0
 1220 008e 47E0     		b	.L76
 1221              	.L77:
 431:D:/iot/felix2/components/connectivity/lwm2m/core\objects.c ****         }
 432:D:/iot/felix2/components/connectivity/lwm2m/core\objects.c ****         if (NULL != lwm2m_list_find(targetP->instanceList, dataP[0].id))
 1222              		.loc 1 432 0
 1223 0090 7B69     		ldr	r3, [r7, #20]
 1224 0092 9A68     		ldr	r2, [r3, #8]
 1225 0094 3B69     		ldr	r3, [r7, #16]
 1226 0096 5B88     		ldrh	r3, [r3, #2]
 1227 0098 1946     		mov	r1, r3
 1228 009a 1046     		mov	r0, r2
 1229 009c FFF7FEFF 		bl	lwm2m_list_find
ARM GAS  C:\Users\91458\AppData\Local\Temp\ccFd4Rch.s 			page 30


 1230 00a0 0346     		mov	r3, r0
 1231 00a2 002B     		cmp	r3, #0
 1232 00a4 02D0     		beq	.L78
 433:D:/iot/felix2/components/connectivity/lwm2m/core\objects.c ****         {
 434:D:/iot/felix2/components/connectivity/lwm2m/core\objects.c ****             // Instance already exists
 435:D:/iot/felix2/components/connectivity/lwm2m/core\objects.c ****             result = COAP_406_NOT_ACCEPTABLE;
 1233              		.loc 1 435 0
 1234 00a6 8623     		movs	r3, #134
 1235 00a8 FB77     		strb	r3, [r7, #31]
 436:D:/iot/felix2/components/connectivity/lwm2m/core\objects.c ****             goto exit;
 1236              		.loc 1 436 0
 1237 00aa 39E0     		b	.L76
 1238              	.L78:
 437:D:/iot/felix2/components/connectivity/lwm2m/core\objects.c ****         }
 438:D:/iot/felix2/components/connectivity/lwm2m/core\objects.c ****         result = targetP->createFunc(dataP[0].id, dataP[0].value.asChildren.count, dataP[0].value.a
 1239              		.loc 1 438 0
 1240 00ac 7B69     		ldr	r3, [r7, #20]
 1241 00ae DC69     		ldr	r4, [r3, #28]
 1242 00b0 3B69     		ldr	r3, [r7, #16]
 1243 00b2 5888     		ldrh	r0, [r3, #2]
 1244 00b4 3B69     		ldr	r3, [r7, #16]
 1245 00b6 9B68     		ldr	r3, [r3, #8]
 1246 00b8 1946     		mov	r1, r3
 1247 00ba 3B69     		ldr	r3, [r7, #16]
 1248 00bc DA68     		ldr	r2, [r3, #12]
 1249 00be 7B69     		ldr	r3, [r7, #20]
 1250 00c0 A047     		blx	r4
 1251              	.LVL6:
 1252 00c2 0346     		mov	r3, r0
 1253 00c4 FB77     		strb	r3, [r7, #31]
 439:D:/iot/felix2/components/connectivity/lwm2m/core\objects.c ****         uriP->instanceId = dataP[0].id;
 1254              		.loc 1 439 0
 1255 00c6 3B69     		ldr	r3, [r7, #16]
 1256 00c8 5A88     		ldrh	r2, [r3, #2]
 1257 00ca BB68     		ldr	r3, [r7, #8]
 1258 00cc 9A80     		strh	r2, [r3, #4]	@ movhi
 440:D:/iot/felix2/components/connectivity/lwm2m/core\objects.c ****         uriP->flag |= LWM2M_URI_FLAG_INSTANCE_ID;
 1259              		.loc 1 440 0
 1260 00ce BB68     		ldr	r3, [r7, #8]
 1261 00d0 1B78     		ldrb	r3, [r3]	@ zero_extendqisi2
 1262 00d2 43F00203 		orr	r3, r3, #2
 1263 00d6 DAB2     		uxtb	r2, r3
 1264 00d8 BB68     		ldr	r3, [r7, #8]
 1265 00da 1A70     		strb	r2, [r3]
 441:D:/iot/felix2/components/connectivity/lwm2m/core\objects.c ****         break;
 1266              		.loc 1 441 0
 1267 00dc 20E0     		b	.L76
 1268              	.L81:
 442:D:/iot/felix2/components/connectivity/lwm2m/core\objects.c **** 
 443:D:/iot/felix2/components/connectivity/lwm2m/core\objects.c ****     default:
 444:D:/iot/felix2/components/connectivity/lwm2m/core\objects.c ****         if (!LWM2M_URI_IS_SET_INSTANCE(uriP))
 1269              		.loc 1 444 0
 1270 00de BB68     		ldr	r3, [r7, #8]
 1271 00e0 1B78     		ldrb	r3, [r3]	@ zero_extendqisi2
 1272 00e2 03F00203 		and	r3, r3, #2
 1273 00e6 002B     		cmp	r3, #0
 1274 00e8 0FD1     		bne	.L79
ARM GAS  C:\Users\91458\AppData\Local\Temp\ccFd4Rch.s 			page 31


 445:D:/iot/felix2/components/connectivity/lwm2m/core\objects.c ****         {
 446:D:/iot/felix2/components/connectivity/lwm2m/core\objects.c ****             uriP->instanceId = lwm2m_list_newId(targetP->instanceList);
 1275              		.loc 1 446 0
 1276 00ea 7B69     		ldr	r3, [r7, #20]
 1277 00ec 9B68     		ldr	r3, [r3, #8]
 1278 00ee 1846     		mov	r0, r3
 1279 00f0 FFF7FEFF 		bl	lwm2m_list_newId
 1280 00f4 0346     		mov	r3, r0
 1281 00f6 1A46     		mov	r2, r3
 1282 00f8 BB68     		ldr	r3, [r7, #8]
 1283 00fa 9A80     		strh	r2, [r3, #4]	@ movhi
 447:D:/iot/felix2/components/connectivity/lwm2m/core\objects.c ****             uriP->flag |= LWM2M_URI_FLAG_INSTANCE_ID;
 1284              		.loc 1 447 0
 1285 00fc BB68     		ldr	r3, [r7, #8]
 1286 00fe 1B78     		ldrb	r3, [r3]	@ zero_extendqisi2
 1287 0100 43F00203 		orr	r3, r3, #2
 1288 0104 DAB2     		uxtb	r2, r3
 1289 0106 BB68     		ldr	r3, [r7, #8]
 1290 0108 1A70     		strb	r2, [r3]
 1291              	.L79:
 448:D:/iot/felix2/components/connectivity/lwm2m/core\objects.c ****         }
 449:D:/iot/felix2/components/connectivity/lwm2m/core\objects.c ****         result = targetP->createFunc(uriP->instanceId, size, dataP, targetP);
 1292              		.loc 1 449 0
 1293 010a 7B69     		ldr	r3, [r7, #20]
 1294 010c DC69     		ldr	r4, [r3, #28]
 1295 010e BB68     		ldr	r3, [r7, #8]
 1296 0110 9888     		ldrh	r0, [r3, #4]
 1297 0112 3A69     		ldr	r2, [r7, #16]
 1298 0114 7B69     		ldr	r3, [r7, #20]
 1299 0116 B969     		ldr	r1, [r7, #24]
 1300 0118 A047     		blx	r4
 1301              	.LVL7:
 1302 011a 0346     		mov	r3, r0
 1303 011c FB77     		strb	r3, [r7, #31]
 450:D:/iot/felix2/components/connectivity/lwm2m/core\objects.c ****         break;
 1304              		.loc 1 450 0
 1305 011e 00BF     		nop
 1306              	.L76:
 451:D:/iot/felix2/components/connectivity/lwm2m/core\objects.c ****     }
 452:D:/iot/felix2/components/connectivity/lwm2m/core\objects.c **** 
 453:D:/iot/felix2/components/connectivity/lwm2m/core\objects.c **** exit:
 454:D:/iot/felix2/components/connectivity/lwm2m/core\objects.c ****     lwm2m_data_free(size, dataP);
 1307              		.loc 1 454 0
 1308 0120 3B69     		ldr	r3, [r7, #16]
 1309 0122 1946     		mov	r1, r3
 1310 0124 B869     		ldr	r0, [r7, #24]
 1311 0126 FFF7FEFF 		bl	lwm2m_data_free
 455:D:/iot/felix2/components/connectivity/lwm2m/core\objects.c **** 
 456:D:/iot/felix2/components/connectivity/lwm2m/core\objects.c ****     LOG_ARG("result: %u.%2u", (result & 0xFF) >> 5, (result & 0x1F));
 457:D:/iot/felix2/components/connectivity/lwm2m/core\objects.c **** 
 458:D:/iot/felix2/components/connectivity/lwm2m/core\objects.c ****     return result;
 1312              		.loc 1 458 0
 1313 012a FB7F     		ldrb	r3, [r7, #31]	@ zero_extendqisi2
 1314              	.L80:
 459:D:/iot/felix2/components/connectivity/lwm2m/core\objects.c **** }
 1315              		.loc 1 459 0 discriminator 1
 1316 012c 1846     		mov	r0, r3
ARM GAS  C:\Users\91458\AppData\Local\Temp\ccFd4Rch.s 			page 32


 1317 012e 2437     		adds	r7, r7, #36
 1318              	.LCFI38:
 1319              		.cfi_def_cfa_offset 12
 1320 0130 BD46     		mov	sp, r7
 1321              	.LCFI39:
 1322              		.cfi_def_cfa_register 13
 1323              		@ sp needed
 1324 0132 90BD     		pop	{r4, r7, pc}
 1325              		.cfi_endproc
 1326              	.LFE149:
 1328              		.section	.text.object_delete,"ax",%progbits
 1329              		.align	1
 1330              		.global	object_delete
 1331              		.syntax unified
 1332              		.thumb
 1333              		.thumb_func
 1334              		.fpu fpv4-sp-d16
 1336              	object_delete:
 1337              	.LFB150:
 460:D:/iot/felix2/components/connectivity/lwm2m/core\objects.c **** 
 461:D:/iot/felix2/components/connectivity/lwm2m/core\objects.c **** uint8_t object_delete(lwm2m_context_t *contextP,
 462:D:/iot/felix2/components/connectivity/lwm2m/core\objects.c ****                       lwm2m_uri_t *uriP)
 463:D:/iot/felix2/components/connectivity/lwm2m/core\objects.c **** {
 1338              		.loc 1 463 0
 1339              		.cfi_startproc
 1340              		@ args = 0, pretend = 0, frame = 24
 1341              		@ frame_needed = 1, uses_anonymous_args = 0
 1342 0000 80B5     		push	{r7, lr}
 1343              	.LCFI40:
 1344              		.cfi_def_cfa_offset 8
 1345              		.cfi_offset 7, -8
 1346              		.cfi_offset 14, -4
 1347 0002 86B0     		sub	sp, sp, #24
 1348              	.LCFI41:
 1349              		.cfi_def_cfa_offset 32
 1350 0004 00AF     		add	r7, sp, #0
 1351              	.LCFI42:
 1352              		.cfi_def_cfa_register 7
 1353 0006 7860     		str	r0, [r7, #4]
 1354 0008 3960     		str	r1, [r7]
 464:D:/iot/felix2/components/connectivity/lwm2m/core\objects.c ****     lwm2m_object_t *objectP;
 465:D:/iot/felix2/components/connectivity/lwm2m/core\objects.c ****     uint8_t result;
 466:D:/iot/felix2/components/connectivity/lwm2m/core\objects.c **** 
 467:D:/iot/felix2/components/connectivity/lwm2m/core\objects.c ****     LOG_URI(uriP);
 468:D:/iot/felix2/components/connectivity/lwm2m/core\objects.c ****     objectP = (lwm2m_object_t *)LWM2M_LIST_FIND(contextP->objectList, uriP->objectId);
 1355              		.loc 1 468 0
 1356 000a 7B68     		ldr	r3, [r7, #4]
 1357 000c 9A69     		ldr	r2, [r3, #24]
 1358 000e 3B68     		ldr	r3, [r7]
 1359 0010 5B88     		ldrh	r3, [r3, #2]
 1360 0012 1946     		mov	r1, r3
 1361 0014 1046     		mov	r0, r2
 1362 0016 FFF7FEFF 		bl	lwm2m_list_find
 1363 001a F860     		str	r0, [r7, #12]
 469:D:/iot/felix2/components/connectivity/lwm2m/core\objects.c ****     if (NULL == objectP) return COAP_404_NOT_FOUND;
 1364              		.loc 1 469 0
 1365 001c FB68     		ldr	r3, [r7, #12]
ARM GAS  C:\Users\91458\AppData\Local\Temp\ccFd4Rch.s 			page 33


 1366 001e 002B     		cmp	r3, #0
 1367 0020 01D1     		bne	.L83
 1368              		.loc 1 469 0 is_stmt 0 discriminator 1
 1369 0022 8423     		movs	r3, #132
 1370 0024 4EE0     		b	.L84
 1371              	.L83:
 470:D:/iot/felix2/components/connectivity/lwm2m/core\objects.c ****     if (NULL == objectP->deleteFunc) return COAP_405_METHOD_NOT_ALLOWED;
 1372              		.loc 1 470 0 is_stmt 1
 1373 0026 FB68     		ldr	r3, [r7, #12]
 1374 0028 1B6A     		ldr	r3, [r3, #32]
 1375 002a 002B     		cmp	r3, #0
 1376 002c 01D1     		bne	.L85
 1377              		.loc 1 470 0 is_stmt 0 discriminator 1
 1378 002e 8523     		movs	r3, #133
 1379 0030 48E0     		b	.L84
 1380              	.L85:
 471:D:/iot/felix2/components/connectivity/lwm2m/core\objects.c **** 
 472:D:/iot/felix2/components/connectivity/lwm2m/core\objects.c ****     LOG("Entering");
 473:D:/iot/felix2/components/connectivity/lwm2m/core\objects.c **** 
 474:D:/iot/felix2/components/connectivity/lwm2m/core\objects.c ****     if (LWM2M_URI_IS_SET_INSTANCE(uriP))
 1381              		.loc 1 474 0 is_stmt 1
 1382 0032 3B68     		ldr	r3, [r7]
 1383 0034 1B78     		ldrb	r3, [r3]	@ zero_extendqisi2
 1384 0036 03F00203 		and	r3, r3, #2
 1385 003a 002B     		cmp	r3, #0
 1386 003c 10D0     		beq	.L86
 475:D:/iot/felix2/components/connectivity/lwm2m/core\objects.c ****     {
 476:D:/iot/felix2/components/connectivity/lwm2m/core\objects.c ****         result = objectP->deleteFunc(uriP->instanceId, objectP);
 1387              		.loc 1 476 0
 1388 003e FB68     		ldr	r3, [r7, #12]
 1389 0040 1B6A     		ldr	r3, [r3, #32]
 1390 0042 3A68     		ldr	r2, [r7]
 1391 0044 9288     		ldrh	r2, [r2, #4]
 1392 0046 F968     		ldr	r1, [r7, #12]
 1393 0048 1046     		mov	r0, r2
 1394 004a 9847     		blx	r3
 1395              	.LVL8:
 1396 004c 0346     		mov	r3, r0
 1397 004e FB75     		strb	r3, [r7, #23]
 477:D:/iot/felix2/components/connectivity/lwm2m/core\objects.c ****         if (result == COAP_202_DELETED)
 1398              		.loc 1 477 0
 1399 0050 FB7D     		ldrb	r3, [r7, #23]	@ zero_extendqisi2
 1400 0052 422B     		cmp	r3, #66
 1401 0054 35D1     		bne	.L88
 478:D:/iot/felix2/components/connectivity/lwm2m/core\objects.c ****         {
 479:D:/iot/felix2/components/connectivity/lwm2m/core\objects.c ****             observe_clear(contextP, uriP);
 1402              		.loc 1 479 0
 1403 0056 3968     		ldr	r1, [r7]
 1404 0058 7868     		ldr	r0, [r7, #4]
 1405 005a FFF7FEFF 		bl	observe_clear
 1406 005e 30E0     		b	.L88
 1407              	.L86:
 1408              	.LBB3:
 480:D:/iot/felix2/components/connectivity/lwm2m/core\objects.c ****         }
 481:D:/iot/felix2/components/connectivity/lwm2m/core\objects.c ****     }
 482:D:/iot/felix2/components/connectivity/lwm2m/core\objects.c ****     else
 483:D:/iot/felix2/components/connectivity/lwm2m/core\objects.c ****     {
ARM GAS  C:\Users\91458\AppData\Local\Temp\ccFd4Rch.s 			page 34


 484:D:/iot/felix2/components/connectivity/lwm2m/core\objects.c ****         lwm2m_list_t *instanceP;
 485:D:/iot/felix2/components/connectivity/lwm2m/core\objects.c **** 
 486:D:/iot/felix2/components/connectivity/lwm2m/core\objects.c ****         result = COAP_202_DELETED;
 1409              		.loc 1 486 0
 1410 0060 4223     		movs	r3, #66
 1411 0062 FB75     		strb	r3, [r7, #23]
 487:D:/iot/felix2/components/connectivity/lwm2m/core\objects.c ****         instanceP = objectP->instanceList;
 1412              		.loc 1 487 0
 1413 0064 FB68     		ldr	r3, [r7, #12]
 1414 0066 9B68     		ldr	r3, [r3, #8]
 1415 0068 3B61     		str	r3, [r7, #16]
 488:D:/iot/felix2/components/connectivity/lwm2m/core\objects.c ****         while (NULL != instanceP
 1416              		.loc 1 488 0
 1417 006a 24E0     		b	.L89
 1418              	.L91:
 489:D:/iot/felix2/components/connectivity/lwm2m/core\objects.c ****                 && result == COAP_202_DELETED)
 490:D:/iot/felix2/components/connectivity/lwm2m/core\objects.c ****         {
 491:D:/iot/felix2/components/connectivity/lwm2m/core\objects.c ****             uriP->instanceId = instanceP->id;
 1419              		.loc 1 491 0
 1420 006c 3B69     		ldr	r3, [r7, #16]
 1421 006e 9A88     		ldrh	r2, [r3, #4]
 1422 0070 3B68     		ldr	r3, [r7]
 1423 0072 9A80     		strh	r2, [r3, #4]	@ movhi
 492:D:/iot/felix2/components/connectivity/lwm2m/core\objects.c ****             result = objectP->deleteFunc(instanceP->id, objectP);
 1424              		.loc 1 492 0
 1425 0074 FB68     		ldr	r3, [r7, #12]
 1426 0076 1B6A     		ldr	r3, [r3, #32]
 1427 0078 3A69     		ldr	r2, [r7, #16]
 1428 007a 9288     		ldrh	r2, [r2, #4]
 1429 007c F968     		ldr	r1, [r7, #12]
 1430 007e 1046     		mov	r0, r2
 1431 0080 9847     		blx	r3
 1432              	.LVL9:
 1433 0082 0346     		mov	r3, r0
 1434 0084 FB75     		strb	r3, [r7, #23]
 493:D:/iot/felix2/components/connectivity/lwm2m/core\objects.c ****             if (result == COAP_202_DELETED)
 1435              		.loc 1 493 0
 1436 0086 FB7D     		ldrb	r3, [r7, #23]	@ zero_extendqisi2
 1437 0088 422B     		cmp	r3, #66
 1438 008a 11D1     		bne	.L90
 494:D:/iot/felix2/components/connectivity/lwm2m/core\objects.c ****             {
 495:D:/iot/felix2/components/connectivity/lwm2m/core\objects.c ****                 uriP->flag |= LWM2M_URI_FLAG_INSTANCE_ID;
 1439              		.loc 1 495 0
 1440 008c 3B68     		ldr	r3, [r7]
 1441 008e 1B78     		ldrb	r3, [r3]	@ zero_extendqisi2
 1442 0090 43F00203 		orr	r3, r3, #2
 1443 0094 DAB2     		uxtb	r2, r3
 1444 0096 3B68     		ldr	r3, [r7]
 1445 0098 1A70     		strb	r2, [r3]
 496:D:/iot/felix2/components/connectivity/lwm2m/core\objects.c ****                 observe_clear(contextP, uriP);
 1446              		.loc 1 496 0
 1447 009a 3968     		ldr	r1, [r7]
 1448 009c 7868     		ldr	r0, [r7, #4]
 1449 009e FFF7FEFF 		bl	observe_clear
 497:D:/iot/felix2/components/connectivity/lwm2m/core\objects.c ****                 uriP->flag &= ~LWM2M_URI_FLAG_INSTANCE_ID;
 1450              		.loc 1 497 0
 1451 00a2 3B68     		ldr	r3, [r7]
ARM GAS  C:\Users\91458\AppData\Local\Temp\ccFd4Rch.s 			page 35


 1452 00a4 1B78     		ldrb	r3, [r3]	@ zero_extendqisi2
 1453 00a6 23F00203 		bic	r3, r3, #2
 1454 00aa DAB2     		uxtb	r2, r3
 1455 00ac 3B68     		ldr	r3, [r7]
 1456 00ae 1A70     		strb	r2, [r3]
 1457              	.L90:
 498:D:/iot/felix2/components/connectivity/lwm2m/core\objects.c ****             }
 499:D:/iot/felix2/components/connectivity/lwm2m/core\objects.c ****             instanceP = objectP->instanceList;
 1458              		.loc 1 499 0
 1459 00b0 FB68     		ldr	r3, [r7, #12]
 1460 00b2 9B68     		ldr	r3, [r3, #8]
 1461 00b4 3B61     		str	r3, [r7, #16]
 1462              	.L89:
 488:D:/iot/felix2/components/connectivity/lwm2m/core\objects.c ****                 && result == COAP_202_DELETED)
 1463              		.loc 1 488 0
 1464 00b6 3B69     		ldr	r3, [r7, #16]
 1465 00b8 002B     		cmp	r3, #0
 1466 00ba 02D0     		beq	.L88
 489:D:/iot/felix2/components/connectivity/lwm2m/core\objects.c ****         {
 1467              		.loc 1 489 0
 1468 00bc FB7D     		ldrb	r3, [r7, #23]	@ zero_extendqisi2
 1469 00be 422B     		cmp	r3, #66
 1470 00c0 D4D0     		beq	.L91
 1471              	.L88:
 1472              	.LBE3:
 500:D:/iot/felix2/components/connectivity/lwm2m/core\objects.c ****         }
 501:D:/iot/felix2/components/connectivity/lwm2m/core\objects.c ****     }
 502:D:/iot/felix2/components/connectivity/lwm2m/core\objects.c **** 
 503:D:/iot/felix2/components/connectivity/lwm2m/core\objects.c ****     LOG_ARG("result: %u.%2u", (result & 0xFF) >> 5, (result & 0x1F));
 504:D:/iot/felix2/components/connectivity/lwm2m/core\objects.c **** 
 505:D:/iot/felix2/components/connectivity/lwm2m/core\objects.c ****     return result;
 1473              		.loc 1 505 0
 1474 00c2 FB7D     		ldrb	r3, [r7, #23]	@ zero_extendqisi2
 1475              	.L84:
 506:D:/iot/felix2/components/connectivity/lwm2m/core\objects.c **** }
 1476              		.loc 1 506 0
 1477 00c4 1846     		mov	r0, r3
 1478 00c6 1837     		adds	r7, r7, #24
 1479              	.LCFI43:
 1480              		.cfi_def_cfa_offset 8
 1481 00c8 BD46     		mov	sp, r7
 1482              	.LCFI44:
 1483              		.cfi_def_cfa_register 13
 1484              		@ sp needed
 1485 00ca 80BD     		pop	{r7, pc}
 1486              		.cfi_endproc
 1487              	.LFE150:
 1489              		.section	.text.object_discover,"ax",%progbits
 1490              		.align	1
 1491              		.global	object_discover
 1492              		.syntax unified
 1493              		.thumb
 1494              		.thumb_func
 1495              		.fpu fpv4-sp-d16
 1497              	object_discover:
 1498              	.LFB151:
 507:D:/iot/felix2/components/connectivity/lwm2m/core\objects.c **** 
ARM GAS  C:\Users\91458\AppData\Local\Temp\ccFd4Rch.s 			page 36


 508:D:/iot/felix2/components/connectivity/lwm2m/core\objects.c **** uint8_t object_discover(lwm2m_context_t *contextP,
 509:D:/iot/felix2/components/connectivity/lwm2m/core\objects.c ****                         lwm2m_uri_t *uriP,
 510:D:/iot/felix2/components/connectivity/lwm2m/core\objects.c ****                         lwm2m_server_t *serverP,
 511:D:/iot/felix2/components/connectivity/lwm2m/core\objects.c ****                         uint8_t **bufferP,
 512:D:/iot/felix2/components/connectivity/lwm2m/core\objects.c ****                         size_t *lengthP)
 513:D:/iot/felix2/components/connectivity/lwm2m/core\objects.c **** {
 1499              		.loc 1 513 0
 1500              		.cfi_startproc
 1501              		@ args = 4, pretend = 0, frame = 48
 1502              		@ frame_needed = 1, uses_anonymous_args = 0
 1503 0000 90B5     		push	{r4, r7, lr}
 1504              	.LCFI45:
 1505              		.cfi_def_cfa_offset 12
 1506              		.cfi_offset 4, -12
 1507              		.cfi_offset 7, -8
 1508              		.cfi_offset 14, -4
 1509 0002 8FB0     		sub	sp, sp, #60
 1510              	.LCFI46:
 1511              		.cfi_def_cfa_offset 72
 1512 0004 02AF     		add	r7, sp, #8
 1513              	.LCFI47:
 1514              		.cfi_def_cfa 7, 64
 1515 0006 F860     		str	r0, [r7, #12]
 1516 0008 B960     		str	r1, [r7, #8]
 1517 000a 7A60     		str	r2, [r7, #4]
 1518 000c 3B60     		str	r3, [r7]
 514:D:/iot/felix2/components/connectivity/lwm2m/core\objects.c ****     uint8_t result;
 515:D:/iot/felix2/components/connectivity/lwm2m/core\objects.c ****     lwm2m_object_t *targetP;
 516:D:/iot/felix2/components/connectivity/lwm2m/core\objects.c ****     lwm2m_data_t *dataP = NULL;
 1519              		.loc 1 516 0
 1520 000e 0023     		movs	r3, #0
 1521 0010 BB61     		str	r3, [r7, #24]
 517:D:/iot/felix2/components/connectivity/lwm2m/core\objects.c ****     int size = 0;
 1522              		.loc 1 517 0
 1523 0012 0023     		movs	r3, #0
 1524 0014 7B61     		str	r3, [r7, #20]
 518:D:/iot/felix2/components/connectivity/lwm2m/core\objects.c **** 
 519:D:/iot/felix2/components/connectivity/lwm2m/core\objects.c ****     LOG_URI(uriP);
 520:D:/iot/felix2/components/connectivity/lwm2m/core\objects.c ****     targetP = (lwm2m_object_t *)LWM2M_LIST_FIND(contextP->objectList, uriP->objectId);
 1525              		.loc 1 520 0
 1526 0016 FB68     		ldr	r3, [r7, #12]
 1527 0018 9A69     		ldr	r2, [r3, #24]
 1528 001a BB68     		ldr	r3, [r7, #8]
 1529 001c 5B88     		ldrh	r3, [r3, #2]
 1530 001e 1946     		mov	r1, r3
 1531 0020 1046     		mov	r0, r2
 1532 0022 FFF7FEFF 		bl	lwm2m_list_find
 1533 0026 3862     		str	r0, [r7, #32]
 521:D:/iot/felix2/components/connectivity/lwm2m/core\objects.c ****     if (NULL == targetP) return COAP_404_NOT_FOUND;
 1534              		.loc 1 521 0
 1535 0028 3B6A     		ldr	r3, [r7, #32]
 1536 002a 002B     		cmp	r3, #0
 1537 002c 01D1     		bne	.L93
 1538              		.loc 1 521 0 is_stmt 0 discriminator 1
 1539 002e 8423     		movs	r3, #132
 1540 0030 B4E0     		b	.L108
 1541              	.L93:
ARM GAS  C:\Users\91458\AppData\Local\Temp\ccFd4Rch.s 			page 37


 522:D:/iot/felix2/components/connectivity/lwm2m/core\objects.c ****     if (NULL == targetP->discoverFunc) return COAP_501_NOT_IMPLEMENTED;
 1542              		.loc 1 522 0 is_stmt 1
 1543 0032 3B6A     		ldr	r3, [r7, #32]
 1544 0034 5B6A     		ldr	r3, [r3, #36]
 1545 0036 002B     		cmp	r3, #0
 1546 0038 01D1     		bne	.L95
 1547              		.loc 1 522 0 is_stmt 0 discriminator 1
 1548 003a A123     		movs	r3, #161
 1549 003c AEE0     		b	.L108
 1550              	.L95:
 523:D:/iot/felix2/components/connectivity/lwm2m/core\objects.c **** 
 524:D:/iot/felix2/components/connectivity/lwm2m/core\objects.c ****     if (LWM2M_URI_IS_SET_INSTANCE(uriP))
 1551              		.loc 1 524 0 is_stmt 1
 1552 003e BB68     		ldr	r3, [r7, #8]
 1553 0040 1B78     		ldrb	r3, [r3]	@ zero_extendqisi2
 1554 0042 03F00203 		and	r3, r3, #2
 1555 0046 002B     		cmp	r3, #0
 1556 0048 31D0     		beq	.L96
 525:D:/iot/felix2/components/connectivity/lwm2m/core\objects.c ****     {
 526:D:/iot/felix2/components/connectivity/lwm2m/core\objects.c ****         if (NULL == lwm2m_list_find(targetP->instanceList, uriP->instanceId)) return COAP_404_NOT_F
 1557              		.loc 1 526 0
 1558 004a 3B6A     		ldr	r3, [r7, #32]
 1559 004c 9A68     		ldr	r2, [r3, #8]
 1560 004e BB68     		ldr	r3, [r7, #8]
 1561 0050 9B88     		ldrh	r3, [r3, #4]
 1562 0052 1946     		mov	r1, r3
 1563 0054 1046     		mov	r0, r2
 1564 0056 FFF7FEFF 		bl	lwm2m_list_find
 1565 005a 0346     		mov	r3, r0
 1566 005c 002B     		cmp	r3, #0
 1567 005e 01D1     		bne	.L97
 1568              		.loc 1 526 0 is_stmt 0 discriminator 1
 1569 0060 8423     		movs	r3, #132
 1570 0062 9BE0     		b	.L108
 1571              	.L97:
 527:D:/iot/felix2/components/connectivity/lwm2m/core\objects.c **** 
 528:D:/iot/felix2/components/connectivity/lwm2m/core\objects.c ****         // single instance read
 529:D:/iot/felix2/components/connectivity/lwm2m/core\objects.c ****         if (LWM2M_URI_IS_SET_RESOURCE(uriP))
 1572              		.loc 1 529 0 is_stmt 1
 1573 0064 BB68     		ldr	r3, [r7, #8]
 1574 0066 1B78     		ldrb	r3, [r3]	@ zero_extendqisi2
 1575 0068 03F00103 		and	r3, r3, #1
 1576 006c 002B     		cmp	r3, #0
 1577 006e 10D0     		beq	.L98
 530:D:/iot/felix2/components/connectivity/lwm2m/core\objects.c ****         {
 531:D:/iot/felix2/components/connectivity/lwm2m/core\objects.c ****             size = 1;
 1578              		.loc 1 531 0
 1579 0070 0123     		movs	r3, #1
 1580 0072 7B61     		str	r3, [r7, #20]
 532:D:/iot/felix2/components/connectivity/lwm2m/core\objects.c ****             dataP = lwm2m_data_new(size);
 1581              		.loc 1 532 0
 1582 0074 7B69     		ldr	r3, [r7, #20]
 1583 0076 1846     		mov	r0, r3
 1584 0078 FFF7FEFF 		bl	lwm2m_data_new
 1585 007c 0346     		mov	r3, r0
 1586 007e BB61     		str	r3, [r7, #24]
 533:D:/iot/felix2/components/connectivity/lwm2m/core\objects.c ****             if (dataP == NULL) return COAP_500_INTERNAL_SERVER_ERROR;
ARM GAS  C:\Users\91458\AppData\Local\Temp\ccFd4Rch.s 			page 38


 1587              		.loc 1 533 0
 1588 0080 BB69     		ldr	r3, [r7, #24]
 1589 0082 002B     		cmp	r3, #0
 1590 0084 01D1     		bne	.L99
 1591              		.loc 1 533 0 is_stmt 0 discriminator 1
 1592 0086 A023     		movs	r3, #160
 1593 0088 88E0     		b	.L108
 1594              	.L99:
 534:D:/iot/felix2/components/connectivity/lwm2m/core\objects.c **** 
 535:D:/iot/felix2/components/connectivity/lwm2m/core\objects.c ****             dataP->id = uriP->resourceId;
 1595              		.loc 1 535 0 is_stmt 1
 1596 008a BB69     		ldr	r3, [r7, #24]
 1597 008c BA68     		ldr	r2, [r7, #8]
 1598 008e D288     		ldrh	r2, [r2, #6]
 1599 0090 5A80     		strh	r2, [r3, #2]	@ movhi
 1600              	.L98:
 536:D:/iot/felix2/components/connectivity/lwm2m/core\objects.c ****         }
 537:D:/iot/felix2/components/connectivity/lwm2m/core\objects.c **** 
 538:D:/iot/felix2/components/connectivity/lwm2m/core\objects.c ****         result = targetP->discoverFunc(uriP->instanceId, &size, &dataP, targetP);
 1601              		.loc 1 538 0
 1602 0092 3B6A     		ldr	r3, [r7, #32]
 1603 0094 5C6A     		ldr	r4, [r3, #36]
 1604 0096 BB68     		ldr	r3, [r7, #8]
 1605 0098 9888     		ldrh	r0, [r3, #4]
 1606 009a 07F11802 		add	r2, r7, #24
 1607 009e 07F11401 		add	r1, r7, #20
 1608 00a2 3B6A     		ldr	r3, [r7, #32]
 1609 00a4 A047     		blx	r4
 1610              	.LVL10:
 1611 00a6 0346     		mov	r3, r0
 1612 00a8 87F82F30 		strb	r3, [r7, #47]
 1613 00ac 54E0     		b	.L100
 1614              	.L96:
 1615              	.LBB4:
 539:D:/iot/felix2/components/connectivity/lwm2m/core\objects.c ****     }
 540:D:/iot/felix2/components/connectivity/lwm2m/core\objects.c ****     else
 541:D:/iot/felix2/components/connectivity/lwm2m/core\objects.c ****     {
 542:D:/iot/felix2/components/connectivity/lwm2m/core\objects.c ****         // multiple object instances read
 543:D:/iot/felix2/components/connectivity/lwm2m/core\objects.c ****         lwm2m_list_t *instanceP;
 544:D:/iot/felix2/components/connectivity/lwm2m/core\objects.c ****         int i;
 545:D:/iot/felix2/components/connectivity/lwm2m/core\objects.c **** 
 546:D:/iot/felix2/components/connectivity/lwm2m/core\objects.c ****         result = COAP_205_CONTENT;
 1616              		.loc 1 546 0
 1617 00ae 4523     		movs	r3, #69
 1618 00b0 87F82F30 		strb	r3, [r7, #47]
 547:D:/iot/felix2/components/connectivity/lwm2m/core\objects.c **** 
 548:D:/iot/felix2/components/connectivity/lwm2m/core\objects.c ****         size = 0;
 1619              		.loc 1 548 0
 1620 00b4 0023     		movs	r3, #0
 1621 00b6 7B61     		str	r3, [r7, #20]
 549:D:/iot/felix2/components/connectivity/lwm2m/core\objects.c ****         for (instanceP = targetP->instanceList; instanceP != NULL ; instanceP = instanceP->next)
 1622              		.loc 1 549 0
 1623 00b8 3B6A     		ldr	r3, [r7, #32]
 1624 00ba 9B68     		ldr	r3, [r3, #8]
 1625 00bc BB62     		str	r3, [r7, #40]
 1626 00be 05E0     		b	.L101
 1627              	.L102:
ARM GAS  C:\Users\91458\AppData\Local\Temp\ccFd4Rch.s 			page 39


 550:D:/iot/felix2/components/connectivity/lwm2m/core\objects.c ****         {
 551:D:/iot/felix2/components/connectivity/lwm2m/core\objects.c ****             size++;
 1628              		.loc 1 551 0 discriminator 3
 1629 00c0 7B69     		ldr	r3, [r7, #20]
 1630 00c2 0133     		adds	r3, r3, #1
 1631 00c4 7B61     		str	r3, [r7, #20]
 549:D:/iot/felix2/components/connectivity/lwm2m/core\objects.c ****         for (instanceP = targetP->instanceList; instanceP != NULL ; instanceP = instanceP->next)
 1632              		.loc 1 549 0 discriminator 3
 1633 00c6 BB6A     		ldr	r3, [r7, #40]
 1634 00c8 1B68     		ldr	r3, [r3]
 1635 00ca BB62     		str	r3, [r7, #40]
 1636              	.L101:
 549:D:/iot/felix2/components/connectivity/lwm2m/core\objects.c ****         for (instanceP = targetP->instanceList; instanceP != NULL ; instanceP = instanceP->next)
 1637              		.loc 1 549 0 is_stmt 0 discriminator 1
 1638 00cc BB6A     		ldr	r3, [r7, #40]
 1639 00ce 002B     		cmp	r3, #0
 1640 00d0 F6D1     		bne	.L102
 552:D:/iot/felix2/components/connectivity/lwm2m/core\objects.c ****         }
 553:D:/iot/felix2/components/connectivity/lwm2m/core\objects.c **** 
 554:D:/iot/felix2/components/connectivity/lwm2m/core\objects.c ****         if (size != 0)
 1641              		.loc 1 554 0 is_stmt 1
 1642 00d2 7B69     		ldr	r3, [r7, #20]
 1643 00d4 002B     		cmp	r3, #0
 1644 00d6 3FD0     		beq	.L100
 555:D:/iot/felix2/components/connectivity/lwm2m/core\objects.c ****         {
 556:D:/iot/felix2/components/connectivity/lwm2m/core\objects.c ****             dataP = lwm2m_data_new(size);
 1645              		.loc 1 556 0
 1646 00d8 7B69     		ldr	r3, [r7, #20]
 1647 00da 1846     		mov	r0, r3
 1648 00dc FFF7FEFF 		bl	lwm2m_data_new
 1649 00e0 0346     		mov	r3, r0
 1650 00e2 BB61     		str	r3, [r7, #24]
 557:D:/iot/felix2/components/connectivity/lwm2m/core\objects.c ****             if (dataP == NULL) return COAP_500_INTERNAL_SERVER_ERROR;
 1651              		.loc 1 557 0
 1652 00e4 BB69     		ldr	r3, [r7, #24]
 1653 00e6 002B     		cmp	r3, #0
 1654 00e8 01D1     		bne	.L103
 1655              		.loc 1 557 0 is_stmt 0 discriminator 1
 1656 00ea A023     		movs	r3, #160
 1657 00ec 56E0     		b	.L108
 1658              	.L103:
 558:D:/iot/felix2/components/connectivity/lwm2m/core\objects.c **** 
 559:D:/iot/felix2/components/connectivity/lwm2m/core\objects.c ****             instanceP = targetP->instanceList;
 1659              		.loc 1 559 0 is_stmt 1
 1660 00ee 3B6A     		ldr	r3, [r7, #32]
 1661 00f0 9B68     		ldr	r3, [r3, #8]
 1662 00f2 BB62     		str	r3, [r7, #40]
 560:D:/iot/felix2/components/connectivity/lwm2m/core\objects.c ****             i = 0;
 1663              		.loc 1 560 0
 1664 00f4 0023     		movs	r3, #0
 1665 00f6 7B62     		str	r3, [r7, #36]
 561:D:/iot/felix2/components/connectivity/lwm2m/core\objects.c ****             while (instanceP != NULL && result == COAP_205_CONTENT)
 1666              		.loc 1 561 0
 1667 00f8 27E0     		b	.L104
 1668              	.L105:
 562:D:/iot/felix2/components/connectivity/lwm2m/core\objects.c ****             {
 563:D:/iot/felix2/components/connectivity/lwm2m/core\objects.c ****                 result = targetP->discoverFunc(instanceP->id, (int *) & (dataP[i].value.asChildren.
ARM GAS  C:\Users\91458\AppData\Local\Temp\ccFd4Rch.s 			page 40


 1669              		.loc 1 563 0
 1670 00fa 3B6A     		ldr	r3, [r7, #32]
 1671 00fc 5C6A     		ldr	r4, [r3, #36]
 1672 00fe BB6A     		ldr	r3, [r7, #40]
 1673 0100 9888     		ldrh	r0, [r3, #4]
 1674 0102 BA69     		ldr	r2, [r7, #24]
 1675 0104 7B6A     		ldr	r3, [r7, #36]
 1676 0106 1B01     		lsls	r3, r3, #4
 1677 0108 1344     		add	r3, r3, r2
 1678 010a 03F10801 		add	r1, r3, #8
 1679 010e BA69     		ldr	r2, [r7, #24]
 1680 0110 7B6A     		ldr	r3, [r7, #36]
 1681 0112 1B01     		lsls	r3, r3, #4
 1682 0114 1344     		add	r3, r3, r2
 1683 0116 03F10C02 		add	r2, r3, #12
 1684 011a 3B6A     		ldr	r3, [r7, #32]
 1685 011c A047     		blx	r4
 1686              	.LVL11:
 1687 011e 0346     		mov	r3, r0
 1688 0120 87F82F30 		strb	r3, [r7, #47]
 564:D:/iot/felix2/components/connectivity/lwm2m/core\objects.c ****                 dataP[i].type = LWM2M_TYPE_OBJECT_INSTANCE;
 1689              		.loc 1 564 0
 1690 0124 BA69     		ldr	r2, [r7, #24]
 1691 0126 7B6A     		ldr	r3, [r7, #36]
 1692 0128 1B01     		lsls	r3, r3, #4
 1693 012a 1344     		add	r3, r3, r2
 1694 012c 0222     		movs	r2, #2
 1695 012e 1A70     		strb	r2, [r3]
 565:D:/iot/felix2/components/connectivity/lwm2m/core\objects.c ****                 dataP[i].id = instanceP->id;
 1696              		.loc 1 565 0
 1697 0130 BA69     		ldr	r2, [r7, #24]
 1698 0132 7B6A     		ldr	r3, [r7, #36]
 1699 0134 1B01     		lsls	r3, r3, #4
 1700 0136 1344     		add	r3, r3, r2
 1701 0138 BA6A     		ldr	r2, [r7, #40]
 1702 013a 9288     		ldrh	r2, [r2, #4]
 1703 013c 5A80     		strh	r2, [r3, #2]	@ movhi
 566:D:/iot/felix2/components/connectivity/lwm2m/core\objects.c ****                 i++;
 1704              		.loc 1 566 0
 1705 013e 7B6A     		ldr	r3, [r7, #36]
 1706 0140 0133     		adds	r3, r3, #1
 1707 0142 7B62     		str	r3, [r7, #36]
 567:D:/iot/felix2/components/connectivity/lwm2m/core\objects.c ****                 instanceP = instanceP->next;
 1708              		.loc 1 567 0
 1709 0144 BB6A     		ldr	r3, [r7, #40]
 1710 0146 1B68     		ldr	r3, [r3]
 1711 0148 BB62     		str	r3, [r7, #40]
 1712              	.L104:
 561:D:/iot/felix2/components/connectivity/lwm2m/core\objects.c ****             {
 1713              		.loc 1 561 0
 1714 014a BB6A     		ldr	r3, [r7, #40]
 1715 014c 002B     		cmp	r3, #0
 1716 014e 03D0     		beq	.L100
 561:D:/iot/felix2/components/connectivity/lwm2m/core\objects.c ****             {
 1717              		.loc 1 561 0 is_stmt 0 discriminator 1
 1718 0150 97F82F30 		ldrb	r3, [r7, #47]	@ zero_extendqisi2
 1719 0154 452B     		cmp	r3, #69
ARM GAS  C:\Users\91458\AppData\Local\Temp\ccFd4Rch.s 			page 41


 1720 0156 D0D0     		beq	.L105
 1721              	.L100:
 1722              	.LBE4:
 568:D:/iot/felix2/components/connectivity/lwm2m/core\objects.c ****             }
 569:D:/iot/felix2/components/connectivity/lwm2m/core\objects.c ****         }
 570:D:/iot/felix2/components/connectivity/lwm2m/core\objects.c ****     }
 571:D:/iot/felix2/components/connectivity/lwm2m/core\objects.c **** 
 572:D:/iot/felix2/components/connectivity/lwm2m/core\objects.c ****     if (result == COAP_205_CONTENT)
 1723              		.loc 1 572 0 is_stmt 1
 1724 0158 97F82F30 		ldrb	r3, [r7, #47]	@ zero_extendqisi2
 1725 015c 452B     		cmp	r3, #69
 1726 015e 15D1     		bne	.L106
 1727              	.LBB5:
 573:D:/iot/felix2/components/connectivity/lwm2m/core\objects.c ****     {
 574:D:/iot/felix2/components/connectivity/lwm2m/core\objects.c ****         int len;
 575:D:/iot/felix2/components/connectivity/lwm2m/core\objects.c **** 
 576:D:/iot/felix2/components/connectivity/lwm2m/core\objects.c ****         len = discover_serialize(contextP, uriP, serverP, size, dataP, bufferP);
 1728              		.loc 1 576 0
 1729 0160 7969     		ldr	r1, [r7, #20]
 1730 0162 BB69     		ldr	r3, [r7, #24]
 1731 0164 3A68     		ldr	r2, [r7]
 1732 0166 0192     		str	r2, [sp, #4]
 1733 0168 0093     		str	r3, [sp]
 1734 016a 0B46     		mov	r3, r1
 1735 016c 7A68     		ldr	r2, [r7, #4]
 1736 016e B968     		ldr	r1, [r7, #8]
 1737 0170 F868     		ldr	r0, [r7, #12]
 1738 0172 FFF7FEFF 		bl	discover_serialize
 1739 0176 F861     		str	r0, [r7, #28]
 577:D:/iot/felix2/components/connectivity/lwm2m/core\objects.c ****         if (len <= 0) result = COAP_500_INTERNAL_SERVER_ERROR;
 1740              		.loc 1 577 0
 1741 0178 FB69     		ldr	r3, [r7, #28]
 1742 017a 002B     		cmp	r3, #0
 1743 017c 03DC     		bgt	.L107
 1744              		.loc 1 577 0 is_stmt 0 discriminator 1
 1745 017e A023     		movs	r3, #160
 1746 0180 87F82F30 		strb	r3, [r7, #47]
 1747 0184 02E0     		b	.L106
 1748              	.L107:
 578:D:/iot/felix2/components/connectivity/lwm2m/core\objects.c ****         else *lengthP = len;
 1749              		.loc 1 578 0 is_stmt 1
 1750 0186 FA69     		ldr	r2, [r7, #28]
 1751 0188 3B6C     		ldr	r3, [r7, #64]
 1752 018a 1A60     		str	r2, [r3]
 1753              	.L106:
 1754              	.LBE5:
 579:D:/iot/felix2/components/connectivity/lwm2m/core\objects.c ****     }
 580:D:/iot/felix2/components/connectivity/lwm2m/core\objects.c ****     lwm2m_data_free(size, dataP);
 1755              		.loc 1 580 0
 1756 018c 7B69     		ldr	r3, [r7, #20]
 1757 018e BA69     		ldr	r2, [r7, #24]
 1758 0190 1146     		mov	r1, r2
 1759 0192 1846     		mov	r0, r3
 1760 0194 FFF7FEFF 		bl	lwm2m_data_free
 581:D:/iot/felix2/components/connectivity/lwm2m/core\objects.c **** 
 582:D:/iot/felix2/components/connectivity/lwm2m/core\objects.c ****     LOG_ARG("result: %u.%2u", (result & 0xFF) >> 5, (result & 0x1F));
 583:D:/iot/felix2/components/connectivity/lwm2m/core\objects.c **** 
ARM GAS  C:\Users\91458\AppData\Local\Temp\ccFd4Rch.s 			page 42


 584:D:/iot/felix2/components/connectivity/lwm2m/core\objects.c ****     return result;
 1761              		.loc 1 584 0
 1762 0198 97F82F30 		ldrb	r3, [r7, #47]	@ zero_extendqisi2
 1763              	.L108:
 585:D:/iot/felix2/components/connectivity/lwm2m/core\objects.c **** }
 1764              		.loc 1 585 0 discriminator 1
 1765 019c 1846     		mov	r0, r3
 1766 019e 3437     		adds	r7, r7, #52
 1767              	.LCFI48:
 1768              		.cfi_def_cfa_offset 12
 1769 01a0 BD46     		mov	sp, r7
 1770              	.LCFI49:
 1771              		.cfi_def_cfa_register 13
 1772              		@ sp needed
 1773 01a2 90BD     		pop	{r4, r7, pc}
 1774              		.cfi_endproc
 1775              	.LFE151:
 1777              		.section	.text.object_isInstanceNew,"ax",%progbits
 1778              		.align	1
 1779              		.global	object_isInstanceNew
 1780              		.syntax unified
 1781              		.thumb
 1782              		.thumb_func
 1783              		.fpu fpv4-sp-d16
 1785              	object_isInstanceNew:
 1786              	.LFB152:
 586:D:/iot/felix2/components/connectivity/lwm2m/core\objects.c **** 
 587:D:/iot/felix2/components/connectivity/lwm2m/core\objects.c **** bool object_isInstanceNew(lwm2m_context_t *contextP,
 588:D:/iot/felix2/components/connectivity/lwm2m/core\objects.c ****                           uint16_t objectId,
 589:D:/iot/felix2/components/connectivity/lwm2m/core\objects.c ****                           uint16_t instanceId)
 590:D:/iot/felix2/components/connectivity/lwm2m/core\objects.c **** {
 1787              		.loc 1 590 0
 1788              		.cfi_startproc
 1789              		@ args = 0, pretend = 0, frame = 16
 1790              		@ frame_needed = 1, uses_anonymous_args = 0
 1791 0000 80B5     		push	{r7, lr}
 1792              	.LCFI50:
 1793              		.cfi_def_cfa_offset 8
 1794              		.cfi_offset 7, -8
 1795              		.cfi_offset 14, -4
 1796 0002 84B0     		sub	sp, sp, #16
 1797              	.LCFI51:
 1798              		.cfi_def_cfa_offset 24
 1799 0004 00AF     		add	r7, sp, #0
 1800              	.LCFI52:
 1801              		.cfi_def_cfa_register 7
 1802 0006 7860     		str	r0, [r7, #4]
 1803 0008 0B46     		mov	r3, r1
 1804 000a 7B80     		strh	r3, [r7, #2]	@ movhi
 1805 000c 1346     		mov	r3, r2	@ movhi
 1806 000e 3B80     		strh	r3, [r7]	@ movhi
 591:D:/iot/felix2/components/connectivity/lwm2m/core\objects.c ****     lwm2m_object_t *targetP;
 592:D:/iot/felix2/components/connectivity/lwm2m/core\objects.c **** 
 593:D:/iot/felix2/components/connectivity/lwm2m/core\objects.c ****     LOG("Entering");
 594:D:/iot/felix2/components/connectivity/lwm2m/core\objects.c ****     targetP = (lwm2m_object_t *)LWM2M_LIST_FIND(contextP->objectList, objectId);
 1807              		.loc 1 594 0
 1808 0010 7B68     		ldr	r3, [r7, #4]
ARM GAS  C:\Users\91458\AppData\Local\Temp\ccFd4Rch.s 			page 43


 1809 0012 9B69     		ldr	r3, [r3, #24]
 1810 0014 7A88     		ldrh	r2, [r7, #2]
 1811 0016 1146     		mov	r1, r2
 1812 0018 1846     		mov	r0, r3
 1813 001a FFF7FEFF 		bl	lwm2m_list_find
 1814 001e F860     		str	r0, [r7, #12]
 595:D:/iot/felix2/components/connectivity/lwm2m/core\objects.c ****     if (targetP != NULL)
 1815              		.loc 1 595 0
 1816 0020 FB68     		ldr	r3, [r7, #12]
 1817 0022 002B     		cmp	r3, #0
 1818 0024 0BD0     		beq	.L110
 596:D:/iot/felix2/components/connectivity/lwm2m/core\objects.c ****     {
 597:D:/iot/felix2/components/connectivity/lwm2m/core\objects.c ****         if (NULL != lwm2m_list_find(targetP->instanceList, instanceId))
 1819              		.loc 1 597 0
 1820 0026 FB68     		ldr	r3, [r7, #12]
 1821 0028 9B68     		ldr	r3, [r3, #8]
 1822 002a 3A88     		ldrh	r2, [r7]
 1823 002c 1146     		mov	r1, r2
 1824 002e 1846     		mov	r0, r3
 1825 0030 FFF7FEFF 		bl	lwm2m_list_find
 1826 0034 0346     		mov	r3, r0
 1827 0036 002B     		cmp	r3, #0
 1828 0038 01D0     		beq	.L110
 598:D:/iot/felix2/components/connectivity/lwm2m/core\objects.c ****         {
 599:D:/iot/felix2/components/connectivity/lwm2m/core\objects.c ****             return false;
 1829              		.loc 1 599 0
 1830 003a 0023     		movs	r3, #0
 1831 003c 00E0     		b	.L111
 1832              	.L110:
 600:D:/iot/felix2/components/connectivity/lwm2m/core\objects.c ****         }
 601:D:/iot/felix2/components/connectivity/lwm2m/core\objects.c ****     }
 602:D:/iot/felix2/components/connectivity/lwm2m/core\objects.c **** 
 603:D:/iot/felix2/components/connectivity/lwm2m/core\objects.c ****     return true;
 1833              		.loc 1 603 0
 1834 003e 0123     		movs	r3, #1
 1835              	.L111:
 604:D:/iot/felix2/components/connectivity/lwm2m/core\objects.c **** }
 1836              		.loc 1 604 0
 1837 0040 1846     		mov	r0, r3
 1838 0042 1037     		adds	r7, r7, #16
 1839              	.LCFI53:
 1840              		.cfi_def_cfa_offset 8
 1841 0044 BD46     		mov	sp, r7
 1842              	.LCFI54:
 1843              		.cfi_def_cfa_register 13
 1844              		@ sp needed
 1845 0046 80BD     		pop	{r7, pc}
 1846              		.cfi_endproc
 1847              	.LFE152:
 1849              		.section	.text.prv_getObjectTemplate,"ax",%progbits
 1850              		.align	1
 1851              		.syntax unified
 1852              		.thumb
 1853              		.thumb_func
 1854              		.fpu fpv4-sp-d16
 1856              	prv_getObjectTemplate:
 1857              	.LFB153:
ARM GAS  C:\Users\91458\AppData\Local\Temp\ccFd4Rch.s 			page 44


 605:D:/iot/felix2/components/connectivity/lwm2m/core\objects.c **** 
 606:D:/iot/felix2/components/connectivity/lwm2m/core\objects.c **** static int prv_getObjectTemplate(uint8_t *buffer,
 607:D:/iot/felix2/components/connectivity/lwm2m/core\objects.c ****                                  size_t length,
 608:D:/iot/felix2/components/connectivity/lwm2m/core\objects.c ****                                  uint16_t id)
 609:D:/iot/felix2/components/connectivity/lwm2m/core\objects.c **** {
 1858              		.loc 1 609 0
 1859              		.cfi_startproc
 1860              		@ args = 0, pretend = 0, frame = 24
 1861              		@ frame_needed = 1, uses_anonymous_args = 0
 1862 0000 90B5     		push	{r4, r7, lr}
 1863              	.LCFI55:
 1864              		.cfi_def_cfa_offset 12
 1865              		.cfi_offset 4, -12
 1866              		.cfi_offset 7, -8
 1867              		.cfi_offset 14, -4
 1868 0002 87B0     		sub	sp, sp, #28
 1869              	.LCFI56:
 1870              		.cfi_def_cfa_offset 40
 1871 0004 00AF     		add	r7, sp, #0
 1872              	.LCFI57:
 1873              		.cfi_def_cfa_register 7
 1874 0006 F860     		str	r0, [r7, #12]
 1875 0008 B960     		str	r1, [r7, #8]
 1876 000a 1346     		mov	r3, r2
 1877 000c FB80     		strh	r3, [r7, #6]	@ movhi
 610:D:/iot/felix2/components/connectivity/lwm2m/core\objects.c ****     int index;
 611:D:/iot/felix2/components/connectivity/lwm2m/core\objects.c ****     int result;
 612:D:/iot/felix2/components/connectivity/lwm2m/core\objects.c **** 
 613:D:/iot/felix2/components/connectivity/lwm2m/core\objects.c ****     if (length < REG_OBJECT_MIN_LEN) return -1;
 1878              		.loc 1 613 0
 1879 000e BB68     		ldr	r3, [r7, #8]
 1880 0010 042B     		cmp	r3, #4
 1881 0012 02D8     		bhi	.L113
 1882              		.loc 1 613 0 is_stmt 0 discriminator 1
 1883 0014 4FF0FF33 		mov	r3, #-1
 1884 0018 31E0     		b	.L114
 1885              	.L113:
 614:D:/iot/felix2/components/connectivity/lwm2m/core\objects.c **** 
 615:D:/iot/felix2/components/connectivity/lwm2m/core\objects.c ****     buffer[0] = '<';
 1886              		.loc 1 615 0 is_stmt 1
 1887 001a FB68     		ldr	r3, [r7, #12]
 1888 001c 3C22     		movs	r2, #60
 1889 001e 1A70     		strb	r2, [r3]
 616:D:/iot/felix2/components/connectivity/lwm2m/core\objects.c ****     buffer[1] = '/';
 1890              		.loc 1 616 0
 1891 0020 FB68     		ldr	r3, [r7, #12]
 1892 0022 0133     		adds	r3, r3, #1
 1893 0024 2F22     		movs	r2, #47
 1894 0026 1A70     		strb	r2, [r3]
 617:D:/iot/felix2/components/connectivity/lwm2m/core\objects.c ****     index = 2;
 1895              		.loc 1 617 0
 1896 0028 0223     		movs	r3, #2
 1897 002a 7B61     		str	r3, [r7, #20]
 618:D:/iot/felix2/components/connectivity/lwm2m/core\objects.c **** 
 619:D:/iot/felix2/components/connectivity/lwm2m/core\objects.c ****     result = utils_intToText(id, buffer + index, length - index);
 1898              		.loc 1 619 0
 1899 002c F888     		ldrh	r0, [r7, #6]
ARM GAS  C:\Users\91458\AppData\Local\Temp\ccFd4Rch.s 			page 45


 1900 002e 4FF00001 		mov	r1, #0
 1901 0032 7B69     		ldr	r3, [r7, #20]
 1902 0034 FA68     		ldr	r2, [r7, #12]
 1903 0036 D418     		adds	r4, r2, r3
 1904 0038 7B69     		ldr	r3, [r7, #20]
 1905 003a BA68     		ldr	r2, [r7, #8]
 1906 003c D31A     		subs	r3, r2, r3
 1907 003e 2246     		mov	r2, r4
 1908 0040 FFF7FEFF 		bl	utils_intToText
 1909 0044 0346     		mov	r3, r0
 1910 0046 3B61     		str	r3, [r7, #16]
 620:D:/iot/felix2/components/connectivity/lwm2m/core\objects.c ****     if (result == 0) return -1;
 1911              		.loc 1 620 0
 1912 0048 3B69     		ldr	r3, [r7, #16]
 1913 004a 002B     		cmp	r3, #0
 1914 004c 02D1     		bne	.L115
 1915              		.loc 1 620 0 is_stmt 0 discriminator 1
 1916 004e 4FF0FF33 		mov	r3, #-1
 1917 0052 14E0     		b	.L114
 1918              	.L115:
 621:D:/iot/felix2/components/connectivity/lwm2m/core\objects.c ****     index += result;
 1919              		.loc 1 621 0 is_stmt 1
 1920 0054 7A69     		ldr	r2, [r7, #20]
 1921 0056 3B69     		ldr	r3, [r7, #16]
 1922 0058 1344     		add	r3, r3, r2
 1923 005a 7B61     		str	r3, [r7, #20]
 622:D:/iot/felix2/components/connectivity/lwm2m/core\objects.c **** 
 623:D:/iot/felix2/components/connectivity/lwm2m/core\objects.c ****     if (length - index < REG_OBJECT_MIN_LEN - 3) return -1;
 1924              		.loc 1 623 0
 1925 005c 7B69     		ldr	r3, [r7, #20]
 1926 005e BA68     		ldr	r2, [r7, #8]
 1927 0060 D31A     		subs	r3, r2, r3
 1928 0062 012B     		cmp	r3, #1
 1929 0064 02D8     		bhi	.L116
 1930              		.loc 1 623 0 is_stmt 0 discriminator 1
 1931 0066 4FF0FF33 		mov	r3, #-1
 1932 006a 08E0     		b	.L114
 1933              	.L116:
 624:D:/iot/felix2/components/connectivity/lwm2m/core\objects.c ****     buffer[index] = '/';
 1934              		.loc 1 624 0 is_stmt 1
 1935 006c 7B69     		ldr	r3, [r7, #20]
 1936 006e FA68     		ldr	r2, [r7, #12]
 1937 0070 1344     		add	r3, r3, r2
 1938 0072 2F22     		movs	r2, #47
 1939 0074 1A70     		strb	r2, [r3]
 625:D:/iot/felix2/components/connectivity/lwm2m/core\objects.c ****     index++;
 1940              		.loc 1 625 0
 1941 0076 7B69     		ldr	r3, [r7, #20]
 1942 0078 0133     		adds	r3, r3, #1
 1943 007a 7B61     		str	r3, [r7, #20]
 626:D:/iot/felix2/components/connectivity/lwm2m/core\objects.c **** 
 627:D:/iot/felix2/components/connectivity/lwm2m/core\objects.c ****     return index;
 1944              		.loc 1 627 0
 1945 007c 7B69     		ldr	r3, [r7, #20]
 1946              	.L114:
 628:D:/iot/felix2/components/connectivity/lwm2m/core\objects.c **** }
 1947              		.loc 1 628 0
ARM GAS  C:\Users\91458\AppData\Local\Temp\ccFd4Rch.s 			page 46


 1948 007e 1846     		mov	r0, r3
 1949 0080 1C37     		adds	r7, r7, #28
 1950              	.LCFI58:
 1951              		.cfi_def_cfa_offset 12
 1952 0082 BD46     		mov	sp, r7
 1953              	.LCFI59:
 1954              		.cfi_def_cfa_register 13
 1955              		@ sp needed
 1956 0084 90BD     		pop	{r4, r7, pc}
 1957              		.cfi_endproc
 1958              	.LFE153:
 1960              		.section	.text.object_getRegisterPayloadBufferLength,"ax",%progbits
 1961              		.align	1
 1962              		.global	object_getRegisterPayloadBufferLength
 1963              		.syntax unified
 1964              		.thumb
 1965              		.thumb_func
 1966              		.fpu fpv4-sp-d16
 1968              	object_getRegisterPayloadBufferLength:
 1969              	.LFB154:
 629:D:/iot/felix2/components/connectivity/lwm2m/core\objects.c **** 
 630:D:/iot/felix2/components/connectivity/lwm2m/core\objects.c **** int object_getRegisterPayloadBufferLength(lwm2m_context_t *contextP)
 631:D:/iot/felix2/components/connectivity/lwm2m/core\objects.c **** {
 1970              		.loc 1 631 0
 1971              		.cfi_startproc
 1972              		@ args = 0, pretend = 0, frame = 48
 1973              		@ frame_needed = 1, uses_anonymous_args = 0
 1974 0000 80B5     		push	{r7, lr}
 1975              	.LCFI60:
 1976              		.cfi_def_cfa_offset 8
 1977              		.cfi_offset 7, -8
 1978              		.cfi_offset 14, -4
 1979 0002 8CB0     		sub	sp, sp, #48
 1980              	.LCFI61:
 1981              		.cfi_def_cfa_offset 56
 1982 0004 00AF     		add	r7, sp, #0
 1983              	.LCFI62:
 1984              		.cfi_def_cfa_register 7
 1985 0006 7860     		str	r0, [r7, #4]
 632:D:/iot/felix2/components/connectivity/lwm2m/core\objects.c ****     size_t index;
 633:D:/iot/felix2/components/connectivity/lwm2m/core\objects.c ****     int result;
 634:D:/iot/felix2/components/connectivity/lwm2m/core\objects.c ****     lwm2m_object_t *objectP;
 635:D:/iot/felix2/components/connectivity/lwm2m/core\objects.c ****     char buffer[REG_OBJECT_MIN_LEN + 5];
 636:D:/iot/felix2/components/connectivity/lwm2m/core\objects.c **** 
 637:D:/iot/felix2/components/connectivity/lwm2m/core\objects.c ****     LOG("Entering");
 638:D:/iot/felix2/components/connectivity/lwm2m/core\objects.c ****     index = strlen(REG_START);
 1986              		.loc 1 638 0
 1987 0008 0123     		movs	r3, #1
 1988 000a FB62     		str	r3, [r7, #44]
 639:D:/iot/felix2/components/connectivity/lwm2m/core\objects.c **** 
 640:D:/iot/felix2/components/connectivity/lwm2m/core\objects.c ****     if ((contextP->altPath != NULL)
 1989              		.loc 1 640 0
 1990 000c 7B68     		ldr	r3, [r7, #4]
 1991 000e DB68     		ldr	r3, [r3, #12]
 1992 0010 002B     		cmp	r3, #0
 1993 0012 0ED0     		beq	.L118
 641:D:/iot/felix2/components/connectivity/lwm2m/core\objects.c ****             && (contextP->altPath[0] != 0))
ARM GAS  C:\Users\91458\AppData\Local\Temp\ccFd4Rch.s 			page 47


 1994              		.loc 1 641 0
 1995 0014 7B68     		ldr	r3, [r7, #4]
 1996 0016 DB68     		ldr	r3, [r3, #12]
 1997 0018 1B78     		ldrb	r3, [r3]	@ zero_extendqisi2
 1998 001a 002B     		cmp	r3, #0
 1999 001c 09D0     		beq	.L118
 642:D:/iot/felix2/components/connectivity/lwm2m/core\objects.c ****     {
 643:D:/iot/felix2/components/connectivity/lwm2m/core\objects.c ****         index += strlen(contextP->altPath);
 2000              		.loc 1 643 0
 2001 001e 7B68     		ldr	r3, [r7, #4]
 2002 0020 DB68     		ldr	r3, [r3, #12]
 2003 0022 1846     		mov	r0, r3
 2004 0024 FFF7FEFF 		bl	strlen
 2005 0028 0246     		mov	r2, r0
 2006 002a FB6A     		ldr	r3, [r7, #44]
 2007 002c 1344     		add	r3, r3, r2
 2008 002e FB62     		str	r3, [r7, #44]
 2009 0030 02E0     		b	.L119
 2010              	.L118:
 644:D:/iot/felix2/components/connectivity/lwm2m/core\objects.c ****     }
 645:D:/iot/felix2/components/connectivity/lwm2m/core\objects.c ****     else
 646:D:/iot/felix2/components/connectivity/lwm2m/core\objects.c ****     {
 647:D:/iot/felix2/components/connectivity/lwm2m/core\objects.c ****         index += strlen(REG_DEFAULT_PATH); // "/"
 2011              		.loc 1 647 0
 2012 0032 FB6A     		ldr	r3, [r7, #44]
 2013 0034 0133     		adds	r3, r3, #1
 2014 0036 FB62     		str	r3, [r7, #44]
 2015              	.L119:
 648:D:/iot/felix2/components/connectivity/lwm2m/core\objects.c ****     }
 649:D:/iot/felix2/components/connectivity/lwm2m/core\objects.c **** 
 650:D:/iot/felix2/components/connectivity/lwm2m/core\objects.c ****     index += strlen(REG_LWM2M_RESOURCE_TYPE);//">;rt=\"oma.lwm2m\";ct=11543,"
 2016              		.loc 1 650 0
 2017 0038 FB6A     		ldr	r3, [r7, #44]
 2018 003a 1133     		adds	r3, r3, #17
 2019 003c FB62     		str	r3, [r7, #44]
 651:D:/iot/felix2/components/connectivity/lwm2m/core\objects.c **** 
 652:D:/iot/felix2/components/connectivity/lwm2m/core\objects.c ****     for (objectP = contextP->objectList; objectP != NULL; objectP = objectP->next)
 2020              		.loc 1 652 0
 2021 003e 7B68     		ldr	r3, [r7, #4]
 2022 0040 9B69     		ldr	r3, [r3, #24]
 2023 0042 BB62     		str	r3, [r7, #40]
 2024 0044 55E0     		b	.L120
 2025              	.L130:
 2026              	.LBB6:
 653:D:/iot/felix2/components/connectivity/lwm2m/core\objects.c ****     {
 654:D:/iot/felix2/components/connectivity/lwm2m/core\objects.c ****         size_t start;
 655:D:/iot/felix2/components/connectivity/lwm2m/core\objects.c ****         size_t length;
 656:D:/iot/felix2/components/connectivity/lwm2m/core\objects.c **** 
 657:D:/iot/felix2/components/connectivity/lwm2m/core\objects.c ****         if (objectP->objID == LWM2M_SECURITY_OBJECT_ID) continue;
 2027              		.loc 1 657 0
 2028 0046 BB6A     		ldr	r3, [r7, #40]
 2029 0048 9B88     		ldrh	r3, [r3, #4]
 2030 004a 002B     		cmp	r3, #0
 2031 004c 4DD0     		beq	.L132
 658:D:/iot/felix2/components/connectivity/lwm2m/core\objects.c **** 
 659:D:/iot/felix2/components/connectivity/lwm2m/core\objects.c ****         start = index;
 2032              		.loc 1 659 0
ARM GAS  C:\Users\91458\AppData\Local\Temp\ccFd4Rch.s 			page 48


 2033 004e FB6A     		ldr	r3, [r7, #44]
 2034 0050 3B62     		str	r3, [r7, #32]
 660:D:/iot/felix2/components/connectivity/lwm2m/core\objects.c ****         result = prv_getObjectTemplate((uint8_t *)buffer, sizeof(buffer), objectP->objID);
 2035              		.loc 1 660 0
 2036 0052 BB6A     		ldr	r3, [r7, #40]
 2037 0054 9A88     		ldrh	r2, [r3, #4]
 2038 0056 07F10C03 		add	r3, r7, #12
 2039 005a 0A21     		movs	r1, #10
 2040 005c 1846     		mov	r0, r3
 2041 005e FFF7FEFF 		bl	prv_getObjectTemplate
 2042 0062 F861     		str	r0, [r7, #28]
 661:D:/iot/felix2/components/connectivity/lwm2m/core\objects.c ****         if (result < 0) return 0;
 2043              		.loc 1 661 0
 2044 0064 FB69     		ldr	r3, [r7, #28]
 2045 0066 002B     		cmp	r3, #0
 2046 0068 01DA     		bge	.L123
 2047              		.loc 1 661 0 is_stmt 0 discriminator 1
 2048 006a 0023     		movs	r3, #0
 2049 006c 48E0     		b	.L131
 2050              	.L123:
 662:D:/iot/felix2/components/connectivity/lwm2m/core\objects.c ****         length = result;
 2051              		.loc 1 662 0 is_stmt 1
 2052 006e FB69     		ldr	r3, [r7, #28]
 2053 0070 BB61     		str	r3, [r7, #24]
 663:D:/iot/felix2/components/connectivity/lwm2m/core\objects.c ****         index += length;
 2054              		.loc 1 663 0
 2055 0072 FA6A     		ldr	r2, [r7, #44]
 2056 0074 BB69     		ldr	r3, [r7, #24]
 2057 0076 1344     		add	r3, r3, r2
 2058 0078 FB62     		str	r3, [r7, #44]
 664:D:/iot/felix2/components/connectivity/lwm2m/core\objects.c **** 
 665:D:/iot/felix2/components/connectivity/lwm2m/core\objects.c ****         if (objectP->instanceList == NULL)
 2059              		.loc 1 665 0
 2060 007a BB6A     		ldr	r3, [r7, #40]
 2061 007c 9B68     		ldr	r3, [r3, #8]
 2062 007e 002B     		cmp	r3, #0
 2063 0080 06D1     		bne	.L125
 666:D:/iot/felix2/components/connectivity/lwm2m/core\objects.c ****         {
 667:D:/iot/felix2/components/connectivity/lwm2m/core\objects.c ****             index -= 1;
 2064              		.loc 1 667 0
 2065 0082 FB6A     		ldr	r3, [r7, #44]
 2066 0084 013B     		subs	r3, r3, #1
 2067 0086 FB62     		str	r3, [r7, #44]
 668:D:/iot/felix2/components/connectivity/lwm2m/core\objects.c ****             index += strlen(REG_PATH_END); //">,"
 2068              		.loc 1 668 0
 2069 0088 FB6A     		ldr	r3, [r7, #44]
 2070 008a 0233     		adds	r3, r3, #2
 2071 008c FB62     		str	r3, [r7, #44]
 2072 008e 2DE0     		b	.L122
 2073              	.L125:
 2074              	.LBB7:
 669:D:/iot/felix2/components/connectivity/lwm2m/core\objects.c ****         }
 670:D:/iot/felix2/components/connectivity/lwm2m/core\objects.c ****         else
 671:D:/iot/felix2/components/connectivity/lwm2m/core\objects.c ****         {
 672:D:/iot/felix2/components/connectivity/lwm2m/core\objects.c ****             lwm2m_list_t *targetP;
 673:D:/iot/felix2/components/connectivity/lwm2m/core\objects.c ****             for (targetP = objectP->instanceList ; targetP != NULL ; targetP = targetP->next)
 2075              		.loc 1 673 0
ARM GAS  C:\Users\91458\AppData\Local\Temp\ccFd4Rch.s 			page 49


 2076 0090 BB6A     		ldr	r3, [r7, #40]
 2077 0092 9B68     		ldr	r3, [r3, #8]
 2078 0094 7B62     		str	r3, [r7, #36]
 2079 0096 24E0     		b	.L126
 2080              	.L129:
 674:D:/iot/felix2/components/connectivity/lwm2m/core\objects.c ****             {
 675:D:/iot/felix2/components/connectivity/lwm2m/core\objects.c ****                 if (index != start + length)
 2081              		.loc 1 675 0
 2082 0098 3A6A     		ldr	r2, [r7, #32]
 2083 009a BB69     		ldr	r3, [r7, #24]
 2084 009c 1344     		add	r3, r3, r2
 2085 009e FA6A     		ldr	r2, [r7, #44]
 2086 00a0 9A42     		cmp	r2, r3
 2087 00a2 03D0     		beq	.L127
 676:D:/iot/felix2/components/connectivity/lwm2m/core\objects.c ****                 {
 677:D:/iot/felix2/components/connectivity/lwm2m/core\objects.c ****                     index += length;
 2088              		.loc 1 677 0
 2089 00a4 FA6A     		ldr	r2, [r7, #44]
 2090 00a6 BB69     		ldr	r3, [r7, #24]
 2091 00a8 1344     		add	r3, r3, r2
 2092 00aa FB62     		str	r3, [r7, #44]
 2093              	.L127:
 678:D:/iot/felix2/components/connectivity/lwm2m/core\objects.c ****                 }
 679:D:/iot/felix2/components/connectivity/lwm2m/core\objects.c **** 
 680:D:/iot/felix2/components/connectivity/lwm2m/core\objects.c ****                 result = utils_intToText(targetP->id, (uint8_t *)buffer, sizeof(buffer));
 2094              		.loc 1 680 0
 2095 00ac 7B6A     		ldr	r3, [r7, #36]
 2096 00ae 9B88     		ldrh	r3, [r3, #4]
 2097 00b0 98B2     		uxth	r0, r3
 2098 00b2 4FF00001 		mov	r1, #0
 2099 00b6 07F10C02 		add	r2, r7, #12
 2100 00ba 0A23     		movs	r3, #10
 2101 00bc FFF7FEFF 		bl	utils_intToText
 2102 00c0 0346     		mov	r3, r0
 2103 00c2 FB61     		str	r3, [r7, #28]
 681:D:/iot/felix2/components/connectivity/lwm2m/core\objects.c ****                 if (result == 0) return 0;
 2104              		.loc 1 681 0
 2105 00c4 FB69     		ldr	r3, [r7, #28]
 2106 00c6 002B     		cmp	r3, #0
 2107 00c8 01D1     		bne	.L128
 2108              		.loc 1 681 0 is_stmt 0 discriminator 1
 2109 00ca 0023     		movs	r3, #0
 2110 00cc 18E0     		b	.L131
 2111              	.L128:
 682:D:/iot/felix2/components/connectivity/lwm2m/core\objects.c ****                 index += result;
 2112              		.loc 1 682 0 is_stmt 1 discriminator 2
 2113 00ce FB69     		ldr	r3, [r7, #28]
 2114 00d0 FA6A     		ldr	r2, [r7, #44]
 2115 00d2 1344     		add	r3, r3, r2
 2116 00d4 FB62     		str	r3, [r7, #44]
 683:D:/iot/felix2/components/connectivity/lwm2m/core\objects.c **** 
 684:D:/iot/felix2/components/connectivity/lwm2m/core\objects.c ****                 index += strlen(REG_PATH_END);
 2117              		.loc 1 684 0 discriminator 2
 2118 00d6 FB6A     		ldr	r3, [r7, #44]
 2119 00d8 0233     		adds	r3, r3, #2
 2120 00da FB62     		str	r3, [r7, #44]
 673:D:/iot/felix2/components/connectivity/lwm2m/core\objects.c ****             {
ARM GAS  C:\Users\91458\AppData\Local\Temp\ccFd4Rch.s 			page 50


 2121              		.loc 1 673 0 discriminator 2
 2122 00dc 7B6A     		ldr	r3, [r7, #36]
 2123 00de 1B68     		ldr	r3, [r3]
 2124 00e0 7B62     		str	r3, [r7, #36]
 2125              	.L126:
 673:D:/iot/felix2/components/connectivity/lwm2m/core\objects.c ****             {
 2126              		.loc 1 673 0 is_stmt 0 discriminator 1
 2127 00e2 7B6A     		ldr	r3, [r7, #36]
 2128 00e4 002B     		cmp	r3, #0
 2129 00e6 D7D1     		bne	.L129
 2130 00e8 00E0     		b	.L122
 2131              	.L132:
 2132              	.LBE7:
 657:D:/iot/felix2/components/connectivity/lwm2m/core\objects.c **** 
 2133              		.loc 1 657 0 is_stmt 1
 2134 00ea 00BF     		nop
 2135              	.L122:
 2136              	.LBE6:
 652:D:/iot/felix2/components/connectivity/lwm2m/core\objects.c ****     {
 2137              		.loc 1 652 0 discriminator 2
 2138 00ec BB6A     		ldr	r3, [r7, #40]
 2139 00ee 1B68     		ldr	r3, [r3]
 2140 00f0 BB62     		str	r3, [r7, #40]
 2141              	.L120:
 652:D:/iot/felix2/components/connectivity/lwm2m/core\objects.c ****     {
 2142              		.loc 1 652 0 is_stmt 0 discriminator 1
 2143 00f2 BB6A     		ldr	r3, [r7, #40]
 2144 00f4 002B     		cmp	r3, #0
 2145 00f6 A6D1     		bne	.L130
 685:D:/iot/felix2/components/connectivity/lwm2m/core\objects.c ****             }
 686:D:/iot/felix2/components/connectivity/lwm2m/core\objects.c ****         }
 687:D:/iot/felix2/components/connectivity/lwm2m/core\objects.c ****     }
 688:D:/iot/felix2/components/connectivity/lwm2m/core\objects.c **** 
 689:D:/iot/felix2/components/connectivity/lwm2m/core\objects.c ****     index += 1;  // account for trailing null
 2146              		.loc 1 689 0 is_stmt 1
 2147 00f8 FB6A     		ldr	r3, [r7, #44]
 2148 00fa 0133     		adds	r3, r3, #1
 2149 00fc FB62     		str	r3, [r7, #44]
 690:D:/iot/felix2/components/connectivity/lwm2m/core\objects.c **** 
 691:D:/iot/felix2/components/connectivity/lwm2m/core\objects.c ****     // Note that object_getRegisterPayload() has REG_PATH_END added after each
 692:D:/iot/felix2/components/connectivity/lwm2m/core\objects.c ****     // object or instance, and then the trailing comma is replaced by null. The
 693:D:/iot/felix2/components/connectivity/lwm2m/core\objects.c ****     // trailing nulls are not counted as part of the payload length, so this
 694:D:/iot/felix2/components/connectivity/lwm2m/core\objects.c ****     // will return a size two bytes greater than what
 695:D:/iot/felix2/components/connectivity/lwm2m/core\objects.c ****     // object_getRegisterPayload() returns.
 696:D:/iot/felix2/components/connectivity/lwm2m/core\objects.c **** 
 697:D:/iot/felix2/components/connectivity/lwm2m/core\objects.c ****     return index;
 2150              		.loc 1 697 0
 2151 00fe FB6A     		ldr	r3, [r7, #44]
 2152              	.L131:
 698:D:/iot/felix2/components/connectivity/lwm2m/core\objects.c **** }
 2153              		.loc 1 698 0 discriminator 1
 2154 0100 1846     		mov	r0, r3
 2155 0102 3037     		adds	r7, r7, #48
 2156              	.LCFI63:
 2157              		.cfi_def_cfa_offset 8
 2158 0104 BD46     		mov	sp, r7
 2159              	.LCFI64:
ARM GAS  C:\Users\91458\AppData\Local\Temp\ccFd4Rch.s 			page 51


 2160              		.cfi_def_cfa_register 13
 2161              		@ sp needed
 2162 0106 80BD     		pop	{r7, pc}
 2163              		.cfi_endproc
 2164              	.LFE154:
 2166              		.section	.rodata
 2167              		.align	2
 2168              	.LC0:
 2169 0000 3C00     		.ascii	"<\000"
 2170 0002 0000     		.align	2
 2171              	.LC1:
 2172 0004 2F00     		.ascii	"/\000"
 2173 0006 0000     		.align	2
 2174              	.LC2:
 2175 0008 3E3B7274 		.ascii	">;rt=\"oma.lwm2m\",\000"
 2175      3D226F6D 
 2175      612E6C77 
 2175      6D326D22 
 2175      2C00
 2176 001a 0000     		.align	2
 2177              	.LC3:
 2178 001c 3E2C00   		.ascii	">,\000"
 2179              		.section	.text.object_getRegisterPayload,"ax",%progbits
 2180              		.align	1
 2181              		.global	object_getRegisterPayload
 2182              		.syntax unified
 2183              		.thumb
 2184              		.thumb_func
 2185              		.fpu fpv4-sp-d16
 2187              	object_getRegisterPayload:
 2188              	.LFB155:
 699:D:/iot/felix2/components/connectivity/lwm2m/core\objects.c **** 
 700:D:/iot/felix2/components/connectivity/lwm2m/core\objects.c **** int object_getRegisterPayload(lwm2m_context_t *contextP,
 701:D:/iot/felix2/components/connectivity/lwm2m/core\objects.c ****                               uint8_t *buffer,
 702:D:/iot/felix2/components/connectivity/lwm2m/core\objects.c ****                               size_t bufferLen)
 703:D:/iot/felix2/components/connectivity/lwm2m/core\objects.c **** {
 2189              		.loc 1 703 0
 2190              		.cfi_startproc
 2191              		@ args = 0, pretend = 0, frame = 40
 2192              		@ frame_needed = 1, uses_anonymous_args = 0
 2193 0000 90B5     		push	{r4, r7, lr}
 2194              	.LCFI65:
 2195              		.cfi_def_cfa_offset 12
 2196              		.cfi_offset 4, -12
 2197              		.cfi_offset 7, -8
 2198              		.cfi_offset 14, -4
 2199 0002 8BB0     		sub	sp, sp, #44
 2200              	.LCFI66:
 2201              		.cfi_def_cfa_offset 56
 2202 0004 00AF     		add	r7, sp, #0
 2203              	.LCFI67:
 2204              		.cfi_def_cfa_register 7
 2205 0006 F860     		str	r0, [r7, #12]
 2206 0008 B960     		str	r1, [r7, #8]
 2207 000a 7A60     		str	r2, [r7, #4]
 704:D:/iot/felix2/components/connectivity/lwm2m/core\objects.c ****     size_t index;
 705:D:/iot/felix2/components/connectivity/lwm2m/core\objects.c ****     int result;
ARM GAS  C:\Users\91458\AppData\Local\Temp\ccFd4Rch.s 			page 52


 706:D:/iot/felix2/components/connectivity/lwm2m/core\objects.c ****     lwm2m_object_t *objectP;
 707:D:/iot/felix2/components/connectivity/lwm2m/core\objects.c **** 
 708:D:/iot/felix2/components/connectivity/lwm2m/core\objects.c ****     LOG("Entering");
 709:D:/iot/felix2/components/connectivity/lwm2m/core\objects.c ****     // index can not be greater than bufferLen
 710:D:/iot/felix2/components/connectivity/lwm2m/core\objects.c ****     index = 0;
 2208              		.loc 1 710 0
 2209 000c 0023     		movs	r3, #0
 2210 000e 7B62     		str	r3, [r7, #36]
 711:D:/iot/felix2/components/connectivity/lwm2m/core\objects.c **** 
 712:D:/iot/felix2/components/connectivity/lwm2m/core\objects.c ****     result = utils_stringCopy((char *)buffer, bufferLen, REG_START);
 2211              		.loc 1 712 0
 2212 0010 7B4A     		ldr	r2, .L155
 2213 0012 7968     		ldr	r1, [r7, #4]
 2214 0014 B868     		ldr	r0, [r7, #8]
 2215 0016 FFF7FEFF 		bl	utils_stringCopy
 2216 001a 3862     		str	r0, [r7, #32]
 713:D:/iot/felix2/components/connectivity/lwm2m/core\objects.c ****     if (result < 0) return 0;
 2217              		.loc 1 713 0
 2218 001c 3B6A     		ldr	r3, [r7, #32]
 2219 001e 002B     		cmp	r3, #0
 2220 0020 01DA     		bge	.L134
 2221              		.loc 1 713 0 is_stmt 0 discriminator 1
 2222 0022 0023     		movs	r3, #0
 2223 0024 E7E0     		b	.L135
 2224              	.L134:
 714:D:/iot/felix2/components/connectivity/lwm2m/core\objects.c ****     index += result;
 2225              		.loc 1 714 0 is_stmt 1
 2226 0026 3B6A     		ldr	r3, [r7, #32]
 2227 0028 7A6A     		ldr	r2, [r7, #36]
 2228 002a 1344     		add	r3, r3, r2
 2229 002c 7B62     		str	r3, [r7, #36]
 715:D:/iot/felix2/components/connectivity/lwm2m/core\objects.c **** 
 716:D:/iot/felix2/components/connectivity/lwm2m/core\objects.c ****     if ((contextP->altPath != NULL)
 2230              		.loc 1 716 0
 2231 002e FB68     		ldr	r3, [r7, #12]
 2232 0030 DB68     		ldr	r3, [r3, #12]
 2233 0032 002B     		cmp	r3, #0
 2234 0034 11D0     		beq	.L136
 717:D:/iot/felix2/components/connectivity/lwm2m/core\objects.c ****             && (contextP->altPath[0] != 0))
 2235              		.loc 1 717 0
 2236 0036 FB68     		ldr	r3, [r7, #12]
 2237 0038 DB68     		ldr	r3, [r3, #12]
 2238 003a 1B78     		ldrb	r3, [r3]	@ zero_extendqisi2
 2239 003c 002B     		cmp	r3, #0
 2240 003e 0CD0     		beq	.L136
 718:D:/iot/felix2/components/connectivity/lwm2m/core\objects.c ****     {
 719:D:/iot/felix2/components/connectivity/lwm2m/core\objects.c ****         result = utils_stringCopy((char *)buffer + index, bufferLen - index, contextP->altPath);
 2241              		.loc 1 719 0
 2242 0040 BA68     		ldr	r2, [r7, #8]
 2243 0042 7B6A     		ldr	r3, [r7, #36]
 2244 0044 D018     		adds	r0, r2, r3
 2245 0046 7A68     		ldr	r2, [r7, #4]
 2246 0048 7B6A     		ldr	r3, [r7, #36]
 2247 004a D11A     		subs	r1, r2, r3
 2248 004c FB68     		ldr	r3, [r7, #12]
 2249 004e DB68     		ldr	r3, [r3, #12]
 2250 0050 1A46     		mov	r2, r3
ARM GAS  C:\Users\91458\AppData\Local\Temp\ccFd4Rch.s 			page 53


 2251 0052 FFF7FEFF 		bl	utils_stringCopy
 2252 0056 3862     		str	r0, [r7, #32]
 2253 0058 0AE0     		b	.L137
 2254              	.L136:
 720:D:/iot/felix2/components/connectivity/lwm2m/core\objects.c ****     }
 721:D:/iot/felix2/components/connectivity/lwm2m/core\objects.c ****     else
 722:D:/iot/felix2/components/connectivity/lwm2m/core\objects.c ****     {
 723:D:/iot/felix2/components/connectivity/lwm2m/core\objects.c ****         result = utils_stringCopy((char *)buffer + index, bufferLen - index, REG_DEFAULT_PATH);
 2255              		.loc 1 723 0
 2256 005a BA68     		ldr	r2, [r7, #8]
 2257 005c 7B6A     		ldr	r3, [r7, #36]
 2258 005e D018     		adds	r0, r2, r3
 2259 0060 7A68     		ldr	r2, [r7, #4]
 2260 0062 7B6A     		ldr	r3, [r7, #36]
 2261 0064 D31A     		subs	r3, r2, r3
 2262 0066 674A     		ldr	r2, .L155+4
 2263 0068 1946     		mov	r1, r3
 2264 006a FFF7FEFF 		bl	utils_stringCopy
 2265 006e 3862     		str	r0, [r7, #32]
 2266              	.L137:
 724:D:/iot/felix2/components/connectivity/lwm2m/core\objects.c ****     }
 725:D:/iot/felix2/components/connectivity/lwm2m/core\objects.c ****     if (result < 0) return 0;
 2267              		.loc 1 725 0
 2268 0070 3B6A     		ldr	r3, [r7, #32]
 2269 0072 002B     		cmp	r3, #0
 2270 0074 01DA     		bge	.L138
 2271              		.loc 1 725 0 is_stmt 0 discriminator 1
 2272 0076 0023     		movs	r3, #0
 2273 0078 BDE0     		b	.L135
 2274              	.L138:
 726:D:/iot/felix2/components/connectivity/lwm2m/core\objects.c ****     index += result;
 2275              		.loc 1 726 0 is_stmt 1
 2276 007a 3B6A     		ldr	r3, [r7, #32]
 2277 007c 7A6A     		ldr	r2, [r7, #36]
 2278 007e 1344     		add	r3, r3, r2
 2279 0080 7B62     		str	r3, [r7, #36]
 727:D:/iot/felix2/components/connectivity/lwm2m/core\objects.c **** 
 728:D:/iot/felix2/components/connectivity/lwm2m/core\objects.c ****     result = utils_stringCopy((char *)buffer + index, bufferLen - index, REG_LWM2M_RESOURCE_TYPE);
 2280              		.loc 1 728 0
 2281 0082 BA68     		ldr	r2, [r7, #8]
 2282 0084 7B6A     		ldr	r3, [r7, #36]
 2283 0086 D018     		adds	r0, r2, r3
 2284 0088 7A68     		ldr	r2, [r7, #4]
 2285 008a 7B6A     		ldr	r3, [r7, #36]
 2286 008c D31A     		subs	r3, r2, r3
 2287 008e 5E4A     		ldr	r2, .L155+8
 2288 0090 1946     		mov	r1, r3
 2289 0092 FFF7FEFF 		bl	utils_stringCopy
 2290 0096 3862     		str	r0, [r7, #32]
 729:D:/iot/felix2/components/connectivity/lwm2m/core\objects.c ****     if (result < 0) return 0;
 2291              		.loc 1 729 0
 2292 0098 3B6A     		ldr	r3, [r7, #32]
 2293 009a 002B     		cmp	r3, #0
 2294 009c 01DA     		bge	.L139
 2295              		.loc 1 729 0 is_stmt 0 discriminator 1
 2296 009e 0023     		movs	r3, #0
 2297 00a0 A9E0     		b	.L135
ARM GAS  C:\Users\91458\AppData\Local\Temp\ccFd4Rch.s 			page 54


 2298              	.L139:
 730:D:/iot/felix2/components/connectivity/lwm2m/core\objects.c ****     index += result;
 2299              		.loc 1 730 0 is_stmt 1
 2300 00a2 3B6A     		ldr	r3, [r7, #32]
 2301 00a4 7A6A     		ldr	r2, [r7, #36]
 2302 00a6 1344     		add	r3, r3, r2
 2303 00a8 7B62     		str	r3, [r7, #36]
 731:D:/iot/felix2/components/connectivity/lwm2m/core\objects.c **** 
 732:D:/iot/felix2/components/connectivity/lwm2m/core\objects.c ****     for (objectP = contextP->objectList; objectP != NULL; objectP = objectP->next)
 2304              		.loc 1 732 0
 2305 00aa FB68     		ldr	r3, [r7, #12]
 2306 00ac 9B69     		ldr	r3, [r3, #24]
 2307 00ae FB61     		str	r3, [r7, #28]
 2308 00b0 91E0     		b	.L140
 2309              	.L152:
 2310              	.LBB8:
 733:D:/iot/felix2/components/connectivity/lwm2m/core\objects.c ****     {
 734:D:/iot/felix2/components/connectivity/lwm2m/core\objects.c ****         size_t start;
 735:D:/iot/felix2/components/connectivity/lwm2m/core\objects.c ****         size_t length;
 736:D:/iot/felix2/components/connectivity/lwm2m/core\objects.c **** 
 737:D:/iot/felix2/components/connectivity/lwm2m/core\objects.c ****         if (objectP->objID == LWM2M_SECURITY_OBJECT_ID) continue;
 2311              		.loc 1 737 0
 2312 00b2 FB69     		ldr	r3, [r7, #28]
 2313 00b4 9B88     		ldrh	r3, [r3, #4]
 2314 00b6 002B     		cmp	r3, #0
 2315 00b8 00F08980 		beq	.L154
 738:D:/iot/felix2/components/connectivity/lwm2m/core\objects.c **** 
 739:D:/iot/felix2/components/connectivity/lwm2m/core\objects.c ****         start = index;
 2316              		.loc 1 739 0
 2317 00bc 7B6A     		ldr	r3, [r7, #36]
 2318 00be 7B61     		str	r3, [r7, #20]
 740:D:/iot/felix2/components/connectivity/lwm2m/core\objects.c ****         result = prv_getObjectTemplate(buffer + index, bufferLen - index, objectP->objID);
 2319              		.loc 1 740 0
 2320 00c0 BA68     		ldr	r2, [r7, #8]
 2321 00c2 7B6A     		ldr	r3, [r7, #36]
 2322 00c4 D018     		adds	r0, r2, r3
 2323 00c6 7A68     		ldr	r2, [r7, #4]
 2324 00c8 7B6A     		ldr	r3, [r7, #36]
 2325 00ca D11A     		subs	r1, r2, r3
 2326 00cc FB69     		ldr	r3, [r7, #28]
 2327 00ce 9B88     		ldrh	r3, [r3, #4]
 2328 00d0 1A46     		mov	r2, r3
 2329 00d2 FFF7FEFF 		bl	prv_getObjectTemplate
 2330 00d6 3862     		str	r0, [r7, #32]
 741:D:/iot/felix2/components/connectivity/lwm2m/core\objects.c ****         if (result < 0) return 0;
 2331              		.loc 1 741 0
 2332 00d8 3B6A     		ldr	r3, [r7, #32]
 2333 00da 002B     		cmp	r3, #0
 2334 00dc 01DA     		bge	.L143
 2335              		.loc 1 741 0 is_stmt 0 discriminator 1
 2336 00de 0023     		movs	r3, #0
 2337 00e0 89E0     		b	.L135
 2338              	.L143:
 742:D:/iot/felix2/components/connectivity/lwm2m/core\objects.c ****         length = result;
 2339              		.loc 1 742 0 is_stmt 1
 2340 00e2 3B6A     		ldr	r3, [r7, #32]
 2341 00e4 3B61     		str	r3, [r7, #16]
ARM GAS  C:\Users\91458\AppData\Local\Temp\ccFd4Rch.s 			page 55


 743:D:/iot/felix2/components/connectivity/lwm2m/core\objects.c ****         index += length;
 2342              		.loc 1 743 0
 2343 00e6 7A6A     		ldr	r2, [r7, #36]
 2344 00e8 3B69     		ldr	r3, [r7, #16]
 2345 00ea 1344     		add	r3, r3, r2
 2346 00ec 7B62     		str	r3, [r7, #36]
 744:D:/iot/felix2/components/connectivity/lwm2m/core\objects.c **** 
 745:D:/iot/felix2/components/connectivity/lwm2m/core\objects.c ****         if (objectP->instanceList == NULL)
 2347              		.loc 1 745 0
 2348 00ee FB69     		ldr	r3, [r7, #28]
 2349 00f0 9B68     		ldr	r3, [r3, #8]
 2350 00f2 002B     		cmp	r3, #0
 2351 00f4 17D1     		bne	.L144
 746:D:/iot/felix2/components/connectivity/lwm2m/core\objects.c ****         {
 747:D:/iot/felix2/components/connectivity/lwm2m/core\objects.c ****             index--;
 2352              		.loc 1 747 0
 2353 00f6 7B6A     		ldr	r3, [r7, #36]
 2354 00f8 013B     		subs	r3, r3, #1
 2355 00fa 7B62     		str	r3, [r7, #36]
 748:D:/iot/felix2/components/connectivity/lwm2m/core\objects.c ****             result = utils_stringCopy((char *)buffer + index, bufferLen - index, REG_PATH_END);
 2356              		.loc 1 748 0
 2357 00fc BA68     		ldr	r2, [r7, #8]
 2358 00fe 7B6A     		ldr	r3, [r7, #36]
 2359 0100 D018     		adds	r0, r2, r3
 2360 0102 7A68     		ldr	r2, [r7, #4]
 2361 0104 7B6A     		ldr	r3, [r7, #36]
 2362 0106 D31A     		subs	r3, r2, r3
 2363 0108 404A     		ldr	r2, .L155+12
 2364 010a 1946     		mov	r1, r3
 2365 010c FFF7FEFF 		bl	utils_stringCopy
 2366 0110 3862     		str	r0, [r7, #32]
 749:D:/iot/felix2/components/connectivity/lwm2m/core\objects.c ****             if (result < 0) return 0;
 2367              		.loc 1 749 0
 2368 0112 3B6A     		ldr	r3, [r7, #32]
 2369 0114 002B     		cmp	r3, #0
 2370 0116 01DA     		bge	.L145
 2371              		.loc 1 749 0 is_stmt 0 discriminator 1
 2372 0118 0023     		movs	r3, #0
 2373 011a 6CE0     		b	.L135
 2374              	.L145:
 750:D:/iot/felix2/components/connectivity/lwm2m/core\objects.c ****             index += result;
 2375              		.loc 1 750 0 is_stmt 1
 2376 011c 3B6A     		ldr	r3, [r7, #32]
 2377 011e 7A6A     		ldr	r2, [r7, #36]
 2378 0120 1344     		add	r3, r3, r2
 2379 0122 7B62     		str	r3, [r7, #36]
 2380 0124 54E0     		b	.L142
 2381              	.L144:
 2382              	.LBB9:
 751:D:/iot/felix2/components/connectivity/lwm2m/core\objects.c ****         }
 752:D:/iot/felix2/components/connectivity/lwm2m/core\objects.c ****         else
 753:D:/iot/felix2/components/connectivity/lwm2m/core\objects.c ****         {
 754:D:/iot/felix2/components/connectivity/lwm2m/core\objects.c ****             lwm2m_list_t *targetP;
 755:D:/iot/felix2/components/connectivity/lwm2m/core\objects.c ****             for (targetP = objectP->instanceList ; targetP != NULL ; targetP = targetP->next)
 2383              		.loc 1 755 0
 2384 0126 FB69     		ldr	r3, [r7, #28]
 2385 0128 9B68     		ldr	r3, [r3, #8]
ARM GAS  C:\Users\91458\AppData\Local\Temp\ccFd4Rch.s 			page 56


 2386 012a BB61     		str	r3, [r7, #24]
 2387 012c 4BE0     		b	.L146
 2388              	.L151:
 756:D:/iot/felix2/components/connectivity/lwm2m/core\objects.c ****             {
 757:D:/iot/felix2/components/connectivity/lwm2m/core\objects.c ****                 if (index != start + length)
 2389              		.loc 1 757 0
 2390 012e 7A69     		ldr	r2, [r7, #20]
 2391 0130 3B69     		ldr	r3, [r7, #16]
 2392 0132 1344     		add	r3, r3, r2
 2393 0134 7A6A     		ldr	r2, [r7, #36]
 2394 0136 9A42     		cmp	r2, r3
 2395 0138 15D0     		beq	.L147
 758:D:/iot/felix2/components/connectivity/lwm2m/core\objects.c ****                 {
 759:D:/iot/felix2/components/connectivity/lwm2m/core\objects.c ****                     if (bufferLen - index <= length) return 0;
 2396              		.loc 1 759 0
 2397 013a 7A68     		ldr	r2, [r7, #4]
 2398 013c 7B6A     		ldr	r3, [r7, #36]
 2399 013e D31A     		subs	r3, r2, r3
 2400 0140 3A69     		ldr	r2, [r7, #16]
 2401 0142 9A42     		cmp	r2, r3
 2402 0144 01D3     		bcc	.L148
 2403              		.loc 1 759 0 is_stmt 0 discriminator 1
 2404 0146 0023     		movs	r3, #0
 2405 0148 55E0     		b	.L135
 2406              	.L148:
 760:D:/iot/felix2/components/connectivity/lwm2m/core\objects.c ****                     memcpy(buffer + index, buffer + start, length);
 2407              		.loc 1 760 0 is_stmt 1
 2408 014a BA68     		ldr	r2, [r7, #8]
 2409 014c 7B6A     		ldr	r3, [r7, #36]
 2410 014e D018     		adds	r0, r2, r3
 2411 0150 BA68     		ldr	r2, [r7, #8]
 2412 0152 7B69     		ldr	r3, [r7, #20]
 2413 0154 1344     		add	r3, r3, r2
 2414 0156 3A69     		ldr	r2, [r7, #16]
 2415 0158 1946     		mov	r1, r3
 2416 015a FFF7FEFF 		bl	memcpy
 761:D:/iot/felix2/components/connectivity/lwm2m/core\objects.c ****                     index += length;
 2417              		.loc 1 761 0
 2418 015e 7A6A     		ldr	r2, [r7, #36]
 2419 0160 3B69     		ldr	r3, [r7, #16]
 2420 0162 1344     		add	r3, r3, r2
 2421 0164 7B62     		str	r3, [r7, #36]
 2422              	.L147:
 762:D:/iot/felix2/components/connectivity/lwm2m/core\objects.c ****                 }
 763:D:/iot/felix2/components/connectivity/lwm2m/core\objects.c **** 
 764:D:/iot/felix2/components/connectivity/lwm2m/core\objects.c ****                 result = utils_intToText(targetP->id, buffer + index, bufferLen - index);
 2423              		.loc 1 764 0
 2424 0166 BB69     		ldr	r3, [r7, #24]
 2425 0168 9B88     		ldrh	r3, [r3, #4]
 2426 016a 98B2     		uxth	r0, r3
 2427 016c 4FF00001 		mov	r1, #0
 2428 0170 BA68     		ldr	r2, [r7, #8]
 2429 0172 7B6A     		ldr	r3, [r7, #36]
 2430 0174 D418     		adds	r4, r2, r3
 2431 0176 7A68     		ldr	r2, [r7, #4]
 2432 0178 7B6A     		ldr	r3, [r7, #36]
 2433 017a D31A     		subs	r3, r2, r3
ARM GAS  C:\Users\91458\AppData\Local\Temp\ccFd4Rch.s 			page 57


 2434 017c 2246     		mov	r2, r4
 2435 017e FFF7FEFF 		bl	utils_intToText
 2436 0182 0346     		mov	r3, r0
 2437 0184 3B62     		str	r3, [r7, #32]
 765:D:/iot/felix2/components/connectivity/lwm2m/core\objects.c ****                 if (result == 0) return 0;
 2438              		.loc 1 765 0
 2439 0186 3B6A     		ldr	r3, [r7, #32]
 2440 0188 002B     		cmp	r3, #0
 2441 018a 01D1     		bne	.L149
 2442              		.loc 1 765 0 is_stmt 0 discriminator 1
 2443 018c 0023     		movs	r3, #0
 2444 018e 32E0     		b	.L135
 2445              	.L149:
 766:D:/iot/felix2/components/connectivity/lwm2m/core\objects.c ****                 index += result;
 2446              		.loc 1 766 0 is_stmt 1
 2447 0190 3B6A     		ldr	r3, [r7, #32]
 2448 0192 7A6A     		ldr	r2, [r7, #36]
 2449 0194 1344     		add	r3, r3, r2
 2450 0196 7B62     		str	r3, [r7, #36]
 767:D:/iot/felix2/components/connectivity/lwm2m/core\objects.c **** 
 768:D:/iot/felix2/components/connectivity/lwm2m/core\objects.c ****                 result = utils_stringCopy((char *)buffer + index, bufferLen - index, REG_PATH_END);
 2451              		.loc 1 768 0
 2452 0198 BA68     		ldr	r2, [r7, #8]
 2453 019a 7B6A     		ldr	r3, [r7, #36]
 2454 019c D018     		adds	r0, r2, r3
 2455 019e 7A68     		ldr	r2, [r7, #4]
 2456 01a0 7B6A     		ldr	r3, [r7, #36]
 2457 01a2 D31A     		subs	r3, r2, r3
 2458 01a4 194A     		ldr	r2, .L155+12
 2459 01a6 1946     		mov	r1, r3
 2460 01a8 FFF7FEFF 		bl	utils_stringCopy
 2461 01ac 3862     		str	r0, [r7, #32]
 769:D:/iot/felix2/components/connectivity/lwm2m/core\objects.c ****                 if (result < 0) return 0;
 2462              		.loc 1 769 0
 2463 01ae 3B6A     		ldr	r3, [r7, #32]
 2464 01b0 002B     		cmp	r3, #0
 2465 01b2 01DA     		bge	.L150
 2466              		.loc 1 769 0 is_stmt 0 discriminator 1
 2467 01b4 0023     		movs	r3, #0
 2468 01b6 1EE0     		b	.L135
 2469              	.L150:
 770:D:/iot/felix2/components/connectivity/lwm2m/core\objects.c ****                 index += result;
 2470              		.loc 1 770 0 is_stmt 1 discriminator 2
 2471 01b8 3B6A     		ldr	r3, [r7, #32]
 2472 01ba 7A6A     		ldr	r2, [r7, #36]
 2473 01bc 1344     		add	r3, r3, r2
 2474 01be 7B62     		str	r3, [r7, #36]
 755:D:/iot/felix2/components/connectivity/lwm2m/core\objects.c ****             {
 2475              		.loc 1 755 0 discriminator 2
 2476 01c0 BB69     		ldr	r3, [r7, #24]
 2477 01c2 1B68     		ldr	r3, [r3]
 2478 01c4 BB61     		str	r3, [r7, #24]
 2479              	.L146:
 755:D:/iot/felix2/components/connectivity/lwm2m/core\objects.c ****             {
 2480              		.loc 1 755 0 is_stmt 0 discriminator 1
 2481 01c6 BB69     		ldr	r3, [r7, #24]
 2482 01c8 002B     		cmp	r3, #0
ARM GAS  C:\Users\91458\AppData\Local\Temp\ccFd4Rch.s 			page 58


 2483 01ca B0D1     		bne	.L151
 2484 01cc 00E0     		b	.L142
 2485              	.L154:
 2486              	.LBE9:
 737:D:/iot/felix2/components/connectivity/lwm2m/core\objects.c **** 
 2487              		.loc 1 737 0 is_stmt 1
 2488 01ce 00BF     		nop
 2489              	.L142:
 2490              	.LBE8:
 732:D:/iot/felix2/components/connectivity/lwm2m/core\objects.c ****     {
 2491              		.loc 1 732 0 discriminator 2
 2492 01d0 FB69     		ldr	r3, [r7, #28]
 2493 01d2 1B68     		ldr	r3, [r3]
 2494 01d4 FB61     		str	r3, [r7, #28]
 2495              	.L140:
 732:D:/iot/felix2/components/connectivity/lwm2m/core\objects.c ****     {
 2496              		.loc 1 732 0 is_stmt 0 discriminator 1
 2497 01d6 FB69     		ldr	r3, [r7, #28]
 2498 01d8 002B     		cmp	r3, #0
 2499 01da 7FF46AAF 		bne	.L152
 771:D:/iot/felix2/components/connectivity/lwm2m/core\objects.c ****             }
 772:D:/iot/felix2/components/connectivity/lwm2m/core\objects.c ****         }
 773:D:/iot/felix2/components/connectivity/lwm2m/core\objects.c ****     }
 774:D:/iot/felix2/components/connectivity/lwm2m/core\objects.c **** 
 775:D:/iot/felix2/components/connectivity/lwm2m/core\objects.c ****     if (index > 0)
 2500              		.loc 1 775 0 is_stmt 1
 2501 01de 7B6A     		ldr	r3, [r7, #36]
 2502 01e0 002B     		cmp	r3, #0
 2503 01e2 02D0     		beq	.L153
 776:D:/iot/felix2/components/connectivity/lwm2m/core\objects.c ****     {
 777:D:/iot/felix2/components/connectivity/lwm2m/core\objects.c ****         index = index - 1;  // remove trailing ','
 2504              		.loc 1 777 0
 2505 01e4 7B6A     		ldr	r3, [r7, #36]
 2506 01e6 013B     		subs	r3, r3, #1
 2507 01e8 7B62     		str	r3, [r7, #36]
 2508              	.L153:
 778:D:/iot/felix2/components/connectivity/lwm2m/core\objects.c ****     }
 779:D:/iot/felix2/components/connectivity/lwm2m/core\objects.c **** 
 780:D:/iot/felix2/components/connectivity/lwm2m/core\objects.c ****     buffer[index] = 0;
 2509              		.loc 1 780 0
 2510 01ea BA68     		ldr	r2, [r7, #8]
 2511 01ec 7B6A     		ldr	r3, [r7, #36]
 2512 01ee 1344     		add	r3, r3, r2
 2513 01f0 0022     		movs	r2, #0
 2514 01f2 1A70     		strb	r2, [r3]
 781:D:/iot/felix2/components/connectivity/lwm2m/core\objects.c **** 
 782:D:/iot/felix2/components/connectivity/lwm2m/core\objects.c ****     return index;
 2515              		.loc 1 782 0
 2516 01f4 7B6A     		ldr	r3, [r7, #36]
 2517              	.L135:
 783:D:/iot/felix2/components/connectivity/lwm2m/core\objects.c **** }
 2518              		.loc 1 783 0
 2519 01f6 1846     		mov	r0, r3
 2520 01f8 2C37     		adds	r7, r7, #44
 2521              	.LCFI68:
 2522              		.cfi_def_cfa_offset 12
 2523 01fa BD46     		mov	sp, r7
ARM GAS  C:\Users\91458\AppData\Local\Temp\ccFd4Rch.s 			page 59


 2524              	.LCFI69:
 2525              		.cfi_def_cfa_register 13
 2526              		@ sp needed
 2527 01fc 90BD     		pop	{r4, r7, pc}
 2528              	.L156:
 2529 01fe 00BF     		.align	2
 2530              	.L155:
 2531 0200 00000000 		.word	.LC0
 2532 0204 04000000 		.word	.LC1
 2533 0208 08000000 		.word	.LC2
 2534 020c 1C000000 		.word	.LC3
 2535              		.cfi_endproc
 2536              	.LFE155:
 2538              		.section	.text.prv_findServerInstance,"ax",%progbits
 2539              		.align	1
 2540              		.syntax unified
 2541              		.thumb
 2542              		.thumb_func
 2543              		.fpu fpv4-sp-d16
 2545              	prv_findServerInstance:
 2546              	.LFB156:
 784:D:/iot/felix2/components/connectivity/lwm2m/core\objects.c **** 
 785:D:/iot/felix2/components/connectivity/lwm2m/core\objects.c **** static lwm2m_list_t *prv_findServerInstance(lwm2m_object_t *objectP,
 786:D:/iot/felix2/components/connectivity/lwm2m/core\objects.c ****         uint16_t shortID)
 787:D:/iot/felix2/components/connectivity/lwm2m/core\objects.c **** {
 2547              		.loc 1 787 0
 2548              		.cfi_startproc
 2549              		@ args = 0, pretend = 0, frame = 32
 2550              		@ frame_needed = 1, uses_anonymous_args = 0
 2551 0000 90B5     		push	{r4, r7, lr}
 2552              	.LCFI70:
 2553              		.cfi_def_cfa_offset 12
 2554              		.cfi_offset 4, -12
 2555              		.cfi_offset 7, -8
 2556              		.cfi_offset 14, -4
 2557 0002 8BB0     		sub	sp, sp, #44
 2558              	.LCFI71:
 2559              		.cfi_def_cfa_offset 56
 2560 0004 02AF     		add	r7, sp, #8
 2561              	.LCFI72:
 2562              		.cfi_def_cfa 7, 48
 2563 0006 7860     		str	r0, [r7, #4]
 2564 0008 0B46     		mov	r3, r1
 2565 000a 7B80     		strh	r3, [r7, #2]	@ movhi
 788:D:/iot/felix2/components/connectivity/lwm2m/core\objects.c ****     lwm2m_list_t *instanceP;
 789:D:/iot/felix2/components/connectivity/lwm2m/core\objects.c **** 
 790:D:/iot/felix2/components/connectivity/lwm2m/core\objects.c ****     instanceP = objectP->instanceList;
 2566              		.loc 1 790 0
 2567 000c 7B68     		ldr	r3, [r7, #4]
 2568 000e 9B68     		ldr	r3, [r3, #8]
 2569 0010 FB61     		str	r3, [r7, #28]
 791:D:/iot/felix2/components/connectivity/lwm2m/core\objects.c ****     while (NULL != instanceP)
 2570              		.loc 1 791 0
 2571 0012 49E0     		b	.L158
 2572              	.L165:
 2573              	.LBB10:
 792:D:/iot/felix2/components/connectivity/lwm2m/core\objects.c ****     {
ARM GAS  C:\Users\91458\AppData\Local\Temp\ccFd4Rch.s 			page 60


 793:D:/iot/felix2/components/connectivity/lwm2m/core\objects.c ****         int64_t value;
 794:D:/iot/felix2/components/connectivity/lwm2m/core\objects.c ****         lwm2m_data_t *dataP;
 795:D:/iot/felix2/components/connectivity/lwm2m/core\objects.c ****         int size;
 796:D:/iot/felix2/components/connectivity/lwm2m/core\objects.c **** 
 797:D:/iot/felix2/components/connectivity/lwm2m/core\objects.c ****         size = 1;
 2574              		.loc 1 797 0
 2575 0014 0123     		movs	r3, #1
 2576 0016 BB60     		str	r3, [r7, #8]
 798:D:/iot/felix2/components/connectivity/lwm2m/core\objects.c ****         dataP = lwm2m_data_new(size);
 2577              		.loc 1 798 0
 2578 0018 BB68     		ldr	r3, [r7, #8]
 2579 001a 1846     		mov	r0, r3
 2580 001c FFF7FEFF 		bl	lwm2m_data_new
 2581 0020 0346     		mov	r3, r0
 2582 0022 FB60     		str	r3, [r7, #12]
 799:D:/iot/felix2/components/connectivity/lwm2m/core\objects.c ****         if (dataP == NULL) return NULL;
 2583              		.loc 1 799 0
 2584 0024 FB68     		ldr	r3, [r7, #12]
 2585 0026 002B     		cmp	r3, #0
 2586 0028 01D1     		bne	.L159
 2587              		.loc 1 799 0 is_stmt 0 discriminator 1
 2588 002a 0023     		movs	r3, #0
 2589 002c 40E0     		b	.L164
 2590              	.L159:
 800:D:/iot/felix2/components/connectivity/lwm2m/core\objects.c ****         dataP->id = LWM2M_SERVER_SHORT_ID_ID;
 2591              		.loc 1 800 0 is_stmt 1
 2592 002e FB68     		ldr	r3, [r7, #12]
 2593 0030 0022     		movs	r2, #0
 2594 0032 5A80     		strh	r2, [r3, #2]	@ movhi
 801:D:/iot/felix2/components/connectivity/lwm2m/core\objects.c **** 
 802:D:/iot/felix2/components/connectivity/lwm2m/core\objects.c ****         if (objectP->readFunc(instanceP->id, &size, &dataP, NULL, objectP) != COAP_205_CONTENT)
 2595              		.loc 1 802 0
 2596 0034 7B68     		ldr	r3, [r7, #4]
 2597 0036 DC68     		ldr	r4, [r3, #12]
 2598 0038 FB69     		ldr	r3, [r7, #28]
 2599 003a 9888     		ldrh	r0, [r3, #4]
 2600 003c 07F10C02 		add	r2, r7, #12
 2601 0040 07F10801 		add	r1, r7, #8
 2602 0044 7B68     		ldr	r3, [r7, #4]
 2603 0046 0093     		str	r3, [sp]
 2604 0048 0023     		movs	r3, #0
 2605 004a A047     		blx	r4
 2606              	.LVL12:
 2607 004c 0346     		mov	r3, r0
 2608 004e 452B     		cmp	r3, #69
 2609 0050 07D0     		beq	.L161
 803:D:/iot/felix2/components/connectivity/lwm2m/core\objects.c ****         {
 804:D:/iot/felix2/components/connectivity/lwm2m/core\objects.c ****             lwm2m_data_free(size, dataP);
 2610              		.loc 1 804 0
 2611 0052 BB68     		ldr	r3, [r7, #8]
 2612 0054 FA68     		ldr	r2, [r7, #12]
 2613 0056 1146     		mov	r1, r2
 2614 0058 1846     		mov	r0, r3
 2615 005a FFF7FEFF 		bl	lwm2m_data_free
 805:D:/iot/felix2/components/connectivity/lwm2m/core\objects.c ****             return NULL;
 2616              		.loc 1 805 0
 2617 005e 0023     		movs	r3, #0
ARM GAS  C:\Users\91458\AppData\Local\Temp\ccFd4Rch.s 			page 61


 2618 0060 26E0     		b	.L164
 2619              	.L161:
 806:D:/iot/felix2/components/connectivity/lwm2m/core\objects.c ****         }
 807:D:/iot/felix2/components/connectivity/lwm2m/core\objects.c **** 
 808:D:/iot/felix2/components/connectivity/lwm2m/core\objects.c ****         if (1 == lwm2m_data_decode_int(dataP, &value))
 2620              		.loc 1 808 0
 2621 0062 FB68     		ldr	r3, [r7, #12]
 2622 0064 07F11002 		add	r2, r7, #16
 2623 0068 1146     		mov	r1, r2
 2624 006a 1846     		mov	r0, r3
 2625 006c FFF7FEFF 		bl	lwm2m_data_decode_int
 2626 0070 0346     		mov	r3, r0
 2627 0072 012B     		cmp	r3, #1
 2628 0074 0FD1     		bne	.L162
 809:D:/iot/felix2/components/connectivity/lwm2m/core\objects.c ****         {
 810:D:/iot/felix2/components/connectivity/lwm2m/core\objects.c ****             if (value == shortID)
 2629              		.loc 1 810 0
 2630 0076 7988     		ldrh	r1, [r7, #2]
 2631 0078 4FF00002 		mov	r2, #0
 2632 007c D7E90434 		ldrd	r3, [r7, #16]
 2633 0080 A242     		cmp	r2, r4
 2634 0082 08BF     		it	eq
 2635 0084 9942     		cmpeq	r1, r3
 2636 0086 06D1     		bne	.L162
 811:D:/iot/felix2/components/connectivity/lwm2m/core\objects.c ****             {
 812:D:/iot/felix2/components/connectivity/lwm2m/core\objects.c ****                 lwm2m_data_free(size, dataP);
 2637              		.loc 1 812 0
 2638 0088 BB68     		ldr	r3, [r7, #8]
 2639 008a FA68     		ldr	r2, [r7, #12]
 2640 008c 1146     		mov	r1, r2
 2641 008e 1846     		mov	r0, r3
 2642 0090 FFF7FEFF 		bl	lwm2m_data_free
 2643 0094 0BE0     		b	.L163
 2644              	.L162:
 813:D:/iot/felix2/components/connectivity/lwm2m/core\objects.c ****                 break;
 814:D:/iot/felix2/components/connectivity/lwm2m/core\objects.c ****             }
 815:D:/iot/felix2/components/connectivity/lwm2m/core\objects.c ****         }
 816:D:/iot/felix2/components/connectivity/lwm2m/core\objects.c ****         lwm2m_data_free(size, dataP);
 2645              		.loc 1 816 0
 2646 0096 BB68     		ldr	r3, [r7, #8]
 2647 0098 FA68     		ldr	r2, [r7, #12]
 2648 009a 1146     		mov	r1, r2
 2649 009c 1846     		mov	r0, r3
 2650 009e FFF7FEFF 		bl	lwm2m_data_free
 817:D:/iot/felix2/components/connectivity/lwm2m/core\objects.c ****         instanceP = instanceP->next;
 2651              		.loc 1 817 0
 2652 00a2 FB69     		ldr	r3, [r7, #28]
 2653 00a4 1B68     		ldr	r3, [r3]
 2654 00a6 FB61     		str	r3, [r7, #28]
 2655              	.L158:
 2656              	.LBE10:
 791:D:/iot/felix2/components/connectivity/lwm2m/core\objects.c ****     {
 2657              		.loc 1 791 0
 2658 00a8 FB69     		ldr	r3, [r7, #28]
 2659 00aa 002B     		cmp	r3, #0
 2660 00ac B2D1     		bne	.L165
 2661              	.L163:
ARM GAS  C:\Users\91458\AppData\Local\Temp\ccFd4Rch.s 			page 62


 818:D:/iot/felix2/components/connectivity/lwm2m/core\objects.c ****     }
 819:D:/iot/felix2/components/connectivity/lwm2m/core\objects.c **** 
 820:D:/iot/felix2/components/connectivity/lwm2m/core\objects.c ****     return instanceP;
 2662              		.loc 1 820 0
 2663 00ae FB69     		ldr	r3, [r7, #28]
 2664              	.L164:
 821:D:/iot/felix2/components/connectivity/lwm2m/core\objects.c **** }
 2665              		.loc 1 821 0
 2666 00b0 1846     		mov	r0, r3
 2667 00b2 2437     		adds	r7, r7, #36
 2668              	.LCFI73:
 2669              		.cfi_def_cfa_offset 12
 2670 00b4 BD46     		mov	sp, r7
 2671              	.LCFI74:
 2672              		.cfi_def_cfa_register 13
 2673              		@ sp needed
 2674 00b6 90BD     		pop	{r4, r7, pc}
 2675              		.cfi_endproc
 2676              	.LFE156:
 2678              		.section	.text.prv_getMandatoryInfo,"ax",%progbits
 2679              		.align	1
 2680              		.syntax unified
 2681              		.thumb
 2682              		.thumb_func
 2683              		.fpu fpv4-sp-d16
 2685              	prv_getMandatoryInfo:
 2686              	.LFB157:
 822:D:/iot/felix2/components/connectivity/lwm2m/core\objects.c **** 
 823:D:/iot/felix2/components/connectivity/lwm2m/core\objects.c **** static int prv_getMandatoryInfo(lwm2m_object_t *objectP,
 824:D:/iot/felix2/components/connectivity/lwm2m/core\objects.c ****                                 uint16_t instanceID,
 825:D:/iot/felix2/components/connectivity/lwm2m/core\objects.c ****                                 lwm2m_server_t *targetP)
 826:D:/iot/felix2/components/connectivity/lwm2m/core\objects.c **** {
 2687              		.loc 1 826 0
 2688              		.cfi_startproc
 2689              		@ args = 0, pretend = 0, frame = 32
 2690              		@ frame_needed = 1, uses_anonymous_args = 0
 2691 0000 90B5     		push	{r4, r7, lr}
 2692              	.LCFI75:
 2693              		.cfi_def_cfa_offset 12
 2694              		.cfi_offset 4, -12
 2695              		.cfi_offset 7, -8
 2696              		.cfi_offset 14, -4
 2697 0002 8BB0     		sub	sp, sp, #44
 2698              	.LCFI76:
 2699              		.cfi_def_cfa_offset 56
 2700 0004 02AF     		add	r7, sp, #8
 2701              	.LCFI77:
 2702              		.cfi_def_cfa 7, 48
 2703 0006 F860     		str	r0, [r7, #12]
 2704 0008 0B46     		mov	r3, r1
 2705 000a 7A60     		str	r2, [r7, #4]
 2706 000c 7B81     		strh	r3, [r7, #10]	@ movhi
 827:D:/iot/felix2/components/connectivity/lwm2m/core\objects.c ****     lwm2m_data_t *dataP;
 828:D:/iot/felix2/components/connectivity/lwm2m/core\objects.c ****     int size;
 829:D:/iot/felix2/components/connectivity/lwm2m/core\objects.c ****     int64_t value;
 830:D:/iot/felix2/components/connectivity/lwm2m/core\objects.c **** 
 831:D:/iot/felix2/components/connectivity/lwm2m/core\objects.c ****     size = 2;
ARM GAS  C:\Users\91458\AppData\Local\Temp\ccFd4Rch.s 			page 63


 2707              		.loc 1 831 0
 2708 000e 0223     		movs	r3, #2
 2709 0010 BB61     		str	r3, [r7, #24]
 832:D:/iot/felix2/components/connectivity/lwm2m/core\objects.c ****     dataP = lwm2m_data_new(size);
 2710              		.loc 1 832 0
 2711 0012 BB69     		ldr	r3, [r7, #24]
 2712 0014 1846     		mov	r0, r3
 2713 0016 FFF7FEFF 		bl	lwm2m_data_new
 2714 001a 0346     		mov	r3, r0
 2715 001c FB61     		str	r3, [r7, #28]
 833:D:/iot/felix2/components/connectivity/lwm2m/core\objects.c ****     if (dataP == NULL) return -1;
 2716              		.loc 1 833 0
 2717 001e FB69     		ldr	r3, [r7, #28]
 2718 0020 002B     		cmp	r3, #0
 2719 0022 02D1     		bne	.L167
 2720              		.loc 1 833 0 is_stmt 0 discriminator 1
 2721 0024 4FF0FF33 		mov	r3, #-1
 2722 0028 5DE0     		b	.L173
 2723              	.L167:
 834:D:/iot/felix2/components/connectivity/lwm2m/core\objects.c ****     dataP[0].id = LWM2M_SERVER_LIFETIME_ID;
 2724              		.loc 1 834 0 is_stmt 1
 2725 002a FB69     		ldr	r3, [r7, #28]
 2726 002c 0122     		movs	r2, #1
 2727 002e 5A80     		strh	r2, [r3, #2]	@ movhi
 835:D:/iot/felix2/components/connectivity/lwm2m/core\objects.c ****     dataP[1].id = LWM2M_SERVER_BINDING_ID;
 2728              		.loc 1 835 0
 2729 0030 FB69     		ldr	r3, [r7, #28]
 2730 0032 1033     		adds	r3, r3, #16
 2731 0034 0722     		movs	r2, #7
 2732 0036 5A80     		strh	r2, [r3, #2]	@ movhi
 836:D:/iot/felix2/components/connectivity/lwm2m/core\objects.c **** 
 837:D:/iot/felix2/components/connectivity/lwm2m/core\objects.c ****     if (objectP->readFunc(instanceID, &size, &dataP, NULL, objectP) != COAP_205_CONTENT)
 2733              		.loc 1 837 0
 2734 0038 FB68     		ldr	r3, [r7, #12]
 2735 003a DC68     		ldr	r4, [r3, #12]
 2736 003c 07F11C02 		add	r2, r7, #28
 2737 0040 07F11801 		add	r1, r7, #24
 2738 0044 7889     		ldrh	r0, [r7, #10]
 2739 0046 FB68     		ldr	r3, [r7, #12]
 2740 0048 0093     		str	r3, [sp]
 2741 004a 0023     		movs	r3, #0
 2742 004c A047     		blx	r4
 2743              	.LVL13:
 2744 004e 0346     		mov	r3, r0
 2745 0050 452B     		cmp	r3, #69
 2746 0052 08D0     		beq	.L169
 838:D:/iot/felix2/components/connectivity/lwm2m/core\objects.c ****     {
 839:D:/iot/felix2/components/connectivity/lwm2m/core\objects.c ****         lwm2m_data_free(size, dataP);
 2747              		.loc 1 839 0
 2748 0054 BB69     		ldr	r3, [r7, #24]
 2749 0056 FA69     		ldr	r2, [r7, #28]
 2750 0058 1146     		mov	r1, r2
 2751 005a 1846     		mov	r0, r3
 2752 005c FFF7FEFF 		bl	lwm2m_data_free
 840:D:/iot/felix2/components/connectivity/lwm2m/core\objects.c ****         return -1;
 2753              		.loc 1 840 0
 2754 0060 4FF0FF33 		mov	r3, #-1
ARM GAS  C:\Users\91458\AppData\Local\Temp\ccFd4Rch.s 			page 64


 2755 0064 3FE0     		b	.L173
 2756              	.L169:
 841:D:/iot/felix2/components/connectivity/lwm2m/core\objects.c ****     }
 842:D:/iot/felix2/components/connectivity/lwm2m/core\objects.c **** 
 843:D:/iot/felix2/components/connectivity/lwm2m/core\objects.c ****     if (0 == lwm2m_data_decode_int(dataP, &value)
 2757              		.loc 1 843 0
 2758 0066 FB69     		ldr	r3, [r7, #28]
 2759 0068 07F11002 		add	r2, r7, #16
 2760 006c 1146     		mov	r1, r2
 2761 006e 1846     		mov	r0, r3
 2762 0070 FFF7FEFF 		bl	lwm2m_data_decode_int
 2763 0074 0346     		mov	r3, r0
 2764 0076 002B     		cmp	r3, #0
 2765 0078 0BD0     		beq	.L170
 844:D:/iot/felix2/components/connectivity/lwm2m/core\objects.c ****             || value < 0 || value > 0xFFFFFFFF)            // This is an implementation limit
 2766              		.loc 1 844 0
 2767 007a D7E90434 		ldrd	r3, [r7, #16]
 2768 007e 002B     		cmp	r3, #0
 2769 0080 74F10003 		sbcs	r3, r4, #0
 2770 0084 05DB     		blt	.L170
 2771              		.loc 1 844 0 is_stmt 0 discriminator 1
 2772 0086 D7E90434 		ldrd	r3, [r7, #16]
 2773 008a 002B     		cmp	r3, #0
 2774 008c 74F10103 		sbcs	r3, r4, #1
 2775 0090 08DB     		blt	.L171
 2776              	.L170:
 845:D:/iot/felix2/components/connectivity/lwm2m/core\objects.c ****     {
 846:D:/iot/felix2/components/connectivity/lwm2m/core\objects.c ****         lwm2m_data_free(size, dataP);
 2777              		.loc 1 846 0 is_stmt 1
 2778 0092 BB69     		ldr	r3, [r7, #24]
 2779 0094 FA69     		ldr	r2, [r7, #28]
 2780 0096 1146     		mov	r1, r2
 2781 0098 1846     		mov	r0, r3
 2782 009a FFF7FEFF 		bl	lwm2m_data_free
 847:D:/iot/felix2/components/connectivity/lwm2m/core\objects.c ****         return -1;
 2783              		.loc 1 847 0
 2784 009e 4FF0FF33 		mov	r3, #-1
 2785 00a2 20E0     		b	.L173
 2786              	.L171:
 848:D:/iot/felix2/components/connectivity/lwm2m/core\objects.c ****     }
 849:D:/iot/felix2/components/connectivity/lwm2m/core\objects.c ****     targetP->lifetime = value;
 2787              		.loc 1 849 0
 2788 00a4 D7E90434 		ldrd	r3, [r7, #16]
 2789 00a8 7A68     		ldr	r2, [r7, #4]
 2790 00aa C2E90234 		strd	r3, [r2, #8]
 850:D:/iot/felix2/components/connectivity/lwm2m/core\objects.c **** 
 851:D:/iot/felix2/components/connectivity/lwm2m/core\objects.c ****     targetP->binding = utils_stringToBinding(dataP[1].value.asBuffer.buffer, dataP[1].value.asBuffe
 2791              		.loc 1 851 0
 2792 00ae FB69     		ldr	r3, [r7, #28]
 2793 00b0 1033     		adds	r3, r3, #16
 2794 00b2 DA68     		ldr	r2, [r3, #12]
 2795 00b4 FB69     		ldr	r3, [r7, #28]
 2796 00b6 1033     		adds	r3, r3, #16
 2797 00b8 9B68     		ldr	r3, [r3, #8]
 2798 00ba 1946     		mov	r1, r3
 2799 00bc 1046     		mov	r0, r2
 2800 00be FFF7FEFF 		bl	utils_stringToBinding
ARM GAS  C:\Users\91458\AppData\Local\Temp\ccFd4Rch.s 			page 65


 2801 00c2 0346     		mov	r3, r0
 2802 00c4 1A46     		mov	r2, r3
 2803 00c6 7B68     		ldr	r3, [r7, #4]
 2804 00c8 1A76     		strb	r2, [r3, #24]
 852:D:/iot/felix2/components/connectivity/lwm2m/core\objects.c **** 
 853:D:/iot/felix2/components/connectivity/lwm2m/core\objects.c ****     lwm2m_data_free(size, dataP);
 2805              		.loc 1 853 0
 2806 00ca BB69     		ldr	r3, [r7, #24]
 2807 00cc FA69     		ldr	r2, [r7, #28]
 2808 00ce 1146     		mov	r1, r2
 2809 00d0 1846     		mov	r0, r3
 2810 00d2 FFF7FEFF 		bl	lwm2m_data_free
 854:D:/iot/felix2/components/connectivity/lwm2m/core\objects.c **** 
 855:D:/iot/felix2/components/connectivity/lwm2m/core\objects.c ****     if (targetP->binding == BINDING_UNKNOWN)
 2811              		.loc 1 855 0
 2812 00d6 7B68     		ldr	r3, [r7, #4]
 2813 00d8 1B7E     		ldrb	r3, [r3, #24]	@ zero_extendqisi2
 2814 00da 002B     		cmp	r3, #0
 2815 00dc 02D1     		bne	.L172
 856:D:/iot/felix2/components/connectivity/lwm2m/core\objects.c ****     {
 857:D:/iot/felix2/components/connectivity/lwm2m/core\objects.c ****         return -1;
 2816              		.loc 1 857 0
 2817 00de 4FF0FF33 		mov	r3, #-1
 2818 00e2 00E0     		b	.L173
 2819              	.L172:
 858:D:/iot/felix2/components/connectivity/lwm2m/core\objects.c ****     }
 859:D:/iot/felix2/components/connectivity/lwm2m/core\objects.c **** 
 860:D:/iot/felix2/components/connectivity/lwm2m/core\objects.c ****     return 0;
 2820              		.loc 1 860 0
 2821 00e4 0023     		movs	r3, #0
 2822              	.L173:
 861:D:/iot/felix2/components/connectivity/lwm2m/core\objects.c **** }
 2823              		.loc 1 861 0 discriminator 1
 2824 00e6 1846     		mov	r0, r3
 2825 00e8 2437     		adds	r7, r7, #36
 2826              	.LCFI78:
 2827              		.cfi_def_cfa_offset 12
 2828 00ea BD46     		mov	sp, r7
 2829              	.LCFI79:
 2830              		.cfi_def_cfa_register 13
 2831              		@ sp needed
 2832 00ec 90BD     		pop	{r4, r7, pc}
 2833              		.cfi_endproc
 2834              	.LFE157:
 2836              		.section	.text.object_getServers,"ax",%progbits
 2837              		.align	1
 2838              		.global	object_getServers
 2839              		.syntax unified
 2840              		.thumb
 2841              		.thumb_func
 2842              		.fpu fpv4-sp-d16
 2844              	object_getServers:
 2845              	.LFB158:
 862:D:/iot/felix2/components/connectivity/lwm2m/core\objects.c **** 
 863:D:/iot/felix2/components/connectivity/lwm2m/core\objects.c **** int object_getServers(lwm2m_context_t *contextP, bool checkOnly)
 864:D:/iot/felix2/components/connectivity/lwm2m/core\objects.c **** {
 2846              		.loc 1 864 0
ARM GAS  C:\Users\91458\AppData\Local\Temp\ccFd4Rch.s 			page 66


 2847              		.cfi_startproc
 2848              		@ args = 0, pretend = 0, frame = 56
 2849              		@ frame_needed = 1, uses_anonymous_args = 0
 2850 0000 90B5     		push	{r4, r7, lr}
 2851              	.LCFI80:
 2852              		.cfi_def_cfa_offset 12
 2853              		.cfi_offset 4, -12
 2854              		.cfi_offset 7, -8
 2855              		.cfi_offset 14, -4
 2856 0002 91B0     		sub	sp, sp, #68
 2857              	.LCFI81:
 2858              		.cfi_def_cfa_offset 80
 2859 0004 02AF     		add	r7, sp, #8
 2860              	.LCFI82:
 2861              		.cfi_def_cfa 7, 72
 2862 0006 7860     		str	r0, [r7, #4]
 2863 0008 0B46     		mov	r3, r1
 2864 000a FB70     		strb	r3, [r7, #3]
 865:D:/iot/felix2/components/connectivity/lwm2m/core\objects.c ****     lwm2m_object_t *objectP;
 866:D:/iot/felix2/components/connectivity/lwm2m/core\objects.c ****     lwm2m_object_t *securityObjP = NULL;
 2865              		.loc 1 866 0
 2866 000c 0023     		movs	r3, #0
 2867 000e 3B63     		str	r3, [r7, #48]
 867:D:/iot/felix2/components/connectivity/lwm2m/core\objects.c ****     lwm2m_object_t *serverObjP = NULL;
 2868              		.loc 1 867 0
 2869 0010 0023     		movs	r3, #0
 2870 0012 FB62     		str	r3, [r7, #44]
 868:D:/iot/felix2/components/connectivity/lwm2m/core\objects.c ****     lwm2m_list_t *securityInstP;    // instanceID of the server in the LWM2M Security Object
 869:D:/iot/felix2/components/connectivity/lwm2m/core\objects.c **** 
 870:D:/iot/felix2/components/connectivity/lwm2m/core\objects.c ****     LOG("Entering");
 871:D:/iot/felix2/components/connectivity/lwm2m/core\objects.c **** 
 872:D:/iot/felix2/components/connectivity/lwm2m/core\objects.c ****     for (objectP = contextP->objectList; objectP != NULL; objectP = objectP->next)
 2871              		.loc 1 872 0
 2872 0014 7B68     		ldr	r3, [r7, #4]
 2873 0016 9B69     		ldr	r3, [r3, #24]
 2874 0018 7B63     		str	r3, [r7, #52]
 2875 001a 0FE0     		b	.L175
 2876              	.L178:
 873:D:/iot/felix2/components/connectivity/lwm2m/core\objects.c ****     {
 874:D:/iot/felix2/components/connectivity/lwm2m/core\objects.c ****         if (objectP->objID == LWM2M_SECURITY_OBJECT_ID)
 2877              		.loc 1 874 0
 2878 001c 7B6B     		ldr	r3, [r7, #52]
 2879 001e 9B88     		ldrh	r3, [r3, #4]
 2880 0020 002B     		cmp	r3, #0
 2881 0022 02D1     		bne	.L176
 875:D:/iot/felix2/components/connectivity/lwm2m/core\objects.c ****         {
 876:D:/iot/felix2/components/connectivity/lwm2m/core\objects.c ****             securityObjP = objectP;
 2882              		.loc 1 876 0
 2883 0024 7B6B     		ldr	r3, [r7, #52]
 2884 0026 3B63     		str	r3, [r7, #48]
 2885 0028 05E0     		b	.L177
 2886              	.L176:
 877:D:/iot/felix2/components/connectivity/lwm2m/core\objects.c ****         }
 878:D:/iot/felix2/components/connectivity/lwm2m/core\objects.c ****         else if (objectP->objID == LWM2M_SERVER_OBJECT_ID)
 2887              		.loc 1 878 0
 2888 002a 7B6B     		ldr	r3, [r7, #52]
 2889 002c 9B88     		ldrh	r3, [r3, #4]
ARM GAS  C:\Users\91458\AppData\Local\Temp\ccFd4Rch.s 			page 67


 2890 002e 012B     		cmp	r3, #1
 2891 0030 01D1     		bne	.L177
 879:D:/iot/felix2/components/connectivity/lwm2m/core\objects.c ****         {
 880:D:/iot/felix2/components/connectivity/lwm2m/core\objects.c ****             serverObjP = objectP;
 2892              		.loc 1 880 0
 2893 0032 7B6B     		ldr	r3, [r7, #52]
 2894 0034 FB62     		str	r3, [r7, #44]
 2895              	.L177:
 872:D:/iot/felix2/components/connectivity/lwm2m/core\objects.c ****     {
 2896              		.loc 1 872 0 discriminator 2
 2897 0036 7B6B     		ldr	r3, [r7, #52]
 2898 0038 1B68     		ldr	r3, [r3]
 2899 003a 7B63     		str	r3, [r7, #52]
 2900              	.L175:
 872:D:/iot/felix2/components/connectivity/lwm2m/core\objects.c ****     {
 2901              		.loc 1 872 0 is_stmt 0 discriminator 1
 2902 003c 7B6B     		ldr	r3, [r7, #52]
 2903 003e 002B     		cmp	r3, #0
 2904 0040 ECD1     		bne	.L178
 881:D:/iot/felix2/components/connectivity/lwm2m/core\objects.c ****         }
 882:D:/iot/felix2/components/connectivity/lwm2m/core\objects.c ****     }
 883:D:/iot/felix2/components/connectivity/lwm2m/core\objects.c **** 
 884:D:/iot/felix2/components/connectivity/lwm2m/core\objects.c ****     if (NULL == securityObjP) return -1;
 2905              		.loc 1 884 0 is_stmt 1
 2906 0042 3B6B     		ldr	r3, [r7, #48]
 2907 0044 002B     		cmp	r3, #0
 2908 0046 02D1     		bne	.L179
 2909              		.loc 1 884 0 is_stmt 0 discriminator 1
 2910 0048 4FF0FF33 		mov	r3, #-1
 2911 004c 36E1     		b	.L180
 2912              	.L179:
 885:D:/iot/felix2/components/connectivity/lwm2m/core\objects.c **** 
 886:D:/iot/felix2/components/connectivity/lwm2m/core\objects.c ****     securityInstP = securityObjP->instanceList;
 2913              		.loc 1 886 0 is_stmt 1
 2914 004e 3B6B     		ldr	r3, [r7, #48]
 2915 0050 9B68     		ldr	r3, [r3, #8]
 2916 0052 BB62     		str	r3, [r7, #40]
 887:D:/iot/felix2/components/connectivity/lwm2m/core\objects.c ****     while (securityInstP != NULL)
 2917              		.loc 1 887 0
 2918 0054 2DE1     		b	.L181
 2919              	.L199:
 888:D:/iot/felix2/components/connectivity/lwm2m/core\objects.c ****     {
 889:D:/iot/felix2/components/connectivity/lwm2m/core\objects.c ****         if (LWM2M_LIST_FIND(contextP->bootstrapServerList, securityInstP->id) == NULL
 2920              		.loc 1 889 0
 2921 0056 7B68     		ldr	r3, [r7, #4]
 2922 0058 1A69     		ldr	r2, [r3, #16]
 2923 005a BB6A     		ldr	r3, [r7, #40]
 2924 005c 9B88     		ldrh	r3, [r3, #4]
 2925 005e 1946     		mov	r1, r3
 2926 0060 1046     		mov	r0, r2
 2927 0062 FFF7FEFF 		bl	lwm2m_list_find
 2928 0066 0346     		mov	r3, r0
 2929 0068 002B     		cmp	r3, #0
 2930 006a 40F01F81 		bne	.L182
 890:D:/iot/felix2/components/connectivity/lwm2m/core\objects.c ****                 && LWM2M_LIST_FIND(contextP->serverList, securityInstP->id) == NULL)
 2931              		.loc 1 890 0
 2932 006e 7B68     		ldr	r3, [r7, #4]
ARM GAS  C:\Users\91458\AppData\Local\Temp\ccFd4Rch.s 			page 68


 2933 0070 5A69     		ldr	r2, [r3, #20]
 2934 0072 BB6A     		ldr	r3, [r7, #40]
 2935 0074 9B88     		ldrh	r3, [r3, #4]
 2936 0076 1946     		mov	r1, r3
 2937 0078 1046     		mov	r0, r2
 2938 007a FFF7FEFF 		bl	lwm2m_list_find
 2939 007e 0346     		mov	r3, r0
 2940 0080 002B     		cmp	r3, #0
 2941 0082 40F01381 		bne	.L182
 2942              	.LBB11:
 891:D:/iot/felix2/components/connectivity/lwm2m/core\objects.c ****         {
 892:D:/iot/felix2/components/connectivity/lwm2m/core\objects.c ****             // This server is new. eg created by last bootstrap
 893:D:/iot/felix2/components/connectivity/lwm2m/core\objects.c **** 
 894:D:/iot/felix2/components/connectivity/lwm2m/core\objects.c ****             lwm2m_data_t *dataP;
 895:D:/iot/felix2/components/connectivity/lwm2m/core\objects.c ****             int size;
 896:D:/iot/felix2/components/connectivity/lwm2m/core\objects.c ****             lwm2m_server_t *targetP;
 897:D:/iot/felix2/components/connectivity/lwm2m/core\objects.c ****             bool isBootstrap;
 898:D:/iot/felix2/components/connectivity/lwm2m/core\objects.c ****             int64_t value = 0;
 2943              		.loc 1 898 0
 2944 0086 4FF00003 		mov	r3, #0
 2945 008a 4FF00004 		mov	r4, #0
 2946 008e C7E90234 		strd	r3, [r7, #8]
 899:D:/iot/felix2/components/connectivity/lwm2m/core\objects.c **** 
 900:D:/iot/felix2/components/connectivity/lwm2m/core\objects.c ****             size = 3;
 2947              		.loc 1 900 0
 2948 0092 0323     		movs	r3, #3
 2949 0094 BB61     		str	r3, [r7, #24]
 901:D:/iot/felix2/components/connectivity/lwm2m/core\objects.c ****             dataP = lwm2m_data_new(size);
 2950              		.loc 1 901 0
 2951 0096 BB69     		ldr	r3, [r7, #24]
 2952 0098 1846     		mov	r0, r3
 2953 009a FFF7FEFF 		bl	lwm2m_data_new
 2954 009e 0346     		mov	r3, r0
 2955 00a0 FB61     		str	r3, [r7, #28]
 902:D:/iot/felix2/components/connectivity/lwm2m/core\objects.c ****             if (dataP == NULL) return -1;
 2956              		.loc 1 902 0
 2957 00a2 FB69     		ldr	r3, [r7, #28]
 2958 00a4 002B     		cmp	r3, #0
 2959 00a6 02D1     		bne	.L183
 2960              		.loc 1 902 0 is_stmt 0 discriminator 1
 2961 00a8 4FF0FF33 		mov	r3, #-1
 2962 00ac 06E1     		b	.L180
 2963              	.L183:
 903:D:/iot/felix2/components/connectivity/lwm2m/core\objects.c ****             dataP[0].id = LWM2M_SECURITY_BOOTSTRAP_ID;
 2964              		.loc 1 903 0 is_stmt 1
 2965 00ae FB69     		ldr	r3, [r7, #28]
 2966 00b0 0122     		movs	r2, #1
 2967 00b2 5A80     		strh	r2, [r3, #2]	@ movhi
 904:D:/iot/felix2/components/connectivity/lwm2m/core\objects.c ****             dataP[1].id = LWM2M_SECURITY_SHORT_SERVER_ID;
 2968              		.loc 1 904 0
 2969 00b4 FB69     		ldr	r3, [r7, #28]
 2970 00b6 1033     		adds	r3, r3, #16
 2971 00b8 0A22     		movs	r2, #10
 2972 00ba 5A80     		strh	r2, [r3, #2]	@ movhi
 905:D:/iot/felix2/components/connectivity/lwm2m/core\objects.c ****             dataP[2].id = LWM2M_SECURITY_HOLD_OFF_ID;
 2973              		.loc 1 905 0
 2974 00bc FB69     		ldr	r3, [r7, #28]
ARM GAS  C:\Users\91458\AppData\Local\Temp\ccFd4Rch.s 			page 69


 2975 00be 2033     		adds	r3, r3, #32
 2976 00c0 0B22     		movs	r2, #11
 2977 00c2 5A80     		strh	r2, [r3, #2]	@ movhi
 906:D:/iot/felix2/components/connectivity/lwm2m/core\objects.c **** 
 907:D:/iot/felix2/components/connectivity/lwm2m/core\objects.c ****             if (securityObjP->readFunc(securityInstP->id, &size, &dataP, NULL, securityObjP) != COA
 2978              		.loc 1 907 0
 2979 00c4 3B6B     		ldr	r3, [r7, #48]
 2980 00c6 DC68     		ldr	r4, [r3, #12]
 2981 00c8 BB6A     		ldr	r3, [r7, #40]
 2982 00ca 9888     		ldrh	r0, [r3, #4]
 2983 00cc 07F11C02 		add	r2, r7, #28
 2984 00d0 07F11801 		add	r1, r7, #24
 2985 00d4 3B6B     		ldr	r3, [r7, #48]
 2986 00d6 0093     		str	r3, [sp]
 2987 00d8 0023     		movs	r3, #0
 2988 00da A047     		blx	r4
 2989              	.LVL14:
 2990 00dc 0346     		mov	r3, r0
 2991 00de 452B     		cmp	r3, #69
 2992 00e0 08D0     		beq	.L185
 908:D:/iot/felix2/components/connectivity/lwm2m/core\objects.c ****             {
 909:D:/iot/felix2/components/connectivity/lwm2m/core\objects.c ****                 LOG_ARG("securityObjP->readFunc fail id %d", securityInstP->id);
 910:D:/iot/felix2/components/connectivity/lwm2m/core\objects.c ****                 lwm2m_data_free(size, dataP);
 2993              		.loc 1 910 0
 2994 00e2 BB69     		ldr	r3, [r7, #24]
 2995 00e4 FA69     		ldr	r2, [r7, #28]
 2996 00e6 1146     		mov	r1, r2
 2997 00e8 1846     		mov	r0, r3
 2998 00ea FFF7FEFF 		bl	lwm2m_data_free
 911:D:/iot/felix2/components/connectivity/lwm2m/core\objects.c ****                 return -1;
 2999              		.loc 1 911 0
 3000 00ee 4FF0FF33 		mov	r3, #-1
 3001 00f2 E3E0     		b	.L180
 3002              	.L185:
 912:D:/iot/felix2/components/connectivity/lwm2m/core\objects.c ****             }
 913:D:/iot/felix2/components/connectivity/lwm2m/core\objects.c **** 
 914:D:/iot/felix2/components/connectivity/lwm2m/core\objects.c ****             targetP = (lwm2m_server_t *)lwm2m_malloc(sizeof(lwm2m_server_t));
 3003              		.loc 1 914 0
 3004 00f4 3020     		movs	r0, #48
 3005 00f6 FFF7FEFF 		bl	lwm2m_malloc
 3006 00fa 7862     		str	r0, [r7, #36]
 915:D:/iot/felix2/components/connectivity/lwm2m/core\objects.c ****             if (targetP == NULL)
 3007              		.loc 1 915 0
 3008 00fc 7B6A     		ldr	r3, [r7, #36]
 3009 00fe 002B     		cmp	r3, #0
 3010 0100 08D1     		bne	.L186
 916:D:/iot/felix2/components/connectivity/lwm2m/core\objects.c ****             {
 917:D:/iot/felix2/components/connectivity/lwm2m/core\objects.c ****                 LOG_ARG("lwm2m_malloc fail id %d", securityInstP->id);
 918:D:/iot/felix2/components/connectivity/lwm2m/core\objects.c ****                 lwm2m_data_free(size, dataP);
 3011              		.loc 1 918 0
 3012 0102 BB69     		ldr	r3, [r7, #24]
 3013 0104 FA69     		ldr	r2, [r7, #28]
 3014 0106 1146     		mov	r1, r2
 3015 0108 1846     		mov	r0, r3
 3016 010a FFF7FEFF 		bl	lwm2m_data_free
 919:D:/iot/felix2/components/connectivity/lwm2m/core\objects.c ****                 return -1;
 3017              		.loc 1 919 0
ARM GAS  C:\Users\91458\AppData\Local\Temp\ccFd4Rch.s 			page 70


 3018 010e 4FF0FF33 		mov	r3, #-1
 3019 0112 D3E0     		b	.L180
 3020              	.L186:
 920:D:/iot/felix2/components/connectivity/lwm2m/core\objects.c ****             }
 921:D:/iot/felix2/components/connectivity/lwm2m/core\objects.c ****             memset(targetP, 0, sizeof(lwm2m_server_t));
 3021              		.loc 1 921 0
 3022 0114 3022     		movs	r2, #48
 3023 0116 0021     		movs	r1, #0
 3024 0118 786A     		ldr	r0, [r7, #36]
 3025 011a FFF7FEFF 		bl	memset
 922:D:/iot/felix2/components/connectivity/lwm2m/core\objects.c ****             targetP->secObjInstID = securityInstP->id;
 3026              		.loc 1 922 0
 3027 011e BB6A     		ldr	r3, [r7, #40]
 3028 0120 9A88     		ldrh	r2, [r3, #4]
 3029 0122 7B6A     		ldr	r3, [r7, #36]
 3030 0124 9A80     		strh	r2, [r3, #4]	@ movhi
 923:D:/iot/felix2/components/connectivity/lwm2m/core\objects.c **** 
 924:D:/iot/felix2/components/connectivity/lwm2m/core\objects.c ****             if (0 == lwm2m_data_decode_bool(dataP + 0, &isBootstrap))
 3031              		.loc 1 924 0
 3032 0126 FB69     		ldr	r3, [r7, #28]
 3033 0128 07F11702 		add	r2, r7, #23
 3034 012c 1146     		mov	r1, r2
 3035 012e 1846     		mov	r0, r3
 3036 0130 FFF7FEFF 		bl	lwm2m_data_decode_bool
 3037 0134 0346     		mov	r3, r0
 3038 0136 002B     		cmp	r3, #0
 3039 0138 0BD1     		bne	.L187
 925:D:/iot/felix2/components/connectivity/lwm2m/core\objects.c ****             {
 926:D:/iot/felix2/components/connectivity/lwm2m/core\objects.c ****                 LOG_ARG("lwm2m_data_decode_bool fail id %d", securityInstP->id);
 927:D:/iot/felix2/components/connectivity/lwm2m/core\objects.c ****                 lwm2m_free(targetP);
 3040              		.loc 1 927 0
 3041 013a 786A     		ldr	r0, [r7, #36]
 3042 013c FFF7FEFF 		bl	lwm2m_free
 928:D:/iot/felix2/components/connectivity/lwm2m/core\objects.c ****                 lwm2m_data_free(size, dataP);
 3043              		.loc 1 928 0
 3044 0140 BB69     		ldr	r3, [r7, #24]
 3045 0142 FA69     		ldr	r2, [r7, #28]
 3046 0144 1146     		mov	r1, r2
 3047 0146 1846     		mov	r0, r3
 3048 0148 FFF7FEFF 		bl	lwm2m_data_free
 929:D:/iot/felix2/components/connectivity/lwm2m/core\objects.c ****                 return -1;
 3049              		.loc 1 929 0
 3050 014c 4FF0FF33 		mov	r3, #-1
 3051 0150 B4E0     		b	.L180
 3052              	.L187:
 930:D:/iot/felix2/components/connectivity/lwm2m/core\objects.c ****             }
 931:D:/iot/felix2/components/connectivity/lwm2m/core\objects.c **** 
 932:D:/iot/felix2/components/connectivity/lwm2m/core\objects.c ****             if (0 == lwm2m_data_decode_int(dataP + 1, &value)
 3053              		.loc 1 932 0
 3054 0152 FB69     		ldr	r3, [r7, #28]
 3055 0154 1033     		adds	r3, r3, #16
 3056 0156 07F10802 		add	r2, r7, #8
 3057 015a 1146     		mov	r1, r2
 3058 015c 1846     		mov	r0, r3
 3059 015e FFF7FEFF 		bl	lwm2m_data_decode_int
 3060 0162 0346     		mov	r3, r0
 3061 0164 002B     		cmp	r3, #0
ARM GAS  C:\Users\91458\AppData\Local\Temp\ccFd4Rch.s 			page 71


 3062 0166 16D0     		beq	.L188
 933:D:/iot/felix2/components/connectivity/lwm2m/core\objects.c ****                     || value < (isBootstrap ? 0 : 1) || value > 0xFFFF)                // 0 is forb
 3063              		.loc 1 933 0
 3064 0168 FB7D     		ldrb	r3, [r7, #23]	@ zero_extendqisi2
 3065 016a 83F00103 		eor	r3, r3, #1
 3066 016e DBB2     		uxtb	r3, r3
 3067 0170 DBB2     		uxtb	r3, r3
 3068 0172 4FF00004 		mov	r4, #0
 3069 0176 D7E90212 		ldrd	r1, [r7, #8]
 3070 017a 9942     		cmp	r1, r3
 3071 017c 72EB0403 		sbcs	r3, r2, r4
 3072 0180 09DB     		blt	.L188
 3073              		.loc 1 933 0 is_stmt 0 discriminator 1
 3074 0182 D7E90234 		ldrd	r3, [r7, #8]
 3075 0186 4FF6FF71 		movw	r1, #65535
 3076 018a 4FF00002 		mov	r2, #0
 3077 018e 9942     		cmp	r1, r3
 3078 0190 72EB0403 		sbcs	r3, r2, r4
 3079 0194 0BDA     		bge	.L189
 3080              	.L188:
 934:D:/iot/felix2/components/connectivity/lwm2m/core\objects.c ****             {
 935:D:/iot/felix2/components/connectivity/lwm2m/core\objects.c ****                 LOG_ARG("lwm2m_data_decode_int fail id %d", securityInstP->id);
 936:D:/iot/felix2/components/connectivity/lwm2m/core\objects.c ****                 lwm2m_free(targetP);
 3081              		.loc 1 936 0 is_stmt 1
 3082 0196 786A     		ldr	r0, [r7, #36]
 3083 0198 FFF7FEFF 		bl	lwm2m_free
 937:D:/iot/felix2/components/connectivity/lwm2m/core\objects.c ****                 lwm2m_data_free(size, dataP);
 3084              		.loc 1 937 0
 3085 019c BB69     		ldr	r3, [r7, #24]
 3086 019e FA69     		ldr	r2, [r7, #28]
 3087 01a0 1146     		mov	r1, r2
 3088 01a2 1846     		mov	r0, r3
 3089 01a4 FFF7FEFF 		bl	lwm2m_data_free
 938:D:/iot/felix2/components/connectivity/lwm2m/core\objects.c ****                 return -1;
 3090              		.loc 1 938 0
 3091 01a8 4FF0FF33 		mov	r3, #-1
 3092 01ac 86E0     		b	.L180
 3093              	.L189:
 939:D:/iot/felix2/components/connectivity/lwm2m/core\objects.c ****             }
 940:D:/iot/felix2/components/connectivity/lwm2m/core\objects.c ****             targetP->shortID = value;
 3094              		.loc 1 940 0
 3095 01ae D7E90234 		ldrd	r3, [r7, #8]
 3096 01b2 9AB2     		uxth	r2, r3
 3097 01b4 7B6A     		ldr	r3, [r7, #36]
 3098 01b6 DA80     		strh	r2, [r3, #6]	@ movhi
 941:D:/iot/felix2/components/connectivity/lwm2m/core\objects.c **** 
 942:D:/iot/felix2/components/connectivity/lwm2m/core\objects.c ****             if (isBootstrap == true)
 3099              		.loc 1 942 0
 3100 01b8 FB7D     		ldrb	r3, [r7, #23]	@ zero_extendqisi2
 3101 01ba 002B     		cmp	r3, #0
 3102 01bc 38D0     		beq	.L190
 943:D:/iot/felix2/components/connectivity/lwm2m/core\objects.c ****             {
 944:D:/iot/felix2/components/connectivity/lwm2m/core\objects.c ****                 if (0 == lwm2m_data_decode_int(dataP + 2, &value)
 3103              		.loc 1 944 0
 3104 01be FB69     		ldr	r3, [r7, #28]
 3105 01c0 2033     		adds	r3, r3, #32
 3106 01c2 07F10802 		add	r2, r7, #8
ARM GAS  C:\Users\91458\AppData\Local\Temp\ccFd4Rch.s 			page 72


 3107 01c6 1146     		mov	r1, r2
 3108 01c8 1846     		mov	r0, r3
 3109 01ca FFF7FEFF 		bl	lwm2m_data_decode_int
 3110 01ce 0346     		mov	r3, r0
 3111 01d0 002B     		cmp	r3, #0
 3112 01d2 0BD0     		beq	.L191
 945:D:/iot/felix2/components/connectivity/lwm2m/core\objects.c ****                         || value < 0 || value > 0xFFFFFFFF)             // This is an implementatio
 3113              		.loc 1 945 0
 3114 01d4 D7E90234 		ldrd	r3, [r7, #8]
 3115 01d8 002B     		cmp	r3, #0
 3116 01da 74F10003 		sbcs	r3, r4, #0
 3117 01de 05DB     		blt	.L191
 3118              		.loc 1 945 0 is_stmt 0 discriminator 1
 3119 01e0 D7E90234 		ldrd	r3, [r7, #8]
 3120 01e4 002B     		cmp	r3, #0
 3121 01e6 74F10103 		sbcs	r3, r4, #1
 3122 01ea 0BDB     		blt	.L192
 3123              	.L191:
 946:D:/iot/felix2/components/connectivity/lwm2m/core\objects.c ****                 {
 947:D:/iot/felix2/components/connectivity/lwm2m/core\objects.c ****                     LOG_ARG("lwm2m_data_decode_int fail id %d", securityInstP->id);
 948:D:/iot/felix2/components/connectivity/lwm2m/core\objects.c ****                     lwm2m_free(targetP);
 3124              		.loc 1 948 0 is_stmt 1
 3125 01ec 786A     		ldr	r0, [r7, #36]
 3126 01ee FFF7FEFF 		bl	lwm2m_free
 949:D:/iot/felix2/components/connectivity/lwm2m/core\objects.c ****                     lwm2m_data_free(size, dataP);
 3127              		.loc 1 949 0
 3128 01f2 BB69     		ldr	r3, [r7, #24]
 3129 01f4 FA69     		ldr	r2, [r7, #28]
 3130 01f6 1146     		mov	r1, r2
 3131 01f8 1846     		mov	r0, r3
 3132 01fa FFF7FEFF 		bl	lwm2m_data_free
 950:D:/iot/felix2/components/connectivity/lwm2m/core\objects.c ****                     return -1;
 3133              		.loc 1 950 0
 3134 01fe 4FF0FF33 		mov	r3, #-1
 3135 0202 5BE0     		b	.L180
 3136              	.L192:
 951:D:/iot/felix2/components/connectivity/lwm2m/core\objects.c ****                 }
 952:D:/iot/felix2/components/connectivity/lwm2m/core\objects.c ****                 // lifetime of a bootstrap server is set to ClientHoldOffTime
 953:D:/iot/felix2/components/connectivity/lwm2m/core\objects.c ****                 targetP->lifetime = value;
 3137              		.loc 1 953 0
 3138 0204 D7E90234 		ldrd	r3, [r7, #8]
 3139 0208 7A6A     		ldr	r2, [r7, #36]
 3140 020a C2E90234 		strd	r3, [r2, #8]
 954:D:/iot/felix2/components/connectivity/lwm2m/core\objects.c **** 
 955:D:/iot/felix2/components/connectivity/lwm2m/core\objects.c ****                 if (checkOnly)
 3141              		.loc 1 955 0
 3142 020e FB78     		ldrb	r3, [r7, #3]	@ zero_extendqisi2
 3143 0210 002B     		cmp	r3, #0
 3144 0212 03D0     		beq	.L193
 956:D:/iot/felix2/components/connectivity/lwm2m/core\objects.c ****                 {
 957:D:/iot/felix2/components/connectivity/lwm2m/core\objects.c ****                     lwm2m_free(targetP);
 3145              		.loc 1 957 0
 3146 0214 786A     		ldr	r0, [r7, #36]
 3147 0216 FFF7FEFF 		bl	lwm2m_free
 3148 021a 41E0     		b	.L195
 3149              	.L193:
 958:D:/iot/felix2/components/connectivity/lwm2m/core\objects.c ****                 }
ARM GAS  C:\Users\91458\AppData\Local\Temp\ccFd4Rch.s 			page 73


 959:D:/iot/felix2/components/connectivity/lwm2m/core\objects.c ****                 else
 960:D:/iot/felix2/components/connectivity/lwm2m/core\objects.c ****                 {
 961:D:/iot/felix2/components/connectivity/lwm2m/core\objects.c ****                     contextP->bootstrapServerList = (lwm2m_server_t *)LWM2M_LIST_ADD(contextP->boot
 3150              		.loc 1 961 0
 3151 021c 7B68     		ldr	r3, [r7, #4]
 3152 021e 1B69     		ldr	r3, [r3, #16]
 3153 0220 796A     		ldr	r1, [r7, #36]
 3154 0222 1846     		mov	r0, r3
 3155 0224 FFF7FEFF 		bl	lwm2m_list_add
 3156 0228 0246     		mov	r2, r0
 3157 022a 7B68     		ldr	r3, [r7, #4]
 3158 022c 1A61     		str	r2, [r3, #16]
 3159 022e 37E0     		b	.L195
 3160              	.L190:
 3161              	.LBB12:
 962:D:/iot/felix2/components/connectivity/lwm2m/core\objects.c ****                 }
 963:D:/iot/felix2/components/connectivity/lwm2m/core\objects.c ****             }
 964:D:/iot/felix2/components/connectivity/lwm2m/core\objects.c ****             else
 965:D:/iot/felix2/components/connectivity/lwm2m/core\objects.c ****             {
 966:D:/iot/felix2/components/connectivity/lwm2m/core\objects.c ****                 lwm2m_list_t *serverInstP;      // instanceID of the server in the LWM2M Server Obj
 967:D:/iot/felix2/components/connectivity/lwm2m/core\objects.c **** 
 968:D:/iot/felix2/components/connectivity/lwm2m/core\objects.c ****                 serverInstP = prv_findServerInstance(serverObjP, targetP->shortID);
 3162              		.loc 1 968 0
 3163 0230 7B6A     		ldr	r3, [r7, #36]
 3164 0232 DB88     		ldrh	r3, [r3, #6]
 3165 0234 1946     		mov	r1, r3
 3166 0236 F86A     		ldr	r0, [r7, #44]
 3167 0238 FFF7FEFF 		bl	prv_findServerInstance
 3168 023c 3862     		str	r0, [r7, #32]
 969:D:/iot/felix2/components/connectivity/lwm2m/core\objects.c ****                 if (serverInstP == NULL)
 3169              		.loc 1 969 0
 3170 023e 3B6A     		ldr	r3, [r7, #32]
 3171 0240 002B     		cmp	r3, #0
 3172 0242 03D1     		bne	.L196
 970:D:/iot/felix2/components/connectivity/lwm2m/core\objects.c ****                 {
 971:D:/iot/felix2/components/connectivity/lwm2m/core\objects.c ****                     lwm2m_free(targetP);
 3173              		.loc 1 971 0
 3174 0244 786A     		ldr	r0, [r7, #36]
 3175 0246 FFF7FEFF 		bl	lwm2m_free
 3176 024a 29E0     		b	.L195
 3177              	.L196:
 972:D:/iot/felix2/components/connectivity/lwm2m/core\objects.c ****                 }
 973:D:/iot/felix2/components/connectivity/lwm2m/core\objects.c ****                 else
 974:D:/iot/felix2/components/connectivity/lwm2m/core\objects.c ****                 {
 975:D:/iot/felix2/components/connectivity/lwm2m/core\objects.c ****                     if (0 != prv_getMandatoryInfo(serverObjP, serverInstP->id, targetP))
 3178              		.loc 1 975 0
 3179 024c 3B6A     		ldr	r3, [r7, #32]
 3180 024e 9B88     		ldrh	r3, [r3, #4]
 3181 0250 7A6A     		ldr	r2, [r7, #36]
 3182 0252 1946     		mov	r1, r3
 3183 0254 F86A     		ldr	r0, [r7, #44]
 3184 0256 FFF7FEFF 		bl	prv_getMandatoryInfo
 3185 025a 0346     		mov	r3, r0
 3186 025c 002B     		cmp	r3, #0
 3187 025e 0BD0     		beq	.L197
 976:D:/iot/felix2/components/connectivity/lwm2m/core\objects.c ****                     {
 977:D:/iot/felix2/components/connectivity/lwm2m/core\objects.c ****                         LOG_ARG("prv_getMandatoryInfo fail id %d", securityInstP->id);
ARM GAS  C:\Users\91458\AppData\Local\Temp\ccFd4Rch.s 			page 74


 978:D:/iot/felix2/components/connectivity/lwm2m/core\objects.c ****                         lwm2m_free(targetP);
 3188              		.loc 1 978 0
 3189 0260 786A     		ldr	r0, [r7, #36]
 3190 0262 FFF7FEFF 		bl	lwm2m_free
 979:D:/iot/felix2/components/connectivity/lwm2m/core\objects.c ****                         lwm2m_data_free(size, dataP);
 3191              		.loc 1 979 0
 3192 0266 BB69     		ldr	r3, [r7, #24]
 3193 0268 FA69     		ldr	r2, [r7, #28]
 3194 026a 1146     		mov	r1, r2
 3195 026c 1846     		mov	r0, r3
 3196 026e FFF7FEFF 		bl	lwm2m_data_free
 980:D:/iot/felix2/components/connectivity/lwm2m/core\objects.c ****                         return -1;
 3197              		.loc 1 980 0
 3198 0272 4FF0FF33 		mov	r3, #-1
 3199 0276 21E0     		b	.L180
 3200              	.L197:
 981:D:/iot/felix2/components/connectivity/lwm2m/core\objects.c ****                     }
 982:D:/iot/felix2/components/connectivity/lwm2m/core\objects.c ****                     targetP->status = STATE_DEREGISTERED;
 3201              		.loc 1 982 0
 3202 0278 7B6A     		ldr	r3, [r7, #36]
 3203 027a 0022     		movs	r2, #0
 3204 027c 83F82020 		strb	r2, [r3, #32]
 983:D:/iot/felix2/components/connectivity/lwm2m/core\objects.c ****                     if (checkOnly)
 3205              		.loc 1 983 0
 3206 0280 FB78     		ldrb	r3, [r7, #3]	@ zero_extendqisi2
 3207 0282 002B     		cmp	r3, #0
 3208 0284 03D0     		beq	.L198
 984:D:/iot/felix2/components/connectivity/lwm2m/core\objects.c ****                     {
 985:D:/iot/felix2/components/connectivity/lwm2m/core\objects.c ****                         lwm2m_free(targetP);
 3209              		.loc 1 985 0
 3210 0286 786A     		ldr	r0, [r7, #36]
 3211 0288 FFF7FEFF 		bl	lwm2m_free
 3212 028c 08E0     		b	.L195
 3213              	.L198:
 986:D:/iot/felix2/components/connectivity/lwm2m/core\objects.c ****                     }
 987:D:/iot/felix2/components/connectivity/lwm2m/core\objects.c ****                     else
 988:D:/iot/felix2/components/connectivity/lwm2m/core\objects.c ****                     {
 989:D:/iot/felix2/components/connectivity/lwm2m/core\objects.c ****                         contextP->serverList = (lwm2m_server_t *)LWM2M_LIST_ADD(contextP->serverLis
 3214              		.loc 1 989 0
 3215 028e 7B68     		ldr	r3, [r7, #4]
 3216 0290 5B69     		ldr	r3, [r3, #20]
 3217 0292 796A     		ldr	r1, [r7, #36]
 3218 0294 1846     		mov	r0, r3
 3219 0296 FFF7FEFF 		bl	lwm2m_list_add
 3220 029a 0246     		mov	r2, r0
 3221 029c 7B68     		ldr	r3, [r7, #4]
 3222 029e 5A61     		str	r2, [r3, #20]
 3223              	.L195:
 3224              	.LBE12:
 990:D:/iot/felix2/components/connectivity/lwm2m/core\objects.c ****                     }
 991:D:/iot/felix2/components/connectivity/lwm2m/core\objects.c ****                 }
 992:D:/iot/felix2/components/connectivity/lwm2m/core\objects.c ****             }
 993:D:/iot/felix2/components/connectivity/lwm2m/core\objects.c ****             lwm2m_data_free(size, dataP);
 3225              		.loc 1 993 0 discriminator 1
 3226 02a0 BB69     		ldr	r3, [r7, #24]
 3227 02a2 FA69     		ldr	r2, [r7, #28]
 3228 02a4 1146     		mov	r1, r2
ARM GAS  C:\Users\91458\AppData\Local\Temp\ccFd4Rch.s 			page 75


 3229 02a6 1846     		mov	r0, r3
 3230 02a8 FFF7FEFF 		bl	lwm2m_data_free
 3231              	.L182:
 3232              	.LBE11:
 994:D:/iot/felix2/components/connectivity/lwm2m/core\objects.c ****         }
 995:D:/iot/felix2/components/connectivity/lwm2m/core\objects.c ****         securityInstP = securityInstP->next;
 3233              		.loc 1 995 0
 3234 02ac BB6A     		ldr	r3, [r7, #40]
 3235 02ae 1B68     		ldr	r3, [r3]
 3236 02b0 BB62     		str	r3, [r7, #40]
 3237              	.L181:
 887:D:/iot/felix2/components/connectivity/lwm2m/core\objects.c ****     {
 3238              		.loc 1 887 0
 3239 02b2 BB6A     		ldr	r3, [r7, #40]
 3240 02b4 002B     		cmp	r3, #0
 3241 02b6 7FF4CEAE 		bne	.L199
 996:D:/iot/felix2/components/connectivity/lwm2m/core\objects.c ****     }
 997:D:/iot/felix2/components/connectivity/lwm2m/core\objects.c **** 
 998:D:/iot/felix2/components/connectivity/lwm2m/core\objects.c ****     return 0;
 3242              		.loc 1 998 0
 3243 02ba 0023     		movs	r3, #0
 3244              	.L180:
 999:D:/iot/felix2/components/connectivity/lwm2m/core\objects.c **** }
 3245              		.loc 1 999 0
 3246 02bc 1846     		mov	r0, r3
 3247 02be 3C37     		adds	r7, r7, #60
 3248              	.LCFI83:
 3249              		.cfi_def_cfa_offset 12
 3250 02c0 BD46     		mov	sp, r7
 3251              	.LCFI84:
 3252              		.cfi_def_cfa_register 13
 3253              		@ sp needed
 3254 02c2 90BD     		pop	{r4, r7, pc}
 3255              		.cfi_endproc
 3256              	.LFE158:
 3258              		.text
 3259              	.Letext0:
 3260              		.file 2 "d:\\liteos studio\\resources\\arm-none-eabi\\arm-none-eabi\\include\\machine\\_default_ty
 3261              		.file 3 "d:\\liteos studio\\resources\\arm-none-eabi\\arm-none-eabi\\include\\sys\\_stdint.h"
 3262              		.file 4 "D:/iot/felix2/components/connectivity/lwm2m/core/liblwm2m_api.h"
 3263              		.file 5 "d:\\liteos studio\\resources\\arm-none-eabi\\lib\\gcc\\arm-none-eabi\\7.3.1\\include\\std
 3264              		.file 6 "d:\\liteos studio\\resources\\arm-none-eabi\\arm-none-eabi\\include\\sys\\lock.h"
 3265              		.file 7 "d:\\liteos studio\\resources\\arm-none-eabi\\arm-none-eabi\\include\\sys\\_types.h"
 3266              		.file 8 "d:\\liteos studio\\resources\\arm-none-eabi\\arm-none-eabi\\include\\sys\\reent.h"
 3267              		.file 9 "d:\\liteos studio\\resources\\arm-none-eabi\\arm-none-eabi\\include\\sys\\_timeval.h"
 3268              		.file 10 "d:\\liteos studio\\resources\\arm-none-eabi\\arm-none-eabi\\include\\time.h"
 3269              		.file 11 "D:/iot/felix2/components/connectivity/lwm2m/core/er-coap-13/er-coap-13.h"
 3270              		.file 12 "D:/iot/felix2/kernel/include/los_typedef.h"
 3271              		.file 13 "D:/iot/felix2/arch/arm/common/cmsis/core_cm4.h"
 3272              		.file 14 "D:/iot/felix2/targets/Cloud_STM32L431_BearPi/Inc/system_stm32l4xx.h"
 3273              		.file 15 "D:/iot/felix2/kernel/include/los_list.h"
 3274              		.file 16 "D:/iot/felix2/kernel/include/los_err.h"
 3275              		.file 17 "D:/iot/felix2/arch/arm/arm-m/include/los_hwi.h"
 3276              		.file 18 "D:/iot/felix2/kernel/include/los_tick.h"
 3277              		.file 19 "D:/iot/felix2/kernel/include/los_event.h"
 3278              		.file 20 "D:/iot/felix2/kernel/include/los_task.h"
 3279              		.file 21 "D:/iot/felix2/kernel/base/include/los_task.ph"
ARM GAS  C:\Users\91458\AppData\Local\Temp\ccFd4Rch.s 			page 76


 3280              		.file 22 "D:/iot/felix2/targets/Cloud_STM32L431_BearPi/Inc/main.h"
 3281              		.file 23 "D:/iot/felix2/targets/Cloud_STM32L431_BearPi/OS_CONFIG/target_config.h"
 3282              		.file 24 "D:/iot/felix2/kernel/include/los_config.h"
 3283              		.file 25 "D:/iot/felix2/components/connectivity/lwm2m/core/liblwm2m.h"
 3284              		.file 26 "d:\\liteos studio\\resources\\arm-none-eabi\\arm-none-eabi\\include\\stdlib.h"
 3285              		.file 27 "d:\\liteos studio\\resources\\arm-none-eabi\\arm-none-eabi\\include\\ctype.h"
 3286              		.file 28 "D:/iot/felix2/components/connectivity/agent_tiny/atiny_lwm2m/object_comm.h"
ARM GAS  C:\Users\91458\AppData\Local\Temp\ccFd4Rch.s 			page 77

