ARM GAS  C:\Users\91458\AppData\Local\Temp\ccrpKNIe.s 			page 1


   1              		.cpu cortex-m4
   2              		.eabi_attribute 27, 1
   3              		.eabi_attribute 28, 1
   4              		.eabi_attribute 20, 1
   5              		.eabi_attribute 21, 1
   6              		.eabi_attribute 23, 3
   7              		.eabi_attribute 24, 1
   8              		.eabi_attribute 25, 1
   9              		.eabi_attribute 26, 1
  10              		.eabi_attribute 30, 6
  11              		.eabi_attribute 34, 1
  12              		.eabi_attribute 18, 4
  13              		.file	"stm32l4xx_hal_uart.c"
  14              		.text
  15              	.Ltext0:
  16              		.cfi_sections	.debug_frame
  17              		.section	.text.HAL_UART_Init,"ax",%progbits
  18              		.align	1
  19              		.global	HAL_UART_Init
  20              		.syntax unified
  21              		.thumb
  22              		.thumb_func
  23              		.fpu fpv4-sp-d16
  25              	HAL_UART_Init:
  26              	.LFB133:
  27              		.file 1 "D:/iot/felix2/targets/Cloud_STM32L431_BearPi/Drivers/STM32L4xx_HAL_Driver/Src/stm32l4xx_h
   1:D:/iot/felix2/targets/Cloud_STM32L431_BearPi/Drivers/STM32L4xx_HAL_Driver/Src\stm32l4xx_hal_uart.c **** /**
   2:D:/iot/felix2/targets/Cloud_STM32L431_BearPi/Drivers/STM32L4xx_HAL_Driver/Src\stm32l4xx_hal_uart.c ****   ******************************************************************************
   3:D:/iot/felix2/targets/Cloud_STM32L431_BearPi/Drivers/STM32L4xx_HAL_Driver/Src\stm32l4xx_hal_uart.c ****   * @file    stm32l4xx_hal_uart.c
   4:D:/iot/felix2/targets/Cloud_STM32L431_BearPi/Drivers/STM32L4xx_HAL_Driver/Src\stm32l4xx_hal_uart.c ****   * @author  MCD Application Team
   5:D:/iot/felix2/targets/Cloud_STM32L431_BearPi/Drivers/STM32L4xx_HAL_Driver/Src\stm32l4xx_hal_uart.c ****   * @brief   UART HAL module driver.
   6:D:/iot/felix2/targets/Cloud_STM32L431_BearPi/Drivers/STM32L4xx_HAL_Driver/Src\stm32l4xx_hal_uart.c ****   *          This file provides firmware functions to manage the following
   7:D:/iot/felix2/targets/Cloud_STM32L431_BearPi/Drivers/STM32L4xx_HAL_Driver/Src\stm32l4xx_hal_uart.c ****   *          functionalities of the Universal Asynchronous Receiver Transmitter Peripheral (UART).
   8:D:/iot/felix2/targets/Cloud_STM32L431_BearPi/Drivers/STM32L4xx_HAL_Driver/Src\stm32l4xx_hal_uart.c ****   *           + Initialization and de-initialization functions
   9:D:/iot/felix2/targets/Cloud_STM32L431_BearPi/Drivers/STM32L4xx_HAL_Driver/Src\stm32l4xx_hal_uart.c ****   *           + IO operation functions
  10:D:/iot/felix2/targets/Cloud_STM32L431_BearPi/Drivers/STM32L4xx_HAL_Driver/Src\stm32l4xx_hal_uart.c ****   *           + Peripheral Control functions
  11:D:/iot/felix2/targets/Cloud_STM32L431_BearPi/Drivers/STM32L4xx_HAL_Driver/Src\stm32l4xx_hal_uart.c ****   *
  12:D:/iot/felix2/targets/Cloud_STM32L431_BearPi/Drivers/STM32L4xx_HAL_Driver/Src\stm32l4xx_hal_uart.c ****   *
  13:D:/iot/felix2/targets/Cloud_STM32L431_BearPi/Drivers/STM32L4xx_HAL_Driver/Src\stm32l4xx_hal_uart.c ****   @verbatim
  14:D:/iot/felix2/targets/Cloud_STM32L431_BearPi/Drivers/STM32L4xx_HAL_Driver/Src\stm32l4xx_hal_uart.c ****  ===============================================================================
  15:D:/iot/felix2/targets/Cloud_STM32L431_BearPi/Drivers/STM32L4xx_HAL_Driver/Src\stm32l4xx_hal_uart.c ****                         ##### How to use this driver #####
  16:D:/iot/felix2/targets/Cloud_STM32L431_BearPi/Drivers/STM32L4xx_HAL_Driver/Src\stm32l4xx_hal_uart.c ****  ===============================================================================
  17:D:/iot/felix2/targets/Cloud_STM32L431_BearPi/Drivers/STM32L4xx_HAL_Driver/Src\stm32l4xx_hal_uart.c ****   [..]
  18:D:/iot/felix2/targets/Cloud_STM32L431_BearPi/Drivers/STM32L4xx_HAL_Driver/Src\stm32l4xx_hal_uart.c ****     The UART HAL driver can be used as follows:
  19:D:/iot/felix2/targets/Cloud_STM32L431_BearPi/Drivers/STM32L4xx_HAL_Driver/Src\stm32l4xx_hal_uart.c **** 
  20:D:/iot/felix2/targets/Cloud_STM32L431_BearPi/Drivers/STM32L4xx_HAL_Driver/Src\stm32l4xx_hal_uart.c ****     (#) Declare a UART_HandleTypeDef handle structure (eg. UART_HandleTypeDef huart).
  21:D:/iot/felix2/targets/Cloud_STM32L431_BearPi/Drivers/STM32L4xx_HAL_Driver/Src\stm32l4xx_hal_uart.c ****     (#) Initialize the UART low level resources by implementing the HAL_UART_MspInit() API:
  22:D:/iot/felix2/targets/Cloud_STM32L431_BearPi/Drivers/STM32L4xx_HAL_Driver/Src\stm32l4xx_hal_uart.c ****         (++) Enable the USARTx interface clock.
  23:D:/iot/felix2/targets/Cloud_STM32L431_BearPi/Drivers/STM32L4xx_HAL_Driver/Src\stm32l4xx_hal_uart.c ****         (++) UART pins configuration:
  24:D:/iot/felix2/targets/Cloud_STM32L431_BearPi/Drivers/STM32L4xx_HAL_Driver/Src\stm32l4xx_hal_uart.c ****             (+++) Enable the clock for the UART GPIOs.
  25:D:/iot/felix2/targets/Cloud_STM32L431_BearPi/Drivers/STM32L4xx_HAL_Driver/Src\stm32l4xx_hal_uart.c ****             (+++) Configure these UART pins as alternate function pull-up.
  26:D:/iot/felix2/targets/Cloud_STM32L431_BearPi/Drivers/STM32L4xx_HAL_Driver/Src\stm32l4xx_hal_uart.c ****         (++) NVIC configuration if you need to use interrupt process (HAL_UART_Transmit_IT()
  27:D:/iot/felix2/targets/Cloud_STM32L431_BearPi/Drivers/STM32L4xx_HAL_Driver/Src\stm32l4xx_hal_uart.c ****              and HAL_UART_Receive_IT() APIs):
  28:D:/iot/felix2/targets/Cloud_STM32L431_BearPi/Drivers/STM32L4xx_HAL_Driver/Src\stm32l4xx_hal_uart.c ****             (+++) Configure the USARTx interrupt priority.
  29:D:/iot/felix2/targets/Cloud_STM32L431_BearPi/Drivers/STM32L4xx_HAL_Driver/Src\stm32l4xx_hal_uart.c ****             (+++) Enable the NVIC USART IRQ handle.
  30:D:/iot/felix2/targets/Cloud_STM32L431_BearPi/Drivers/STM32L4xx_HAL_Driver/Src\stm32l4xx_hal_uart.c ****         (++) UART interrupts handling:
  31:D:/iot/felix2/targets/Cloud_STM32L431_BearPi/Drivers/STM32L4xx_HAL_Driver/Src\stm32l4xx_hal_uart.c ****               -@@-  The specific UART interrupts (Transmission complete interrupt,
ARM GAS  C:\Users\91458\AppData\Local\Temp\ccrpKNIe.s 			page 2


  32:D:/iot/felix2/targets/Cloud_STM32L431_BearPi/Drivers/STM32L4xx_HAL_Driver/Src\stm32l4xx_hal_uart.c ****                 RXNE interrupt, RX/TX FIFOs related interrupts and Error Interrupts)
  33:D:/iot/felix2/targets/Cloud_STM32L431_BearPi/Drivers/STM32L4xx_HAL_Driver/Src\stm32l4xx_hal_uart.c ****                 are managed using the macros __HAL_UART_ENABLE_IT() and __HAL_UART_DISABLE_IT()
  34:D:/iot/felix2/targets/Cloud_STM32L431_BearPi/Drivers/STM32L4xx_HAL_Driver/Src\stm32l4xx_hal_uart.c ****                 inside the transmit and receive processes.
  35:D:/iot/felix2/targets/Cloud_STM32L431_BearPi/Drivers/STM32L4xx_HAL_Driver/Src\stm32l4xx_hal_uart.c ****         (++) DMA Configuration if you need to use DMA process (HAL_UART_Transmit_DMA()
  36:D:/iot/felix2/targets/Cloud_STM32L431_BearPi/Drivers/STM32L4xx_HAL_Driver/Src\stm32l4xx_hal_uart.c ****              and HAL_UART_Receive_DMA() APIs):
  37:D:/iot/felix2/targets/Cloud_STM32L431_BearPi/Drivers/STM32L4xx_HAL_Driver/Src\stm32l4xx_hal_uart.c ****             (+++) Declare a DMA handle structure for the Tx/Rx channel.
  38:D:/iot/felix2/targets/Cloud_STM32L431_BearPi/Drivers/STM32L4xx_HAL_Driver/Src\stm32l4xx_hal_uart.c ****             (+++) Enable the DMAx interface clock.
  39:D:/iot/felix2/targets/Cloud_STM32L431_BearPi/Drivers/STM32L4xx_HAL_Driver/Src\stm32l4xx_hal_uart.c ****             (+++) Configure the declared DMA handle structure with the required Tx/Rx parameters.
  40:D:/iot/felix2/targets/Cloud_STM32L431_BearPi/Drivers/STM32L4xx_HAL_Driver/Src\stm32l4xx_hal_uart.c ****             (+++) Configure the DMA Tx/Rx channel.
  41:D:/iot/felix2/targets/Cloud_STM32L431_BearPi/Drivers/STM32L4xx_HAL_Driver/Src\stm32l4xx_hal_uart.c ****             (+++) Associate the initialized DMA handle to the UART DMA Tx/Rx handle.
  42:D:/iot/felix2/targets/Cloud_STM32L431_BearPi/Drivers/STM32L4xx_HAL_Driver/Src\stm32l4xx_hal_uart.c ****             (+++) Configure the priority and enable the NVIC for the transfer complete interrupt on
  43:D:/iot/felix2/targets/Cloud_STM32L431_BearPi/Drivers/STM32L4xx_HAL_Driver/Src\stm32l4xx_hal_uart.c **** 
  44:D:/iot/felix2/targets/Cloud_STM32L431_BearPi/Drivers/STM32L4xx_HAL_Driver/Src\stm32l4xx_hal_uart.c ****     (#) Program the Baud Rate, Word Length, Stop Bit, Parity, Prescaler value , Hardware
  45:D:/iot/felix2/targets/Cloud_STM32L431_BearPi/Drivers/STM32L4xx_HAL_Driver/Src\stm32l4xx_hal_uart.c ****         flow control and Mode (Receiver/Transmitter) in the huart handle Init structure.
  46:D:/iot/felix2/targets/Cloud_STM32L431_BearPi/Drivers/STM32L4xx_HAL_Driver/Src\stm32l4xx_hal_uart.c **** 
  47:D:/iot/felix2/targets/Cloud_STM32L431_BearPi/Drivers/STM32L4xx_HAL_Driver/Src\stm32l4xx_hal_uart.c ****     (#) If required, program UART advanced features (TX/RX pins swap, auto Baud rate detection,...)
  48:D:/iot/felix2/targets/Cloud_STM32L431_BearPi/Drivers/STM32L4xx_HAL_Driver/Src\stm32l4xx_hal_uart.c ****         in the huart handle AdvancedInit structure.
  49:D:/iot/felix2/targets/Cloud_STM32L431_BearPi/Drivers/STM32L4xx_HAL_Driver/Src\stm32l4xx_hal_uart.c **** 
  50:D:/iot/felix2/targets/Cloud_STM32L431_BearPi/Drivers/STM32L4xx_HAL_Driver/Src\stm32l4xx_hal_uart.c ****     (#) For the UART asynchronous mode, initialize the UART registers by calling
  51:D:/iot/felix2/targets/Cloud_STM32L431_BearPi/Drivers/STM32L4xx_HAL_Driver/Src\stm32l4xx_hal_uart.c ****         the HAL_UART_Init() API.
  52:D:/iot/felix2/targets/Cloud_STM32L431_BearPi/Drivers/STM32L4xx_HAL_Driver/Src\stm32l4xx_hal_uart.c **** 
  53:D:/iot/felix2/targets/Cloud_STM32L431_BearPi/Drivers/STM32L4xx_HAL_Driver/Src\stm32l4xx_hal_uart.c ****     (#) For the UART Half duplex mode, initialize the UART registers by calling
  54:D:/iot/felix2/targets/Cloud_STM32L431_BearPi/Drivers/STM32L4xx_HAL_Driver/Src\stm32l4xx_hal_uart.c ****         the HAL_HalfDuplex_Init() API.
  55:D:/iot/felix2/targets/Cloud_STM32L431_BearPi/Drivers/STM32L4xx_HAL_Driver/Src\stm32l4xx_hal_uart.c **** 
  56:D:/iot/felix2/targets/Cloud_STM32L431_BearPi/Drivers/STM32L4xx_HAL_Driver/Src\stm32l4xx_hal_uart.c ****     (#) For the UART LIN (Local Interconnection Network) mode, initialize the UART registers
  57:D:/iot/felix2/targets/Cloud_STM32L431_BearPi/Drivers/STM32L4xx_HAL_Driver/Src\stm32l4xx_hal_uart.c ****         by calling the HAL_LIN_Init() API.
  58:D:/iot/felix2/targets/Cloud_STM32L431_BearPi/Drivers/STM32L4xx_HAL_Driver/Src\stm32l4xx_hal_uart.c **** 
  59:D:/iot/felix2/targets/Cloud_STM32L431_BearPi/Drivers/STM32L4xx_HAL_Driver/Src\stm32l4xx_hal_uart.c ****     (#) For the UART Multiprocessor mode, initialize the UART registers
  60:D:/iot/felix2/targets/Cloud_STM32L431_BearPi/Drivers/STM32L4xx_HAL_Driver/Src\stm32l4xx_hal_uart.c ****         by calling the HAL_MultiProcessor_Init() API.
  61:D:/iot/felix2/targets/Cloud_STM32L431_BearPi/Drivers/STM32L4xx_HAL_Driver/Src\stm32l4xx_hal_uart.c **** 
  62:D:/iot/felix2/targets/Cloud_STM32L431_BearPi/Drivers/STM32L4xx_HAL_Driver/Src\stm32l4xx_hal_uart.c ****     (#) For the UART RS485 Driver Enabled mode, initialize the UART registers
  63:D:/iot/felix2/targets/Cloud_STM32L431_BearPi/Drivers/STM32L4xx_HAL_Driver/Src\stm32l4xx_hal_uart.c ****         by calling the HAL_RS485Ex_Init() API.
  64:D:/iot/felix2/targets/Cloud_STM32L431_BearPi/Drivers/STM32L4xx_HAL_Driver/Src\stm32l4xx_hal_uart.c **** 
  65:D:/iot/felix2/targets/Cloud_STM32L431_BearPi/Drivers/STM32L4xx_HAL_Driver/Src\stm32l4xx_hal_uart.c ****     [..]
  66:D:/iot/felix2/targets/Cloud_STM32L431_BearPi/Drivers/STM32L4xx_HAL_Driver/Src\stm32l4xx_hal_uart.c ****     (@) These API's (HAL_UART_Init(), HAL_HalfDuplex_Init(), HAL_LIN_Init(), HAL_MultiProcessor_Ini
  67:D:/iot/felix2/targets/Cloud_STM32L431_BearPi/Drivers/STM32L4xx_HAL_Driver/Src\stm32l4xx_hal_uart.c ****         also configure the low level Hardware GPIO, CLOCK, CORTEX...etc) by
  68:D:/iot/felix2/targets/Cloud_STM32L431_BearPi/Drivers/STM32L4xx_HAL_Driver/Src\stm32l4xx_hal_uart.c ****         calling the customized HAL_UART_MspInit() API.
  69:D:/iot/felix2/targets/Cloud_STM32L431_BearPi/Drivers/STM32L4xx_HAL_Driver/Src\stm32l4xx_hal_uart.c **** 
  70:D:/iot/felix2/targets/Cloud_STM32L431_BearPi/Drivers/STM32L4xx_HAL_Driver/Src\stm32l4xx_hal_uart.c ****     ##### Callback registration #####
  71:D:/iot/felix2/targets/Cloud_STM32L431_BearPi/Drivers/STM32L4xx_HAL_Driver/Src\stm32l4xx_hal_uart.c ****     ==================================
  72:D:/iot/felix2/targets/Cloud_STM32L431_BearPi/Drivers/STM32L4xx_HAL_Driver/Src\stm32l4xx_hal_uart.c **** 
  73:D:/iot/felix2/targets/Cloud_STM32L431_BearPi/Drivers/STM32L4xx_HAL_Driver/Src\stm32l4xx_hal_uart.c ****     [..]
  74:D:/iot/felix2/targets/Cloud_STM32L431_BearPi/Drivers/STM32L4xx_HAL_Driver/Src\stm32l4xx_hal_uart.c ****     The compilation define USE_HAL_UART_REGISTER_CALLBACKS when set to 1
  75:D:/iot/felix2/targets/Cloud_STM32L431_BearPi/Drivers/STM32L4xx_HAL_Driver/Src\stm32l4xx_hal_uart.c ****     allows the user to configure dynamically the driver callbacks.
  76:D:/iot/felix2/targets/Cloud_STM32L431_BearPi/Drivers/STM32L4xx_HAL_Driver/Src\stm32l4xx_hal_uart.c **** 
  77:D:/iot/felix2/targets/Cloud_STM32L431_BearPi/Drivers/STM32L4xx_HAL_Driver/Src\stm32l4xx_hal_uart.c ****     [..]
  78:D:/iot/felix2/targets/Cloud_STM32L431_BearPi/Drivers/STM32L4xx_HAL_Driver/Src\stm32l4xx_hal_uart.c ****     Use Function @ref HAL_UART_RegisterCallback() to register a user callback.
  79:D:/iot/felix2/targets/Cloud_STM32L431_BearPi/Drivers/STM32L4xx_HAL_Driver/Src\stm32l4xx_hal_uart.c ****     Function @ref HAL_UART_RegisterCallback() allows to register following callbacks:
  80:D:/iot/felix2/targets/Cloud_STM32L431_BearPi/Drivers/STM32L4xx_HAL_Driver/Src\stm32l4xx_hal_uart.c ****     (+) TxHalfCpltCallback        : Tx Half Complete Callback.
  81:D:/iot/felix2/targets/Cloud_STM32L431_BearPi/Drivers/STM32L4xx_HAL_Driver/Src\stm32l4xx_hal_uart.c ****     (+) TxCpltCallback            : Tx Complete Callback.
  82:D:/iot/felix2/targets/Cloud_STM32L431_BearPi/Drivers/STM32L4xx_HAL_Driver/Src\stm32l4xx_hal_uart.c ****     (+) RxHalfCpltCallback        : Rx Half Complete Callback.
  83:D:/iot/felix2/targets/Cloud_STM32L431_BearPi/Drivers/STM32L4xx_HAL_Driver/Src\stm32l4xx_hal_uart.c ****     (+) RxCpltCallback            : Rx Complete Callback.
  84:D:/iot/felix2/targets/Cloud_STM32L431_BearPi/Drivers/STM32L4xx_HAL_Driver/Src\stm32l4xx_hal_uart.c ****     (+) ErrorCallback             : Error Callback.
  85:D:/iot/felix2/targets/Cloud_STM32L431_BearPi/Drivers/STM32L4xx_HAL_Driver/Src\stm32l4xx_hal_uart.c ****     (+) AbortCpltCallback         : Abort Complete Callback.
  86:D:/iot/felix2/targets/Cloud_STM32L431_BearPi/Drivers/STM32L4xx_HAL_Driver/Src\stm32l4xx_hal_uart.c ****     (+) AbortTransmitCpltCallback : Abort Transmit Complete Callback.
  87:D:/iot/felix2/targets/Cloud_STM32L431_BearPi/Drivers/STM32L4xx_HAL_Driver/Src\stm32l4xx_hal_uart.c ****     (+) AbortReceiveCpltCallback  : Abort Receive Complete Callback.
  88:D:/iot/felix2/targets/Cloud_STM32L431_BearPi/Drivers/STM32L4xx_HAL_Driver/Src\stm32l4xx_hal_uart.c ****     (+) WakeupCallback            : Wakeup Callback.
ARM GAS  C:\Users\91458\AppData\Local\Temp\ccrpKNIe.s 			page 3


  89:D:/iot/felix2/targets/Cloud_STM32L431_BearPi/Drivers/STM32L4xx_HAL_Driver/Src\stm32l4xx_hal_uart.c ****     (+) RxFifoFullCallback        : Rx Fifo Full Callback.
  90:D:/iot/felix2/targets/Cloud_STM32L431_BearPi/Drivers/STM32L4xx_HAL_Driver/Src\stm32l4xx_hal_uart.c ****     (+) TxFifoEmptyCallback       : Tx Fifo Empty Callback.
  91:D:/iot/felix2/targets/Cloud_STM32L431_BearPi/Drivers/STM32L4xx_HAL_Driver/Src\stm32l4xx_hal_uart.c ****     (+) MspInitCallback           : UART MspInit.
  92:D:/iot/felix2/targets/Cloud_STM32L431_BearPi/Drivers/STM32L4xx_HAL_Driver/Src\stm32l4xx_hal_uart.c ****     (+) MspDeInitCallback         : UART MspDeInit.
  93:D:/iot/felix2/targets/Cloud_STM32L431_BearPi/Drivers/STM32L4xx_HAL_Driver/Src\stm32l4xx_hal_uart.c ****     This function takes as parameters the HAL peripheral handle, the Callback ID
  94:D:/iot/felix2/targets/Cloud_STM32L431_BearPi/Drivers/STM32L4xx_HAL_Driver/Src\stm32l4xx_hal_uart.c ****     and a pointer to the user callback function.
  95:D:/iot/felix2/targets/Cloud_STM32L431_BearPi/Drivers/STM32L4xx_HAL_Driver/Src\stm32l4xx_hal_uart.c **** 
  96:D:/iot/felix2/targets/Cloud_STM32L431_BearPi/Drivers/STM32L4xx_HAL_Driver/Src\stm32l4xx_hal_uart.c ****     [..]
  97:D:/iot/felix2/targets/Cloud_STM32L431_BearPi/Drivers/STM32L4xx_HAL_Driver/Src\stm32l4xx_hal_uart.c ****     Use function @ref HAL_UART_UnRegisterCallback() to reset a callback to the default
  98:D:/iot/felix2/targets/Cloud_STM32L431_BearPi/Drivers/STM32L4xx_HAL_Driver/Src\stm32l4xx_hal_uart.c ****     weak (surcharged) function.
  99:D:/iot/felix2/targets/Cloud_STM32L431_BearPi/Drivers/STM32L4xx_HAL_Driver/Src\stm32l4xx_hal_uart.c ****     @ref HAL_UART_UnRegisterCallback() takes as parameters the HAL peripheral handle,
 100:D:/iot/felix2/targets/Cloud_STM32L431_BearPi/Drivers/STM32L4xx_HAL_Driver/Src\stm32l4xx_hal_uart.c ****     and the Callback ID.
 101:D:/iot/felix2/targets/Cloud_STM32L431_BearPi/Drivers/STM32L4xx_HAL_Driver/Src\stm32l4xx_hal_uart.c ****     This function allows to reset following callbacks:
 102:D:/iot/felix2/targets/Cloud_STM32L431_BearPi/Drivers/STM32L4xx_HAL_Driver/Src\stm32l4xx_hal_uart.c ****     (+) TxHalfCpltCallback        : Tx Half Complete Callback.
 103:D:/iot/felix2/targets/Cloud_STM32L431_BearPi/Drivers/STM32L4xx_HAL_Driver/Src\stm32l4xx_hal_uart.c ****     (+) TxCpltCallback            : Tx Complete Callback.
 104:D:/iot/felix2/targets/Cloud_STM32L431_BearPi/Drivers/STM32L4xx_HAL_Driver/Src\stm32l4xx_hal_uart.c ****     (+) RxHalfCpltCallback        : Rx Half Complete Callback.
 105:D:/iot/felix2/targets/Cloud_STM32L431_BearPi/Drivers/STM32L4xx_HAL_Driver/Src\stm32l4xx_hal_uart.c ****     (+) RxCpltCallback            : Rx Complete Callback.
 106:D:/iot/felix2/targets/Cloud_STM32L431_BearPi/Drivers/STM32L4xx_HAL_Driver/Src\stm32l4xx_hal_uart.c ****     (+) ErrorCallback             : Error Callback.
 107:D:/iot/felix2/targets/Cloud_STM32L431_BearPi/Drivers/STM32L4xx_HAL_Driver/Src\stm32l4xx_hal_uart.c ****     (+) AbortCpltCallback         : Abort Complete Callback.
 108:D:/iot/felix2/targets/Cloud_STM32L431_BearPi/Drivers/STM32L4xx_HAL_Driver/Src\stm32l4xx_hal_uart.c ****     (+) AbortTransmitCpltCallback : Abort Transmit Complete Callback.
 109:D:/iot/felix2/targets/Cloud_STM32L431_BearPi/Drivers/STM32L4xx_HAL_Driver/Src\stm32l4xx_hal_uart.c ****     (+) AbortReceiveCpltCallback  : Abort Receive Complete Callback.
 110:D:/iot/felix2/targets/Cloud_STM32L431_BearPi/Drivers/STM32L4xx_HAL_Driver/Src\stm32l4xx_hal_uart.c ****     (+) WakeupCallback            : Wakeup Callback.
 111:D:/iot/felix2/targets/Cloud_STM32L431_BearPi/Drivers/STM32L4xx_HAL_Driver/Src\stm32l4xx_hal_uart.c ****     (+) RxFifoFullCallback        : Rx Fifo Full Callback.
 112:D:/iot/felix2/targets/Cloud_STM32L431_BearPi/Drivers/STM32L4xx_HAL_Driver/Src\stm32l4xx_hal_uart.c ****     (+) TxFifoEmptyCallback       : Tx Fifo Empty Callback.
 113:D:/iot/felix2/targets/Cloud_STM32L431_BearPi/Drivers/STM32L4xx_HAL_Driver/Src\stm32l4xx_hal_uart.c ****     (+) MspInitCallback           : UART MspInit.
 114:D:/iot/felix2/targets/Cloud_STM32L431_BearPi/Drivers/STM32L4xx_HAL_Driver/Src\stm32l4xx_hal_uart.c ****     (+) MspDeInitCallback         : UART MspDeInit.
 115:D:/iot/felix2/targets/Cloud_STM32L431_BearPi/Drivers/STM32L4xx_HAL_Driver/Src\stm32l4xx_hal_uart.c **** 
 116:D:/iot/felix2/targets/Cloud_STM32L431_BearPi/Drivers/STM32L4xx_HAL_Driver/Src\stm32l4xx_hal_uart.c ****     [..]
 117:D:/iot/felix2/targets/Cloud_STM32L431_BearPi/Drivers/STM32L4xx_HAL_Driver/Src\stm32l4xx_hal_uart.c ****     By default, after the @ref HAL_UART_Init() and when the state is HAL_UART_STATE_RESET
 118:D:/iot/felix2/targets/Cloud_STM32L431_BearPi/Drivers/STM32L4xx_HAL_Driver/Src\stm32l4xx_hal_uart.c ****     all callbacks are set to the corresponding weak (surcharged) functions:
 119:D:/iot/felix2/targets/Cloud_STM32L431_BearPi/Drivers/STM32L4xx_HAL_Driver/Src\stm32l4xx_hal_uart.c ****     examples @ref HAL_UART_TxCpltCallback(), @ref HAL_UART_RxHalfCpltCallback().
 120:D:/iot/felix2/targets/Cloud_STM32L431_BearPi/Drivers/STM32L4xx_HAL_Driver/Src\stm32l4xx_hal_uart.c ****     Exception done for MspInit and MspDeInit functions that are respectively
 121:D:/iot/felix2/targets/Cloud_STM32L431_BearPi/Drivers/STM32L4xx_HAL_Driver/Src\stm32l4xx_hal_uart.c ****     reset to the legacy weak (surcharged) functions in the @ref HAL_UART_Init()
 122:D:/iot/felix2/targets/Cloud_STM32L431_BearPi/Drivers/STM32L4xx_HAL_Driver/Src\stm32l4xx_hal_uart.c ****     and @ref HAL_UART_DeInit() only when these callbacks are null (not registered beforehand).
 123:D:/iot/felix2/targets/Cloud_STM32L431_BearPi/Drivers/STM32L4xx_HAL_Driver/Src\stm32l4xx_hal_uart.c ****     If not, MspInit or MspDeInit are not null, the @ref HAL_UART_Init() and @ref HAL_UART_DeInit()
 124:D:/iot/felix2/targets/Cloud_STM32L431_BearPi/Drivers/STM32L4xx_HAL_Driver/Src\stm32l4xx_hal_uart.c ****     keep and use the user MspInit/MspDeInit callbacks (registered beforehand).
 125:D:/iot/felix2/targets/Cloud_STM32L431_BearPi/Drivers/STM32L4xx_HAL_Driver/Src\stm32l4xx_hal_uart.c **** 
 126:D:/iot/felix2/targets/Cloud_STM32L431_BearPi/Drivers/STM32L4xx_HAL_Driver/Src\stm32l4xx_hal_uart.c ****     [..]
 127:D:/iot/felix2/targets/Cloud_STM32L431_BearPi/Drivers/STM32L4xx_HAL_Driver/Src\stm32l4xx_hal_uart.c ****     Callbacks can be registered/unregistered in HAL_UART_STATE_READY state only.
 128:D:/iot/felix2/targets/Cloud_STM32L431_BearPi/Drivers/STM32L4xx_HAL_Driver/Src\stm32l4xx_hal_uart.c ****     Exception done MspInit/MspDeInit that can be registered/unregistered
 129:D:/iot/felix2/targets/Cloud_STM32L431_BearPi/Drivers/STM32L4xx_HAL_Driver/Src\stm32l4xx_hal_uart.c ****     in HAL_UART_STATE_READY or HAL_UART_STATE_RESET state, thus registered (user)
 130:D:/iot/felix2/targets/Cloud_STM32L431_BearPi/Drivers/STM32L4xx_HAL_Driver/Src\stm32l4xx_hal_uart.c ****     MspInit/DeInit callbacks can be used during the Init/DeInit.
 131:D:/iot/felix2/targets/Cloud_STM32L431_BearPi/Drivers/STM32L4xx_HAL_Driver/Src\stm32l4xx_hal_uart.c ****     In that case first register the MspInit/MspDeInit user callbacks
 132:D:/iot/felix2/targets/Cloud_STM32L431_BearPi/Drivers/STM32L4xx_HAL_Driver/Src\stm32l4xx_hal_uart.c ****     using @ref HAL_UART_RegisterCallback() before calling @ref HAL_UART_DeInit()
 133:D:/iot/felix2/targets/Cloud_STM32L431_BearPi/Drivers/STM32L4xx_HAL_Driver/Src\stm32l4xx_hal_uart.c ****     or @ref HAL_UART_Init() function.
 134:D:/iot/felix2/targets/Cloud_STM32L431_BearPi/Drivers/STM32L4xx_HAL_Driver/Src\stm32l4xx_hal_uart.c **** 
 135:D:/iot/felix2/targets/Cloud_STM32L431_BearPi/Drivers/STM32L4xx_HAL_Driver/Src\stm32l4xx_hal_uart.c ****     [..]
 136:D:/iot/felix2/targets/Cloud_STM32L431_BearPi/Drivers/STM32L4xx_HAL_Driver/Src\stm32l4xx_hal_uart.c ****     When The compilation define USE_HAL_UART_REGISTER_CALLBACKS is set to 0 or
 137:D:/iot/felix2/targets/Cloud_STM32L431_BearPi/Drivers/STM32L4xx_HAL_Driver/Src\stm32l4xx_hal_uart.c ****     not defined, the callback registration feature is not available
 138:D:/iot/felix2/targets/Cloud_STM32L431_BearPi/Drivers/STM32L4xx_HAL_Driver/Src\stm32l4xx_hal_uart.c ****     and weak (surcharged) callbacks are used.
 139:D:/iot/felix2/targets/Cloud_STM32L431_BearPi/Drivers/STM32L4xx_HAL_Driver/Src\stm32l4xx_hal_uart.c **** 
 140:D:/iot/felix2/targets/Cloud_STM32L431_BearPi/Drivers/STM32L4xx_HAL_Driver/Src\stm32l4xx_hal_uart.c **** 
 141:D:/iot/felix2/targets/Cloud_STM32L431_BearPi/Drivers/STM32L4xx_HAL_Driver/Src\stm32l4xx_hal_uart.c ****   @endverbatim
 142:D:/iot/felix2/targets/Cloud_STM32L431_BearPi/Drivers/STM32L4xx_HAL_Driver/Src\stm32l4xx_hal_uart.c ****   ******************************************************************************
 143:D:/iot/felix2/targets/Cloud_STM32L431_BearPi/Drivers/STM32L4xx_HAL_Driver/Src\stm32l4xx_hal_uart.c ****   * @attention
 144:D:/iot/felix2/targets/Cloud_STM32L431_BearPi/Drivers/STM32L4xx_HAL_Driver/Src\stm32l4xx_hal_uart.c ****   *
 145:D:/iot/felix2/targets/Cloud_STM32L431_BearPi/Drivers/STM32L4xx_HAL_Driver/Src\stm32l4xx_hal_uart.c ****   * <h2><center>&copy; COPYRIGHT(c) 2017 STMicroelectronics</center></h2>
ARM GAS  C:\Users\91458\AppData\Local\Temp\ccrpKNIe.s 			page 4


 146:D:/iot/felix2/targets/Cloud_STM32L431_BearPi/Drivers/STM32L4xx_HAL_Driver/Src\stm32l4xx_hal_uart.c ****   *
 147:D:/iot/felix2/targets/Cloud_STM32L431_BearPi/Drivers/STM32L4xx_HAL_Driver/Src\stm32l4xx_hal_uart.c ****   * Redistribution and use in source and binary forms, with or without modification,
 148:D:/iot/felix2/targets/Cloud_STM32L431_BearPi/Drivers/STM32L4xx_HAL_Driver/Src\stm32l4xx_hal_uart.c ****   * are permitted provided that the following conditions are met:
 149:D:/iot/felix2/targets/Cloud_STM32L431_BearPi/Drivers/STM32L4xx_HAL_Driver/Src\stm32l4xx_hal_uart.c ****   *   1. Redistributions of source code must retain the above copyright notice,
 150:D:/iot/felix2/targets/Cloud_STM32L431_BearPi/Drivers/STM32L4xx_HAL_Driver/Src\stm32l4xx_hal_uart.c ****   *      this list of conditions and the following disclaimer.
 151:D:/iot/felix2/targets/Cloud_STM32L431_BearPi/Drivers/STM32L4xx_HAL_Driver/Src\stm32l4xx_hal_uart.c ****   *   2. Redistributions in binary form must reproduce the above copyright notice,
 152:D:/iot/felix2/targets/Cloud_STM32L431_BearPi/Drivers/STM32L4xx_HAL_Driver/Src\stm32l4xx_hal_uart.c ****   *      this list of conditions and the following disclaimer in the documentation
 153:D:/iot/felix2/targets/Cloud_STM32L431_BearPi/Drivers/STM32L4xx_HAL_Driver/Src\stm32l4xx_hal_uart.c ****   *      and/or other materials provided with the distribution.
 154:D:/iot/felix2/targets/Cloud_STM32L431_BearPi/Drivers/STM32L4xx_HAL_Driver/Src\stm32l4xx_hal_uart.c ****   *   3. Neither the name of STMicroelectronics nor the names of its contributors
 155:D:/iot/felix2/targets/Cloud_STM32L431_BearPi/Drivers/STM32L4xx_HAL_Driver/Src\stm32l4xx_hal_uart.c ****   *      may be used to endorse or promote products derived from this software
 156:D:/iot/felix2/targets/Cloud_STM32L431_BearPi/Drivers/STM32L4xx_HAL_Driver/Src\stm32l4xx_hal_uart.c ****   *      without specific prior written permission.
 157:D:/iot/felix2/targets/Cloud_STM32L431_BearPi/Drivers/STM32L4xx_HAL_Driver/Src\stm32l4xx_hal_uart.c ****   *
 158:D:/iot/felix2/targets/Cloud_STM32L431_BearPi/Drivers/STM32L4xx_HAL_Driver/Src\stm32l4xx_hal_uart.c ****   * THIS SOFTWARE IS PROVIDED BY THE COPYRIGHT HOLDERS AND CONTRIBUTORS "AS IS"
 159:D:/iot/felix2/targets/Cloud_STM32L431_BearPi/Drivers/STM32L4xx_HAL_Driver/Src\stm32l4xx_hal_uart.c ****   * AND ANY EXPRESS OR IMPLIED WARRANTIES, INCLUDING, BUT NOT LIMITED TO, THE
 160:D:/iot/felix2/targets/Cloud_STM32L431_BearPi/Drivers/STM32L4xx_HAL_Driver/Src\stm32l4xx_hal_uart.c ****   * IMPLIED WARRANTIES OF MERCHANTABILITY AND FITNESS FOR A PARTICULAR PURPOSE ARE
 161:D:/iot/felix2/targets/Cloud_STM32L431_BearPi/Drivers/STM32L4xx_HAL_Driver/Src\stm32l4xx_hal_uart.c ****   * DISCLAIMED. IN NO EVENT SHALL THE COPYRIGHT HOLDER OR CONTRIBUTORS BE LIABLE
 162:D:/iot/felix2/targets/Cloud_STM32L431_BearPi/Drivers/STM32L4xx_HAL_Driver/Src\stm32l4xx_hal_uart.c ****   * FOR ANY DIRECT, INDIRECT, INCIDENTAL, SPECIAL, EXEMPLARY, OR CONSEQUENTIAL
 163:D:/iot/felix2/targets/Cloud_STM32L431_BearPi/Drivers/STM32L4xx_HAL_Driver/Src\stm32l4xx_hal_uart.c ****   * DAMAGES (INCLUDING, BUT NOT LIMITED TO, PROCUREMENT OF SUBSTITUTE GOODS OR
 164:D:/iot/felix2/targets/Cloud_STM32L431_BearPi/Drivers/STM32L4xx_HAL_Driver/Src\stm32l4xx_hal_uart.c ****   * SERVICES; LOSS OF USE, DATA, OR PROFITS; OR BUSINESS INTERRUPTION) HOWEVER
 165:D:/iot/felix2/targets/Cloud_STM32L431_BearPi/Drivers/STM32L4xx_HAL_Driver/Src\stm32l4xx_hal_uart.c ****   * CAUSED AND ON ANY THEORY OF LIABILITY, WHETHER IN CONTRACT, STRICT LIABILITY,
 166:D:/iot/felix2/targets/Cloud_STM32L431_BearPi/Drivers/STM32L4xx_HAL_Driver/Src\stm32l4xx_hal_uart.c ****   * OR TORT (INCLUDING NEGLIGENCE OR OTHERWISE) ARISING IN ANY WAY OUT OF THE USE
 167:D:/iot/felix2/targets/Cloud_STM32L431_BearPi/Drivers/STM32L4xx_HAL_Driver/Src\stm32l4xx_hal_uart.c ****   * OF THIS SOFTWARE, EVEN IF ADVISED OF THE POSSIBILITY OF SUCH DAMAGE.
 168:D:/iot/felix2/targets/Cloud_STM32L431_BearPi/Drivers/STM32L4xx_HAL_Driver/Src\stm32l4xx_hal_uart.c ****   *
 169:D:/iot/felix2/targets/Cloud_STM32L431_BearPi/Drivers/STM32L4xx_HAL_Driver/Src\stm32l4xx_hal_uart.c ****   ******************************************************************************
 170:D:/iot/felix2/targets/Cloud_STM32L431_BearPi/Drivers/STM32L4xx_HAL_Driver/Src\stm32l4xx_hal_uart.c ****   */
 171:D:/iot/felix2/targets/Cloud_STM32L431_BearPi/Drivers/STM32L4xx_HAL_Driver/Src\stm32l4xx_hal_uart.c **** 
 172:D:/iot/felix2/targets/Cloud_STM32L431_BearPi/Drivers/STM32L4xx_HAL_Driver/Src\stm32l4xx_hal_uart.c **** /* Includes ------------------------------------------------------------------*/
 173:D:/iot/felix2/targets/Cloud_STM32L431_BearPi/Drivers/STM32L4xx_HAL_Driver/Src\stm32l4xx_hal_uart.c **** #include "stm32l4xx_hal.h"
 174:D:/iot/felix2/targets/Cloud_STM32L431_BearPi/Drivers/STM32L4xx_HAL_Driver/Src\stm32l4xx_hal_uart.c **** 
 175:D:/iot/felix2/targets/Cloud_STM32L431_BearPi/Drivers/STM32L4xx_HAL_Driver/Src\stm32l4xx_hal_uart.c **** /** @addtogroup STM32L4xx_HAL_Driver
 176:D:/iot/felix2/targets/Cloud_STM32L431_BearPi/Drivers/STM32L4xx_HAL_Driver/Src\stm32l4xx_hal_uart.c ****   * @{
 177:D:/iot/felix2/targets/Cloud_STM32L431_BearPi/Drivers/STM32L4xx_HAL_Driver/Src\stm32l4xx_hal_uart.c ****   */
 178:D:/iot/felix2/targets/Cloud_STM32L431_BearPi/Drivers/STM32L4xx_HAL_Driver/Src\stm32l4xx_hal_uart.c **** 
 179:D:/iot/felix2/targets/Cloud_STM32L431_BearPi/Drivers/STM32L4xx_HAL_Driver/Src\stm32l4xx_hal_uart.c **** /** @defgroup UART UART
 180:D:/iot/felix2/targets/Cloud_STM32L431_BearPi/Drivers/STM32L4xx_HAL_Driver/Src\stm32l4xx_hal_uart.c ****   * @brief HAL UART module driver
 181:D:/iot/felix2/targets/Cloud_STM32L431_BearPi/Drivers/STM32L4xx_HAL_Driver/Src\stm32l4xx_hal_uart.c ****   * @{
 182:D:/iot/felix2/targets/Cloud_STM32L431_BearPi/Drivers/STM32L4xx_HAL_Driver/Src\stm32l4xx_hal_uart.c ****   */
 183:D:/iot/felix2/targets/Cloud_STM32L431_BearPi/Drivers/STM32L4xx_HAL_Driver/Src\stm32l4xx_hal_uart.c **** 
 184:D:/iot/felix2/targets/Cloud_STM32L431_BearPi/Drivers/STM32L4xx_HAL_Driver/Src\stm32l4xx_hal_uart.c **** #ifdef HAL_UART_MODULE_ENABLED
 185:D:/iot/felix2/targets/Cloud_STM32L431_BearPi/Drivers/STM32L4xx_HAL_Driver/Src\stm32l4xx_hal_uart.c **** 
 186:D:/iot/felix2/targets/Cloud_STM32L431_BearPi/Drivers/STM32L4xx_HAL_Driver/Src\stm32l4xx_hal_uart.c **** /* Private typedef -----------------------------------------------------------*/
 187:D:/iot/felix2/targets/Cloud_STM32L431_BearPi/Drivers/STM32L4xx_HAL_Driver/Src\stm32l4xx_hal_uart.c **** /* Private define ------------------------------------------------------------*/
 188:D:/iot/felix2/targets/Cloud_STM32L431_BearPi/Drivers/STM32L4xx_HAL_Driver/Src\stm32l4xx_hal_uart.c **** /** @defgroup UART_Private_Constants UART Private Constants
 189:D:/iot/felix2/targets/Cloud_STM32L431_BearPi/Drivers/STM32L4xx_HAL_Driver/Src\stm32l4xx_hal_uart.c ****   * @{
 190:D:/iot/felix2/targets/Cloud_STM32L431_BearPi/Drivers/STM32L4xx_HAL_Driver/Src\stm32l4xx_hal_uart.c ****   */
 191:D:/iot/felix2/targets/Cloud_STM32L431_BearPi/Drivers/STM32L4xx_HAL_Driver/Src\stm32l4xx_hal_uart.c **** #if defined(USART_CR1_FIFOEN)
 192:D:/iot/felix2/targets/Cloud_STM32L431_BearPi/Drivers/STM32L4xx_HAL_Driver/Src\stm32l4xx_hal_uart.c **** #define USART_CR1_FIELDS  ((uint32_t)(USART_CR1_M | USART_CR1_PCE | USART_CR1_PS | \
 193:D:/iot/felix2/targets/Cloud_STM32L431_BearPi/Drivers/STM32L4xx_HAL_Driver/Src\stm32l4xx_hal_uart.c ****                                       USART_CR1_TE | USART_CR1_RE | USART_CR1_OVER8| \
 194:D:/iot/felix2/targets/Cloud_STM32L431_BearPi/Drivers/STM32L4xx_HAL_Driver/Src\stm32l4xx_hal_uart.c ****                                       USART_CR1_FIFOEN ))                      /*!< UART or USART C
 195:D:/iot/felix2/targets/Cloud_STM32L431_BearPi/Drivers/STM32L4xx_HAL_Driver/Src\stm32l4xx_hal_uart.c **** #else
 196:D:/iot/felix2/targets/Cloud_STM32L431_BearPi/Drivers/STM32L4xx_HAL_Driver/Src\stm32l4xx_hal_uart.c **** #define USART_CR1_FIELDS  ((uint32_t)(USART_CR1_M | USART_CR1_PCE | USART_CR1_PS | \
 197:D:/iot/felix2/targets/Cloud_STM32L431_BearPi/Drivers/STM32L4xx_HAL_Driver/Src\stm32l4xx_hal_uart.c ****                                       USART_CR1_TE | USART_CR1_RE | USART_CR1_OVER8 )) /*!< UART or
 198:D:/iot/felix2/targets/Cloud_STM32L431_BearPi/Drivers/STM32L4xx_HAL_Driver/Src\stm32l4xx_hal_uart.c **** #endif
 199:D:/iot/felix2/targets/Cloud_STM32L431_BearPi/Drivers/STM32L4xx_HAL_Driver/Src\stm32l4xx_hal_uart.c **** 
 200:D:/iot/felix2/targets/Cloud_STM32L431_BearPi/Drivers/STM32L4xx_HAL_Driver/Src\stm32l4xx_hal_uart.c **** #if defined(USART_CR1_FIFOEN)
 201:D:/iot/felix2/targets/Cloud_STM32L431_BearPi/Drivers/STM32L4xx_HAL_Driver/Src\stm32l4xx_hal_uart.c **** #define USART_CR3_FIELDS  ((uint32_t)(USART_CR3_RTSE | USART_CR3_CTSE | USART_CR3_ONEBIT| \
 202:D:/iot/felix2/targets/Cloud_STM32L431_BearPi/Drivers/STM32L4xx_HAL_Driver/Src\stm32l4xx_hal_uart.c ****                                       USART_CR3_TXFTCFG | USART_CR3_RXFTCFG ))  /*!< UART or USART 
ARM GAS  C:\Users\91458\AppData\Local\Temp\ccrpKNIe.s 			page 5


 203:D:/iot/felix2/targets/Cloud_STM32L431_BearPi/Drivers/STM32L4xx_HAL_Driver/Src\stm32l4xx_hal_uart.c **** #else
 204:D:/iot/felix2/targets/Cloud_STM32L431_BearPi/Drivers/STM32L4xx_HAL_Driver/Src\stm32l4xx_hal_uart.c **** #define USART_CR3_FIELDS  ((uint32_t)(USART_CR3_RTSE | USART_CR3_CTSE | USART_CR3_ONEBIT))  /*!< UA
 205:D:/iot/felix2/targets/Cloud_STM32L431_BearPi/Drivers/STM32L4xx_HAL_Driver/Src\stm32l4xx_hal_uart.c **** #endif
 206:D:/iot/felix2/targets/Cloud_STM32L431_BearPi/Drivers/STM32L4xx_HAL_Driver/Src\stm32l4xx_hal_uart.c **** 
 207:D:/iot/felix2/targets/Cloud_STM32L431_BearPi/Drivers/STM32L4xx_HAL_Driver/Src\stm32l4xx_hal_uart.c **** #define LPUART_BRR_MIN  0x00000300U  /* LPUART BRR minimum authorized value */
 208:D:/iot/felix2/targets/Cloud_STM32L431_BearPi/Drivers/STM32L4xx_HAL_Driver/Src\stm32l4xx_hal_uart.c **** #define LPUART_BRR_MAX  0x000FFFFFU  /* LPUART BRR maximum authorized value */
 209:D:/iot/felix2/targets/Cloud_STM32L431_BearPi/Drivers/STM32L4xx_HAL_Driver/Src\stm32l4xx_hal_uart.c **** 
 210:D:/iot/felix2/targets/Cloud_STM32L431_BearPi/Drivers/STM32L4xx_HAL_Driver/Src\stm32l4xx_hal_uart.c **** #define UART_BRR_MIN    0x10U        /* UART BRR minimum authorized value */
 211:D:/iot/felix2/targets/Cloud_STM32L431_BearPi/Drivers/STM32L4xx_HAL_Driver/Src\stm32l4xx_hal_uart.c **** #define UART_BRR_MAX    0x0000FFFFU  /* UART BRR maximum authorized value */
 212:D:/iot/felix2/targets/Cloud_STM32L431_BearPi/Drivers/STM32L4xx_HAL_Driver/Src\stm32l4xx_hal_uart.c **** 
 213:D:/iot/felix2/targets/Cloud_STM32L431_BearPi/Drivers/STM32L4xx_HAL_Driver/Src\stm32l4xx_hal_uart.c **** /**
 214:D:/iot/felix2/targets/Cloud_STM32L431_BearPi/Drivers/STM32L4xx_HAL_Driver/Src\stm32l4xx_hal_uart.c ****   * @}
 215:D:/iot/felix2/targets/Cloud_STM32L431_BearPi/Drivers/STM32L4xx_HAL_Driver/Src\stm32l4xx_hal_uart.c ****   */
 216:D:/iot/felix2/targets/Cloud_STM32L431_BearPi/Drivers/STM32L4xx_HAL_Driver/Src\stm32l4xx_hal_uart.c **** 
 217:D:/iot/felix2/targets/Cloud_STM32L431_BearPi/Drivers/STM32L4xx_HAL_Driver/Src\stm32l4xx_hal_uart.c **** /* Private macros ------------------------------------------------------------*/
 218:D:/iot/felix2/targets/Cloud_STM32L431_BearPi/Drivers/STM32L4xx_HAL_Driver/Src\stm32l4xx_hal_uart.c **** /* Private variables ---------------------------------------------------------*/
 219:D:/iot/felix2/targets/Cloud_STM32L431_BearPi/Drivers/STM32L4xx_HAL_Driver/Src\stm32l4xx_hal_uart.c **** /* Private function prototypes -----------------------------------------------*/
 220:D:/iot/felix2/targets/Cloud_STM32L431_BearPi/Drivers/STM32L4xx_HAL_Driver/Src\stm32l4xx_hal_uart.c **** /** @addtogroup UART_Private_Functions
 221:D:/iot/felix2/targets/Cloud_STM32L431_BearPi/Drivers/STM32L4xx_HAL_Driver/Src\stm32l4xx_hal_uart.c ****   * @{
 222:D:/iot/felix2/targets/Cloud_STM32L431_BearPi/Drivers/STM32L4xx_HAL_Driver/Src\stm32l4xx_hal_uart.c ****   */
 223:D:/iot/felix2/targets/Cloud_STM32L431_BearPi/Drivers/STM32L4xx_HAL_Driver/Src\stm32l4xx_hal_uart.c **** #if (USE_HAL_UART_REGISTER_CALLBACKS == 1)
 224:D:/iot/felix2/targets/Cloud_STM32L431_BearPi/Drivers/STM32L4xx_HAL_Driver/Src\stm32l4xx_hal_uart.c **** void UART_InitCallbacksToDefault(UART_HandleTypeDef *huart);
 225:D:/iot/felix2/targets/Cloud_STM32L431_BearPi/Drivers/STM32L4xx_HAL_Driver/Src\stm32l4xx_hal_uart.c **** #endif /* USE_HAL_UART_REGISTER_CALLBACKS */
 226:D:/iot/felix2/targets/Cloud_STM32L431_BearPi/Drivers/STM32L4xx_HAL_Driver/Src\stm32l4xx_hal_uart.c **** static void UART_EndTxTransfer(UART_HandleTypeDef *huart);
 227:D:/iot/felix2/targets/Cloud_STM32L431_BearPi/Drivers/STM32L4xx_HAL_Driver/Src\stm32l4xx_hal_uart.c **** static void UART_EndRxTransfer(UART_HandleTypeDef *huart);
 228:D:/iot/felix2/targets/Cloud_STM32L431_BearPi/Drivers/STM32L4xx_HAL_Driver/Src\stm32l4xx_hal_uart.c **** static void UART_DMATransmitCplt(DMA_HandleTypeDef *hdma);
 229:D:/iot/felix2/targets/Cloud_STM32L431_BearPi/Drivers/STM32L4xx_HAL_Driver/Src\stm32l4xx_hal_uart.c **** static void UART_DMAReceiveCplt(DMA_HandleTypeDef *hdma);
 230:D:/iot/felix2/targets/Cloud_STM32L431_BearPi/Drivers/STM32L4xx_HAL_Driver/Src\stm32l4xx_hal_uart.c **** static void UART_DMARxHalfCplt(DMA_HandleTypeDef *hdma);
 231:D:/iot/felix2/targets/Cloud_STM32L431_BearPi/Drivers/STM32L4xx_HAL_Driver/Src\stm32l4xx_hal_uart.c **** static void UART_DMATxHalfCplt(DMA_HandleTypeDef *hdma);
 232:D:/iot/felix2/targets/Cloud_STM32L431_BearPi/Drivers/STM32L4xx_HAL_Driver/Src\stm32l4xx_hal_uart.c **** static void UART_DMAError(DMA_HandleTypeDef *hdma);
 233:D:/iot/felix2/targets/Cloud_STM32L431_BearPi/Drivers/STM32L4xx_HAL_Driver/Src\stm32l4xx_hal_uart.c **** static void UART_DMAAbortOnError(DMA_HandleTypeDef *hdma);
 234:D:/iot/felix2/targets/Cloud_STM32L431_BearPi/Drivers/STM32L4xx_HAL_Driver/Src\stm32l4xx_hal_uart.c **** static void UART_DMATxAbortCallback(DMA_HandleTypeDef *hdma);
 235:D:/iot/felix2/targets/Cloud_STM32L431_BearPi/Drivers/STM32L4xx_HAL_Driver/Src\stm32l4xx_hal_uart.c **** static void UART_DMARxAbortCallback(DMA_HandleTypeDef *hdma);
 236:D:/iot/felix2/targets/Cloud_STM32L431_BearPi/Drivers/STM32L4xx_HAL_Driver/Src\stm32l4xx_hal_uart.c **** static void UART_DMATxOnlyAbortCallback(DMA_HandleTypeDef *hdma);
 237:D:/iot/felix2/targets/Cloud_STM32L431_BearPi/Drivers/STM32L4xx_HAL_Driver/Src\stm32l4xx_hal_uart.c **** static void UART_DMARxOnlyAbortCallback(DMA_HandleTypeDef *hdma);
 238:D:/iot/felix2/targets/Cloud_STM32L431_BearPi/Drivers/STM32L4xx_HAL_Driver/Src\stm32l4xx_hal_uart.c **** static void UART_TxISR_8BIT(UART_HandleTypeDef *huart);
 239:D:/iot/felix2/targets/Cloud_STM32L431_BearPi/Drivers/STM32L4xx_HAL_Driver/Src\stm32l4xx_hal_uart.c **** static void UART_TxISR_16BIT(UART_HandleTypeDef *huart);
 240:D:/iot/felix2/targets/Cloud_STM32L431_BearPi/Drivers/STM32L4xx_HAL_Driver/Src\stm32l4xx_hal_uart.c **** #if defined(USART_CR1_FIFOEN)
 241:D:/iot/felix2/targets/Cloud_STM32L431_BearPi/Drivers/STM32L4xx_HAL_Driver/Src\stm32l4xx_hal_uart.c **** static void UART_TxISR_8BIT_FIFOEN(UART_HandleTypeDef *huart);
 242:D:/iot/felix2/targets/Cloud_STM32L431_BearPi/Drivers/STM32L4xx_HAL_Driver/Src\stm32l4xx_hal_uart.c **** static void UART_TxISR_16BIT_FIFOEN(UART_HandleTypeDef *huart);
 243:D:/iot/felix2/targets/Cloud_STM32L431_BearPi/Drivers/STM32L4xx_HAL_Driver/Src\stm32l4xx_hal_uart.c **** #endif
 244:D:/iot/felix2/targets/Cloud_STM32L431_BearPi/Drivers/STM32L4xx_HAL_Driver/Src\stm32l4xx_hal_uart.c **** static void UART_EndTransmit_IT(UART_HandleTypeDef *huart);
 245:D:/iot/felix2/targets/Cloud_STM32L431_BearPi/Drivers/STM32L4xx_HAL_Driver/Src\stm32l4xx_hal_uart.c **** static void UART_RxISR_8BIT(UART_HandleTypeDef *huart);
 246:D:/iot/felix2/targets/Cloud_STM32L431_BearPi/Drivers/STM32L4xx_HAL_Driver/Src\stm32l4xx_hal_uart.c **** static void UART_RxISR_16BIT(UART_HandleTypeDef *huart);
 247:D:/iot/felix2/targets/Cloud_STM32L431_BearPi/Drivers/STM32L4xx_HAL_Driver/Src\stm32l4xx_hal_uart.c **** #if defined(USART_CR1_FIFOEN)
 248:D:/iot/felix2/targets/Cloud_STM32L431_BearPi/Drivers/STM32L4xx_HAL_Driver/Src\stm32l4xx_hal_uart.c **** static void UART_RxISR_8BIT_FIFOEN(UART_HandleTypeDef *huart);
 249:D:/iot/felix2/targets/Cloud_STM32L431_BearPi/Drivers/STM32L4xx_HAL_Driver/Src\stm32l4xx_hal_uart.c **** static void UART_RxISR_16BIT_FIFOEN(UART_HandleTypeDef *huart);
 250:D:/iot/felix2/targets/Cloud_STM32L431_BearPi/Drivers/STM32L4xx_HAL_Driver/Src\stm32l4xx_hal_uart.c **** #endif
 251:D:/iot/felix2/targets/Cloud_STM32L431_BearPi/Drivers/STM32L4xx_HAL_Driver/Src\stm32l4xx_hal_uart.c **** /**
 252:D:/iot/felix2/targets/Cloud_STM32L431_BearPi/Drivers/STM32L4xx_HAL_Driver/Src\stm32l4xx_hal_uart.c ****   * @}
 253:D:/iot/felix2/targets/Cloud_STM32L431_BearPi/Drivers/STM32L4xx_HAL_Driver/Src\stm32l4xx_hal_uart.c ****   */
 254:D:/iot/felix2/targets/Cloud_STM32L431_BearPi/Drivers/STM32L4xx_HAL_Driver/Src\stm32l4xx_hal_uart.c **** 
 255:D:/iot/felix2/targets/Cloud_STM32L431_BearPi/Drivers/STM32L4xx_HAL_Driver/Src\stm32l4xx_hal_uart.c **** /* Exported functions --------------------------------------------------------*/
 256:D:/iot/felix2/targets/Cloud_STM32L431_BearPi/Drivers/STM32L4xx_HAL_Driver/Src\stm32l4xx_hal_uart.c **** 
 257:D:/iot/felix2/targets/Cloud_STM32L431_BearPi/Drivers/STM32L4xx_HAL_Driver/Src\stm32l4xx_hal_uart.c **** /** @defgroup UART_Exported_Functions UART Exported Functions
 258:D:/iot/felix2/targets/Cloud_STM32L431_BearPi/Drivers/STM32L4xx_HAL_Driver/Src\stm32l4xx_hal_uart.c ****   * @{
 259:D:/iot/felix2/targets/Cloud_STM32L431_BearPi/Drivers/STM32L4xx_HAL_Driver/Src\stm32l4xx_hal_uart.c ****   */
ARM GAS  C:\Users\91458\AppData\Local\Temp\ccrpKNIe.s 			page 6


 260:D:/iot/felix2/targets/Cloud_STM32L431_BearPi/Drivers/STM32L4xx_HAL_Driver/Src\stm32l4xx_hal_uart.c **** 
 261:D:/iot/felix2/targets/Cloud_STM32L431_BearPi/Drivers/STM32L4xx_HAL_Driver/Src\stm32l4xx_hal_uart.c **** /** @defgroup UART_Exported_Functions_Group1 Initialization and de-initialization functions
 262:D:/iot/felix2/targets/Cloud_STM32L431_BearPi/Drivers/STM32L4xx_HAL_Driver/Src\stm32l4xx_hal_uart.c ****   *  @brief    Initialization and Configuration functions
 263:D:/iot/felix2/targets/Cloud_STM32L431_BearPi/Drivers/STM32L4xx_HAL_Driver/Src\stm32l4xx_hal_uart.c ****   *
 264:D:/iot/felix2/targets/Cloud_STM32L431_BearPi/Drivers/STM32L4xx_HAL_Driver/Src\stm32l4xx_hal_uart.c **** @verbatim
 265:D:/iot/felix2/targets/Cloud_STM32L431_BearPi/Drivers/STM32L4xx_HAL_Driver/Src\stm32l4xx_hal_uart.c **** ===============================================================================
 266:D:/iot/felix2/targets/Cloud_STM32L431_BearPi/Drivers/STM32L4xx_HAL_Driver/Src\stm32l4xx_hal_uart.c ****             ##### Initialization and Configuration functions #####
 267:D:/iot/felix2/targets/Cloud_STM32L431_BearPi/Drivers/STM32L4xx_HAL_Driver/Src\stm32l4xx_hal_uart.c ****  ===============================================================================
 268:D:/iot/felix2/targets/Cloud_STM32L431_BearPi/Drivers/STM32L4xx_HAL_Driver/Src\stm32l4xx_hal_uart.c ****     [..]
 269:D:/iot/felix2/targets/Cloud_STM32L431_BearPi/Drivers/STM32L4xx_HAL_Driver/Src\stm32l4xx_hal_uart.c ****     This subsection provides a set of functions allowing to initialize the USARTx or the UARTy
 270:D:/iot/felix2/targets/Cloud_STM32L431_BearPi/Drivers/STM32L4xx_HAL_Driver/Src\stm32l4xx_hal_uart.c ****     in asynchronous mode.
 271:D:/iot/felix2/targets/Cloud_STM32L431_BearPi/Drivers/STM32L4xx_HAL_Driver/Src\stm32l4xx_hal_uart.c ****       (+) For the asynchronous mode the parameters below can be configured:
 272:D:/iot/felix2/targets/Cloud_STM32L431_BearPi/Drivers/STM32L4xx_HAL_Driver/Src\stm32l4xx_hal_uart.c ****         (++) Baud Rate
 273:D:/iot/felix2/targets/Cloud_STM32L431_BearPi/Drivers/STM32L4xx_HAL_Driver/Src\stm32l4xx_hal_uart.c ****         (++) Word Length
 274:D:/iot/felix2/targets/Cloud_STM32L431_BearPi/Drivers/STM32L4xx_HAL_Driver/Src\stm32l4xx_hal_uart.c ****         (++) Stop Bit
 275:D:/iot/felix2/targets/Cloud_STM32L431_BearPi/Drivers/STM32L4xx_HAL_Driver/Src\stm32l4xx_hal_uart.c ****         (++) Parity: If the parity is enabled, then the MSB bit of the data written
 276:D:/iot/felix2/targets/Cloud_STM32L431_BearPi/Drivers/STM32L4xx_HAL_Driver/Src\stm32l4xx_hal_uart.c ****              in the data register is transmitted but is changed by the parity bit.
 277:D:/iot/felix2/targets/Cloud_STM32L431_BearPi/Drivers/STM32L4xx_HAL_Driver/Src\stm32l4xx_hal_uart.c ****         (++) Hardware flow control
 278:D:/iot/felix2/targets/Cloud_STM32L431_BearPi/Drivers/STM32L4xx_HAL_Driver/Src\stm32l4xx_hal_uart.c ****         (++) Receiver/transmitter modes
 279:D:/iot/felix2/targets/Cloud_STM32L431_BearPi/Drivers/STM32L4xx_HAL_Driver/Src\stm32l4xx_hal_uart.c ****         (++) Over Sampling Method
 280:D:/iot/felix2/targets/Cloud_STM32L431_BearPi/Drivers/STM32L4xx_HAL_Driver/Src\stm32l4xx_hal_uart.c ****         (++) One-Bit Sampling Method
 281:D:/iot/felix2/targets/Cloud_STM32L431_BearPi/Drivers/STM32L4xx_HAL_Driver/Src\stm32l4xx_hal_uart.c ****       (+) For the asynchronous mode, the following advanced features can be configured as well:
 282:D:/iot/felix2/targets/Cloud_STM32L431_BearPi/Drivers/STM32L4xx_HAL_Driver/Src\stm32l4xx_hal_uart.c ****         (++) TX and/or RX pin level inversion
 283:D:/iot/felix2/targets/Cloud_STM32L431_BearPi/Drivers/STM32L4xx_HAL_Driver/Src\stm32l4xx_hal_uart.c ****         (++) data logical level inversion
 284:D:/iot/felix2/targets/Cloud_STM32L431_BearPi/Drivers/STM32L4xx_HAL_Driver/Src\stm32l4xx_hal_uart.c ****         (++) RX and TX pins swap
 285:D:/iot/felix2/targets/Cloud_STM32L431_BearPi/Drivers/STM32L4xx_HAL_Driver/Src\stm32l4xx_hal_uart.c ****         (++) RX overrun detection disabling
 286:D:/iot/felix2/targets/Cloud_STM32L431_BearPi/Drivers/STM32L4xx_HAL_Driver/Src\stm32l4xx_hal_uart.c ****         (++) DMA disabling on RX error
 287:D:/iot/felix2/targets/Cloud_STM32L431_BearPi/Drivers/STM32L4xx_HAL_Driver/Src\stm32l4xx_hal_uart.c ****         (++) MSB first on communication line
 288:D:/iot/felix2/targets/Cloud_STM32L431_BearPi/Drivers/STM32L4xx_HAL_Driver/Src\stm32l4xx_hal_uart.c ****         (++) auto Baud rate detection
 289:D:/iot/felix2/targets/Cloud_STM32L431_BearPi/Drivers/STM32L4xx_HAL_Driver/Src\stm32l4xx_hal_uart.c ****     [..]
 290:D:/iot/felix2/targets/Cloud_STM32L431_BearPi/Drivers/STM32L4xx_HAL_Driver/Src\stm32l4xx_hal_uart.c ****     The HAL_UART_Init(), HAL_HalfDuplex_Init(), HAL_LIN_Init()and HAL_MultiProcessor_Init()API
 291:D:/iot/felix2/targets/Cloud_STM32L431_BearPi/Drivers/STM32L4xx_HAL_Driver/Src\stm32l4xx_hal_uart.c ****     follow respectively the UART asynchronous, UART Half duplex, UART LIN mode
 292:D:/iot/felix2/targets/Cloud_STM32L431_BearPi/Drivers/STM32L4xx_HAL_Driver/Src\stm32l4xx_hal_uart.c ****     and UART multiprocessor mode configuration procedures (details for the procedures
 293:D:/iot/felix2/targets/Cloud_STM32L431_BearPi/Drivers/STM32L4xx_HAL_Driver/Src\stm32l4xx_hal_uart.c ****     are available in reference manual).
 294:D:/iot/felix2/targets/Cloud_STM32L431_BearPi/Drivers/STM32L4xx_HAL_Driver/Src\stm32l4xx_hal_uart.c **** 
 295:D:/iot/felix2/targets/Cloud_STM32L431_BearPi/Drivers/STM32L4xx_HAL_Driver/Src\stm32l4xx_hal_uart.c **** @endverbatim
 296:D:/iot/felix2/targets/Cloud_STM32L431_BearPi/Drivers/STM32L4xx_HAL_Driver/Src\stm32l4xx_hal_uart.c **** 
 297:D:/iot/felix2/targets/Cloud_STM32L431_BearPi/Drivers/STM32L4xx_HAL_Driver/Src\stm32l4xx_hal_uart.c ****   Depending on the frame length defined by the M1 and M0 bits (7-bit,
 298:D:/iot/felix2/targets/Cloud_STM32L431_BearPi/Drivers/STM32L4xx_HAL_Driver/Src\stm32l4xx_hal_uart.c ****   8-bit or 9-bit), the possible UART formats are listed in the
 299:D:/iot/felix2/targets/Cloud_STM32L431_BearPi/Drivers/STM32L4xx_HAL_Driver/Src\stm32l4xx_hal_uart.c ****   following table.
 300:D:/iot/felix2/targets/Cloud_STM32L431_BearPi/Drivers/STM32L4xx_HAL_Driver/Src\stm32l4xx_hal_uart.c **** 
 301:D:/iot/felix2/targets/Cloud_STM32L431_BearPi/Drivers/STM32L4xx_HAL_Driver/Src\stm32l4xx_hal_uart.c ****   Table 1. UART frame format.
 302:D:/iot/felix2/targets/Cloud_STM32L431_BearPi/Drivers/STM32L4xx_HAL_Driver/Src\stm32l4xx_hal_uart.c ****     +-----------------------------------------------------------------------+
 303:D:/iot/felix2/targets/Cloud_STM32L431_BearPi/Drivers/STM32L4xx_HAL_Driver/Src\stm32l4xx_hal_uart.c ****     |  M1 bit |  M0 bit |  PCE bit  |             UART frame                |
 304:D:/iot/felix2/targets/Cloud_STM32L431_BearPi/Drivers/STM32L4xx_HAL_Driver/Src\stm32l4xx_hal_uart.c ****     |---------|---------|-----------|---------------------------------------|
 305:D:/iot/felix2/targets/Cloud_STM32L431_BearPi/Drivers/STM32L4xx_HAL_Driver/Src\stm32l4xx_hal_uart.c ****     |    0    |    0    |    0      |    | SB |    8 bit data   | STB |     |
 306:D:/iot/felix2/targets/Cloud_STM32L431_BearPi/Drivers/STM32L4xx_HAL_Driver/Src\stm32l4xx_hal_uart.c ****     |---------|---------|-----------|---------------------------------------|
 307:D:/iot/felix2/targets/Cloud_STM32L431_BearPi/Drivers/STM32L4xx_HAL_Driver/Src\stm32l4xx_hal_uart.c ****     |    0    |    0    |    1      |    | SB | 7 bit data | PB | STB |     |
 308:D:/iot/felix2/targets/Cloud_STM32L431_BearPi/Drivers/STM32L4xx_HAL_Driver/Src\stm32l4xx_hal_uart.c ****     |---------|---------|-----------|---------------------------------------|
 309:D:/iot/felix2/targets/Cloud_STM32L431_BearPi/Drivers/STM32L4xx_HAL_Driver/Src\stm32l4xx_hal_uart.c ****     |    0    |    1    |    0      |    | SB |    9 bit data   | STB |     |
 310:D:/iot/felix2/targets/Cloud_STM32L431_BearPi/Drivers/STM32L4xx_HAL_Driver/Src\stm32l4xx_hal_uart.c ****     |---------|---------|-----------|---------------------------------------|
 311:D:/iot/felix2/targets/Cloud_STM32L431_BearPi/Drivers/STM32L4xx_HAL_Driver/Src\stm32l4xx_hal_uart.c ****     |    0    |    1    |    1      |    | SB | 8 bit data | PB | STB |     |
 312:D:/iot/felix2/targets/Cloud_STM32L431_BearPi/Drivers/STM32L4xx_HAL_Driver/Src\stm32l4xx_hal_uart.c ****     |---------|---------|-----------|---------------------------------------|
 313:D:/iot/felix2/targets/Cloud_STM32L431_BearPi/Drivers/STM32L4xx_HAL_Driver/Src\stm32l4xx_hal_uart.c ****     |    1    |    0    |    0      |    | SB |    7 bit data   | STB |     |
 314:D:/iot/felix2/targets/Cloud_STM32L431_BearPi/Drivers/STM32L4xx_HAL_Driver/Src\stm32l4xx_hal_uart.c ****     |---------|---------|-----------|---------------------------------------|
 315:D:/iot/felix2/targets/Cloud_STM32L431_BearPi/Drivers/STM32L4xx_HAL_Driver/Src\stm32l4xx_hal_uart.c ****     |    1    |    0    |    1      |    | SB | 6 bit data | PB | STB |     |
 316:D:/iot/felix2/targets/Cloud_STM32L431_BearPi/Drivers/STM32L4xx_HAL_Driver/Src\stm32l4xx_hal_uart.c ****     +-----------------------------------------------------------------------+
ARM GAS  C:\Users\91458\AppData\Local\Temp\ccrpKNIe.s 			page 7


 317:D:/iot/felix2/targets/Cloud_STM32L431_BearPi/Drivers/STM32L4xx_HAL_Driver/Src\stm32l4xx_hal_uart.c **** 
 318:D:/iot/felix2/targets/Cloud_STM32L431_BearPi/Drivers/STM32L4xx_HAL_Driver/Src\stm32l4xx_hal_uart.c ****   * @{
 319:D:/iot/felix2/targets/Cloud_STM32L431_BearPi/Drivers/STM32L4xx_HAL_Driver/Src\stm32l4xx_hal_uart.c ****   */
 320:D:/iot/felix2/targets/Cloud_STM32L431_BearPi/Drivers/STM32L4xx_HAL_Driver/Src\stm32l4xx_hal_uart.c **** 
 321:D:/iot/felix2/targets/Cloud_STM32L431_BearPi/Drivers/STM32L4xx_HAL_Driver/Src\stm32l4xx_hal_uart.c **** /**
 322:D:/iot/felix2/targets/Cloud_STM32L431_BearPi/Drivers/STM32L4xx_HAL_Driver/Src\stm32l4xx_hal_uart.c ****   * @brief Initialize the UART mode according to the specified
 323:D:/iot/felix2/targets/Cloud_STM32L431_BearPi/Drivers/STM32L4xx_HAL_Driver/Src\stm32l4xx_hal_uart.c ****   *        parameters in the UART_InitTypeDef and initialize the associated handle.
 324:D:/iot/felix2/targets/Cloud_STM32L431_BearPi/Drivers/STM32L4xx_HAL_Driver/Src\stm32l4xx_hal_uart.c ****   * @param huart UART handle.
 325:D:/iot/felix2/targets/Cloud_STM32L431_BearPi/Drivers/STM32L4xx_HAL_Driver/Src\stm32l4xx_hal_uart.c ****   * @retval HAL status
 326:D:/iot/felix2/targets/Cloud_STM32L431_BearPi/Drivers/STM32L4xx_HAL_Driver/Src\stm32l4xx_hal_uart.c ****   */
 327:D:/iot/felix2/targets/Cloud_STM32L431_BearPi/Drivers/STM32L4xx_HAL_Driver/Src\stm32l4xx_hal_uart.c **** HAL_StatusTypeDef HAL_UART_Init(UART_HandleTypeDef *huart)
 328:D:/iot/felix2/targets/Cloud_STM32L431_BearPi/Drivers/STM32L4xx_HAL_Driver/Src\stm32l4xx_hal_uart.c **** {
  28              		.loc 1 328 0
  29              		.cfi_startproc
  30              		@ args = 0, pretend = 0, frame = 8
  31              		@ frame_needed = 1, uses_anonymous_args = 0
  32 0000 80B5     		push	{r7, lr}
  33              	.LCFI0:
  34              		.cfi_def_cfa_offset 8
  35              		.cfi_offset 7, -8
  36              		.cfi_offset 14, -4
  37 0002 82B0     		sub	sp, sp, #8
  38              	.LCFI1:
  39              		.cfi_def_cfa_offset 16
  40 0004 00AF     		add	r7, sp, #0
  41              	.LCFI2:
  42              		.cfi_def_cfa_register 7
  43 0006 7860     		str	r0, [r7, #4]
 329:D:/iot/felix2/targets/Cloud_STM32L431_BearPi/Drivers/STM32L4xx_HAL_Driver/Src\stm32l4xx_hal_uart.c ****   /* Check the UART handle allocation */
 330:D:/iot/felix2/targets/Cloud_STM32L431_BearPi/Drivers/STM32L4xx_HAL_Driver/Src\stm32l4xx_hal_uart.c ****   if (huart == NULL)
  44              		.loc 1 330 0
  45 0008 7B68     		ldr	r3, [r7, #4]
  46 000a 002B     		cmp	r3, #0
  47 000c 01D1     		bne	.L2
 331:D:/iot/felix2/targets/Cloud_STM32L431_BearPi/Drivers/STM32L4xx_HAL_Driver/Src\stm32l4xx_hal_uart.c ****   {
 332:D:/iot/felix2/targets/Cloud_STM32L431_BearPi/Drivers/STM32L4xx_HAL_Driver/Src\stm32l4xx_hal_uart.c ****     return HAL_ERROR;
  48              		.loc 1 332 0
  49 000e 0123     		movs	r3, #1
  50 0010 43E0     		b	.L3
  51              	.L2:
 333:D:/iot/felix2/targets/Cloud_STM32L431_BearPi/Drivers/STM32L4xx_HAL_Driver/Src\stm32l4xx_hal_uart.c ****   }
 334:D:/iot/felix2/targets/Cloud_STM32L431_BearPi/Drivers/STM32L4xx_HAL_Driver/Src\stm32l4xx_hal_uart.c **** 
 335:D:/iot/felix2/targets/Cloud_STM32L431_BearPi/Drivers/STM32L4xx_HAL_Driver/Src\stm32l4xx_hal_uart.c ****   if (huart->Init.HwFlowCtl != UART_HWCONTROL_NONE)
 336:D:/iot/felix2/targets/Cloud_STM32L431_BearPi/Drivers/STM32L4xx_HAL_Driver/Src\stm32l4xx_hal_uart.c ****   {
 337:D:/iot/felix2/targets/Cloud_STM32L431_BearPi/Drivers/STM32L4xx_HAL_Driver/Src\stm32l4xx_hal_uart.c ****     /* Check the parameters */
 338:D:/iot/felix2/targets/Cloud_STM32L431_BearPi/Drivers/STM32L4xx_HAL_Driver/Src\stm32l4xx_hal_uart.c ****     assert_param(IS_UART_HWFLOW_INSTANCE(huart->Instance));
 339:D:/iot/felix2/targets/Cloud_STM32L431_BearPi/Drivers/STM32L4xx_HAL_Driver/Src\stm32l4xx_hal_uart.c ****   }
 340:D:/iot/felix2/targets/Cloud_STM32L431_BearPi/Drivers/STM32L4xx_HAL_Driver/Src\stm32l4xx_hal_uart.c ****   else
 341:D:/iot/felix2/targets/Cloud_STM32L431_BearPi/Drivers/STM32L4xx_HAL_Driver/Src\stm32l4xx_hal_uart.c ****   {
 342:D:/iot/felix2/targets/Cloud_STM32L431_BearPi/Drivers/STM32L4xx_HAL_Driver/Src\stm32l4xx_hal_uart.c ****     /* Check the parameters */
 343:D:/iot/felix2/targets/Cloud_STM32L431_BearPi/Drivers/STM32L4xx_HAL_Driver/Src\stm32l4xx_hal_uart.c ****     assert_param((IS_UART_INSTANCE(huart->Instance)) || (IS_LPUART_INSTANCE(huart->Instance)));
 344:D:/iot/felix2/targets/Cloud_STM32L431_BearPi/Drivers/STM32L4xx_HAL_Driver/Src\stm32l4xx_hal_uart.c ****   }
 345:D:/iot/felix2/targets/Cloud_STM32L431_BearPi/Drivers/STM32L4xx_HAL_Driver/Src\stm32l4xx_hal_uart.c **** 
 346:D:/iot/felix2/targets/Cloud_STM32L431_BearPi/Drivers/STM32L4xx_HAL_Driver/Src\stm32l4xx_hal_uart.c ****   if (huart->gState == HAL_UART_STATE_RESET)
  52              		.loc 1 346 0
  53 0012 7B68     		ldr	r3, [r7, #4]
  54 0014 93F87130 		ldrb	r3, [r3, #113]
ARM GAS  C:\Users\91458\AppData\Local\Temp\ccrpKNIe.s 			page 8


  55 0018 DBB2     		uxtb	r3, r3
  56 001a 002B     		cmp	r3, #0
  57 001c 06D1     		bne	.L4
 347:D:/iot/felix2/targets/Cloud_STM32L431_BearPi/Drivers/STM32L4xx_HAL_Driver/Src\stm32l4xx_hal_uart.c ****   {
 348:D:/iot/felix2/targets/Cloud_STM32L431_BearPi/Drivers/STM32L4xx_HAL_Driver/Src\stm32l4xx_hal_uart.c ****     /* Allocate lock resource and initialize it */
 349:D:/iot/felix2/targets/Cloud_STM32L431_BearPi/Drivers/STM32L4xx_HAL_Driver/Src\stm32l4xx_hal_uart.c ****     huart->Lock = HAL_UNLOCKED;
  58              		.loc 1 349 0
  59 001e 7B68     		ldr	r3, [r7, #4]
  60 0020 0022     		movs	r2, #0
  61 0022 83F87020 		strb	r2, [r3, #112]
 350:D:/iot/felix2/targets/Cloud_STM32L431_BearPi/Drivers/STM32L4xx_HAL_Driver/Src\stm32l4xx_hal_uart.c **** 
 351:D:/iot/felix2/targets/Cloud_STM32L431_BearPi/Drivers/STM32L4xx_HAL_Driver/Src\stm32l4xx_hal_uart.c **** #if (USE_HAL_UART_REGISTER_CALLBACKS == 1)
 352:D:/iot/felix2/targets/Cloud_STM32L431_BearPi/Drivers/STM32L4xx_HAL_Driver/Src\stm32l4xx_hal_uart.c ****     UART_InitCallbacksToDefault(huart);
 353:D:/iot/felix2/targets/Cloud_STM32L431_BearPi/Drivers/STM32L4xx_HAL_Driver/Src\stm32l4xx_hal_uart.c **** 
 354:D:/iot/felix2/targets/Cloud_STM32L431_BearPi/Drivers/STM32L4xx_HAL_Driver/Src\stm32l4xx_hal_uart.c ****     if (huart->MspInitCallback == NULL)
 355:D:/iot/felix2/targets/Cloud_STM32L431_BearPi/Drivers/STM32L4xx_HAL_Driver/Src\stm32l4xx_hal_uart.c ****     {
 356:D:/iot/felix2/targets/Cloud_STM32L431_BearPi/Drivers/STM32L4xx_HAL_Driver/Src\stm32l4xx_hal_uart.c ****       huart->MspInitCallback = HAL_UART_MspInit;
 357:D:/iot/felix2/targets/Cloud_STM32L431_BearPi/Drivers/STM32L4xx_HAL_Driver/Src\stm32l4xx_hal_uart.c ****     }
 358:D:/iot/felix2/targets/Cloud_STM32L431_BearPi/Drivers/STM32L4xx_HAL_Driver/Src\stm32l4xx_hal_uart.c **** 
 359:D:/iot/felix2/targets/Cloud_STM32L431_BearPi/Drivers/STM32L4xx_HAL_Driver/Src\stm32l4xx_hal_uart.c ****     /* Init the low level hardware */
 360:D:/iot/felix2/targets/Cloud_STM32L431_BearPi/Drivers/STM32L4xx_HAL_Driver/Src\stm32l4xx_hal_uart.c ****     huart->MspInitCallback(huart);
 361:D:/iot/felix2/targets/Cloud_STM32L431_BearPi/Drivers/STM32L4xx_HAL_Driver/Src\stm32l4xx_hal_uart.c **** #else
 362:D:/iot/felix2/targets/Cloud_STM32L431_BearPi/Drivers/STM32L4xx_HAL_Driver/Src\stm32l4xx_hal_uart.c ****     /* Init the low level hardware : GPIO, CLOCK */
 363:D:/iot/felix2/targets/Cloud_STM32L431_BearPi/Drivers/STM32L4xx_HAL_Driver/Src\stm32l4xx_hal_uart.c ****     HAL_UART_MspInit(huart);
  62              		.loc 1 363 0
  63 0026 7868     		ldr	r0, [r7, #4]
  64 0028 FFF7FEFF 		bl	HAL_UART_MspInit
  65              	.L4:
 364:D:/iot/felix2/targets/Cloud_STM32L431_BearPi/Drivers/STM32L4xx_HAL_Driver/Src\stm32l4xx_hal_uart.c **** #endif /* (USE_HAL_UART_REGISTER_CALLBACKS) */
 365:D:/iot/felix2/targets/Cloud_STM32L431_BearPi/Drivers/STM32L4xx_HAL_Driver/Src\stm32l4xx_hal_uart.c ****   }
 366:D:/iot/felix2/targets/Cloud_STM32L431_BearPi/Drivers/STM32L4xx_HAL_Driver/Src\stm32l4xx_hal_uart.c **** 
 367:D:/iot/felix2/targets/Cloud_STM32L431_BearPi/Drivers/STM32L4xx_HAL_Driver/Src\stm32l4xx_hal_uart.c ****   huart->gState = HAL_UART_STATE_BUSY;
  66              		.loc 1 367 0
  67 002c 7B68     		ldr	r3, [r7, #4]
  68 002e 2422     		movs	r2, #36
  69 0030 83F87120 		strb	r2, [r3, #113]
 368:D:/iot/felix2/targets/Cloud_STM32L431_BearPi/Drivers/STM32L4xx_HAL_Driver/Src\stm32l4xx_hal_uart.c **** 
 369:D:/iot/felix2/targets/Cloud_STM32L431_BearPi/Drivers/STM32L4xx_HAL_Driver/Src\stm32l4xx_hal_uart.c ****   /* Disable the Peripheral */
 370:D:/iot/felix2/targets/Cloud_STM32L431_BearPi/Drivers/STM32L4xx_HAL_Driver/Src\stm32l4xx_hal_uart.c ****   __HAL_UART_DISABLE(huart);
  70              		.loc 1 370 0
  71 0034 7B68     		ldr	r3, [r7, #4]
  72 0036 1B68     		ldr	r3, [r3]
  73 0038 1A68     		ldr	r2, [r3]
  74 003a 7B68     		ldr	r3, [r7, #4]
  75 003c 1B68     		ldr	r3, [r3]
  76 003e 22F00102 		bic	r2, r2, #1
  77 0042 1A60     		str	r2, [r3]
 371:D:/iot/felix2/targets/Cloud_STM32L431_BearPi/Drivers/STM32L4xx_HAL_Driver/Src\stm32l4xx_hal_uart.c **** 
 372:D:/iot/felix2/targets/Cloud_STM32L431_BearPi/Drivers/STM32L4xx_HAL_Driver/Src\stm32l4xx_hal_uart.c ****   /* Set the UART Communication parameters */
 373:D:/iot/felix2/targets/Cloud_STM32L431_BearPi/Drivers/STM32L4xx_HAL_Driver/Src\stm32l4xx_hal_uart.c ****   if (UART_SetConfig(huart) == HAL_ERROR)
  78              		.loc 1 373 0
  79 0044 7868     		ldr	r0, [r7, #4]
  80 0046 FFF7FEFF 		bl	UART_SetConfig
  81 004a 0346     		mov	r3, r0
  82 004c 012B     		cmp	r3, #1
  83 004e 01D1     		bne	.L5
 374:D:/iot/felix2/targets/Cloud_STM32L431_BearPi/Drivers/STM32L4xx_HAL_Driver/Src\stm32l4xx_hal_uart.c ****   {
ARM GAS  C:\Users\91458\AppData\Local\Temp\ccrpKNIe.s 			page 9


 375:D:/iot/felix2/targets/Cloud_STM32L431_BearPi/Drivers/STM32L4xx_HAL_Driver/Src\stm32l4xx_hal_uart.c ****     return HAL_ERROR;
  84              		.loc 1 375 0
  85 0050 0123     		movs	r3, #1
  86 0052 22E0     		b	.L3
  87              	.L5:
 376:D:/iot/felix2/targets/Cloud_STM32L431_BearPi/Drivers/STM32L4xx_HAL_Driver/Src\stm32l4xx_hal_uart.c ****   }
 377:D:/iot/felix2/targets/Cloud_STM32L431_BearPi/Drivers/STM32L4xx_HAL_Driver/Src\stm32l4xx_hal_uart.c **** 
 378:D:/iot/felix2/targets/Cloud_STM32L431_BearPi/Drivers/STM32L4xx_HAL_Driver/Src\stm32l4xx_hal_uart.c ****   if (huart->AdvancedInit.AdvFeatureInit != UART_ADVFEATURE_NO_INIT)
  88              		.loc 1 378 0
  89 0054 7B68     		ldr	r3, [r7, #4]
  90 0056 5B6A     		ldr	r3, [r3, #36]
  91 0058 002B     		cmp	r3, #0
  92 005a 02D0     		beq	.L6
 379:D:/iot/felix2/targets/Cloud_STM32L431_BearPi/Drivers/STM32L4xx_HAL_Driver/Src\stm32l4xx_hal_uart.c ****   {
 380:D:/iot/felix2/targets/Cloud_STM32L431_BearPi/Drivers/STM32L4xx_HAL_Driver/Src\stm32l4xx_hal_uart.c ****     UART_AdvFeatureConfig(huart);
  93              		.loc 1 380 0
  94 005c 7868     		ldr	r0, [r7, #4]
  95 005e FFF7FEFF 		bl	UART_AdvFeatureConfig
  96              	.L6:
 381:D:/iot/felix2/targets/Cloud_STM32L431_BearPi/Drivers/STM32L4xx_HAL_Driver/Src\stm32l4xx_hal_uart.c ****   }
 382:D:/iot/felix2/targets/Cloud_STM32L431_BearPi/Drivers/STM32L4xx_HAL_Driver/Src\stm32l4xx_hal_uart.c **** 
 383:D:/iot/felix2/targets/Cloud_STM32L431_BearPi/Drivers/STM32L4xx_HAL_Driver/Src\stm32l4xx_hal_uart.c ****   /* In asynchronous mode, the following bits must be kept cleared:
 384:D:/iot/felix2/targets/Cloud_STM32L431_BearPi/Drivers/STM32L4xx_HAL_Driver/Src\stm32l4xx_hal_uart.c ****   - LINEN and CLKEN bits in the USART_CR2 register,
 385:D:/iot/felix2/targets/Cloud_STM32L431_BearPi/Drivers/STM32L4xx_HAL_Driver/Src\stm32l4xx_hal_uart.c ****   - SCEN, HDSEL and IREN  bits in the USART_CR3 register.*/
 386:D:/iot/felix2/targets/Cloud_STM32L431_BearPi/Drivers/STM32L4xx_HAL_Driver/Src\stm32l4xx_hal_uart.c ****   CLEAR_BIT(huart->Instance->CR2, (USART_CR2_LINEN | USART_CR2_CLKEN));
  97              		.loc 1 386 0
  98 0062 7B68     		ldr	r3, [r7, #4]
  99 0064 1B68     		ldr	r3, [r3]
 100 0066 5A68     		ldr	r2, [r3, #4]
 101 0068 7B68     		ldr	r3, [r7, #4]
 102 006a 1B68     		ldr	r3, [r3]
 103 006c 22F49042 		bic	r2, r2, #18432
 104 0070 5A60     		str	r2, [r3, #4]
 387:D:/iot/felix2/targets/Cloud_STM32L431_BearPi/Drivers/STM32L4xx_HAL_Driver/Src\stm32l4xx_hal_uart.c ****   CLEAR_BIT(huart->Instance->CR3, (USART_CR3_SCEN | USART_CR3_HDSEL | USART_CR3_IREN));
 105              		.loc 1 387 0
 106 0072 7B68     		ldr	r3, [r7, #4]
 107 0074 1B68     		ldr	r3, [r3]
 108 0076 9A68     		ldr	r2, [r3, #8]
 109 0078 7B68     		ldr	r3, [r7, #4]
 110 007a 1B68     		ldr	r3, [r3]
 111 007c 22F02A02 		bic	r2, r2, #42
 112 0080 9A60     		str	r2, [r3, #8]
 388:D:/iot/felix2/targets/Cloud_STM32L431_BearPi/Drivers/STM32L4xx_HAL_Driver/Src\stm32l4xx_hal_uart.c **** 
 389:D:/iot/felix2/targets/Cloud_STM32L431_BearPi/Drivers/STM32L4xx_HAL_Driver/Src\stm32l4xx_hal_uart.c ****   /* Enable the Peripheral */
 390:D:/iot/felix2/targets/Cloud_STM32L431_BearPi/Drivers/STM32L4xx_HAL_Driver/Src\stm32l4xx_hal_uart.c ****   __HAL_UART_ENABLE(huart);
 113              		.loc 1 390 0
 114 0082 7B68     		ldr	r3, [r7, #4]
 115 0084 1B68     		ldr	r3, [r3]
 116 0086 1A68     		ldr	r2, [r3]
 117 0088 7B68     		ldr	r3, [r7, #4]
 118 008a 1B68     		ldr	r3, [r3]
 119 008c 42F00102 		orr	r2, r2, #1
 120 0090 1A60     		str	r2, [r3]
 391:D:/iot/felix2/targets/Cloud_STM32L431_BearPi/Drivers/STM32L4xx_HAL_Driver/Src\stm32l4xx_hal_uart.c **** 
 392:D:/iot/felix2/targets/Cloud_STM32L431_BearPi/Drivers/STM32L4xx_HAL_Driver/Src\stm32l4xx_hal_uart.c ****   /* TEACK and/or REACK to check before moving huart->gState and huart->RxState to Ready */
 393:D:/iot/felix2/targets/Cloud_STM32L431_BearPi/Drivers/STM32L4xx_HAL_Driver/Src\stm32l4xx_hal_uart.c ****   return (UART_CheckIdleState(huart));
 121              		.loc 1 393 0
ARM GAS  C:\Users\91458\AppData\Local\Temp\ccrpKNIe.s 			page 10


 122 0092 7868     		ldr	r0, [r7, #4]
 123 0094 FFF7FEFF 		bl	UART_CheckIdleState
 124 0098 0346     		mov	r3, r0
 125              	.L3:
 394:D:/iot/felix2/targets/Cloud_STM32L431_BearPi/Drivers/STM32L4xx_HAL_Driver/Src\stm32l4xx_hal_uart.c **** }
 126              		.loc 1 394 0
 127 009a 1846     		mov	r0, r3
 128 009c 0837     		adds	r7, r7, #8
 129              	.LCFI3:
 130              		.cfi_def_cfa_offset 8
 131 009e BD46     		mov	sp, r7
 132              	.LCFI4:
 133              		.cfi_def_cfa_register 13
 134              		@ sp needed
 135 00a0 80BD     		pop	{r7, pc}
 136              		.cfi_endproc
 137              	.LFE133:
 139              		.section	.text.HAL_HalfDuplex_Init,"ax",%progbits
 140              		.align	1
 141              		.global	HAL_HalfDuplex_Init
 142              		.syntax unified
 143              		.thumb
 144              		.thumb_func
 145              		.fpu fpv4-sp-d16
 147              	HAL_HalfDuplex_Init:
 148              	.LFB134:
 395:D:/iot/felix2/targets/Cloud_STM32L431_BearPi/Drivers/STM32L4xx_HAL_Driver/Src\stm32l4xx_hal_uart.c **** 
 396:D:/iot/felix2/targets/Cloud_STM32L431_BearPi/Drivers/STM32L4xx_HAL_Driver/Src\stm32l4xx_hal_uart.c **** /**
 397:D:/iot/felix2/targets/Cloud_STM32L431_BearPi/Drivers/STM32L4xx_HAL_Driver/Src\stm32l4xx_hal_uart.c ****   * @brief Initialize the half-duplex mode according to the specified
 398:D:/iot/felix2/targets/Cloud_STM32L431_BearPi/Drivers/STM32L4xx_HAL_Driver/Src\stm32l4xx_hal_uart.c ****   *        parameters in the UART_InitTypeDef and creates the associated handle.
 399:D:/iot/felix2/targets/Cloud_STM32L431_BearPi/Drivers/STM32L4xx_HAL_Driver/Src\stm32l4xx_hal_uart.c ****   * @param huart UART handle.
 400:D:/iot/felix2/targets/Cloud_STM32L431_BearPi/Drivers/STM32L4xx_HAL_Driver/Src\stm32l4xx_hal_uart.c ****   * @retval HAL status
 401:D:/iot/felix2/targets/Cloud_STM32L431_BearPi/Drivers/STM32L4xx_HAL_Driver/Src\stm32l4xx_hal_uart.c ****   */
 402:D:/iot/felix2/targets/Cloud_STM32L431_BearPi/Drivers/STM32L4xx_HAL_Driver/Src\stm32l4xx_hal_uart.c **** HAL_StatusTypeDef HAL_HalfDuplex_Init(UART_HandleTypeDef *huart)
 403:D:/iot/felix2/targets/Cloud_STM32L431_BearPi/Drivers/STM32L4xx_HAL_Driver/Src\stm32l4xx_hal_uart.c **** {
 149              		.loc 1 403 0
 150              		.cfi_startproc
 151              		@ args = 0, pretend = 0, frame = 8
 152              		@ frame_needed = 1, uses_anonymous_args = 0
 153 0000 80B5     		push	{r7, lr}
 154              	.LCFI5:
 155              		.cfi_def_cfa_offset 8
 156              		.cfi_offset 7, -8
 157              		.cfi_offset 14, -4
 158 0002 82B0     		sub	sp, sp, #8
 159              	.LCFI6:
 160              		.cfi_def_cfa_offset 16
 161 0004 00AF     		add	r7, sp, #0
 162              	.LCFI7:
 163              		.cfi_def_cfa_register 7
 164 0006 7860     		str	r0, [r7, #4]
 404:D:/iot/felix2/targets/Cloud_STM32L431_BearPi/Drivers/STM32L4xx_HAL_Driver/Src\stm32l4xx_hal_uart.c ****   /* Check the UART handle allocation */
 405:D:/iot/felix2/targets/Cloud_STM32L431_BearPi/Drivers/STM32L4xx_HAL_Driver/Src\stm32l4xx_hal_uart.c ****   if (huart == NULL)
 165              		.loc 1 405 0
 166 0008 7B68     		ldr	r3, [r7, #4]
 167 000a 002B     		cmp	r3, #0
 168 000c 01D1     		bne	.L8
ARM GAS  C:\Users\91458\AppData\Local\Temp\ccrpKNIe.s 			page 11


 406:D:/iot/felix2/targets/Cloud_STM32L431_BearPi/Drivers/STM32L4xx_HAL_Driver/Src\stm32l4xx_hal_uart.c ****   {
 407:D:/iot/felix2/targets/Cloud_STM32L431_BearPi/Drivers/STM32L4xx_HAL_Driver/Src\stm32l4xx_hal_uart.c ****     return HAL_ERROR;
 169              		.loc 1 407 0
 170 000e 0123     		movs	r3, #1
 171 0010 4BE0     		b	.L9
 172              	.L8:
 408:D:/iot/felix2/targets/Cloud_STM32L431_BearPi/Drivers/STM32L4xx_HAL_Driver/Src\stm32l4xx_hal_uart.c ****   }
 409:D:/iot/felix2/targets/Cloud_STM32L431_BearPi/Drivers/STM32L4xx_HAL_Driver/Src\stm32l4xx_hal_uart.c **** 
 410:D:/iot/felix2/targets/Cloud_STM32L431_BearPi/Drivers/STM32L4xx_HAL_Driver/Src\stm32l4xx_hal_uart.c ****   /* Check UART instance */
 411:D:/iot/felix2/targets/Cloud_STM32L431_BearPi/Drivers/STM32L4xx_HAL_Driver/Src\stm32l4xx_hal_uart.c ****   assert_param(IS_UART_HALFDUPLEX_INSTANCE(huart->Instance));
 412:D:/iot/felix2/targets/Cloud_STM32L431_BearPi/Drivers/STM32L4xx_HAL_Driver/Src\stm32l4xx_hal_uart.c **** 
 413:D:/iot/felix2/targets/Cloud_STM32L431_BearPi/Drivers/STM32L4xx_HAL_Driver/Src\stm32l4xx_hal_uart.c ****   if (huart->gState == HAL_UART_STATE_RESET)
 173              		.loc 1 413 0
 174 0012 7B68     		ldr	r3, [r7, #4]
 175 0014 93F87130 		ldrb	r3, [r3, #113]
 176 0018 DBB2     		uxtb	r3, r3
 177 001a 002B     		cmp	r3, #0
 178 001c 06D1     		bne	.L10
 414:D:/iot/felix2/targets/Cloud_STM32L431_BearPi/Drivers/STM32L4xx_HAL_Driver/Src\stm32l4xx_hal_uart.c ****   {
 415:D:/iot/felix2/targets/Cloud_STM32L431_BearPi/Drivers/STM32L4xx_HAL_Driver/Src\stm32l4xx_hal_uart.c ****     /* Allocate lock resource and initialize it */
 416:D:/iot/felix2/targets/Cloud_STM32L431_BearPi/Drivers/STM32L4xx_HAL_Driver/Src\stm32l4xx_hal_uart.c ****     huart->Lock = HAL_UNLOCKED;
 179              		.loc 1 416 0
 180 001e 7B68     		ldr	r3, [r7, #4]
 181 0020 0022     		movs	r2, #0
 182 0022 83F87020 		strb	r2, [r3, #112]
 417:D:/iot/felix2/targets/Cloud_STM32L431_BearPi/Drivers/STM32L4xx_HAL_Driver/Src\stm32l4xx_hal_uart.c **** 
 418:D:/iot/felix2/targets/Cloud_STM32L431_BearPi/Drivers/STM32L4xx_HAL_Driver/Src\stm32l4xx_hal_uart.c **** #if (USE_HAL_UART_REGISTER_CALLBACKS == 1)
 419:D:/iot/felix2/targets/Cloud_STM32L431_BearPi/Drivers/STM32L4xx_HAL_Driver/Src\stm32l4xx_hal_uart.c ****     UART_InitCallbacksToDefault(huart);
 420:D:/iot/felix2/targets/Cloud_STM32L431_BearPi/Drivers/STM32L4xx_HAL_Driver/Src\stm32l4xx_hal_uart.c **** 
 421:D:/iot/felix2/targets/Cloud_STM32L431_BearPi/Drivers/STM32L4xx_HAL_Driver/Src\stm32l4xx_hal_uart.c ****     if (huart->MspInitCallback == NULL)
 422:D:/iot/felix2/targets/Cloud_STM32L431_BearPi/Drivers/STM32L4xx_HAL_Driver/Src\stm32l4xx_hal_uart.c ****     {
 423:D:/iot/felix2/targets/Cloud_STM32L431_BearPi/Drivers/STM32L4xx_HAL_Driver/Src\stm32l4xx_hal_uart.c ****       huart->MspInitCallback = HAL_UART_MspInit;
 424:D:/iot/felix2/targets/Cloud_STM32L431_BearPi/Drivers/STM32L4xx_HAL_Driver/Src\stm32l4xx_hal_uart.c ****     }
 425:D:/iot/felix2/targets/Cloud_STM32L431_BearPi/Drivers/STM32L4xx_HAL_Driver/Src\stm32l4xx_hal_uart.c **** 
 426:D:/iot/felix2/targets/Cloud_STM32L431_BearPi/Drivers/STM32L4xx_HAL_Driver/Src\stm32l4xx_hal_uart.c ****     /* Init the low level hardware */
 427:D:/iot/felix2/targets/Cloud_STM32L431_BearPi/Drivers/STM32L4xx_HAL_Driver/Src\stm32l4xx_hal_uart.c ****     huart->MspInitCallback(huart);
 428:D:/iot/felix2/targets/Cloud_STM32L431_BearPi/Drivers/STM32L4xx_HAL_Driver/Src\stm32l4xx_hal_uart.c **** #else
 429:D:/iot/felix2/targets/Cloud_STM32L431_BearPi/Drivers/STM32L4xx_HAL_Driver/Src\stm32l4xx_hal_uart.c ****     /* Init the low level hardware : GPIO, CLOCK */
 430:D:/iot/felix2/targets/Cloud_STM32L431_BearPi/Drivers/STM32L4xx_HAL_Driver/Src\stm32l4xx_hal_uart.c ****     HAL_UART_MspInit(huart);
 183              		.loc 1 430 0
 184 0026 7868     		ldr	r0, [r7, #4]
 185 0028 FFF7FEFF 		bl	HAL_UART_MspInit
 186              	.L10:
 431:D:/iot/felix2/targets/Cloud_STM32L431_BearPi/Drivers/STM32L4xx_HAL_Driver/Src\stm32l4xx_hal_uart.c **** #endif /* (USE_HAL_UART_REGISTER_CALLBACKS) */
 432:D:/iot/felix2/targets/Cloud_STM32L431_BearPi/Drivers/STM32L4xx_HAL_Driver/Src\stm32l4xx_hal_uart.c ****   }
 433:D:/iot/felix2/targets/Cloud_STM32L431_BearPi/Drivers/STM32L4xx_HAL_Driver/Src\stm32l4xx_hal_uart.c **** 
 434:D:/iot/felix2/targets/Cloud_STM32L431_BearPi/Drivers/STM32L4xx_HAL_Driver/Src\stm32l4xx_hal_uart.c ****   huart->gState = HAL_UART_STATE_BUSY;
 187              		.loc 1 434 0
 188 002c 7B68     		ldr	r3, [r7, #4]
 189 002e 2422     		movs	r2, #36
 190 0030 83F87120 		strb	r2, [r3, #113]
 435:D:/iot/felix2/targets/Cloud_STM32L431_BearPi/Drivers/STM32L4xx_HAL_Driver/Src\stm32l4xx_hal_uart.c **** 
 436:D:/iot/felix2/targets/Cloud_STM32L431_BearPi/Drivers/STM32L4xx_HAL_Driver/Src\stm32l4xx_hal_uart.c ****   /* Disable the Peripheral */
 437:D:/iot/felix2/targets/Cloud_STM32L431_BearPi/Drivers/STM32L4xx_HAL_Driver/Src\stm32l4xx_hal_uart.c ****   __HAL_UART_DISABLE(huart);
 191              		.loc 1 437 0
 192 0034 7B68     		ldr	r3, [r7, #4]
 193 0036 1B68     		ldr	r3, [r3]
ARM GAS  C:\Users\91458\AppData\Local\Temp\ccrpKNIe.s 			page 12


 194 0038 1A68     		ldr	r2, [r3]
 195 003a 7B68     		ldr	r3, [r7, #4]
 196 003c 1B68     		ldr	r3, [r3]
 197 003e 22F00102 		bic	r2, r2, #1
 198 0042 1A60     		str	r2, [r3]
 438:D:/iot/felix2/targets/Cloud_STM32L431_BearPi/Drivers/STM32L4xx_HAL_Driver/Src\stm32l4xx_hal_uart.c **** 
 439:D:/iot/felix2/targets/Cloud_STM32L431_BearPi/Drivers/STM32L4xx_HAL_Driver/Src\stm32l4xx_hal_uart.c ****   /* Set the UART Communication parameters */
 440:D:/iot/felix2/targets/Cloud_STM32L431_BearPi/Drivers/STM32L4xx_HAL_Driver/Src\stm32l4xx_hal_uart.c ****   if (UART_SetConfig(huart) == HAL_ERROR)
 199              		.loc 1 440 0
 200 0044 7868     		ldr	r0, [r7, #4]
 201 0046 FFF7FEFF 		bl	UART_SetConfig
 202 004a 0346     		mov	r3, r0
 203 004c 012B     		cmp	r3, #1
 204 004e 01D1     		bne	.L11
 441:D:/iot/felix2/targets/Cloud_STM32L431_BearPi/Drivers/STM32L4xx_HAL_Driver/Src\stm32l4xx_hal_uart.c ****   {
 442:D:/iot/felix2/targets/Cloud_STM32L431_BearPi/Drivers/STM32L4xx_HAL_Driver/Src\stm32l4xx_hal_uart.c ****     return HAL_ERROR;
 205              		.loc 1 442 0
 206 0050 0123     		movs	r3, #1
 207 0052 2AE0     		b	.L9
 208              	.L11:
 443:D:/iot/felix2/targets/Cloud_STM32L431_BearPi/Drivers/STM32L4xx_HAL_Driver/Src\stm32l4xx_hal_uart.c ****   }
 444:D:/iot/felix2/targets/Cloud_STM32L431_BearPi/Drivers/STM32L4xx_HAL_Driver/Src\stm32l4xx_hal_uart.c **** 
 445:D:/iot/felix2/targets/Cloud_STM32L431_BearPi/Drivers/STM32L4xx_HAL_Driver/Src\stm32l4xx_hal_uart.c ****   if (huart->AdvancedInit.AdvFeatureInit != UART_ADVFEATURE_NO_INIT)
 209              		.loc 1 445 0
 210 0054 7B68     		ldr	r3, [r7, #4]
 211 0056 5B6A     		ldr	r3, [r3, #36]
 212 0058 002B     		cmp	r3, #0
 213 005a 02D0     		beq	.L12
 446:D:/iot/felix2/targets/Cloud_STM32L431_BearPi/Drivers/STM32L4xx_HAL_Driver/Src\stm32l4xx_hal_uart.c ****   {
 447:D:/iot/felix2/targets/Cloud_STM32L431_BearPi/Drivers/STM32L4xx_HAL_Driver/Src\stm32l4xx_hal_uart.c ****     UART_AdvFeatureConfig(huart);
 214              		.loc 1 447 0
 215 005c 7868     		ldr	r0, [r7, #4]
 216 005e FFF7FEFF 		bl	UART_AdvFeatureConfig
 217              	.L12:
 448:D:/iot/felix2/targets/Cloud_STM32L431_BearPi/Drivers/STM32L4xx_HAL_Driver/Src\stm32l4xx_hal_uart.c ****   }
 449:D:/iot/felix2/targets/Cloud_STM32L431_BearPi/Drivers/STM32L4xx_HAL_Driver/Src\stm32l4xx_hal_uart.c **** 
 450:D:/iot/felix2/targets/Cloud_STM32L431_BearPi/Drivers/STM32L4xx_HAL_Driver/Src\stm32l4xx_hal_uart.c ****   /* In half-duplex mode, the following bits must be kept cleared:
 451:D:/iot/felix2/targets/Cloud_STM32L431_BearPi/Drivers/STM32L4xx_HAL_Driver/Src\stm32l4xx_hal_uart.c ****   - LINEN and CLKEN bits in the USART_CR2 register,
 452:D:/iot/felix2/targets/Cloud_STM32L431_BearPi/Drivers/STM32L4xx_HAL_Driver/Src\stm32l4xx_hal_uart.c ****   - SCEN and IREN bits in the USART_CR3 register.*/
 453:D:/iot/felix2/targets/Cloud_STM32L431_BearPi/Drivers/STM32L4xx_HAL_Driver/Src\stm32l4xx_hal_uart.c ****   CLEAR_BIT(huart->Instance->CR2, (USART_CR2_LINEN | USART_CR2_CLKEN));
 218              		.loc 1 453 0
 219 0062 7B68     		ldr	r3, [r7, #4]
 220 0064 1B68     		ldr	r3, [r3]
 221 0066 5A68     		ldr	r2, [r3, #4]
 222 0068 7B68     		ldr	r3, [r7, #4]
 223 006a 1B68     		ldr	r3, [r3]
 224 006c 22F49042 		bic	r2, r2, #18432
 225 0070 5A60     		str	r2, [r3, #4]
 454:D:/iot/felix2/targets/Cloud_STM32L431_BearPi/Drivers/STM32L4xx_HAL_Driver/Src\stm32l4xx_hal_uart.c ****   CLEAR_BIT(huart->Instance->CR3, (USART_CR3_IREN | USART_CR3_SCEN));
 226              		.loc 1 454 0
 227 0072 7B68     		ldr	r3, [r7, #4]
 228 0074 1B68     		ldr	r3, [r3]
 229 0076 9A68     		ldr	r2, [r3, #8]
 230 0078 7B68     		ldr	r3, [r7, #4]
 231 007a 1B68     		ldr	r3, [r3]
 232 007c 22F02202 		bic	r2, r2, #34
 233 0080 9A60     		str	r2, [r3, #8]
ARM GAS  C:\Users\91458\AppData\Local\Temp\ccrpKNIe.s 			page 13


 455:D:/iot/felix2/targets/Cloud_STM32L431_BearPi/Drivers/STM32L4xx_HAL_Driver/Src\stm32l4xx_hal_uart.c **** 
 456:D:/iot/felix2/targets/Cloud_STM32L431_BearPi/Drivers/STM32L4xx_HAL_Driver/Src\stm32l4xx_hal_uart.c ****   /* Enable the Half-Duplex mode by setting the HDSEL bit in the CR3 register */
 457:D:/iot/felix2/targets/Cloud_STM32L431_BearPi/Drivers/STM32L4xx_HAL_Driver/Src\stm32l4xx_hal_uart.c ****   SET_BIT(huart->Instance->CR3, USART_CR3_HDSEL);
 234              		.loc 1 457 0
 235 0082 7B68     		ldr	r3, [r7, #4]
 236 0084 1B68     		ldr	r3, [r3]
 237 0086 9A68     		ldr	r2, [r3, #8]
 238 0088 7B68     		ldr	r3, [r7, #4]
 239 008a 1B68     		ldr	r3, [r3]
 240 008c 42F00802 		orr	r2, r2, #8
 241 0090 9A60     		str	r2, [r3, #8]
 458:D:/iot/felix2/targets/Cloud_STM32L431_BearPi/Drivers/STM32L4xx_HAL_Driver/Src\stm32l4xx_hal_uart.c **** 
 459:D:/iot/felix2/targets/Cloud_STM32L431_BearPi/Drivers/STM32L4xx_HAL_Driver/Src\stm32l4xx_hal_uart.c ****   /* Enable the Peripheral */
 460:D:/iot/felix2/targets/Cloud_STM32L431_BearPi/Drivers/STM32L4xx_HAL_Driver/Src\stm32l4xx_hal_uart.c ****   __HAL_UART_ENABLE(huart);
 242              		.loc 1 460 0
 243 0092 7B68     		ldr	r3, [r7, #4]
 244 0094 1B68     		ldr	r3, [r3]
 245 0096 1A68     		ldr	r2, [r3]
 246 0098 7B68     		ldr	r3, [r7, #4]
 247 009a 1B68     		ldr	r3, [r3]
 248 009c 42F00102 		orr	r2, r2, #1
 249 00a0 1A60     		str	r2, [r3]
 461:D:/iot/felix2/targets/Cloud_STM32L431_BearPi/Drivers/STM32L4xx_HAL_Driver/Src\stm32l4xx_hal_uart.c **** 
 462:D:/iot/felix2/targets/Cloud_STM32L431_BearPi/Drivers/STM32L4xx_HAL_Driver/Src\stm32l4xx_hal_uart.c ****   /* TEACK and/or REACK to check before moving huart->gState and huart->RxState to Ready */
 463:D:/iot/felix2/targets/Cloud_STM32L431_BearPi/Drivers/STM32L4xx_HAL_Driver/Src\stm32l4xx_hal_uart.c ****   return (UART_CheckIdleState(huart));
 250              		.loc 1 463 0
 251 00a2 7868     		ldr	r0, [r7, #4]
 252 00a4 FFF7FEFF 		bl	UART_CheckIdleState
 253 00a8 0346     		mov	r3, r0
 254              	.L9:
 464:D:/iot/felix2/targets/Cloud_STM32L431_BearPi/Drivers/STM32L4xx_HAL_Driver/Src\stm32l4xx_hal_uart.c **** }
 255              		.loc 1 464 0
 256 00aa 1846     		mov	r0, r3
 257 00ac 0837     		adds	r7, r7, #8
 258              	.LCFI8:
 259              		.cfi_def_cfa_offset 8
 260 00ae BD46     		mov	sp, r7
 261              	.LCFI9:
 262              		.cfi_def_cfa_register 13
 263              		@ sp needed
 264 00b0 80BD     		pop	{r7, pc}
 265              		.cfi_endproc
 266              	.LFE134:
 268              		.section	.text.HAL_LIN_Init,"ax",%progbits
 269              		.align	1
 270              		.global	HAL_LIN_Init
 271              		.syntax unified
 272              		.thumb
 273              		.thumb_func
 274              		.fpu fpv4-sp-d16
 276              	HAL_LIN_Init:
 277              	.LFB135:
 465:D:/iot/felix2/targets/Cloud_STM32L431_BearPi/Drivers/STM32L4xx_HAL_Driver/Src\stm32l4xx_hal_uart.c **** 
 466:D:/iot/felix2/targets/Cloud_STM32L431_BearPi/Drivers/STM32L4xx_HAL_Driver/Src\stm32l4xx_hal_uart.c **** 
 467:D:/iot/felix2/targets/Cloud_STM32L431_BearPi/Drivers/STM32L4xx_HAL_Driver/Src\stm32l4xx_hal_uart.c **** /**
 468:D:/iot/felix2/targets/Cloud_STM32L431_BearPi/Drivers/STM32L4xx_HAL_Driver/Src\stm32l4xx_hal_uart.c ****   * @brief Initialize the LIN mode according to the specified
 469:D:/iot/felix2/targets/Cloud_STM32L431_BearPi/Drivers/STM32L4xx_HAL_Driver/Src\stm32l4xx_hal_uart.c ****   *        parameters in the UART_InitTypeDef and creates the associated handle .
ARM GAS  C:\Users\91458\AppData\Local\Temp\ccrpKNIe.s 			page 14


 470:D:/iot/felix2/targets/Cloud_STM32L431_BearPi/Drivers/STM32L4xx_HAL_Driver/Src\stm32l4xx_hal_uart.c ****   * @param huart             UART handle.
 471:D:/iot/felix2/targets/Cloud_STM32L431_BearPi/Drivers/STM32L4xx_HAL_Driver/Src\stm32l4xx_hal_uart.c ****   * @param BreakDetectLength Specifies the LIN break detection length.
 472:D:/iot/felix2/targets/Cloud_STM32L431_BearPi/Drivers/STM32L4xx_HAL_Driver/Src\stm32l4xx_hal_uart.c ****   *        This parameter can be one of the following values:
 473:D:/iot/felix2/targets/Cloud_STM32L431_BearPi/Drivers/STM32L4xx_HAL_Driver/Src\stm32l4xx_hal_uart.c ****   *          @arg @ref UART_LINBREAKDETECTLENGTH_10B 10-bit break detection
 474:D:/iot/felix2/targets/Cloud_STM32L431_BearPi/Drivers/STM32L4xx_HAL_Driver/Src\stm32l4xx_hal_uart.c ****   *          @arg @ref UART_LINBREAKDETECTLENGTH_11B 11-bit break detection
 475:D:/iot/felix2/targets/Cloud_STM32L431_BearPi/Drivers/STM32L4xx_HAL_Driver/Src\stm32l4xx_hal_uart.c ****   * @retval HAL status
 476:D:/iot/felix2/targets/Cloud_STM32L431_BearPi/Drivers/STM32L4xx_HAL_Driver/Src\stm32l4xx_hal_uart.c ****   */
 477:D:/iot/felix2/targets/Cloud_STM32L431_BearPi/Drivers/STM32L4xx_HAL_Driver/Src\stm32l4xx_hal_uart.c **** HAL_StatusTypeDef HAL_LIN_Init(UART_HandleTypeDef *huart, uint32_t BreakDetectLength)
 478:D:/iot/felix2/targets/Cloud_STM32L431_BearPi/Drivers/STM32L4xx_HAL_Driver/Src\stm32l4xx_hal_uart.c **** {
 278              		.loc 1 478 0
 279              		.cfi_startproc
 280              		@ args = 0, pretend = 0, frame = 8
 281              		@ frame_needed = 1, uses_anonymous_args = 0
 282 0000 80B5     		push	{r7, lr}
 283              	.LCFI10:
 284              		.cfi_def_cfa_offset 8
 285              		.cfi_offset 7, -8
 286              		.cfi_offset 14, -4
 287 0002 82B0     		sub	sp, sp, #8
 288              	.LCFI11:
 289              		.cfi_def_cfa_offset 16
 290 0004 00AF     		add	r7, sp, #0
 291              	.LCFI12:
 292              		.cfi_def_cfa_register 7
 293 0006 7860     		str	r0, [r7, #4]
 294 0008 3960     		str	r1, [r7]
 479:D:/iot/felix2/targets/Cloud_STM32L431_BearPi/Drivers/STM32L4xx_HAL_Driver/Src\stm32l4xx_hal_uart.c ****   /* Check the UART handle allocation */
 480:D:/iot/felix2/targets/Cloud_STM32L431_BearPi/Drivers/STM32L4xx_HAL_Driver/Src\stm32l4xx_hal_uart.c ****   if (huart == NULL)
 295              		.loc 1 480 0
 296 000a 7B68     		ldr	r3, [r7, #4]
 297 000c 002B     		cmp	r3, #0
 298 000e 01D1     		bne	.L14
 481:D:/iot/felix2/targets/Cloud_STM32L431_BearPi/Drivers/STM32L4xx_HAL_Driver/Src\stm32l4xx_hal_uart.c ****   {
 482:D:/iot/felix2/targets/Cloud_STM32L431_BearPi/Drivers/STM32L4xx_HAL_Driver/Src\stm32l4xx_hal_uart.c ****     return HAL_ERROR;
 299              		.loc 1 482 0
 300 0010 0123     		movs	r3, #1
 301 0012 62E0     		b	.L15
 302              	.L14:
 483:D:/iot/felix2/targets/Cloud_STM32L431_BearPi/Drivers/STM32L4xx_HAL_Driver/Src\stm32l4xx_hal_uart.c ****   }
 484:D:/iot/felix2/targets/Cloud_STM32L431_BearPi/Drivers/STM32L4xx_HAL_Driver/Src\stm32l4xx_hal_uart.c **** 
 485:D:/iot/felix2/targets/Cloud_STM32L431_BearPi/Drivers/STM32L4xx_HAL_Driver/Src\stm32l4xx_hal_uart.c ****   /* Check the LIN UART instance */
 486:D:/iot/felix2/targets/Cloud_STM32L431_BearPi/Drivers/STM32L4xx_HAL_Driver/Src\stm32l4xx_hal_uart.c ****   assert_param(IS_UART_LIN_INSTANCE(huart->Instance));
 487:D:/iot/felix2/targets/Cloud_STM32L431_BearPi/Drivers/STM32L4xx_HAL_Driver/Src\stm32l4xx_hal_uart.c ****   /* Check the Break detection length parameter */
 488:D:/iot/felix2/targets/Cloud_STM32L431_BearPi/Drivers/STM32L4xx_HAL_Driver/Src\stm32l4xx_hal_uart.c ****   assert_param(IS_UART_LIN_BREAK_DETECT_LENGTH(BreakDetectLength));
 489:D:/iot/felix2/targets/Cloud_STM32L431_BearPi/Drivers/STM32L4xx_HAL_Driver/Src\stm32l4xx_hal_uart.c **** 
 490:D:/iot/felix2/targets/Cloud_STM32L431_BearPi/Drivers/STM32L4xx_HAL_Driver/Src\stm32l4xx_hal_uart.c ****   /* LIN mode limited to 16-bit oversampling only */
 491:D:/iot/felix2/targets/Cloud_STM32L431_BearPi/Drivers/STM32L4xx_HAL_Driver/Src\stm32l4xx_hal_uart.c ****   if (huart->Init.OverSampling == UART_OVERSAMPLING_8)
 303              		.loc 1 491 0
 304 0014 7B68     		ldr	r3, [r7, #4]
 305 0016 DB69     		ldr	r3, [r3, #28]
 306 0018 B3F5004F 		cmp	r3, #32768
 307 001c 01D1     		bne	.L16
 492:D:/iot/felix2/targets/Cloud_STM32L431_BearPi/Drivers/STM32L4xx_HAL_Driver/Src\stm32l4xx_hal_uart.c ****   {
 493:D:/iot/felix2/targets/Cloud_STM32L431_BearPi/Drivers/STM32L4xx_HAL_Driver/Src\stm32l4xx_hal_uart.c ****     return HAL_ERROR;
 308              		.loc 1 493 0
 309 001e 0123     		movs	r3, #1
 310 0020 5BE0     		b	.L15
ARM GAS  C:\Users\91458\AppData\Local\Temp\ccrpKNIe.s 			page 15


 311              	.L16:
 494:D:/iot/felix2/targets/Cloud_STM32L431_BearPi/Drivers/STM32L4xx_HAL_Driver/Src\stm32l4xx_hal_uart.c ****   }
 495:D:/iot/felix2/targets/Cloud_STM32L431_BearPi/Drivers/STM32L4xx_HAL_Driver/Src\stm32l4xx_hal_uart.c ****   /* LIN mode limited to 8-bit data length */
 496:D:/iot/felix2/targets/Cloud_STM32L431_BearPi/Drivers/STM32L4xx_HAL_Driver/Src\stm32l4xx_hal_uart.c ****   if (huart->Init.WordLength != UART_WORDLENGTH_8B)
 312              		.loc 1 496 0
 313 0022 7B68     		ldr	r3, [r7, #4]
 314 0024 9B68     		ldr	r3, [r3, #8]
 315 0026 002B     		cmp	r3, #0
 316 0028 01D0     		beq	.L17
 497:D:/iot/felix2/targets/Cloud_STM32L431_BearPi/Drivers/STM32L4xx_HAL_Driver/Src\stm32l4xx_hal_uart.c ****   {
 498:D:/iot/felix2/targets/Cloud_STM32L431_BearPi/Drivers/STM32L4xx_HAL_Driver/Src\stm32l4xx_hal_uart.c ****     return HAL_ERROR;
 317              		.loc 1 498 0
 318 002a 0123     		movs	r3, #1
 319 002c 55E0     		b	.L15
 320              	.L17:
 499:D:/iot/felix2/targets/Cloud_STM32L431_BearPi/Drivers/STM32L4xx_HAL_Driver/Src\stm32l4xx_hal_uart.c ****   }
 500:D:/iot/felix2/targets/Cloud_STM32L431_BearPi/Drivers/STM32L4xx_HAL_Driver/Src\stm32l4xx_hal_uart.c **** 
 501:D:/iot/felix2/targets/Cloud_STM32L431_BearPi/Drivers/STM32L4xx_HAL_Driver/Src\stm32l4xx_hal_uart.c ****   if (huart->gState == HAL_UART_STATE_RESET)
 321              		.loc 1 501 0
 322 002e 7B68     		ldr	r3, [r7, #4]
 323 0030 93F87130 		ldrb	r3, [r3, #113]
 324 0034 DBB2     		uxtb	r3, r3
 325 0036 002B     		cmp	r3, #0
 326 0038 06D1     		bne	.L18
 502:D:/iot/felix2/targets/Cloud_STM32L431_BearPi/Drivers/STM32L4xx_HAL_Driver/Src\stm32l4xx_hal_uart.c ****   {
 503:D:/iot/felix2/targets/Cloud_STM32L431_BearPi/Drivers/STM32L4xx_HAL_Driver/Src\stm32l4xx_hal_uart.c ****     /* Allocate lock resource and initialize it */
 504:D:/iot/felix2/targets/Cloud_STM32L431_BearPi/Drivers/STM32L4xx_HAL_Driver/Src\stm32l4xx_hal_uart.c ****     huart->Lock = HAL_UNLOCKED;
 327              		.loc 1 504 0
 328 003a 7B68     		ldr	r3, [r7, #4]
 329 003c 0022     		movs	r2, #0
 330 003e 83F87020 		strb	r2, [r3, #112]
 505:D:/iot/felix2/targets/Cloud_STM32L431_BearPi/Drivers/STM32L4xx_HAL_Driver/Src\stm32l4xx_hal_uart.c **** 
 506:D:/iot/felix2/targets/Cloud_STM32L431_BearPi/Drivers/STM32L4xx_HAL_Driver/Src\stm32l4xx_hal_uart.c **** #if (USE_HAL_UART_REGISTER_CALLBACKS == 1)
 507:D:/iot/felix2/targets/Cloud_STM32L431_BearPi/Drivers/STM32L4xx_HAL_Driver/Src\stm32l4xx_hal_uart.c ****     UART_InitCallbacksToDefault(huart);
 508:D:/iot/felix2/targets/Cloud_STM32L431_BearPi/Drivers/STM32L4xx_HAL_Driver/Src\stm32l4xx_hal_uart.c **** 
 509:D:/iot/felix2/targets/Cloud_STM32L431_BearPi/Drivers/STM32L4xx_HAL_Driver/Src\stm32l4xx_hal_uart.c ****     if (huart->MspInitCallback == NULL)
 510:D:/iot/felix2/targets/Cloud_STM32L431_BearPi/Drivers/STM32L4xx_HAL_Driver/Src\stm32l4xx_hal_uart.c ****     {
 511:D:/iot/felix2/targets/Cloud_STM32L431_BearPi/Drivers/STM32L4xx_HAL_Driver/Src\stm32l4xx_hal_uart.c ****       huart->MspInitCallback = HAL_UART_MspInit;
 512:D:/iot/felix2/targets/Cloud_STM32L431_BearPi/Drivers/STM32L4xx_HAL_Driver/Src\stm32l4xx_hal_uart.c ****     }
 513:D:/iot/felix2/targets/Cloud_STM32L431_BearPi/Drivers/STM32L4xx_HAL_Driver/Src\stm32l4xx_hal_uart.c **** 
 514:D:/iot/felix2/targets/Cloud_STM32L431_BearPi/Drivers/STM32L4xx_HAL_Driver/Src\stm32l4xx_hal_uart.c ****     /* Init the low level hardware */
 515:D:/iot/felix2/targets/Cloud_STM32L431_BearPi/Drivers/STM32L4xx_HAL_Driver/Src\stm32l4xx_hal_uart.c ****     huart->MspInitCallback(huart);
 516:D:/iot/felix2/targets/Cloud_STM32L431_BearPi/Drivers/STM32L4xx_HAL_Driver/Src\stm32l4xx_hal_uart.c **** #else
 517:D:/iot/felix2/targets/Cloud_STM32L431_BearPi/Drivers/STM32L4xx_HAL_Driver/Src\stm32l4xx_hal_uart.c ****     /* Init the low level hardware : GPIO, CLOCK */
 518:D:/iot/felix2/targets/Cloud_STM32L431_BearPi/Drivers/STM32L4xx_HAL_Driver/Src\stm32l4xx_hal_uart.c ****     HAL_UART_MspInit(huart);
 331              		.loc 1 518 0
 332 0042 7868     		ldr	r0, [r7, #4]
 333 0044 FFF7FEFF 		bl	HAL_UART_MspInit
 334              	.L18:
 519:D:/iot/felix2/targets/Cloud_STM32L431_BearPi/Drivers/STM32L4xx_HAL_Driver/Src\stm32l4xx_hal_uart.c **** #endif /* (USE_HAL_UART_REGISTER_CALLBACKS) */
 520:D:/iot/felix2/targets/Cloud_STM32L431_BearPi/Drivers/STM32L4xx_HAL_Driver/Src\stm32l4xx_hal_uart.c ****   }
 521:D:/iot/felix2/targets/Cloud_STM32L431_BearPi/Drivers/STM32L4xx_HAL_Driver/Src\stm32l4xx_hal_uart.c **** 
 522:D:/iot/felix2/targets/Cloud_STM32L431_BearPi/Drivers/STM32L4xx_HAL_Driver/Src\stm32l4xx_hal_uart.c ****   huart->gState = HAL_UART_STATE_BUSY;
 335              		.loc 1 522 0
 336 0048 7B68     		ldr	r3, [r7, #4]
 337 004a 2422     		movs	r2, #36
 338 004c 83F87120 		strb	r2, [r3, #113]
ARM GAS  C:\Users\91458\AppData\Local\Temp\ccrpKNIe.s 			page 16


 523:D:/iot/felix2/targets/Cloud_STM32L431_BearPi/Drivers/STM32L4xx_HAL_Driver/Src\stm32l4xx_hal_uart.c **** 
 524:D:/iot/felix2/targets/Cloud_STM32L431_BearPi/Drivers/STM32L4xx_HAL_Driver/Src\stm32l4xx_hal_uart.c ****   /* Disable the Peripheral */
 525:D:/iot/felix2/targets/Cloud_STM32L431_BearPi/Drivers/STM32L4xx_HAL_Driver/Src\stm32l4xx_hal_uart.c ****   __HAL_UART_DISABLE(huart);
 339              		.loc 1 525 0
 340 0050 7B68     		ldr	r3, [r7, #4]
 341 0052 1B68     		ldr	r3, [r3]
 342 0054 1A68     		ldr	r2, [r3]
 343 0056 7B68     		ldr	r3, [r7, #4]
 344 0058 1B68     		ldr	r3, [r3]
 345 005a 22F00102 		bic	r2, r2, #1
 346 005e 1A60     		str	r2, [r3]
 526:D:/iot/felix2/targets/Cloud_STM32L431_BearPi/Drivers/STM32L4xx_HAL_Driver/Src\stm32l4xx_hal_uart.c **** 
 527:D:/iot/felix2/targets/Cloud_STM32L431_BearPi/Drivers/STM32L4xx_HAL_Driver/Src\stm32l4xx_hal_uart.c ****   /* Set the UART Communication parameters */
 528:D:/iot/felix2/targets/Cloud_STM32L431_BearPi/Drivers/STM32L4xx_HAL_Driver/Src\stm32l4xx_hal_uart.c ****   if (UART_SetConfig(huart) == HAL_ERROR)
 347              		.loc 1 528 0
 348 0060 7868     		ldr	r0, [r7, #4]
 349 0062 FFF7FEFF 		bl	UART_SetConfig
 350 0066 0346     		mov	r3, r0
 351 0068 012B     		cmp	r3, #1
 352 006a 01D1     		bne	.L19
 529:D:/iot/felix2/targets/Cloud_STM32L431_BearPi/Drivers/STM32L4xx_HAL_Driver/Src\stm32l4xx_hal_uart.c ****   {
 530:D:/iot/felix2/targets/Cloud_STM32L431_BearPi/Drivers/STM32L4xx_HAL_Driver/Src\stm32l4xx_hal_uart.c ****     return HAL_ERROR;
 353              		.loc 1 530 0
 354 006c 0123     		movs	r3, #1
 355 006e 34E0     		b	.L15
 356              	.L19:
 531:D:/iot/felix2/targets/Cloud_STM32L431_BearPi/Drivers/STM32L4xx_HAL_Driver/Src\stm32l4xx_hal_uart.c ****   }
 532:D:/iot/felix2/targets/Cloud_STM32L431_BearPi/Drivers/STM32L4xx_HAL_Driver/Src\stm32l4xx_hal_uart.c **** 
 533:D:/iot/felix2/targets/Cloud_STM32L431_BearPi/Drivers/STM32L4xx_HAL_Driver/Src\stm32l4xx_hal_uart.c ****   if (huart->AdvancedInit.AdvFeatureInit != UART_ADVFEATURE_NO_INIT)
 357              		.loc 1 533 0
 358 0070 7B68     		ldr	r3, [r7, #4]
 359 0072 5B6A     		ldr	r3, [r3, #36]
 360 0074 002B     		cmp	r3, #0
 361 0076 02D0     		beq	.L20
 534:D:/iot/felix2/targets/Cloud_STM32L431_BearPi/Drivers/STM32L4xx_HAL_Driver/Src\stm32l4xx_hal_uart.c ****   {
 535:D:/iot/felix2/targets/Cloud_STM32L431_BearPi/Drivers/STM32L4xx_HAL_Driver/Src\stm32l4xx_hal_uart.c ****     UART_AdvFeatureConfig(huart);
 362              		.loc 1 535 0
 363 0078 7868     		ldr	r0, [r7, #4]
 364 007a FFF7FEFF 		bl	UART_AdvFeatureConfig
 365              	.L20:
 536:D:/iot/felix2/targets/Cloud_STM32L431_BearPi/Drivers/STM32L4xx_HAL_Driver/Src\stm32l4xx_hal_uart.c ****   }
 537:D:/iot/felix2/targets/Cloud_STM32L431_BearPi/Drivers/STM32L4xx_HAL_Driver/Src\stm32l4xx_hal_uart.c **** 
 538:D:/iot/felix2/targets/Cloud_STM32L431_BearPi/Drivers/STM32L4xx_HAL_Driver/Src\stm32l4xx_hal_uart.c ****   /* In LIN mode, the following bits must be kept cleared:
 539:D:/iot/felix2/targets/Cloud_STM32L431_BearPi/Drivers/STM32L4xx_HAL_Driver/Src\stm32l4xx_hal_uart.c ****   - LINEN and CLKEN bits in the USART_CR2 register,
 540:D:/iot/felix2/targets/Cloud_STM32L431_BearPi/Drivers/STM32L4xx_HAL_Driver/Src\stm32l4xx_hal_uart.c ****   - SCEN and IREN bits in the USART_CR3 register.*/
 541:D:/iot/felix2/targets/Cloud_STM32L431_BearPi/Drivers/STM32L4xx_HAL_Driver/Src\stm32l4xx_hal_uart.c ****   CLEAR_BIT(huart->Instance->CR2, USART_CR2_CLKEN);
 366              		.loc 1 541 0
 367 007e 7B68     		ldr	r3, [r7, #4]
 368 0080 1B68     		ldr	r3, [r3]
 369 0082 5A68     		ldr	r2, [r3, #4]
 370 0084 7B68     		ldr	r3, [r7, #4]
 371 0086 1B68     		ldr	r3, [r3]
 372 0088 22F40062 		bic	r2, r2, #2048
 373 008c 5A60     		str	r2, [r3, #4]
 542:D:/iot/felix2/targets/Cloud_STM32L431_BearPi/Drivers/STM32L4xx_HAL_Driver/Src\stm32l4xx_hal_uart.c ****   CLEAR_BIT(huart->Instance->CR3, (USART_CR3_HDSEL | USART_CR3_IREN | USART_CR3_SCEN));
 374              		.loc 1 542 0
 375 008e 7B68     		ldr	r3, [r7, #4]
ARM GAS  C:\Users\91458\AppData\Local\Temp\ccrpKNIe.s 			page 17


 376 0090 1B68     		ldr	r3, [r3]
 377 0092 9A68     		ldr	r2, [r3, #8]
 378 0094 7B68     		ldr	r3, [r7, #4]
 379 0096 1B68     		ldr	r3, [r3]
 380 0098 22F02A02 		bic	r2, r2, #42
 381 009c 9A60     		str	r2, [r3, #8]
 543:D:/iot/felix2/targets/Cloud_STM32L431_BearPi/Drivers/STM32L4xx_HAL_Driver/Src\stm32l4xx_hal_uart.c **** 
 544:D:/iot/felix2/targets/Cloud_STM32L431_BearPi/Drivers/STM32L4xx_HAL_Driver/Src\stm32l4xx_hal_uart.c ****   /* Enable the LIN mode by setting the LINEN bit in the CR2 register */
 545:D:/iot/felix2/targets/Cloud_STM32L431_BearPi/Drivers/STM32L4xx_HAL_Driver/Src\stm32l4xx_hal_uart.c ****   SET_BIT(huart->Instance->CR2, USART_CR2_LINEN);
 382              		.loc 1 545 0
 383 009e 7B68     		ldr	r3, [r7, #4]
 384 00a0 1B68     		ldr	r3, [r3]
 385 00a2 5A68     		ldr	r2, [r3, #4]
 386 00a4 7B68     		ldr	r3, [r7, #4]
 387 00a6 1B68     		ldr	r3, [r3]
 388 00a8 42F48042 		orr	r2, r2, #16384
 389 00ac 5A60     		str	r2, [r3, #4]
 546:D:/iot/felix2/targets/Cloud_STM32L431_BearPi/Drivers/STM32L4xx_HAL_Driver/Src\stm32l4xx_hal_uart.c **** 
 547:D:/iot/felix2/targets/Cloud_STM32L431_BearPi/Drivers/STM32L4xx_HAL_Driver/Src\stm32l4xx_hal_uart.c ****   /* Set the USART LIN Break detection length. */
 548:D:/iot/felix2/targets/Cloud_STM32L431_BearPi/Drivers/STM32L4xx_HAL_Driver/Src\stm32l4xx_hal_uart.c ****   MODIFY_REG(huart->Instance->CR2, USART_CR2_LBDL, BreakDetectLength);
 390              		.loc 1 548 0
 391 00ae 7B68     		ldr	r3, [r7, #4]
 392 00b0 1B68     		ldr	r3, [r3]
 393 00b2 5B68     		ldr	r3, [r3, #4]
 394 00b4 23F02001 		bic	r1, r3, #32
 395 00b8 7B68     		ldr	r3, [r7, #4]
 396 00ba 1B68     		ldr	r3, [r3]
 397 00bc 3A68     		ldr	r2, [r7]
 398 00be 0A43     		orrs	r2, r2, r1
 399 00c0 5A60     		str	r2, [r3, #4]
 549:D:/iot/felix2/targets/Cloud_STM32L431_BearPi/Drivers/STM32L4xx_HAL_Driver/Src\stm32l4xx_hal_uart.c **** 
 550:D:/iot/felix2/targets/Cloud_STM32L431_BearPi/Drivers/STM32L4xx_HAL_Driver/Src\stm32l4xx_hal_uart.c ****   /* Enable the Peripheral */
 551:D:/iot/felix2/targets/Cloud_STM32L431_BearPi/Drivers/STM32L4xx_HAL_Driver/Src\stm32l4xx_hal_uart.c ****   __HAL_UART_ENABLE(huart);
 400              		.loc 1 551 0
 401 00c2 7B68     		ldr	r3, [r7, #4]
 402 00c4 1B68     		ldr	r3, [r3]
 403 00c6 1A68     		ldr	r2, [r3]
 404 00c8 7B68     		ldr	r3, [r7, #4]
 405 00ca 1B68     		ldr	r3, [r3]
 406 00cc 42F00102 		orr	r2, r2, #1
 407 00d0 1A60     		str	r2, [r3]
 552:D:/iot/felix2/targets/Cloud_STM32L431_BearPi/Drivers/STM32L4xx_HAL_Driver/Src\stm32l4xx_hal_uart.c **** 
 553:D:/iot/felix2/targets/Cloud_STM32L431_BearPi/Drivers/STM32L4xx_HAL_Driver/Src\stm32l4xx_hal_uart.c ****   /* TEACK and/or REACK to check before moving huart->gState and huart->RxState to Ready */
 554:D:/iot/felix2/targets/Cloud_STM32L431_BearPi/Drivers/STM32L4xx_HAL_Driver/Src\stm32l4xx_hal_uart.c ****   return (UART_CheckIdleState(huart));
 408              		.loc 1 554 0
 409 00d2 7868     		ldr	r0, [r7, #4]
 410 00d4 FFF7FEFF 		bl	UART_CheckIdleState
 411 00d8 0346     		mov	r3, r0
 412              	.L15:
 555:D:/iot/felix2/targets/Cloud_STM32L431_BearPi/Drivers/STM32L4xx_HAL_Driver/Src\stm32l4xx_hal_uart.c **** }
 413              		.loc 1 555 0
 414 00da 1846     		mov	r0, r3
 415 00dc 0837     		adds	r7, r7, #8
 416              	.LCFI13:
 417              		.cfi_def_cfa_offset 8
 418 00de BD46     		mov	sp, r7
 419              	.LCFI14:
ARM GAS  C:\Users\91458\AppData\Local\Temp\ccrpKNIe.s 			page 18


 420              		.cfi_def_cfa_register 13
 421              		@ sp needed
 422 00e0 80BD     		pop	{r7, pc}
 423              		.cfi_endproc
 424              	.LFE135:
 426              		.section	.text.HAL_MultiProcessor_Init,"ax",%progbits
 427              		.align	1
 428              		.global	HAL_MultiProcessor_Init
 429              		.syntax unified
 430              		.thumb
 431              		.thumb_func
 432              		.fpu fpv4-sp-d16
 434              	HAL_MultiProcessor_Init:
 435              	.LFB136:
 556:D:/iot/felix2/targets/Cloud_STM32L431_BearPi/Drivers/STM32L4xx_HAL_Driver/Src\stm32l4xx_hal_uart.c **** 
 557:D:/iot/felix2/targets/Cloud_STM32L431_BearPi/Drivers/STM32L4xx_HAL_Driver/Src\stm32l4xx_hal_uart.c **** 
 558:D:/iot/felix2/targets/Cloud_STM32L431_BearPi/Drivers/STM32L4xx_HAL_Driver/Src\stm32l4xx_hal_uart.c **** /**
 559:D:/iot/felix2/targets/Cloud_STM32L431_BearPi/Drivers/STM32L4xx_HAL_Driver/Src\stm32l4xx_hal_uart.c ****   * @brief Initialize the multiprocessor mode according to the specified
 560:D:/iot/felix2/targets/Cloud_STM32L431_BearPi/Drivers/STM32L4xx_HAL_Driver/Src\stm32l4xx_hal_uart.c ****   *        parameters in the UART_InitTypeDef and initialize the associated handle.
 561:D:/iot/felix2/targets/Cloud_STM32L431_BearPi/Drivers/STM32L4xx_HAL_Driver/Src\stm32l4xx_hal_uart.c ****   * @param huart        UART handle.
 562:D:/iot/felix2/targets/Cloud_STM32L431_BearPi/Drivers/STM32L4xx_HAL_Driver/Src\stm32l4xx_hal_uart.c ****   * @param Address      UART node address (4-, 6-, 7- or 8-bit long).
 563:D:/iot/felix2/targets/Cloud_STM32L431_BearPi/Drivers/STM32L4xx_HAL_Driver/Src\stm32l4xx_hal_uart.c ****   * @param WakeUpMethod Specifies the UART wakeup method.
 564:D:/iot/felix2/targets/Cloud_STM32L431_BearPi/Drivers/STM32L4xx_HAL_Driver/Src\stm32l4xx_hal_uart.c ****   *        This parameter can be one of the following values:
 565:D:/iot/felix2/targets/Cloud_STM32L431_BearPi/Drivers/STM32L4xx_HAL_Driver/Src\stm32l4xx_hal_uart.c ****   *          @arg @ref UART_WAKEUPMETHOD_IDLELINE WakeUp by an idle line detection
 566:D:/iot/felix2/targets/Cloud_STM32L431_BearPi/Drivers/STM32L4xx_HAL_Driver/Src\stm32l4xx_hal_uart.c ****   *          @arg @ref UART_WAKEUPMETHOD_ADDRESSMARK WakeUp by an address mark
 567:D:/iot/felix2/targets/Cloud_STM32L431_BearPi/Drivers/STM32L4xx_HAL_Driver/Src\stm32l4xx_hal_uart.c ****   * @note  If the user resorts to idle line detection wake up, the Address parameter
 568:D:/iot/felix2/targets/Cloud_STM32L431_BearPi/Drivers/STM32L4xx_HAL_Driver/Src\stm32l4xx_hal_uart.c ****   *        is useless and ignored by the initialization function.
 569:D:/iot/felix2/targets/Cloud_STM32L431_BearPi/Drivers/STM32L4xx_HAL_Driver/Src\stm32l4xx_hal_uart.c ****   * @note  If the user resorts to address mark wake up, the address length detection
 570:D:/iot/felix2/targets/Cloud_STM32L431_BearPi/Drivers/STM32L4xx_HAL_Driver/Src\stm32l4xx_hal_uart.c ****   *        is configured by default to 4 bits only. For the UART to be able to
 571:D:/iot/felix2/targets/Cloud_STM32L431_BearPi/Drivers/STM32L4xx_HAL_Driver/Src\stm32l4xx_hal_uart.c ****   *        manage 6-, 7- or 8-bit long addresses detection, the API
 572:D:/iot/felix2/targets/Cloud_STM32L431_BearPi/Drivers/STM32L4xx_HAL_Driver/Src\stm32l4xx_hal_uart.c ****   *        HAL_MultiProcessorEx_AddressLength_Set() must be called after
 573:D:/iot/felix2/targets/Cloud_STM32L431_BearPi/Drivers/STM32L4xx_HAL_Driver/Src\stm32l4xx_hal_uart.c ****   *        HAL_MultiProcessor_Init().
 574:D:/iot/felix2/targets/Cloud_STM32L431_BearPi/Drivers/STM32L4xx_HAL_Driver/Src\stm32l4xx_hal_uart.c ****   * @retval HAL status
 575:D:/iot/felix2/targets/Cloud_STM32L431_BearPi/Drivers/STM32L4xx_HAL_Driver/Src\stm32l4xx_hal_uart.c ****   */
 576:D:/iot/felix2/targets/Cloud_STM32L431_BearPi/Drivers/STM32L4xx_HAL_Driver/Src\stm32l4xx_hal_uart.c **** HAL_StatusTypeDef HAL_MultiProcessor_Init(UART_HandleTypeDef *huart, uint8_t Address, uint32_t Wake
 577:D:/iot/felix2/targets/Cloud_STM32L431_BearPi/Drivers/STM32L4xx_HAL_Driver/Src\stm32l4xx_hal_uart.c **** {
 436              		.loc 1 577 0
 437              		.cfi_startproc
 438              		@ args = 0, pretend = 0, frame = 16
 439              		@ frame_needed = 1, uses_anonymous_args = 0
 440 0000 80B5     		push	{r7, lr}
 441              	.LCFI15:
 442              		.cfi_def_cfa_offset 8
 443              		.cfi_offset 7, -8
 444              		.cfi_offset 14, -4
 445 0002 84B0     		sub	sp, sp, #16
 446              	.LCFI16:
 447              		.cfi_def_cfa_offset 24
 448 0004 00AF     		add	r7, sp, #0
 449              	.LCFI17:
 450              		.cfi_def_cfa_register 7
 451 0006 F860     		str	r0, [r7, #12]
 452 0008 0B46     		mov	r3, r1
 453 000a 7A60     		str	r2, [r7, #4]
 454 000c FB72     		strb	r3, [r7, #11]
 578:D:/iot/felix2/targets/Cloud_STM32L431_BearPi/Drivers/STM32L4xx_HAL_Driver/Src\stm32l4xx_hal_uart.c ****   /* Check the UART handle allocation */
 579:D:/iot/felix2/targets/Cloud_STM32L431_BearPi/Drivers/STM32L4xx_HAL_Driver/Src\stm32l4xx_hal_uart.c ****   if (huart == NULL)
ARM GAS  C:\Users\91458\AppData\Local\Temp\ccrpKNIe.s 			page 19


 455              		.loc 1 579 0
 456 000e FB68     		ldr	r3, [r7, #12]
 457 0010 002B     		cmp	r3, #0
 458 0012 01D1     		bne	.L22
 580:D:/iot/felix2/targets/Cloud_STM32L431_BearPi/Drivers/STM32L4xx_HAL_Driver/Src\stm32l4xx_hal_uart.c ****   {
 581:D:/iot/felix2/targets/Cloud_STM32L431_BearPi/Drivers/STM32L4xx_HAL_Driver/Src\stm32l4xx_hal_uart.c ****     return HAL_ERROR;
 459              		.loc 1 581 0
 460 0014 0123     		movs	r3, #1
 461 0016 5CE0     		b	.L23
 462              	.L22:
 582:D:/iot/felix2/targets/Cloud_STM32L431_BearPi/Drivers/STM32L4xx_HAL_Driver/Src\stm32l4xx_hal_uart.c ****   }
 583:D:/iot/felix2/targets/Cloud_STM32L431_BearPi/Drivers/STM32L4xx_HAL_Driver/Src\stm32l4xx_hal_uart.c **** 
 584:D:/iot/felix2/targets/Cloud_STM32L431_BearPi/Drivers/STM32L4xx_HAL_Driver/Src\stm32l4xx_hal_uart.c ****   /* Check the wake up method parameter */
 585:D:/iot/felix2/targets/Cloud_STM32L431_BearPi/Drivers/STM32L4xx_HAL_Driver/Src\stm32l4xx_hal_uart.c ****   assert_param(IS_UART_WAKEUPMETHOD(WakeUpMethod));
 586:D:/iot/felix2/targets/Cloud_STM32L431_BearPi/Drivers/STM32L4xx_HAL_Driver/Src\stm32l4xx_hal_uart.c **** 
 587:D:/iot/felix2/targets/Cloud_STM32L431_BearPi/Drivers/STM32L4xx_HAL_Driver/Src\stm32l4xx_hal_uart.c ****   if (huart->gState == HAL_UART_STATE_RESET)
 463              		.loc 1 587 0
 464 0018 FB68     		ldr	r3, [r7, #12]
 465 001a 93F87130 		ldrb	r3, [r3, #113]
 466 001e DBB2     		uxtb	r3, r3
 467 0020 002B     		cmp	r3, #0
 468 0022 06D1     		bne	.L24
 588:D:/iot/felix2/targets/Cloud_STM32L431_BearPi/Drivers/STM32L4xx_HAL_Driver/Src\stm32l4xx_hal_uart.c ****   {
 589:D:/iot/felix2/targets/Cloud_STM32L431_BearPi/Drivers/STM32L4xx_HAL_Driver/Src\stm32l4xx_hal_uart.c ****     /* Allocate lock resource and initialize it */
 590:D:/iot/felix2/targets/Cloud_STM32L431_BearPi/Drivers/STM32L4xx_HAL_Driver/Src\stm32l4xx_hal_uart.c ****     huart->Lock = HAL_UNLOCKED;
 469              		.loc 1 590 0
 470 0024 FB68     		ldr	r3, [r7, #12]
 471 0026 0022     		movs	r2, #0
 472 0028 83F87020 		strb	r2, [r3, #112]
 591:D:/iot/felix2/targets/Cloud_STM32L431_BearPi/Drivers/STM32L4xx_HAL_Driver/Src\stm32l4xx_hal_uart.c **** 
 592:D:/iot/felix2/targets/Cloud_STM32L431_BearPi/Drivers/STM32L4xx_HAL_Driver/Src\stm32l4xx_hal_uart.c **** #if (USE_HAL_UART_REGISTER_CALLBACKS == 1)
 593:D:/iot/felix2/targets/Cloud_STM32L431_BearPi/Drivers/STM32L4xx_HAL_Driver/Src\stm32l4xx_hal_uart.c ****     UART_InitCallbacksToDefault(huart);
 594:D:/iot/felix2/targets/Cloud_STM32L431_BearPi/Drivers/STM32L4xx_HAL_Driver/Src\stm32l4xx_hal_uart.c **** 
 595:D:/iot/felix2/targets/Cloud_STM32L431_BearPi/Drivers/STM32L4xx_HAL_Driver/Src\stm32l4xx_hal_uart.c ****     if (huart->MspInitCallback == NULL)
 596:D:/iot/felix2/targets/Cloud_STM32L431_BearPi/Drivers/STM32L4xx_HAL_Driver/Src\stm32l4xx_hal_uart.c ****     {
 597:D:/iot/felix2/targets/Cloud_STM32L431_BearPi/Drivers/STM32L4xx_HAL_Driver/Src\stm32l4xx_hal_uart.c ****       huart->MspInitCallback = HAL_UART_MspInit;
 598:D:/iot/felix2/targets/Cloud_STM32L431_BearPi/Drivers/STM32L4xx_HAL_Driver/Src\stm32l4xx_hal_uart.c ****     }
 599:D:/iot/felix2/targets/Cloud_STM32L431_BearPi/Drivers/STM32L4xx_HAL_Driver/Src\stm32l4xx_hal_uart.c **** 
 600:D:/iot/felix2/targets/Cloud_STM32L431_BearPi/Drivers/STM32L4xx_HAL_Driver/Src\stm32l4xx_hal_uart.c ****     /* Init the low level hardware */
 601:D:/iot/felix2/targets/Cloud_STM32L431_BearPi/Drivers/STM32L4xx_HAL_Driver/Src\stm32l4xx_hal_uart.c ****     huart->MspInitCallback(huart);
 602:D:/iot/felix2/targets/Cloud_STM32L431_BearPi/Drivers/STM32L4xx_HAL_Driver/Src\stm32l4xx_hal_uart.c **** #else
 603:D:/iot/felix2/targets/Cloud_STM32L431_BearPi/Drivers/STM32L4xx_HAL_Driver/Src\stm32l4xx_hal_uart.c ****     /* Init the low level hardware : GPIO, CLOCK */
 604:D:/iot/felix2/targets/Cloud_STM32L431_BearPi/Drivers/STM32L4xx_HAL_Driver/Src\stm32l4xx_hal_uart.c ****     HAL_UART_MspInit(huart);
 473              		.loc 1 604 0
 474 002c F868     		ldr	r0, [r7, #12]
 475 002e FFF7FEFF 		bl	HAL_UART_MspInit
 476              	.L24:
 605:D:/iot/felix2/targets/Cloud_STM32L431_BearPi/Drivers/STM32L4xx_HAL_Driver/Src\stm32l4xx_hal_uart.c **** #endif /* (USE_HAL_UART_REGISTER_CALLBACKS) */
 606:D:/iot/felix2/targets/Cloud_STM32L431_BearPi/Drivers/STM32L4xx_HAL_Driver/Src\stm32l4xx_hal_uart.c ****   }
 607:D:/iot/felix2/targets/Cloud_STM32L431_BearPi/Drivers/STM32L4xx_HAL_Driver/Src\stm32l4xx_hal_uart.c **** 
 608:D:/iot/felix2/targets/Cloud_STM32L431_BearPi/Drivers/STM32L4xx_HAL_Driver/Src\stm32l4xx_hal_uart.c ****   huart->gState = HAL_UART_STATE_BUSY;
 477              		.loc 1 608 0
 478 0032 FB68     		ldr	r3, [r7, #12]
 479 0034 2422     		movs	r2, #36
 480 0036 83F87120 		strb	r2, [r3, #113]
 609:D:/iot/felix2/targets/Cloud_STM32L431_BearPi/Drivers/STM32L4xx_HAL_Driver/Src\stm32l4xx_hal_uart.c **** 
 610:D:/iot/felix2/targets/Cloud_STM32L431_BearPi/Drivers/STM32L4xx_HAL_Driver/Src\stm32l4xx_hal_uart.c ****   /* Disable the Peripheral */
ARM GAS  C:\Users\91458\AppData\Local\Temp\ccrpKNIe.s 			page 20


 611:D:/iot/felix2/targets/Cloud_STM32L431_BearPi/Drivers/STM32L4xx_HAL_Driver/Src\stm32l4xx_hal_uart.c ****   __HAL_UART_DISABLE(huart);
 481              		.loc 1 611 0
 482 003a FB68     		ldr	r3, [r7, #12]
 483 003c 1B68     		ldr	r3, [r3]
 484 003e 1A68     		ldr	r2, [r3]
 485 0040 FB68     		ldr	r3, [r7, #12]
 486 0042 1B68     		ldr	r3, [r3]
 487 0044 22F00102 		bic	r2, r2, #1
 488 0048 1A60     		str	r2, [r3]
 612:D:/iot/felix2/targets/Cloud_STM32L431_BearPi/Drivers/STM32L4xx_HAL_Driver/Src\stm32l4xx_hal_uart.c **** 
 613:D:/iot/felix2/targets/Cloud_STM32L431_BearPi/Drivers/STM32L4xx_HAL_Driver/Src\stm32l4xx_hal_uart.c ****   /* Set the UART Communication parameters */
 614:D:/iot/felix2/targets/Cloud_STM32L431_BearPi/Drivers/STM32L4xx_HAL_Driver/Src\stm32l4xx_hal_uart.c ****   if (UART_SetConfig(huart) == HAL_ERROR)
 489              		.loc 1 614 0
 490 004a F868     		ldr	r0, [r7, #12]
 491 004c FFF7FEFF 		bl	UART_SetConfig
 492 0050 0346     		mov	r3, r0
 493 0052 012B     		cmp	r3, #1
 494 0054 01D1     		bne	.L25
 615:D:/iot/felix2/targets/Cloud_STM32L431_BearPi/Drivers/STM32L4xx_HAL_Driver/Src\stm32l4xx_hal_uart.c ****   {
 616:D:/iot/felix2/targets/Cloud_STM32L431_BearPi/Drivers/STM32L4xx_HAL_Driver/Src\stm32l4xx_hal_uart.c ****     return HAL_ERROR;
 495              		.loc 1 616 0
 496 0056 0123     		movs	r3, #1
 497 0058 3BE0     		b	.L23
 498              	.L25:
 617:D:/iot/felix2/targets/Cloud_STM32L431_BearPi/Drivers/STM32L4xx_HAL_Driver/Src\stm32l4xx_hal_uart.c ****   }
 618:D:/iot/felix2/targets/Cloud_STM32L431_BearPi/Drivers/STM32L4xx_HAL_Driver/Src\stm32l4xx_hal_uart.c **** 
 619:D:/iot/felix2/targets/Cloud_STM32L431_BearPi/Drivers/STM32L4xx_HAL_Driver/Src\stm32l4xx_hal_uart.c ****   if (huart->AdvancedInit.AdvFeatureInit != UART_ADVFEATURE_NO_INIT)
 499              		.loc 1 619 0
 500 005a FB68     		ldr	r3, [r7, #12]
 501 005c 5B6A     		ldr	r3, [r3, #36]
 502 005e 002B     		cmp	r3, #0
 503 0060 02D0     		beq	.L26
 620:D:/iot/felix2/targets/Cloud_STM32L431_BearPi/Drivers/STM32L4xx_HAL_Driver/Src\stm32l4xx_hal_uart.c ****   {
 621:D:/iot/felix2/targets/Cloud_STM32L431_BearPi/Drivers/STM32L4xx_HAL_Driver/Src\stm32l4xx_hal_uart.c ****     UART_AdvFeatureConfig(huart);
 504              		.loc 1 621 0
 505 0062 F868     		ldr	r0, [r7, #12]
 506 0064 FFF7FEFF 		bl	UART_AdvFeatureConfig
 507              	.L26:
 622:D:/iot/felix2/targets/Cloud_STM32L431_BearPi/Drivers/STM32L4xx_HAL_Driver/Src\stm32l4xx_hal_uart.c ****   }
 623:D:/iot/felix2/targets/Cloud_STM32L431_BearPi/Drivers/STM32L4xx_HAL_Driver/Src\stm32l4xx_hal_uart.c **** 
 624:D:/iot/felix2/targets/Cloud_STM32L431_BearPi/Drivers/STM32L4xx_HAL_Driver/Src\stm32l4xx_hal_uart.c ****   /* In multiprocessor mode, the following bits must be kept cleared:
 625:D:/iot/felix2/targets/Cloud_STM32L431_BearPi/Drivers/STM32L4xx_HAL_Driver/Src\stm32l4xx_hal_uart.c ****   - LINEN and CLKEN bits in the USART_CR2 register,
 626:D:/iot/felix2/targets/Cloud_STM32L431_BearPi/Drivers/STM32L4xx_HAL_Driver/Src\stm32l4xx_hal_uart.c ****   - SCEN, HDSEL and IREN  bits in the USART_CR3 register. */
 627:D:/iot/felix2/targets/Cloud_STM32L431_BearPi/Drivers/STM32L4xx_HAL_Driver/Src\stm32l4xx_hal_uart.c ****   CLEAR_BIT(huart->Instance->CR2, (USART_CR2_LINEN | USART_CR2_CLKEN));
 508              		.loc 1 627 0
 509 0068 FB68     		ldr	r3, [r7, #12]
 510 006a 1B68     		ldr	r3, [r3]
 511 006c 5A68     		ldr	r2, [r3, #4]
 512 006e FB68     		ldr	r3, [r7, #12]
 513 0070 1B68     		ldr	r3, [r3]
 514 0072 22F49042 		bic	r2, r2, #18432
 515 0076 5A60     		str	r2, [r3, #4]
 628:D:/iot/felix2/targets/Cloud_STM32L431_BearPi/Drivers/STM32L4xx_HAL_Driver/Src\stm32l4xx_hal_uart.c ****   CLEAR_BIT(huart->Instance->CR3, (USART_CR3_SCEN | USART_CR3_HDSEL | USART_CR3_IREN));
 516              		.loc 1 628 0
 517 0078 FB68     		ldr	r3, [r7, #12]
 518 007a 1B68     		ldr	r3, [r3]
 519 007c 9A68     		ldr	r2, [r3, #8]
ARM GAS  C:\Users\91458\AppData\Local\Temp\ccrpKNIe.s 			page 21


 520 007e FB68     		ldr	r3, [r7, #12]
 521 0080 1B68     		ldr	r3, [r3]
 522 0082 22F02A02 		bic	r2, r2, #42
 523 0086 9A60     		str	r2, [r3, #8]
 629:D:/iot/felix2/targets/Cloud_STM32L431_BearPi/Drivers/STM32L4xx_HAL_Driver/Src\stm32l4xx_hal_uart.c **** 
 630:D:/iot/felix2/targets/Cloud_STM32L431_BearPi/Drivers/STM32L4xx_HAL_Driver/Src\stm32l4xx_hal_uart.c ****   if (WakeUpMethod == UART_WAKEUPMETHOD_ADDRESSMARK)
 524              		.loc 1 630 0
 525 0088 7B68     		ldr	r3, [r7, #4]
 526 008a B3F5006F 		cmp	r3, #2048
 527 008e 0AD1     		bne	.L27
 631:D:/iot/felix2/targets/Cloud_STM32L431_BearPi/Drivers/STM32L4xx_HAL_Driver/Src\stm32l4xx_hal_uart.c ****   {
 632:D:/iot/felix2/targets/Cloud_STM32L431_BearPi/Drivers/STM32L4xx_HAL_Driver/Src\stm32l4xx_hal_uart.c ****     /* If address mark wake up method is chosen, set the USART address node */
 633:D:/iot/felix2/targets/Cloud_STM32L431_BearPi/Drivers/STM32L4xx_HAL_Driver/Src\stm32l4xx_hal_uart.c ****     MODIFY_REG(huart->Instance->CR2, USART_CR2_ADD, ((uint32_t)Address << UART_CR2_ADDRESS_LSB_POS)
 528              		.loc 1 633 0
 529 0090 FB68     		ldr	r3, [r7, #12]
 530 0092 1B68     		ldr	r3, [r3]
 531 0094 5B68     		ldr	r3, [r3, #4]
 532 0096 23F07F41 		bic	r1, r3, #-16777216
 533 009a FB7A     		ldrb	r3, [r7, #11]	@ zero_extendqisi2
 534 009c 1A06     		lsls	r2, r3, #24
 535 009e FB68     		ldr	r3, [r7, #12]
 536 00a0 1B68     		ldr	r3, [r3]
 537 00a2 0A43     		orrs	r2, r2, r1
 538 00a4 5A60     		str	r2, [r3, #4]
 539              	.L27:
 634:D:/iot/felix2/targets/Cloud_STM32L431_BearPi/Drivers/STM32L4xx_HAL_Driver/Src\stm32l4xx_hal_uart.c ****   }
 635:D:/iot/felix2/targets/Cloud_STM32L431_BearPi/Drivers/STM32L4xx_HAL_Driver/Src\stm32l4xx_hal_uart.c **** 
 636:D:/iot/felix2/targets/Cloud_STM32L431_BearPi/Drivers/STM32L4xx_HAL_Driver/Src\stm32l4xx_hal_uart.c ****   /* Set the wake up method by setting the WAKE bit in the CR1 register */
 637:D:/iot/felix2/targets/Cloud_STM32L431_BearPi/Drivers/STM32L4xx_HAL_Driver/Src\stm32l4xx_hal_uart.c ****   MODIFY_REG(huart->Instance->CR1, USART_CR1_WAKE, WakeUpMethod);
 540              		.loc 1 637 0
 541 00a6 FB68     		ldr	r3, [r7, #12]
 542 00a8 1B68     		ldr	r3, [r3]
 543 00aa 1B68     		ldr	r3, [r3]
 544 00ac 23F40061 		bic	r1, r3, #2048
 545 00b0 FB68     		ldr	r3, [r7, #12]
 546 00b2 1B68     		ldr	r3, [r3]
 547 00b4 7A68     		ldr	r2, [r7, #4]
 548 00b6 0A43     		orrs	r2, r2, r1
 549 00b8 1A60     		str	r2, [r3]
 638:D:/iot/felix2/targets/Cloud_STM32L431_BearPi/Drivers/STM32L4xx_HAL_Driver/Src\stm32l4xx_hal_uart.c **** 
 639:D:/iot/felix2/targets/Cloud_STM32L431_BearPi/Drivers/STM32L4xx_HAL_Driver/Src\stm32l4xx_hal_uart.c ****   /* Enable the Peripheral */
 640:D:/iot/felix2/targets/Cloud_STM32L431_BearPi/Drivers/STM32L4xx_HAL_Driver/Src\stm32l4xx_hal_uart.c ****   __HAL_UART_ENABLE(huart);
 550              		.loc 1 640 0
 551 00ba FB68     		ldr	r3, [r7, #12]
 552 00bc 1B68     		ldr	r3, [r3]
 553 00be 1A68     		ldr	r2, [r3]
 554 00c0 FB68     		ldr	r3, [r7, #12]
 555 00c2 1B68     		ldr	r3, [r3]
 556 00c4 42F00102 		orr	r2, r2, #1
 557 00c8 1A60     		str	r2, [r3]
 641:D:/iot/felix2/targets/Cloud_STM32L431_BearPi/Drivers/STM32L4xx_HAL_Driver/Src\stm32l4xx_hal_uart.c **** 
 642:D:/iot/felix2/targets/Cloud_STM32L431_BearPi/Drivers/STM32L4xx_HAL_Driver/Src\stm32l4xx_hal_uart.c ****   /* TEACK and/or REACK to check before moving huart->gState and huart->RxState to Ready */
 643:D:/iot/felix2/targets/Cloud_STM32L431_BearPi/Drivers/STM32L4xx_HAL_Driver/Src\stm32l4xx_hal_uart.c ****   return (UART_CheckIdleState(huart));
 558              		.loc 1 643 0
 559 00ca F868     		ldr	r0, [r7, #12]
 560 00cc FFF7FEFF 		bl	UART_CheckIdleState
 561 00d0 0346     		mov	r3, r0
ARM GAS  C:\Users\91458\AppData\Local\Temp\ccrpKNIe.s 			page 22


 562              	.L23:
 644:D:/iot/felix2/targets/Cloud_STM32L431_BearPi/Drivers/STM32L4xx_HAL_Driver/Src\stm32l4xx_hal_uart.c **** }
 563              		.loc 1 644 0
 564 00d2 1846     		mov	r0, r3
 565 00d4 1037     		adds	r7, r7, #16
 566              	.LCFI18:
 567              		.cfi_def_cfa_offset 8
 568 00d6 BD46     		mov	sp, r7
 569              	.LCFI19:
 570              		.cfi_def_cfa_register 13
 571              		@ sp needed
 572 00d8 80BD     		pop	{r7, pc}
 573              		.cfi_endproc
 574              	.LFE136:
 576              		.section	.text.HAL_UART_DeInit,"ax",%progbits
 577              		.align	1
 578              		.global	HAL_UART_DeInit
 579              		.syntax unified
 580              		.thumb
 581              		.thumb_func
 582              		.fpu fpv4-sp-d16
 584              	HAL_UART_DeInit:
 585              	.LFB137:
 645:D:/iot/felix2/targets/Cloud_STM32L431_BearPi/Drivers/STM32L4xx_HAL_Driver/Src\stm32l4xx_hal_uart.c **** 
 646:D:/iot/felix2/targets/Cloud_STM32L431_BearPi/Drivers/STM32L4xx_HAL_Driver/Src\stm32l4xx_hal_uart.c **** 
 647:D:/iot/felix2/targets/Cloud_STM32L431_BearPi/Drivers/STM32L4xx_HAL_Driver/Src\stm32l4xx_hal_uart.c **** /**
 648:D:/iot/felix2/targets/Cloud_STM32L431_BearPi/Drivers/STM32L4xx_HAL_Driver/Src\stm32l4xx_hal_uart.c ****   * @brief DeInitialize the UART peripheral.
 649:D:/iot/felix2/targets/Cloud_STM32L431_BearPi/Drivers/STM32L4xx_HAL_Driver/Src\stm32l4xx_hal_uart.c ****   * @param huart UART handle.
 650:D:/iot/felix2/targets/Cloud_STM32L431_BearPi/Drivers/STM32L4xx_HAL_Driver/Src\stm32l4xx_hal_uart.c ****   * @retval HAL status
 651:D:/iot/felix2/targets/Cloud_STM32L431_BearPi/Drivers/STM32L4xx_HAL_Driver/Src\stm32l4xx_hal_uart.c ****   */
 652:D:/iot/felix2/targets/Cloud_STM32L431_BearPi/Drivers/STM32L4xx_HAL_Driver/Src\stm32l4xx_hal_uart.c **** HAL_StatusTypeDef HAL_UART_DeInit(UART_HandleTypeDef *huart)
 653:D:/iot/felix2/targets/Cloud_STM32L431_BearPi/Drivers/STM32L4xx_HAL_Driver/Src\stm32l4xx_hal_uart.c **** {
 586              		.loc 1 653 0
 587              		.cfi_startproc
 588              		@ args = 0, pretend = 0, frame = 8
 589              		@ frame_needed = 1, uses_anonymous_args = 0
 590 0000 80B5     		push	{r7, lr}
 591              	.LCFI20:
 592              		.cfi_def_cfa_offset 8
 593              		.cfi_offset 7, -8
 594              		.cfi_offset 14, -4
 595 0002 82B0     		sub	sp, sp, #8
 596              	.LCFI21:
 597              		.cfi_def_cfa_offset 16
 598 0004 00AF     		add	r7, sp, #0
 599              	.LCFI22:
 600              		.cfi_def_cfa_register 7
 601 0006 7860     		str	r0, [r7, #4]
 654:D:/iot/felix2/targets/Cloud_STM32L431_BearPi/Drivers/STM32L4xx_HAL_Driver/Src\stm32l4xx_hal_uart.c ****   /* Check the UART handle allocation */
 655:D:/iot/felix2/targets/Cloud_STM32L431_BearPi/Drivers/STM32L4xx_HAL_Driver/Src\stm32l4xx_hal_uart.c ****   if (huart == NULL)
 602              		.loc 1 655 0
 603 0008 7B68     		ldr	r3, [r7, #4]
 604 000a 002B     		cmp	r3, #0
 605 000c 01D1     		bne	.L29
 656:D:/iot/felix2/targets/Cloud_STM32L431_BearPi/Drivers/STM32L4xx_HAL_Driver/Src\stm32l4xx_hal_uart.c ****   {
 657:D:/iot/felix2/targets/Cloud_STM32L431_BearPi/Drivers/STM32L4xx_HAL_Driver/Src\stm32l4xx_hal_uart.c ****     return HAL_ERROR;
 606              		.loc 1 657 0
ARM GAS  C:\Users\91458\AppData\Local\Temp\ccrpKNIe.s 			page 23


 607 000e 0123     		movs	r3, #1
 608 0010 2AE0     		b	.L30
 609              	.L29:
 658:D:/iot/felix2/targets/Cloud_STM32L431_BearPi/Drivers/STM32L4xx_HAL_Driver/Src\stm32l4xx_hal_uart.c ****   }
 659:D:/iot/felix2/targets/Cloud_STM32L431_BearPi/Drivers/STM32L4xx_HAL_Driver/Src\stm32l4xx_hal_uart.c **** 
 660:D:/iot/felix2/targets/Cloud_STM32L431_BearPi/Drivers/STM32L4xx_HAL_Driver/Src\stm32l4xx_hal_uart.c ****   /* Check the parameters */
 661:D:/iot/felix2/targets/Cloud_STM32L431_BearPi/Drivers/STM32L4xx_HAL_Driver/Src\stm32l4xx_hal_uart.c ****   assert_param((IS_UART_INSTANCE(huart->Instance)) || (IS_LPUART_INSTANCE(huart->Instance)));
 662:D:/iot/felix2/targets/Cloud_STM32L431_BearPi/Drivers/STM32L4xx_HAL_Driver/Src\stm32l4xx_hal_uart.c **** 
 663:D:/iot/felix2/targets/Cloud_STM32L431_BearPi/Drivers/STM32L4xx_HAL_Driver/Src\stm32l4xx_hal_uart.c ****   huart->gState = HAL_UART_STATE_BUSY;
 610              		.loc 1 663 0
 611 0012 7B68     		ldr	r3, [r7, #4]
 612 0014 2422     		movs	r2, #36
 613 0016 83F87120 		strb	r2, [r3, #113]
 664:D:/iot/felix2/targets/Cloud_STM32L431_BearPi/Drivers/STM32L4xx_HAL_Driver/Src\stm32l4xx_hal_uart.c **** 
 665:D:/iot/felix2/targets/Cloud_STM32L431_BearPi/Drivers/STM32L4xx_HAL_Driver/Src\stm32l4xx_hal_uart.c ****   /* Disable the Peripheral */
 666:D:/iot/felix2/targets/Cloud_STM32L431_BearPi/Drivers/STM32L4xx_HAL_Driver/Src\stm32l4xx_hal_uart.c ****   __HAL_UART_DISABLE(huart);
 614              		.loc 1 666 0
 615 001a 7B68     		ldr	r3, [r7, #4]
 616 001c 1B68     		ldr	r3, [r3]
 617 001e 1A68     		ldr	r2, [r3]
 618 0020 7B68     		ldr	r3, [r7, #4]
 619 0022 1B68     		ldr	r3, [r3]
 620 0024 22F00102 		bic	r2, r2, #1
 621 0028 1A60     		str	r2, [r3]
 667:D:/iot/felix2/targets/Cloud_STM32L431_BearPi/Drivers/STM32L4xx_HAL_Driver/Src\stm32l4xx_hal_uart.c **** 
 668:D:/iot/felix2/targets/Cloud_STM32L431_BearPi/Drivers/STM32L4xx_HAL_Driver/Src\stm32l4xx_hal_uart.c ****   huart->Instance->CR1 = 0x0U;
 622              		.loc 1 668 0
 623 002a 7B68     		ldr	r3, [r7, #4]
 624 002c 1B68     		ldr	r3, [r3]
 625 002e 0022     		movs	r2, #0
 626 0030 1A60     		str	r2, [r3]
 669:D:/iot/felix2/targets/Cloud_STM32L431_BearPi/Drivers/STM32L4xx_HAL_Driver/Src\stm32l4xx_hal_uart.c ****   huart->Instance->CR2 = 0x0U;
 627              		.loc 1 669 0
 628 0032 7B68     		ldr	r3, [r7, #4]
 629 0034 1B68     		ldr	r3, [r3]
 630 0036 0022     		movs	r2, #0
 631 0038 5A60     		str	r2, [r3, #4]
 670:D:/iot/felix2/targets/Cloud_STM32L431_BearPi/Drivers/STM32L4xx_HAL_Driver/Src\stm32l4xx_hal_uart.c ****   huart->Instance->CR3 = 0x0U;
 632              		.loc 1 670 0
 633 003a 7B68     		ldr	r3, [r7, #4]
 634 003c 1B68     		ldr	r3, [r3]
 635 003e 0022     		movs	r2, #0
 636 0040 9A60     		str	r2, [r3, #8]
 671:D:/iot/felix2/targets/Cloud_STM32L431_BearPi/Drivers/STM32L4xx_HAL_Driver/Src\stm32l4xx_hal_uart.c **** 
 672:D:/iot/felix2/targets/Cloud_STM32L431_BearPi/Drivers/STM32L4xx_HAL_Driver/Src\stm32l4xx_hal_uart.c **** #if (USE_HAL_UART_REGISTER_CALLBACKS == 1)
 673:D:/iot/felix2/targets/Cloud_STM32L431_BearPi/Drivers/STM32L4xx_HAL_Driver/Src\stm32l4xx_hal_uart.c ****   if (huart->MspDeInitCallback == NULL)
 674:D:/iot/felix2/targets/Cloud_STM32L431_BearPi/Drivers/STM32L4xx_HAL_Driver/Src\stm32l4xx_hal_uart.c ****   {
 675:D:/iot/felix2/targets/Cloud_STM32L431_BearPi/Drivers/STM32L4xx_HAL_Driver/Src\stm32l4xx_hal_uart.c ****     huart->MspDeInitCallback = HAL_UART_MspDeInit;
 676:D:/iot/felix2/targets/Cloud_STM32L431_BearPi/Drivers/STM32L4xx_HAL_Driver/Src\stm32l4xx_hal_uart.c ****   }
 677:D:/iot/felix2/targets/Cloud_STM32L431_BearPi/Drivers/STM32L4xx_HAL_Driver/Src\stm32l4xx_hal_uart.c ****   /* DeInit the low level hardware */
 678:D:/iot/felix2/targets/Cloud_STM32L431_BearPi/Drivers/STM32L4xx_HAL_Driver/Src\stm32l4xx_hal_uart.c ****   huart->MspDeInitCallback(huart);
 679:D:/iot/felix2/targets/Cloud_STM32L431_BearPi/Drivers/STM32L4xx_HAL_Driver/Src\stm32l4xx_hal_uart.c **** #else
 680:D:/iot/felix2/targets/Cloud_STM32L431_BearPi/Drivers/STM32L4xx_HAL_Driver/Src\stm32l4xx_hal_uart.c ****   /* DeInit the low level hardware */
 681:D:/iot/felix2/targets/Cloud_STM32L431_BearPi/Drivers/STM32L4xx_HAL_Driver/Src\stm32l4xx_hal_uart.c ****   HAL_UART_MspDeInit(huart);
 637              		.loc 1 681 0
 638 0042 7868     		ldr	r0, [r7, #4]
 639 0044 FFF7FEFF 		bl	HAL_UART_MspDeInit
ARM GAS  C:\Users\91458\AppData\Local\Temp\ccrpKNIe.s 			page 24


 682:D:/iot/felix2/targets/Cloud_STM32L431_BearPi/Drivers/STM32L4xx_HAL_Driver/Src\stm32l4xx_hal_uart.c **** #endif /* (USE_HAL_UART_REGISTER_CALLBACKS) */
 683:D:/iot/felix2/targets/Cloud_STM32L431_BearPi/Drivers/STM32L4xx_HAL_Driver/Src\stm32l4xx_hal_uart.c **** 
 684:D:/iot/felix2/targets/Cloud_STM32L431_BearPi/Drivers/STM32L4xx_HAL_Driver/Src\stm32l4xx_hal_uart.c ****   huart->ErrorCode = HAL_UART_ERROR_NONE;
 640              		.loc 1 684 0
 641 0048 7B68     		ldr	r3, [r7, #4]
 642 004a 0022     		movs	r2, #0
 643 004c 5A67     		str	r2, [r3, #116]
 685:D:/iot/felix2/targets/Cloud_STM32L431_BearPi/Drivers/STM32L4xx_HAL_Driver/Src\stm32l4xx_hal_uart.c ****   huart->gState = HAL_UART_STATE_RESET;
 644              		.loc 1 685 0
 645 004e 7B68     		ldr	r3, [r7, #4]
 646 0050 0022     		movs	r2, #0
 647 0052 83F87120 		strb	r2, [r3, #113]
 686:D:/iot/felix2/targets/Cloud_STM32L431_BearPi/Drivers/STM32L4xx_HAL_Driver/Src\stm32l4xx_hal_uart.c ****   huart->RxState = HAL_UART_STATE_RESET;
 648              		.loc 1 686 0
 649 0056 7B68     		ldr	r3, [r7, #4]
 650 0058 0022     		movs	r2, #0
 651 005a 83F87220 		strb	r2, [r3, #114]
 687:D:/iot/felix2/targets/Cloud_STM32L431_BearPi/Drivers/STM32L4xx_HAL_Driver/Src\stm32l4xx_hal_uart.c **** 
 688:D:/iot/felix2/targets/Cloud_STM32L431_BearPi/Drivers/STM32L4xx_HAL_Driver/Src\stm32l4xx_hal_uart.c ****   /* Process Unlock */
 689:D:/iot/felix2/targets/Cloud_STM32L431_BearPi/Drivers/STM32L4xx_HAL_Driver/Src\stm32l4xx_hal_uart.c ****   __HAL_UNLOCK(huart);
 652              		.loc 1 689 0
 653 005e 7B68     		ldr	r3, [r7, #4]
 654 0060 0022     		movs	r2, #0
 655 0062 83F87020 		strb	r2, [r3, #112]
 690:D:/iot/felix2/targets/Cloud_STM32L431_BearPi/Drivers/STM32L4xx_HAL_Driver/Src\stm32l4xx_hal_uart.c **** 
 691:D:/iot/felix2/targets/Cloud_STM32L431_BearPi/Drivers/STM32L4xx_HAL_Driver/Src\stm32l4xx_hal_uart.c ****   return HAL_OK;
 656              		.loc 1 691 0
 657 0066 0023     		movs	r3, #0
 658              	.L30:
 692:D:/iot/felix2/targets/Cloud_STM32L431_BearPi/Drivers/STM32L4xx_HAL_Driver/Src\stm32l4xx_hal_uart.c **** }
 659              		.loc 1 692 0
 660 0068 1846     		mov	r0, r3
 661 006a 0837     		adds	r7, r7, #8
 662              	.LCFI23:
 663              		.cfi_def_cfa_offset 8
 664 006c BD46     		mov	sp, r7
 665              	.LCFI24:
 666              		.cfi_def_cfa_register 13
 667              		@ sp needed
 668 006e 80BD     		pop	{r7, pc}
 669              		.cfi_endproc
 670              	.LFE137:
 672              		.section	.text.HAL_UART_MspInit,"ax",%progbits
 673              		.align	1
 674              		.weak	HAL_UART_MspInit
 675              		.syntax unified
 676              		.thumb
 677              		.thumb_func
 678              		.fpu fpv4-sp-d16
 680              	HAL_UART_MspInit:
 681              	.LFB138:
 693:D:/iot/felix2/targets/Cloud_STM32L431_BearPi/Drivers/STM32L4xx_HAL_Driver/Src\stm32l4xx_hal_uart.c **** 
 694:D:/iot/felix2/targets/Cloud_STM32L431_BearPi/Drivers/STM32L4xx_HAL_Driver/Src\stm32l4xx_hal_uart.c **** /**
 695:D:/iot/felix2/targets/Cloud_STM32L431_BearPi/Drivers/STM32L4xx_HAL_Driver/Src\stm32l4xx_hal_uart.c ****   * @brief Initialize the UART MSP.
 696:D:/iot/felix2/targets/Cloud_STM32L431_BearPi/Drivers/STM32L4xx_HAL_Driver/Src\stm32l4xx_hal_uart.c ****   * @param huart UART handle.
 697:D:/iot/felix2/targets/Cloud_STM32L431_BearPi/Drivers/STM32L4xx_HAL_Driver/Src\stm32l4xx_hal_uart.c ****   * @retval None
 698:D:/iot/felix2/targets/Cloud_STM32L431_BearPi/Drivers/STM32L4xx_HAL_Driver/Src\stm32l4xx_hal_uart.c ****   */
ARM GAS  C:\Users\91458\AppData\Local\Temp\ccrpKNIe.s 			page 25


 699:D:/iot/felix2/targets/Cloud_STM32L431_BearPi/Drivers/STM32L4xx_HAL_Driver/Src\stm32l4xx_hal_uart.c **** __weak void HAL_UART_MspInit(UART_HandleTypeDef *huart)
 700:D:/iot/felix2/targets/Cloud_STM32L431_BearPi/Drivers/STM32L4xx_HAL_Driver/Src\stm32l4xx_hal_uart.c **** {
 682              		.loc 1 700 0
 683              		.cfi_startproc
 684              		@ args = 0, pretend = 0, frame = 8
 685              		@ frame_needed = 1, uses_anonymous_args = 0
 686              		@ link register save eliminated.
 687 0000 80B4     		push	{r7}
 688              	.LCFI25:
 689              		.cfi_def_cfa_offset 4
 690              		.cfi_offset 7, -4
 691 0002 83B0     		sub	sp, sp, #12
 692              	.LCFI26:
 693              		.cfi_def_cfa_offset 16
 694 0004 00AF     		add	r7, sp, #0
 695              	.LCFI27:
 696              		.cfi_def_cfa_register 7
 697 0006 7860     		str	r0, [r7, #4]
 701:D:/iot/felix2/targets/Cloud_STM32L431_BearPi/Drivers/STM32L4xx_HAL_Driver/Src\stm32l4xx_hal_uart.c ****   /* Prevent unused argument(s) compilation warning */
 702:D:/iot/felix2/targets/Cloud_STM32L431_BearPi/Drivers/STM32L4xx_HAL_Driver/Src\stm32l4xx_hal_uart.c ****   UNUSED(huart);
 703:D:/iot/felix2/targets/Cloud_STM32L431_BearPi/Drivers/STM32L4xx_HAL_Driver/Src\stm32l4xx_hal_uart.c **** 
 704:D:/iot/felix2/targets/Cloud_STM32L431_BearPi/Drivers/STM32L4xx_HAL_Driver/Src\stm32l4xx_hal_uart.c ****   /* NOTE : This function should not be modified, when the callback is needed,
 705:D:/iot/felix2/targets/Cloud_STM32L431_BearPi/Drivers/STM32L4xx_HAL_Driver/Src\stm32l4xx_hal_uart.c ****             the HAL_UART_MspInit can be implemented in the user file
 706:D:/iot/felix2/targets/Cloud_STM32L431_BearPi/Drivers/STM32L4xx_HAL_Driver/Src\stm32l4xx_hal_uart.c ****    */
 707:D:/iot/felix2/targets/Cloud_STM32L431_BearPi/Drivers/STM32L4xx_HAL_Driver/Src\stm32l4xx_hal_uart.c **** }
 698              		.loc 1 707 0
 699 0008 00BF     		nop
 700 000a 0C37     		adds	r7, r7, #12
 701              	.LCFI28:
 702              		.cfi_def_cfa_offset 4
 703 000c BD46     		mov	sp, r7
 704              	.LCFI29:
 705              		.cfi_def_cfa_register 13
 706              		@ sp needed
 707 000e 5DF8047B 		ldr	r7, [sp], #4
 708              	.LCFI30:
 709              		.cfi_restore 7
 710              		.cfi_def_cfa_offset 0
 711 0012 7047     		bx	lr
 712              		.cfi_endproc
 713              	.LFE138:
 715              		.section	.text.HAL_UART_MspDeInit,"ax",%progbits
 716              		.align	1
 717              		.weak	HAL_UART_MspDeInit
 718              		.syntax unified
 719              		.thumb
 720              		.thumb_func
 721              		.fpu fpv4-sp-d16
 723              	HAL_UART_MspDeInit:
 724              	.LFB139:
 708:D:/iot/felix2/targets/Cloud_STM32L431_BearPi/Drivers/STM32L4xx_HAL_Driver/Src\stm32l4xx_hal_uart.c **** 
 709:D:/iot/felix2/targets/Cloud_STM32L431_BearPi/Drivers/STM32L4xx_HAL_Driver/Src\stm32l4xx_hal_uart.c **** /**
 710:D:/iot/felix2/targets/Cloud_STM32L431_BearPi/Drivers/STM32L4xx_HAL_Driver/Src\stm32l4xx_hal_uart.c ****   * @brief DeInitialize the UART MSP.
 711:D:/iot/felix2/targets/Cloud_STM32L431_BearPi/Drivers/STM32L4xx_HAL_Driver/Src\stm32l4xx_hal_uart.c ****   * @param huart UART handle.
 712:D:/iot/felix2/targets/Cloud_STM32L431_BearPi/Drivers/STM32L4xx_HAL_Driver/Src\stm32l4xx_hal_uart.c ****   * @retval None
 713:D:/iot/felix2/targets/Cloud_STM32L431_BearPi/Drivers/STM32L4xx_HAL_Driver/Src\stm32l4xx_hal_uart.c ****   */
 714:D:/iot/felix2/targets/Cloud_STM32L431_BearPi/Drivers/STM32L4xx_HAL_Driver/Src\stm32l4xx_hal_uart.c **** __weak void HAL_UART_MspDeInit(UART_HandleTypeDef *huart)
ARM GAS  C:\Users\91458\AppData\Local\Temp\ccrpKNIe.s 			page 26


 715:D:/iot/felix2/targets/Cloud_STM32L431_BearPi/Drivers/STM32L4xx_HAL_Driver/Src\stm32l4xx_hal_uart.c **** {
 725              		.loc 1 715 0
 726              		.cfi_startproc
 727              		@ args = 0, pretend = 0, frame = 8
 728              		@ frame_needed = 1, uses_anonymous_args = 0
 729              		@ link register save eliminated.
 730 0000 80B4     		push	{r7}
 731              	.LCFI31:
 732              		.cfi_def_cfa_offset 4
 733              		.cfi_offset 7, -4
 734 0002 83B0     		sub	sp, sp, #12
 735              	.LCFI32:
 736              		.cfi_def_cfa_offset 16
 737 0004 00AF     		add	r7, sp, #0
 738              	.LCFI33:
 739              		.cfi_def_cfa_register 7
 740 0006 7860     		str	r0, [r7, #4]
 716:D:/iot/felix2/targets/Cloud_STM32L431_BearPi/Drivers/STM32L4xx_HAL_Driver/Src\stm32l4xx_hal_uart.c ****   /* Prevent unused argument(s) compilation warning */
 717:D:/iot/felix2/targets/Cloud_STM32L431_BearPi/Drivers/STM32L4xx_HAL_Driver/Src\stm32l4xx_hal_uart.c ****   UNUSED(huart);
 718:D:/iot/felix2/targets/Cloud_STM32L431_BearPi/Drivers/STM32L4xx_HAL_Driver/Src\stm32l4xx_hal_uart.c **** 
 719:D:/iot/felix2/targets/Cloud_STM32L431_BearPi/Drivers/STM32L4xx_HAL_Driver/Src\stm32l4xx_hal_uart.c ****   /* NOTE : This function should not be modified, when the callback is needed,
 720:D:/iot/felix2/targets/Cloud_STM32L431_BearPi/Drivers/STM32L4xx_HAL_Driver/Src\stm32l4xx_hal_uart.c ****             the HAL_UART_MspDeInit can be implemented in the user file
 721:D:/iot/felix2/targets/Cloud_STM32L431_BearPi/Drivers/STM32L4xx_HAL_Driver/Src\stm32l4xx_hal_uart.c ****    */
 722:D:/iot/felix2/targets/Cloud_STM32L431_BearPi/Drivers/STM32L4xx_HAL_Driver/Src\stm32l4xx_hal_uart.c **** }
 741              		.loc 1 722 0
 742 0008 00BF     		nop
 743 000a 0C37     		adds	r7, r7, #12
 744              	.LCFI34:
 745              		.cfi_def_cfa_offset 4
 746 000c BD46     		mov	sp, r7
 747              	.LCFI35:
 748              		.cfi_def_cfa_register 13
 749              		@ sp needed
 750 000e 5DF8047B 		ldr	r7, [sp], #4
 751              	.LCFI36:
 752              		.cfi_restore 7
 753              		.cfi_def_cfa_offset 0
 754 0012 7047     		bx	lr
 755              		.cfi_endproc
 756              	.LFE139:
 758              		.section	.text.HAL_UART_Transmit,"ax",%progbits
 759              		.align	1
 760              		.global	HAL_UART_Transmit
 761              		.syntax unified
 762              		.thumb
 763              		.thumb_func
 764              		.fpu fpv4-sp-d16
 766              	HAL_UART_Transmit:
 767              	.LFB140:
 723:D:/iot/felix2/targets/Cloud_STM32L431_BearPi/Drivers/STM32L4xx_HAL_Driver/Src\stm32l4xx_hal_uart.c **** 
 724:D:/iot/felix2/targets/Cloud_STM32L431_BearPi/Drivers/STM32L4xx_HAL_Driver/Src\stm32l4xx_hal_uart.c **** #if (USE_HAL_UART_REGISTER_CALLBACKS == 1)
 725:D:/iot/felix2/targets/Cloud_STM32L431_BearPi/Drivers/STM32L4xx_HAL_Driver/Src\stm32l4xx_hal_uart.c **** /**
 726:D:/iot/felix2/targets/Cloud_STM32L431_BearPi/Drivers/STM32L4xx_HAL_Driver/Src\stm32l4xx_hal_uart.c ****   * @brief  Register a User UART Callback
 727:D:/iot/felix2/targets/Cloud_STM32L431_BearPi/Drivers/STM32L4xx_HAL_Driver/Src\stm32l4xx_hal_uart.c ****   *         To be used instead of the weak predefined callback
 728:D:/iot/felix2/targets/Cloud_STM32L431_BearPi/Drivers/STM32L4xx_HAL_Driver/Src\stm32l4xx_hal_uart.c ****   * @param  huart uart handle
 729:D:/iot/felix2/targets/Cloud_STM32L431_BearPi/Drivers/STM32L4xx_HAL_Driver/Src\stm32l4xx_hal_uart.c ****   * @param  CallbackID ID of the callback to be registered
 730:D:/iot/felix2/targets/Cloud_STM32L431_BearPi/Drivers/STM32L4xx_HAL_Driver/Src\stm32l4xx_hal_uart.c ****   *         This parameter can be one of the following values:
ARM GAS  C:\Users\91458\AppData\Local\Temp\ccrpKNIe.s 			page 27


 731:D:/iot/felix2/targets/Cloud_STM32L431_BearPi/Drivers/STM32L4xx_HAL_Driver/Src\stm32l4xx_hal_uart.c ****   *           @arg @ref HAL_UART_TX_HALFCOMPLETE_CB_ID Tx Half Complete Callback ID
 732:D:/iot/felix2/targets/Cloud_STM32L431_BearPi/Drivers/STM32L4xx_HAL_Driver/Src\stm32l4xx_hal_uart.c ****   *           @arg @ref HAL_UART_TX_COMPLETE_CB_ID Tx Complete Callback ID
 733:D:/iot/felix2/targets/Cloud_STM32L431_BearPi/Drivers/STM32L4xx_HAL_Driver/Src\stm32l4xx_hal_uart.c ****   *           @arg @ref HAL_UART_RX_HALFCOMPLETE_CB_ID Rx Half Complete Callback ID
 734:D:/iot/felix2/targets/Cloud_STM32L431_BearPi/Drivers/STM32L4xx_HAL_Driver/Src\stm32l4xx_hal_uart.c ****   *           @arg @ref HAL_UART_RX_COMPLETE_CB_ID Rx Complete Callback ID
 735:D:/iot/felix2/targets/Cloud_STM32L431_BearPi/Drivers/STM32L4xx_HAL_Driver/Src\stm32l4xx_hal_uart.c ****   *           @arg @ref HAL_UART_ERROR_CB_ID Error Callback ID
 736:D:/iot/felix2/targets/Cloud_STM32L431_BearPi/Drivers/STM32L4xx_HAL_Driver/Src\stm32l4xx_hal_uart.c ****   *           @arg @ref HAL_UART_ABORT_COMPLETE_CB_ID Abort Complete Callback ID
 737:D:/iot/felix2/targets/Cloud_STM32L431_BearPi/Drivers/STM32L4xx_HAL_Driver/Src\stm32l4xx_hal_uart.c ****   *           @arg @ref HAL_UART_ABORT_TRANSMIT_COMPLETE_CB_ID Abort Transmit Complete Callback ID
 738:D:/iot/felix2/targets/Cloud_STM32L431_BearPi/Drivers/STM32L4xx_HAL_Driver/Src\stm32l4xx_hal_uart.c ****   *           @arg @ref HAL_UART_ABORT_RECEIVE_COMPLETE_CB_ID Abort Receive Complete Callback ID
 739:D:/iot/felix2/targets/Cloud_STM32L431_BearPi/Drivers/STM32L4xx_HAL_Driver/Src\stm32l4xx_hal_uart.c ****   *           @arg @ref HAL_UART_WAKEUP_CB_ID Wakeup Callback ID
 740:D:/iot/felix2/targets/Cloud_STM32L431_BearPi/Drivers/STM32L4xx_HAL_Driver/Src\stm32l4xx_hal_uart.c ****   *           @arg @ref HAL_UART_RX_FIFO_FULL_CB_ID Rx Fifo Full Callback ID
 741:D:/iot/felix2/targets/Cloud_STM32L431_BearPi/Drivers/STM32L4xx_HAL_Driver/Src\stm32l4xx_hal_uart.c ****   *           @arg @ref HAL_UART_TX_FIFO_EMPTY_CB_ID Tx Fifo Empty Callback ID
 742:D:/iot/felix2/targets/Cloud_STM32L431_BearPi/Drivers/STM32L4xx_HAL_Driver/Src\stm32l4xx_hal_uart.c ****   *           @arg @ref HAL_UART_MSPINIT_CB_ID MspInit Callback ID
 743:D:/iot/felix2/targets/Cloud_STM32L431_BearPi/Drivers/STM32L4xx_HAL_Driver/Src\stm32l4xx_hal_uart.c ****   *           @arg @ref HAL_UART_MSPDEINIT_CB_ID MspDeInit Callback ID
 744:D:/iot/felix2/targets/Cloud_STM32L431_BearPi/Drivers/STM32L4xx_HAL_Driver/Src\stm32l4xx_hal_uart.c ****   * @param  pCallback pointer to the Callback function
 745:D:/iot/felix2/targets/Cloud_STM32L431_BearPi/Drivers/STM32L4xx_HAL_Driver/Src\stm32l4xx_hal_uart.c ****   * @retval HAL status
 746:D:/iot/felix2/targets/Cloud_STM32L431_BearPi/Drivers/STM32L4xx_HAL_Driver/Src\stm32l4xx_hal_uart.c ****   */
 747:D:/iot/felix2/targets/Cloud_STM32L431_BearPi/Drivers/STM32L4xx_HAL_Driver/Src\stm32l4xx_hal_uart.c **** HAL_StatusTypeDef HAL_UART_RegisterCallback(UART_HandleTypeDef *huart, HAL_UART_CallbackIDTypeDef C
 748:D:/iot/felix2/targets/Cloud_STM32L431_BearPi/Drivers/STM32L4xx_HAL_Driver/Src\stm32l4xx_hal_uart.c **** {
 749:D:/iot/felix2/targets/Cloud_STM32L431_BearPi/Drivers/STM32L4xx_HAL_Driver/Src\stm32l4xx_hal_uart.c ****   HAL_StatusTypeDef status = HAL_OK;
 750:D:/iot/felix2/targets/Cloud_STM32L431_BearPi/Drivers/STM32L4xx_HAL_Driver/Src\stm32l4xx_hal_uart.c **** 
 751:D:/iot/felix2/targets/Cloud_STM32L431_BearPi/Drivers/STM32L4xx_HAL_Driver/Src\stm32l4xx_hal_uart.c ****   if (pCallback == NULL)
 752:D:/iot/felix2/targets/Cloud_STM32L431_BearPi/Drivers/STM32L4xx_HAL_Driver/Src\stm32l4xx_hal_uart.c ****   {
 753:D:/iot/felix2/targets/Cloud_STM32L431_BearPi/Drivers/STM32L4xx_HAL_Driver/Src\stm32l4xx_hal_uart.c ****     /* Update the error code */
 754:D:/iot/felix2/targets/Cloud_STM32L431_BearPi/Drivers/STM32L4xx_HAL_Driver/Src\stm32l4xx_hal_uart.c ****     huart->ErrorCode |= HAL_UART_ERROR_INVALID_CALLBACK;
 755:D:/iot/felix2/targets/Cloud_STM32L431_BearPi/Drivers/STM32L4xx_HAL_Driver/Src\stm32l4xx_hal_uart.c **** 
 756:D:/iot/felix2/targets/Cloud_STM32L431_BearPi/Drivers/STM32L4xx_HAL_Driver/Src\stm32l4xx_hal_uart.c ****     return HAL_ERROR;
 757:D:/iot/felix2/targets/Cloud_STM32L431_BearPi/Drivers/STM32L4xx_HAL_Driver/Src\stm32l4xx_hal_uart.c ****   }
 758:D:/iot/felix2/targets/Cloud_STM32L431_BearPi/Drivers/STM32L4xx_HAL_Driver/Src\stm32l4xx_hal_uart.c ****   /* Process locked */
 759:D:/iot/felix2/targets/Cloud_STM32L431_BearPi/Drivers/STM32L4xx_HAL_Driver/Src\stm32l4xx_hal_uart.c ****   __HAL_LOCK(huart);
 760:D:/iot/felix2/targets/Cloud_STM32L431_BearPi/Drivers/STM32L4xx_HAL_Driver/Src\stm32l4xx_hal_uart.c **** 
 761:D:/iot/felix2/targets/Cloud_STM32L431_BearPi/Drivers/STM32L4xx_HAL_Driver/Src\stm32l4xx_hal_uart.c ****   if (huart->gState == HAL_UART_STATE_READY)
 762:D:/iot/felix2/targets/Cloud_STM32L431_BearPi/Drivers/STM32L4xx_HAL_Driver/Src\stm32l4xx_hal_uart.c ****   {
 763:D:/iot/felix2/targets/Cloud_STM32L431_BearPi/Drivers/STM32L4xx_HAL_Driver/Src\stm32l4xx_hal_uart.c ****     switch (CallbackID)
 764:D:/iot/felix2/targets/Cloud_STM32L431_BearPi/Drivers/STM32L4xx_HAL_Driver/Src\stm32l4xx_hal_uart.c ****     {
 765:D:/iot/felix2/targets/Cloud_STM32L431_BearPi/Drivers/STM32L4xx_HAL_Driver/Src\stm32l4xx_hal_uart.c ****       case HAL_UART_TX_HALFCOMPLETE_CB_ID :
 766:D:/iot/felix2/targets/Cloud_STM32L431_BearPi/Drivers/STM32L4xx_HAL_Driver/Src\stm32l4xx_hal_uart.c ****         huart->TxHalfCpltCallback = pCallback;
 767:D:/iot/felix2/targets/Cloud_STM32L431_BearPi/Drivers/STM32L4xx_HAL_Driver/Src\stm32l4xx_hal_uart.c ****         break;
 768:D:/iot/felix2/targets/Cloud_STM32L431_BearPi/Drivers/STM32L4xx_HAL_Driver/Src\stm32l4xx_hal_uart.c **** 
 769:D:/iot/felix2/targets/Cloud_STM32L431_BearPi/Drivers/STM32L4xx_HAL_Driver/Src\stm32l4xx_hal_uart.c ****       case HAL_UART_TX_COMPLETE_CB_ID :
 770:D:/iot/felix2/targets/Cloud_STM32L431_BearPi/Drivers/STM32L4xx_HAL_Driver/Src\stm32l4xx_hal_uart.c ****         huart->TxCpltCallback = pCallback;
 771:D:/iot/felix2/targets/Cloud_STM32L431_BearPi/Drivers/STM32L4xx_HAL_Driver/Src\stm32l4xx_hal_uart.c ****         break;
 772:D:/iot/felix2/targets/Cloud_STM32L431_BearPi/Drivers/STM32L4xx_HAL_Driver/Src\stm32l4xx_hal_uart.c **** 
 773:D:/iot/felix2/targets/Cloud_STM32L431_BearPi/Drivers/STM32L4xx_HAL_Driver/Src\stm32l4xx_hal_uart.c ****       case HAL_UART_RX_HALFCOMPLETE_CB_ID :
 774:D:/iot/felix2/targets/Cloud_STM32L431_BearPi/Drivers/STM32L4xx_HAL_Driver/Src\stm32l4xx_hal_uart.c ****         huart->RxHalfCpltCallback = pCallback;
 775:D:/iot/felix2/targets/Cloud_STM32L431_BearPi/Drivers/STM32L4xx_HAL_Driver/Src\stm32l4xx_hal_uart.c ****         break;
 776:D:/iot/felix2/targets/Cloud_STM32L431_BearPi/Drivers/STM32L4xx_HAL_Driver/Src\stm32l4xx_hal_uart.c **** 
 777:D:/iot/felix2/targets/Cloud_STM32L431_BearPi/Drivers/STM32L4xx_HAL_Driver/Src\stm32l4xx_hal_uart.c ****       case HAL_UART_RX_COMPLETE_CB_ID :
 778:D:/iot/felix2/targets/Cloud_STM32L431_BearPi/Drivers/STM32L4xx_HAL_Driver/Src\stm32l4xx_hal_uart.c ****         huart->RxCpltCallback = pCallback;
 779:D:/iot/felix2/targets/Cloud_STM32L431_BearPi/Drivers/STM32L4xx_HAL_Driver/Src\stm32l4xx_hal_uart.c ****         break;
 780:D:/iot/felix2/targets/Cloud_STM32L431_BearPi/Drivers/STM32L4xx_HAL_Driver/Src\stm32l4xx_hal_uart.c **** 
 781:D:/iot/felix2/targets/Cloud_STM32L431_BearPi/Drivers/STM32L4xx_HAL_Driver/Src\stm32l4xx_hal_uart.c ****       case HAL_UART_ERROR_CB_ID :
 782:D:/iot/felix2/targets/Cloud_STM32L431_BearPi/Drivers/STM32L4xx_HAL_Driver/Src\stm32l4xx_hal_uart.c ****         huart->ErrorCallback = pCallback;
 783:D:/iot/felix2/targets/Cloud_STM32L431_BearPi/Drivers/STM32L4xx_HAL_Driver/Src\stm32l4xx_hal_uart.c ****         break;
 784:D:/iot/felix2/targets/Cloud_STM32L431_BearPi/Drivers/STM32L4xx_HAL_Driver/Src\stm32l4xx_hal_uart.c **** 
 785:D:/iot/felix2/targets/Cloud_STM32L431_BearPi/Drivers/STM32L4xx_HAL_Driver/Src\stm32l4xx_hal_uart.c ****       case HAL_UART_ABORT_COMPLETE_CB_ID :
 786:D:/iot/felix2/targets/Cloud_STM32L431_BearPi/Drivers/STM32L4xx_HAL_Driver/Src\stm32l4xx_hal_uart.c ****         huart->AbortCpltCallback = pCallback;
 787:D:/iot/felix2/targets/Cloud_STM32L431_BearPi/Drivers/STM32L4xx_HAL_Driver/Src\stm32l4xx_hal_uart.c ****         break;
ARM GAS  C:\Users\91458\AppData\Local\Temp\ccrpKNIe.s 			page 28


 788:D:/iot/felix2/targets/Cloud_STM32L431_BearPi/Drivers/STM32L4xx_HAL_Driver/Src\stm32l4xx_hal_uart.c **** 
 789:D:/iot/felix2/targets/Cloud_STM32L431_BearPi/Drivers/STM32L4xx_HAL_Driver/Src\stm32l4xx_hal_uart.c ****       case HAL_UART_ABORT_TRANSMIT_COMPLETE_CB_ID :
 790:D:/iot/felix2/targets/Cloud_STM32L431_BearPi/Drivers/STM32L4xx_HAL_Driver/Src\stm32l4xx_hal_uart.c ****         huart->AbortTransmitCpltCallback = pCallback;
 791:D:/iot/felix2/targets/Cloud_STM32L431_BearPi/Drivers/STM32L4xx_HAL_Driver/Src\stm32l4xx_hal_uart.c ****         break;
 792:D:/iot/felix2/targets/Cloud_STM32L431_BearPi/Drivers/STM32L4xx_HAL_Driver/Src\stm32l4xx_hal_uart.c **** 
 793:D:/iot/felix2/targets/Cloud_STM32L431_BearPi/Drivers/STM32L4xx_HAL_Driver/Src\stm32l4xx_hal_uart.c ****       case HAL_UART_ABORT_RECEIVE_COMPLETE_CB_ID :
 794:D:/iot/felix2/targets/Cloud_STM32L431_BearPi/Drivers/STM32L4xx_HAL_Driver/Src\stm32l4xx_hal_uart.c ****         huart->AbortReceiveCpltCallback = pCallback;
 795:D:/iot/felix2/targets/Cloud_STM32L431_BearPi/Drivers/STM32L4xx_HAL_Driver/Src\stm32l4xx_hal_uart.c ****         break;
 796:D:/iot/felix2/targets/Cloud_STM32L431_BearPi/Drivers/STM32L4xx_HAL_Driver/Src\stm32l4xx_hal_uart.c **** 
 797:D:/iot/felix2/targets/Cloud_STM32L431_BearPi/Drivers/STM32L4xx_HAL_Driver/Src\stm32l4xx_hal_uart.c ****       case HAL_UART_WAKEUP_CB_ID :
 798:D:/iot/felix2/targets/Cloud_STM32L431_BearPi/Drivers/STM32L4xx_HAL_Driver/Src\stm32l4xx_hal_uart.c ****         huart->WakeupCallback = pCallback;
 799:D:/iot/felix2/targets/Cloud_STM32L431_BearPi/Drivers/STM32L4xx_HAL_Driver/Src\stm32l4xx_hal_uart.c ****         break;
 800:D:/iot/felix2/targets/Cloud_STM32L431_BearPi/Drivers/STM32L4xx_HAL_Driver/Src\stm32l4xx_hal_uart.c **** 
 801:D:/iot/felix2/targets/Cloud_STM32L431_BearPi/Drivers/STM32L4xx_HAL_Driver/Src\stm32l4xx_hal_uart.c **** #if defined(USART_CR1_FIFOEN)
 802:D:/iot/felix2/targets/Cloud_STM32L431_BearPi/Drivers/STM32L4xx_HAL_Driver/Src\stm32l4xx_hal_uart.c ****       case HAL_UART_RX_FIFO_FULL_CB_ID :
 803:D:/iot/felix2/targets/Cloud_STM32L431_BearPi/Drivers/STM32L4xx_HAL_Driver/Src\stm32l4xx_hal_uart.c ****         huart->RxFifoFullCallback = pCallback;
 804:D:/iot/felix2/targets/Cloud_STM32L431_BearPi/Drivers/STM32L4xx_HAL_Driver/Src\stm32l4xx_hal_uart.c ****         break;
 805:D:/iot/felix2/targets/Cloud_STM32L431_BearPi/Drivers/STM32L4xx_HAL_Driver/Src\stm32l4xx_hal_uart.c **** 
 806:D:/iot/felix2/targets/Cloud_STM32L431_BearPi/Drivers/STM32L4xx_HAL_Driver/Src\stm32l4xx_hal_uart.c ****       case HAL_UART_TX_FIFO_EMPTY_CB_ID :
 807:D:/iot/felix2/targets/Cloud_STM32L431_BearPi/Drivers/STM32L4xx_HAL_Driver/Src\stm32l4xx_hal_uart.c ****         huart->TxFifoEmptyCallback = pCallback;
 808:D:/iot/felix2/targets/Cloud_STM32L431_BearPi/Drivers/STM32L4xx_HAL_Driver/Src\stm32l4xx_hal_uart.c ****         break;
 809:D:/iot/felix2/targets/Cloud_STM32L431_BearPi/Drivers/STM32L4xx_HAL_Driver/Src\stm32l4xx_hal_uart.c **** #endif
 810:D:/iot/felix2/targets/Cloud_STM32L431_BearPi/Drivers/STM32L4xx_HAL_Driver/Src\stm32l4xx_hal_uart.c **** 
 811:D:/iot/felix2/targets/Cloud_STM32L431_BearPi/Drivers/STM32L4xx_HAL_Driver/Src\stm32l4xx_hal_uart.c ****       case HAL_UART_MSPINIT_CB_ID :
 812:D:/iot/felix2/targets/Cloud_STM32L431_BearPi/Drivers/STM32L4xx_HAL_Driver/Src\stm32l4xx_hal_uart.c ****         huart->MspInitCallback = pCallback;
 813:D:/iot/felix2/targets/Cloud_STM32L431_BearPi/Drivers/STM32L4xx_HAL_Driver/Src\stm32l4xx_hal_uart.c ****         break;
 814:D:/iot/felix2/targets/Cloud_STM32L431_BearPi/Drivers/STM32L4xx_HAL_Driver/Src\stm32l4xx_hal_uart.c **** 
 815:D:/iot/felix2/targets/Cloud_STM32L431_BearPi/Drivers/STM32L4xx_HAL_Driver/Src\stm32l4xx_hal_uart.c ****       case HAL_UART_MSPDEINIT_CB_ID :
 816:D:/iot/felix2/targets/Cloud_STM32L431_BearPi/Drivers/STM32L4xx_HAL_Driver/Src\stm32l4xx_hal_uart.c ****         huart->MspDeInitCallback = pCallback;
 817:D:/iot/felix2/targets/Cloud_STM32L431_BearPi/Drivers/STM32L4xx_HAL_Driver/Src\stm32l4xx_hal_uart.c ****         break;
 818:D:/iot/felix2/targets/Cloud_STM32L431_BearPi/Drivers/STM32L4xx_HAL_Driver/Src\stm32l4xx_hal_uart.c **** 
 819:D:/iot/felix2/targets/Cloud_STM32L431_BearPi/Drivers/STM32L4xx_HAL_Driver/Src\stm32l4xx_hal_uart.c ****       default :
 820:D:/iot/felix2/targets/Cloud_STM32L431_BearPi/Drivers/STM32L4xx_HAL_Driver/Src\stm32l4xx_hal_uart.c ****         /* Update the error code */
 821:D:/iot/felix2/targets/Cloud_STM32L431_BearPi/Drivers/STM32L4xx_HAL_Driver/Src\stm32l4xx_hal_uart.c ****         huart->ErrorCode |= HAL_UART_ERROR_INVALID_CALLBACK;
 822:D:/iot/felix2/targets/Cloud_STM32L431_BearPi/Drivers/STM32L4xx_HAL_Driver/Src\stm32l4xx_hal_uart.c **** 
 823:D:/iot/felix2/targets/Cloud_STM32L431_BearPi/Drivers/STM32L4xx_HAL_Driver/Src\stm32l4xx_hal_uart.c ****         /* Return error status */
 824:D:/iot/felix2/targets/Cloud_STM32L431_BearPi/Drivers/STM32L4xx_HAL_Driver/Src\stm32l4xx_hal_uart.c ****         status =  HAL_ERROR;
 825:D:/iot/felix2/targets/Cloud_STM32L431_BearPi/Drivers/STM32L4xx_HAL_Driver/Src\stm32l4xx_hal_uart.c ****         break;
 826:D:/iot/felix2/targets/Cloud_STM32L431_BearPi/Drivers/STM32L4xx_HAL_Driver/Src\stm32l4xx_hal_uart.c ****     }
 827:D:/iot/felix2/targets/Cloud_STM32L431_BearPi/Drivers/STM32L4xx_HAL_Driver/Src\stm32l4xx_hal_uart.c ****   }
 828:D:/iot/felix2/targets/Cloud_STM32L431_BearPi/Drivers/STM32L4xx_HAL_Driver/Src\stm32l4xx_hal_uart.c ****   else if (huart->gState == HAL_UART_STATE_RESET)
 829:D:/iot/felix2/targets/Cloud_STM32L431_BearPi/Drivers/STM32L4xx_HAL_Driver/Src\stm32l4xx_hal_uart.c ****   {
 830:D:/iot/felix2/targets/Cloud_STM32L431_BearPi/Drivers/STM32L4xx_HAL_Driver/Src\stm32l4xx_hal_uart.c ****     switch (CallbackID)
 831:D:/iot/felix2/targets/Cloud_STM32L431_BearPi/Drivers/STM32L4xx_HAL_Driver/Src\stm32l4xx_hal_uart.c ****     {
 832:D:/iot/felix2/targets/Cloud_STM32L431_BearPi/Drivers/STM32L4xx_HAL_Driver/Src\stm32l4xx_hal_uart.c ****       case HAL_UART_MSPINIT_CB_ID :
 833:D:/iot/felix2/targets/Cloud_STM32L431_BearPi/Drivers/STM32L4xx_HAL_Driver/Src\stm32l4xx_hal_uart.c ****         huart->MspInitCallback = pCallback;
 834:D:/iot/felix2/targets/Cloud_STM32L431_BearPi/Drivers/STM32L4xx_HAL_Driver/Src\stm32l4xx_hal_uart.c ****         break;
 835:D:/iot/felix2/targets/Cloud_STM32L431_BearPi/Drivers/STM32L4xx_HAL_Driver/Src\stm32l4xx_hal_uart.c **** 
 836:D:/iot/felix2/targets/Cloud_STM32L431_BearPi/Drivers/STM32L4xx_HAL_Driver/Src\stm32l4xx_hal_uart.c ****       case HAL_UART_MSPDEINIT_CB_ID :
 837:D:/iot/felix2/targets/Cloud_STM32L431_BearPi/Drivers/STM32L4xx_HAL_Driver/Src\stm32l4xx_hal_uart.c ****         huart->MspDeInitCallback = pCallback;
 838:D:/iot/felix2/targets/Cloud_STM32L431_BearPi/Drivers/STM32L4xx_HAL_Driver/Src\stm32l4xx_hal_uart.c ****         break;
 839:D:/iot/felix2/targets/Cloud_STM32L431_BearPi/Drivers/STM32L4xx_HAL_Driver/Src\stm32l4xx_hal_uart.c **** 
 840:D:/iot/felix2/targets/Cloud_STM32L431_BearPi/Drivers/STM32L4xx_HAL_Driver/Src\stm32l4xx_hal_uart.c ****       default :
 841:D:/iot/felix2/targets/Cloud_STM32L431_BearPi/Drivers/STM32L4xx_HAL_Driver/Src\stm32l4xx_hal_uart.c ****         /* Update the error code */
 842:D:/iot/felix2/targets/Cloud_STM32L431_BearPi/Drivers/STM32L4xx_HAL_Driver/Src\stm32l4xx_hal_uart.c ****         huart->ErrorCode |= HAL_UART_ERROR_INVALID_CALLBACK;
 843:D:/iot/felix2/targets/Cloud_STM32L431_BearPi/Drivers/STM32L4xx_HAL_Driver/Src\stm32l4xx_hal_uart.c **** 
 844:D:/iot/felix2/targets/Cloud_STM32L431_BearPi/Drivers/STM32L4xx_HAL_Driver/Src\stm32l4xx_hal_uart.c ****         /* Return error status */
ARM GAS  C:\Users\91458\AppData\Local\Temp\ccrpKNIe.s 			page 29


 845:D:/iot/felix2/targets/Cloud_STM32L431_BearPi/Drivers/STM32L4xx_HAL_Driver/Src\stm32l4xx_hal_uart.c ****         status =  HAL_ERROR;
 846:D:/iot/felix2/targets/Cloud_STM32L431_BearPi/Drivers/STM32L4xx_HAL_Driver/Src\stm32l4xx_hal_uart.c ****         break;
 847:D:/iot/felix2/targets/Cloud_STM32L431_BearPi/Drivers/STM32L4xx_HAL_Driver/Src\stm32l4xx_hal_uart.c ****     }
 848:D:/iot/felix2/targets/Cloud_STM32L431_BearPi/Drivers/STM32L4xx_HAL_Driver/Src\stm32l4xx_hal_uart.c ****   }
 849:D:/iot/felix2/targets/Cloud_STM32L431_BearPi/Drivers/STM32L4xx_HAL_Driver/Src\stm32l4xx_hal_uart.c ****   else
 850:D:/iot/felix2/targets/Cloud_STM32L431_BearPi/Drivers/STM32L4xx_HAL_Driver/Src\stm32l4xx_hal_uart.c ****   {
 851:D:/iot/felix2/targets/Cloud_STM32L431_BearPi/Drivers/STM32L4xx_HAL_Driver/Src\stm32l4xx_hal_uart.c ****     /* Update the error code */
 852:D:/iot/felix2/targets/Cloud_STM32L431_BearPi/Drivers/STM32L4xx_HAL_Driver/Src\stm32l4xx_hal_uart.c ****     huart->ErrorCode |= HAL_UART_ERROR_INVALID_CALLBACK;
 853:D:/iot/felix2/targets/Cloud_STM32L431_BearPi/Drivers/STM32L4xx_HAL_Driver/Src\stm32l4xx_hal_uart.c **** 
 854:D:/iot/felix2/targets/Cloud_STM32L431_BearPi/Drivers/STM32L4xx_HAL_Driver/Src\stm32l4xx_hal_uart.c ****     /* Return error status */
 855:D:/iot/felix2/targets/Cloud_STM32L431_BearPi/Drivers/STM32L4xx_HAL_Driver/Src\stm32l4xx_hal_uart.c ****     status =  HAL_ERROR;
 856:D:/iot/felix2/targets/Cloud_STM32L431_BearPi/Drivers/STM32L4xx_HAL_Driver/Src\stm32l4xx_hal_uart.c ****   }
 857:D:/iot/felix2/targets/Cloud_STM32L431_BearPi/Drivers/STM32L4xx_HAL_Driver/Src\stm32l4xx_hal_uart.c **** 
 858:D:/iot/felix2/targets/Cloud_STM32L431_BearPi/Drivers/STM32L4xx_HAL_Driver/Src\stm32l4xx_hal_uart.c ****   /* Release Lock */
 859:D:/iot/felix2/targets/Cloud_STM32L431_BearPi/Drivers/STM32L4xx_HAL_Driver/Src\stm32l4xx_hal_uart.c ****   __HAL_UNLOCK(huart);
 860:D:/iot/felix2/targets/Cloud_STM32L431_BearPi/Drivers/STM32L4xx_HAL_Driver/Src\stm32l4xx_hal_uart.c **** 
 861:D:/iot/felix2/targets/Cloud_STM32L431_BearPi/Drivers/STM32L4xx_HAL_Driver/Src\stm32l4xx_hal_uart.c ****   return status;
 862:D:/iot/felix2/targets/Cloud_STM32L431_BearPi/Drivers/STM32L4xx_HAL_Driver/Src\stm32l4xx_hal_uart.c **** }
 863:D:/iot/felix2/targets/Cloud_STM32L431_BearPi/Drivers/STM32L4xx_HAL_Driver/Src\stm32l4xx_hal_uart.c **** 
 864:D:/iot/felix2/targets/Cloud_STM32L431_BearPi/Drivers/STM32L4xx_HAL_Driver/Src\stm32l4xx_hal_uart.c **** /**
 865:D:/iot/felix2/targets/Cloud_STM32L431_BearPi/Drivers/STM32L4xx_HAL_Driver/Src\stm32l4xx_hal_uart.c ****   * @brief  Unregister an UART Callback
 866:D:/iot/felix2/targets/Cloud_STM32L431_BearPi/Drivers/STM32L4xx_HAL_Driver/Src\stm32l4xx_hal_uart.c ****   *         UART callaback is redirected to the weak predefined callback
 867:D:/iot/felix2/targets/Cloud_STM32L431_BearPi/Drivers/STM32L4xx_HAL_Driver/Src\stm32l4xx_hal_uart.c ****   * @param  huart uart handle
 868:D:/iot/felix2/targets/Cloud_STM32L431_BearPi/Drivers/STM32L4xx_HAL_Driver/Src\stm32l4xx_hal_uart.c ****   * @param  CallbackID ID of the callback to be unregistered
 869:D:/iot/felix2/targets/Cloud_STM32L431_BearPi/Drivers/STM32L4xx_HAL_Driver/Src\stm32l4xx_hal_uart.c ****   *         This parameter can be one of the following values:
 870:D:/iot/felix2/targets/Cloud_STM32L431_BearPi/Drivers/STM32L4xx_HAL_Driver/Src\stm32l4xx_hal_uart.c ****   *           @arg @ref HAL_UART_TX_HALFCOMPLETE_CB_ID Tx Half Complete Callback ID
 871:D:/iot/felix2/targets/Cloud_STM32L431_BearPi/Drivers/STM32L4xx_HAL_Driver/Src\stm32l4xx_hal_uart.c ****   *           @arg @ref HAL_UART_TX_COMPLETE_CB_ID Tx Complete Callback ID
 872:D:/iot/felix2/targets/Cloud_STM32L431_BearPi/Drivers/STM32L4xx_HAL_Driver/Src\stm32l4xx_hal_uart.c ****   *           @arg @ref HAL_UART_RX_HALFCOMPLETE_CB_ID Rx Half Complete Callback ID
 873:D:/iot/felix2/targets/Cloud_STM32L431_BearPi/Drivers/STM32L4xx_HAL_Driver/Src\stm32l4xx_hal_uart.c ****   *           @arg @ref HAL_UART_RX_COMPLETE_CB_ID Rx Complete Callback ID
 874:D:/iot/felix2/targets/Cloud_STM32L431_BearPi/Drivers/STM32L4xx_HAL_Driver/Src\stm32l4xx_hal_uart.c ****   *           @arg @ref HAL_UART_ERROR_CB_ID Error Callback ID
 875:D:/iot/felix2/targets/Cloud_STM32L431_BearPi/Drivers/STM32L4xx_HAL_Driver/Src\stm32l4xx_hal_uart.c ****   *           @arg @ref HAL_UART_ABORT_COMPLETE_CB_ID Abort Complete Callback ID
 876:D:/iot/felix2/targets/Cloud_STM32L431_BearPi/Drivers/STM32L4xx_HAL_Driver/Src\stm32l4xx_hal_uart.c ****   *           @arg @ref HAL_UART_ABORT_TRANSMIT_COMPLETE_CB_ID Abort Transmit Complete Callback ID
 877:D:/iot/felix2/targets/Cloud_STM32L431_BearPi/Drivers/STM32L4xx_HAL_Driver/Src\stm32l4xx_hal_uart.c ****   *           @arg @ref HAL_UART_ABORT_RECEIVE_COMPLETE_CB_ID Abort Receive Complete Callback ID
 878:D:/iot/felix2/targets/Cloud_STM32L431_BearPi/Drivers/STM32L4xx_HAL_Driver/Src\stm32l4xx_hal_uart.c ****   *           @arg @ref HAL_UART_WAKEUP_CB_ID Wakeup Callback ID
 879:D:/iot/felix2/targets/Cloud_STM32L431_BearPi/Drivers/STM32L4xx_HAL_Driver/Src\stm32l4xx_hal_uart.c ****   *           @arg @ref HAL_UART_RX_FIFO_FULL_CB_ID Rx Fifo Full Callback ID
 880:D:/iot/felix2/targets/Cloud_STM32L431_BearPi/Drivers/STM32L4xx_HAL_Driver/Src\stm32l4xx_hal_uart.c ****   *           @arg @ref HAL_UART_TX_FIFO_EMPTY_CB_ID Tx Fifo Empty Callback ID
 881:D:/iot/felix2/targets/Cloud_STM32L431_BearPi/Drivers/STM32L4xx_HAL_Driver/Src\stm32l4xx_hal_uart.c ****   *           @arg @ref HAL_UART_MSPINIT_CB_ID MspInit Callback ID
 882:D:/iot/felix2/targets/Cloud_STM32L431_BearPi/Drivers/STM32L4xx_HAL_Driver/Src\stm32l4xx_hal_uart.c ****   *           @arg @ref HAL_UART_MSPDEINIT_CB_ID MspDeInit Callback ID
 883:D:/iot/felix2/targets/Cloud_STM32L431_BearPi/Drivers/STM32L4xx_HAL_Driver/Src\stm32l4xx_hal_uart.c ****   * @retval HAL status
 884:D:/iot/felix2/targets/Cloud_STM32L431_BearPi/Drivers/STM32L4xx_HAL_Driver/Src\stm32l4xx_hal_uart.c ****   */
 885:D:/iot/felix2/targets/Cloud_STM32L431_BearPi/Drivers/STM32L4xx_HAL_Driver/Src\stm32l4xx_hal_uart.c **** HAL_StatusTypeDef HAL_UART_UnRegisterCallback(UART_HandleTypeDef *huart, HAL_UART_CallbackIDTypeDef
 886:D:/iot/felix2/targets/Cloud_STM32L431_BearPi/Drivers/STM32L4xx_HAL_Driver/Src\stm32l4xx_hal_uart.c **** {
 887:D:/iot/felix2/targets/Cloud_STM32L431_BearPi/Drivers/STM32L4xx_HAL_Driver/Src\stm32l4xx_hal_uart.c ****   HAL_StatusTypeDef status = HAL_OK;
 888:D:/iot/felix2/targets/Cloud_STM32L431_BearPi/Drivers/STM32L4xx_HAL_Driver/Src\stm32l4xx_hal_uart.c **** 
 889:D:/iot/felix2/targets/Cloud_STM32L431_BearPi/Drivers/STM32L4xx_HAL_Driver/Src\stm32l4xx_hal_uart.c ****   /* Process locked */
 890:D:/iot/felix2/targets/Cloud_STM32L431_BearPi/Drivers/STM32L4xx_HAL_Driver/Src\stm32l4xx_hal_uart.c ****   __HAL_LOCK(huart);
 891:D:/iot/felix2/targets/Cloud_STM32L431_BearPi/Drivers/STM32L4xx_HAL_Driver/Src\stm32l4xx_hal_uart.c **** 
 892:D:/iot/felix2/targets/Cloud_STM32L431_BearPi/Drivers/STM32L4xx_HAL_Driver/Src\stm32l4xx_hal_uart.c ****   if (HAL_UART_STATE_READY == huart->gState)
 893:D:/iot/felix2/targets/Cloud_STM32L431_BearPi/Drivers/STM32L4xx_HAL_Driver/Src\stm32l4xx_hal_uart.c ****   {
 894:D:/iot/felix2/targets/Cloud_STM32L431_BearPi/Drivers/STM32L4xx_HAL_Driver/Src\stm32l4xx_hal_uart.c ****     switch (CallbackID)
 895:D:/iot/felix2/targets/Cloud_STM32L431_BearPi/Drivers/STM32L4xx_HAL_Driver/Src\stm32l4xx_hal_uart.c ****     {
 896:D:/iot/felix2/targets/Cloud_STM32L431_BearPi/Drivers/STM32L4xx_HAL_Driver/Src\stm32l4xx_hal_uart.c ****       case HAL_UART_TX_HALFCOMPLETE_CB_ID :
 897:D:/iot/felix2/targets/Cloud_STM32L431_BearPi/Drivers/STM32L4xx_HAL_Driver/Src\stm32l4xx_hal_uart.c ****         huart->TxHalfCpltCallback = HAL_UART_TxHalfCpltCallback;               /* Legacy weak  TxHa
 898:D:/iot/felix2/targets/Cloud_STM32L431_BearPi/Drivers/STM32L4xx_HAL_Driver/Src\stm32l4xx_hal_uart.c ****         break;
 899:D:/iot/felix2/targets/Cloud_STM32L431_BearPi/Drivers/STM32L4xx_HAL_Driver/Src\stm32l4xx_hal_uart.c **** 
 900:D:/iot/felix2/targets/Cloud_STM32L431_BearPi/Drivers/STM32L4xx_HAL_Driver/Src\stm32l4xx_hal_uart.c ****       case HAL_UART_TX_COMPLETE_CB_ID :
 901:D:/iot/felix2/targets/Cloud_STM32L431_BearPi/Drivers/STM32L4xx_HAL_Driver/Src\stm32l4xx_hal_uart.c ****         huart->TxCpltCallback = HAL_UART_TxCpltCallback;                       /* Legacy weak TxCpl
ARM GAS  C:\Users\91458\AppData\Local\Temp\ccrpKNIe.s 			page 30


 902:D:/iot/felix2/targets/Cloud_STM32L431_BearPi/Drivers/STM32L4xx_HAL_Driver/Src\stm32l4xx_hal_uart.c ****         break;
 903:D:/iot/felix2/targets/Cloud_STM32L431_BearPi/Drivers/STM32L4xx_HAL_Driver/Src\stm32l4xx_hal_uart.c **** 
 904:D:/iot/felix2/targets/Cloud_STM32L431_BearPi/Drivers/STM32L4xx_HAL_Driver/Src\stm32l4xx_hal_uart.c ****       case HAL_UART_RX_HALFCOMPLETE_CB_ID :
 905:D:/iot/felix2/targets/Cloud_STM32L431_BearPi/Drivers/STM32L4xx_HAL_Driver/Src\stm32l4xx_hal_uart.c ****         huart->RxHalfCpltCallback = HAL_UART_RxHalfCpltCallback;               /* Legacy weak RxHal
 906:D:/iot/felix2/targets/Cloud_STM32L431_BearPi/Drivers/STM32L4xx_HAL_Driver/Src\stm32l4xx_hal_uart.c ****         break;
 907:D:/iot/felix2/targets/Cloud_STM32L431_BearPi/Drivers/STM32L4xx_HAL_Driver/Src\stm32l4xx_hal_uart.c **** 
 908:D:/iot/felix2/targets/Cloud_STM32L431_BearPi/Drivers/STM32L4xx_HAL_Driver/Src\stm32l4xx_hal_uart.c ****       case HAL_UART_RX_COMPLETE_CB_ID :
 909:D:/iot/felix2/targets/Cloud_STM32L431_BearPi/Drivers/STM32L4xx_HAL_Driver/Src\stm32l4xx_hal_uart.c ****         huart->RxCpltCallback = HAL_UART_RxCpltCallback;                       /* Legacy weak RxCpl
 910:D:/iot/felix2/targets/Cloud_STM32L431_BearPi/Drivers/STM32L4xx_HAL_Driver/Src\stm32l4xx_hal_uart.c ****         break;
 911:D:/iot/felix2/targets/Cloud_STM32L431_BearPi/Drivers/STM32L4xx_HAL_Driver/Src\stm32l4xx_hal_uart.c **** 
 912:D:/iot/felix2/targets/Cloud_STM32L431_BearPi/Drivers/STM32L4xx_HAL_Driver/Src\stm32l4xx_hal_uart.c ****       case HAL_UART_ERROR_CB_ID :
 913:D:/iot/felix2/targets/Cloud_STM32L431_BearPi/Drivers/STM32L4xx_HAL_Driver/Src\stm32l4xx_hal_uart.c ****         huart->ErrorCallback = HAL_UART_ErrorCallback;                         /* Legacy weak Error
 914:D:/iot/felix2/targets/Cloud_STM32L431_BearPi/Drivers/STM32L4xx_HAL_Driver/Src\stm32l4xx_hal_uart.c ****         break;
 915:D:/iot/felix2/targets/Cloud_STM32L431_BearPi/Drivers/STM32L4xx_HAL_Driver/Src\stm32l4xx_hal_uart.c **** 
 916:D:/iot/felix2/targets/Cloud_STM32L431_BearPi/Drivers/STM32L4xx_HAL_Driver/Src\stm32l4xx_hal_uart.c ****       case HAL_UART_ABORT_COMPLETE_CB_ID :
 917:D:/iot/felix2/targets/Cloud_STM32L431_BearPi/Drivers/STM32L4xx_HAL_Driver/Src\stm32l4xx_hal_uart.c ****         huart->AbortCpltCallback = HAL_UART_AbortCpltCallback;                 /* Legacy weak Abort
 918:D:/iot/felix2/targets/Cloud_STM32L431_BearPi/Drivers/STM32L4xx_HAL_Driver/Src\stm32l4xx_hal_uart.c ****         break;
 919:D:/iot/felix2/targets/Cloud_STM32L431_BearPi/Drivers/STM32L4xx_HAL_Driver/Src\stm32l4xx_hal_uart.c **** 
 920:D:/iot/felix2/targets/Cloud_STM32L431_BearPi/Drivers/STM32L4xx_HAL_Driver/Src\stm32l4xx_hal_uart.c ****       case HAL_UART_ABORT_TRANSMIT_COMPLETE_CB_ID :
 921:D:/iot/felix2/targets/Cloud_STM32L431_BearPi/Drivers/STM32L4xx_HAL_Driver/Src\stm32l4xx_hal_uart.c ****         huart->AbortTransmitCpltCallback = HAL_UART_AbortTransmitCpltCallback; /* Legacy weak Abort
 922:D:/iot/felix2/targets/Cloud_STM32L431_BearPi/Drivers/STM32L4xx_HAL_Driver/Src\stm32l4xx_hal_uart.c ****         break;
 923:D:/iot/felix2/targets/Cloud_STM32L431_BearPi/Drivers/STM32L4xx_HAL_Driver/Src\stm32l4xx_hal_uart.c **** 
 924:D:/iot/felix2/targets/Cloud_STM32L431_BearPi/Drivers/STM32L4xx_HAL_Driver/Src\stm32l4xx_hal_uart.c ****       case HAL_UART_ABORT_RECEIVE_COMPLETE_CB_ID :
 925:D:/iot/felix2/targets/Cloud_STM32L431_BearPi/Drivers/STM32L4xx_HAL_Driver/Src\stm32l4xx_hal_uart.c ****         huart->AbortReceiveCpltCallback = HAL_UART_AbortReceiveCpltCallback;   /* Legacy weak Abort
 926:D:/iot/felix2/targets/Cloud_STM32L431_BearPi/Drivers/STM32L4xx_HAL_Driver/Src\stm32l4xx_hal_uart.c ****         break;
 927:D:/iot/felix2/targets/Cloud_STM32L431_BearPi/Drivers/STM32L4xx_HAL_Driver/Src\stm32l4xx_hal_uart.c **** 
 928:D:/iot/felix2/targets/Cloud_STM32L431_BearPi/Drivers/STM32L4xx_HAL_Driver/Src\stm32l4xx_hal_uart.c ****       case HAL_UART_WAKEUP_CB_ID :
 929:D:/iot/felix2/targets/Cloud_STM32L431_BearPi/Drivers/STM32L4xx_HAL_Driver/Src\stm32l4xx_hal_uart.c ****         huart->WakeupCallback = HAL_UARTEx_WakeupCallback;                     /* Legacy weak Wakeu
 930:D:/iot/felix2/targets/Cloud_STM32L431_BearPi/Drivers/STM32L4xx_HAL_Driver/Src\stm32l4xx_hal_uart.c ****         break;
 931:D:/iot/felix2/targets/Cloud_STM32L431_BearPi/Drivers/STM32L4xx_HAL_Driver/Src\stm32l4xx_hal_uart.c **** 
 932:D:/iot/felix2/targets/Cloud_STM32L431_BearPi/Drivers/STM32L4xx_HAL_Driver/Src\stm32l4xx_hal_uart.c **** #if defined(USART_CR1_FIFOEN)
 933:D:/iot/felix2/targets/Cloud_STM32L431_BearPi/Drivers/STM32L4xx_HAL_Driver/Src\stm32l4xx_hal_uart.c ****       case HAL_UART_RX_FIFO_FULL_CB_ID :
 934:D:/iot/felix2/targets/Cloud_STM32L431_BearPi/Drivers/STM32L4xx_HAL_Driver/Src\stm32l4xx_hal_uart.c ****         huart->RxFifoFullCallback = HAL_UARTEx_RxFifoFullCallback;             /* Legacy weak RxFif
 935:D:/iot/felix2/targets/Cloud_STM32L431_BearPi/Drivers/STM32L4xx_HAL_Driver/Src\stm32l4xx_hal_uart.c ****         break;
 936:D:/iot/felix2/targets/Cloud_STM32L431_BearPi/Drivers/STM32L4xx_HAL_Driver/Src\stm32l4xx_hal_uart.c **** 
 937:D:/iot/felix2/targets/Cloud_STM32L431_BearPi/Drivers/STM32L4xx_HAL_Driver/Src\stm32l4xx_hal_uart.c ****       case HAL_UART_TX_FIFO_EMPTY_CB_ID :
 938:D:/iot/felix2/targets/Cloud_STM32L431_BearPi/Drivers/STM32L4xx_HAL_Driver/Src\stm32l4xx_hal_uart.c ****         huart->TxFifoEmptyCallback = HAL_UARTEx_TxFifoEmptyCallback;           /* Legacy weak TxFif
 939:D:/iot/felix2/targets/Cloud_STM32L431_BearPi/Drivers/STM32L4xx_HAL_Driver/Src\stm32l4xx_hal_uart.c ****         break;
 940:D:/iot/felix2/targets/Cloud_STM32L431_BearPi/Drivers/STM32L4xx_HAL_Driver/Src\stm32l4xx_hal_uart.c **** #endif
 941:D:/iot/felix2/targets/Cloud_STM32L431_BearPi/Drivers/STM32L4xx_HAL_Driver/Src\stm32l4xx_hal_uart.c **** 
 942:D:/iot/felix2/targets/Cloud_STM32L431_BearPi/Drivers/STM32L4xx_HAL_Driver/Src\stm32l4xx_hal_uart.c ****       case HAL_UART_MSPINIT_CB_ID :
 943:D:/iot/felix2/targets/Cloud_STM32L431_BearPi/Drivers/STM32L4xx_HAL_Driver/Src\stm32l4xx_hal_uart.c ****         huart->MspInitCallback = HAL_UART_MspInit;                             /* Legacy weak MspIn
 944:D:/iot/felix2/targets/Cloud_STM32L431_BearPi/Drivers/STM32L4xx_HAL_Driver/Src\stm32l4xx_hal_uart.c ****         break;
 945:D:/iot/felix2/targets/Cloud_STM32L431_BearPi/Drivers/STM32L4xx_HAL_Driver/Src\stm32l4xx_hal_uart.c **** 
 946:D:/iot/felix2/targets/Cloud_STM32L431_BearPi/Drivers/STM32L4xx_HAL_Driver/Src\stm32l4xx_hal_uart.c ****       case HAL_UART_MSPDEINIT_CB_ID :
 947:D:/iot/felix2/targets/Cloud_STM32L431_BearPi/Drivers/STM32L4xx_HAL_Driver/Src\stm32l4xx_hal_uart.c ****         huart->MspDeInitCallback = HAL_UART_MspDeInit;                         /* Legacy weak MspDe
 948:D:/iot/felix2/targets/Cloud_STM32L431_BearPi/Drivers/STM32L4xx_HAL_Driver/Src\stm32l4xx_hal_uart.c ****         break;
 949:D:/iot/felix2/targets/Cloud_STM32L431_BearPi/Drivers/STM32L4xx_HAL_Driver/Src\stm32l4xx_hal_uart.c **** 
 950:D:/iot/felix2/targets/Cloud_STM32L431_BearPi/Drivers/STM32L4xx_HAL_Driver/Src\stm32l4xx_hal_uart.c ****       default :
 951:D:/iot/felix2/targets/Cloud_STM32L431_BearPi/Drivers/STM32L4xx_HAL_Driver/Src\stm32l4xx_hal_uart.c ****         /* Update the error code */
 952:D:/iot/felix2/targets/Cloud_STM32L431_BearPi/Drivers/STM32L4xx_HAL_Driver/Src\stm32l4xx_hal_uart.c ****         huart->ErrorCode |= HAL_UART_ERROR_INVALID_CALLBACK;
 953:D:/iot/felix2/targets/Cloud_STM32L431_BearPi/Drivers/STM32L4xx_HAL_Driver/Src\stm32l4xx_hal_uart.c **** 
 954:D:/iot/felix2/targets/Cloud_STM32L431_BearPi/Drivers/STM32L4xx_HAL_Driver/Src\stm32l4xx_hal_uart.c ****         /* Return error status */
 955:D:/iot/felix2/targets/Cloud_STM32L431_BearPi/Drivers/STM32L4xx_HAL_Driver/Src\stm32l4xx_hal_uart.c ****         status =  HAL_ERROR;
 956:D:/iot/felix2/targets/Cloud_STM32L431_BearPi/Drivers/STM32L4xx_HAL_Driver/Src\stm32l4xx_hal_uart.c ****         break;
 957:D:/iot/felix2/targets/Cloud_STM32L431_BearPi/Drivers/STM32L4xx_HAL_Driver/Src\stm32l4xx_hal_uart.c ****     }
 958:D:/iot/felix2/targets/Cloud_STM32L431_BearPi/Drivers/STM32L4xx_HAL_Driver/Src\stm32l4xx_hal_uart.c ****   }
ARM GAS  C:\Users\91458\AppData\Local\Temp\ccrpKNIe.s 			page 31


 959:D:/iot/felix2/targets/Cloud_STM32L431_BearPi/Drivers/STM32L4xx_HAL_Driver/Src\stm32l4xx_hal_uart.c ****   else if (HAL_UART_STATE_RESET == huart->gState)
 960:D:/iot/felix2/targets/Cloud_STM32L431_BearPi/Drivers/STM32L4xx_HAL_Driver/Src\stm32l4xx_hal_uart.c ****   {
 961:D:/iot/felix2/targets/Cloud_STM32L431_BearPi/Drivers/STM32L4xx_HAL_Driver/Src\stm32l4xx_hal_uart.c ****     switch (CallbackID)
 962:D:/iot/felix2/targets/Cloud_STM32L431_BearPi/Drivers/STM32L4xx_HAL_Driver/Src\stm32l4xx_hal_uart.c ****     {
 963:D:/iot/felix2/targets/Cloud_STM32L431_BearPi/Drivers/STM32L4xx_HAL_Driver/Src\stm32l4xx_hal_uart.c ****       case HAL_UART_MSPINIT_CB_ID :
 964:D:/iot/felix2/targets/Cloud_STM32L431_BearPi/Drivers/STM32L4xx_HAL_Driver/Src\stm32l4xx_hal_uart.c ****         huart->MspInitCallback = HAL_UART_MspInit;
 965:D:/iot/felix2/targets/Cloud_STM32L431_BearPi/Drivers/STM32L4xx_HAL_Driver/Src\stm32l4xx_hal_uart.c ****         break;
 966:D:/iot/felix2/targets/Cloud_STM32L431_BearPi/Drivers/STM32L4xx_HAL_Driver/Src\stm32l4xx_hal_uart.c **** 
 967:D:/iot/felix2/targets/Cloud_STM32L431_BearPi/Drivers/STM32L4xx_HAL_Driver/Src\stm32l4xx_hal_uart.c ****       case HAL_UART_MSPDEINIT_CB_ID :
 968:D:/iot/felix2/targets/Cloud_STM32L431_BearPi/Drivers/STM32L4xx_HAL_Driver/Src\stm32l4xx_hal_uart.c ****         huart->MspDeInitCallback = HAL_UART_MspDeInit;
 969:D:/iot/felix2/targets/Cloud_STM32L431_BearPi/Drivers/STM32L4xx_HAL_Driver/Src\stm32l4xx_hal_uart.c ****         break;
 970:D:/iot/felix2/targets/Cloud_STM32L431_BearPi/Drivers/STM32L4xx_HAL_Driver/Src\stm32l4xx_hal_uart.c **** 
 971:D:/iot/felix2/targets/Cloud_STM32L431_BearPi/Drivers/STM32L4xx_HAL_Driver/Src\stm32l4xx_hal_uart.c ****       default :
 972:D:/iot/felix2/targets/Cloud_STM32L431_BearPi/Drivers/STM32L4xx_HAL_Driver/Src\stm32l4xx_hal_uart.c ****         /* Update the error code */
 973:D:/iot/felix2/targets/Cloud_STM32L431_BearPi/Drivers/STM32L4xx_HAL_Driver/Src\stm32l4xx_hal_uart.c ****         huart->ErrorCode |= HAL_UART_ERROR_INVALID_CALLBACK;
 974:D:/iot/felix2/targets/Cloud_STM32L431_BearPi/Drivers/STM32L4xx_HAL_Driver/Src\stm32l4xx_hal_uart.c **** 
 975:D:/iot/felix2/targets/Cloud_STM32L431_BearPi/Drivers/STM32L4xx_HAL_Driver/Src\stm32l4xx_hal_uart.c ****         /* Return error status */
 976:D:/iot/felix2/targets/Cloud_STM32L431_BearPi/Drivers/STM32L4xx_HAL_Driver/Src\stm32l4xx_hal_uart.c ****         status =  HAL_ERROR;
 977:D:/iot/felix2/targets/Cloud_STM32L431_BearPi/Drivers/STM32L4xx_HAL_Driver/Src\stm32l4xx_hal_uart.c ****         break;
 978:D:/iot/felix2/targets/Cloud_STM32L431_BearPi/Drivers/STM32L4xx_HAL_Driver/Src\stm32l4xx_hal_uart.c ****     }
 979:D:/iot/felix2/targets/Cloud_STM32L431_BearPi/Drivers/STM32L4xx_HAL_Driver/Src\stm32l4xx_hal_uart.c ****   }
 980:D:/iot/felix2/targets/Cloud_STM32L431_BearPi/Drivers/STM32L4xx_HAL_Driver/Src\stm32l4xx_hal_uart.c ****   else
 981:D:/iot/felix2/targets/Cloud_STM32L431_BearPi/Drivers/STM32L4xx_HAL_Driver/Src\stm32l4xx_hal_uart.c ****   {
 982:D:/iot/felix2/targets/Cloud_STM32L431_BearPi/Drivers/STM32L4xx_HAL_Driver/Src\stm32l4xx_hal_uart.c ****     /* Update the error code */
 983:D:/iot/felix2/targets/Cloud_STM32L431_BearPi/Drivers/STM32L4xx_HAL_Driver/Src\stm32l4xx_hal_uart.c ****     huart->ErrorCode |= HAL_UART_ERROR_INVALID_CALLBACK;
 984:D:/iot/felix2/targets/Cloud_STM32L431_BearPi/Drivers/STM32L4xx_HAL_Driver/Src\stm32l4xx_hal_uart.c **** 
 985:D:/iot/felix2/targets/Cloud_STM32L431_BearPi/Drivers/STM32L4xx_HAL_Driver/Src\stm32l4xx_hal_uart.c ****     /* Return error status */
 986:D:/iot/felix2/targets/Cloud_STM32L431_BearPi/Drivers/STM32L4xx_HAL_Driver/Src\stm32l4xx_hal_uart.c ****     status =  HAL_ERROR;
 987:D:/iot/felix2/targets/Cloud_STM32L431_BearPi/Drivers/STM32L4xx_HAL_Driver/Src\stm32l4xx_hal_uart.c ****   }
 988:D:/iot/felix2/targets/Cloud_STM32L431_BearPi/Drivers/STM32L4xx_HAL_Driver/Src\stm32l4xx_hal_uart.c **** 
 989:D:/iot/felix2/targets/Cloud_STM32L431_BearPi/Drivers/STM32L4xx_HAL_Driver/Src\stm32l4xx_hal_uart.c ****   /* Release Lock */
 990:D:/iot/felix2/targets/Cloud_STM32L431_BearPi/Drivers/STM32L4xx_HAL_Driver/Src\stm32l4xx_hal_uart.c ****   __HAL_UNLOCK(huart);
 991:D:/iot/felix2/targets/Cloud_STM32L431_BearPi/Drivers/STM32L4xx_HAL_Driver/Src\stm32l4xx_hal_uart.c **** 
 992:D:/iot/felix2/targets/Cloud_STM32L431_BearPi/Drivers/STM32L4xx_HAL_Driver/Src\stm32l4xx_hal_uart.c ****   return status;
 993:D:/iot/felix2/targets/Cloud_STM32L431_BearPi/Drivers/STM32L4xx_HAL_Driver/Src\stm32l4xx_hal_uart.c **** }
 994:D:/iot/felix2/targets/Cloud_STM32L431_BearPi/Drivers/STM32L4xx_HAL_Driver/Src\stm32l4xx_hal_uart.c **** #endif /* USE_HAL_UART_REGISTER_CALLBACKS */
 995:D:/iot/felix2/targets/Cloud_STM32L431_BearPi/Drivers/STM32L4xx_HAL_Driver/Src\stm32l4xx_hal_uart.c **** 
 996:D:/iot/felix2/targets/Cloud_STM32L431_BearPi/Drivers/STM32L4xx_HAL_Driver/Src\stm32l4xx_hal_uart.c **** /**
 997:D:/iot/felix2/targets/Cloud_STM32L431_BearPi/Drivers/STM32L4xx_HAL_Driver/Src\stm32l4xx_hal_uart.c ****   * @}
 998:D:/iot/felix2/targets/Cloud_STM32L431_BearPi/Drivers/STM32L4xx_HAL_Driver/Src\stm32l4xx_hal_uart.c ****   */
 999:D:/iot/felix2/targets/Cloud_STM32L431_BearPi/Drivers/STM32L4xx_HAL_Driver/Src\stm32l4xx_hal_uart.c **** 
1000:D:/iot/felix2/targets/Cloud_STM32L431_BearPi/Drivers/STM32L4xx_HAL_Driver/Src\stm32l4xx_hal_uart.c **** /** @defgroup UART_Exported_Functions_Group2 IO operation functions
1001:D:/iot/felix2/targets/Cloud_STM32L431_BearPi/Drivers/STM32L4xx_HAL_Driver/Src\stm32l4xx_hal_uart.c ****   * @brief UART Transmit/Receive functions
1002:D:/iot/felix2/targets/Cloud_STM32L431_BearPi/Drivers/STM32L4xx_HAL_Driver/Src\stm32l4xx_hal_uart.c ****   *
1003:D:/iot/felix2/targets/Cloud_STM32L431_BearPi/Drivers/STM32L4xx_HAL_Driver/Src\stm32l4xx_hal_uart.c **** @verbatim
1004:D:/iot/felix2/targets/Cloud_STM32L431_BearPi/Drivers/STM32L4xx_HAL_Driver/Src\stm32l4xx_hal_uart.c ****  ===============================================================================
1005:D:/iot/felix2/targets/Cloud_STM32L431_BearPi/Drivers/STM32L4xx_HAL_Driver/Src\stm32l4xx_hal_uart.c ****                       ##### IO operation functions #####
1006:D:/iot/felix2/targets/Cloud_STM32L431_BearPi/Drivers/STM32L4xx_HAL_Driver/Src\stm32l4xx_hal_uart.c ****  ===============================================================================
1007:D:/iot/felix2/targets/Cloud_STM32L431_BearPi/Drivers/STM32L4xx_HAL_Driver/Src\stm32l4xx_hal_uart.c ****     This subsection provides a set of functions allowing to manage the UART asynchronous
1008:D:/iot/felix2/targets/Cloud_STM32L431_BearPi/Drivers/STM32L4xx_HAL_Driver/Src\stm32l4xx_hal_uart.c ****     and Half duplex data transfers.
1009:D:/iot/felix2/targets/Cloud_STM32L431_BearPi/Drivers/STM32L4xx_HAL_Driver/Src\stm32l4xx_hal_uart.c **** 
1010:D:/iot/felix2/targets/Cloud_STM32L431_BearPi/Drivers/STM32L4xx_HAL_Driver/Src\stm32l4xx_hal_uart.c ****     (#) There are two mode of transfer:
1011:D:/iot/felix2/targets/Cloud_STM32L431_BearPi/Drivers/STM32L4xx_HAL_Driver/Src\stm32l4xx_hal_uart.c ****        (+) Blocking mode: The communication is performed in polling mode.
1012:D:/iot/felix2/targets/Cloud_STM32L431_BearPi/Drivers/STM32L4xx_HAL_Driver/Src\stm32l4xx_hal_uart.c ****            The HAL status of all data processing is returned by the same function
1013:D:/iot/felix2/targets/Cloud_STM32L431_BearPi/Drivers/STM32L4xx_HAL_Driver/Src\stm32l4xx_hal_uart.c ****            after finishing transfer.
1014:D:/iot/felix2/targets/Cloud_STM32L431_BearPi/Drivers/STM32L4xx_HAL_Driver/Src\stm32l4xx_hal_uart.c ****        (+) Non-Blocking mode: The communication is performed using Interrupts
1015:D:/iot/felix2/targets/Cloud_STM32L431_BearPi/Drivers/STM32L4xx_HAL_Driver/Src\stm32l4xx_hal_uart.c ****            or DMA, These API's return the HAL status.
ARM GAS  C:\Users\91458\AppData\Local\Temp\ccrpKNIe.s 			page 32


1016:D:/iot/felix2/targets/Cloud_STM32L431_BearPi/Drivers/STM32L4xx_HAL_Driver/Src\stm32l4xx_hal_uart.c ****            The end of the data processing will be indicated through the
1017:D:/iot/felix2/targets/Cloud_STM32L431_BearPi/Drivers/STM32L4xx_HAL_Driver/Src\stm32l4xx_hal_uart.c ****            dedicated UART IRQ when using Interrupt mode or the DMA IRQ when
1018:D:/iot/felix2/targets/Cloud_STM32L431_BearPi/Drivers/STM32L4xx_HAL_Driver/Src\stm32l4xx_hal_uart.c ****            using DMA mode.
1019:D:/iot/felix2/targets/Cloud_STM32L431_BearPi/Drivers/STM32L4xx_HAL_Driver/Src\stm32l4xx_hal_uart.c ****            The HAL_UART_TxCpltCallback(), HAL_UART_RxCpltCallback() user callbacks
1020:D:/iot/felix2/targets/Cloud_STM32L431_BearPi/Drivers/STM32L4xx_HAL_Driver/Src\stm32l4xx_hal_uart.c ****            will be executed respectively at the end of the transmit or Receive process
1021:D:/iot/felix2/targets/Cloud_STM32L431_BearPi/Drivers/STM32L4xx_HAL_Driver/Src\stm32l4xx_hal_uart.c ****            The HAL_UART_ErrorCallback()user callback will be executed when a communication error is
1022:D:/iot/felix2/targets/Cloud_STM32L431_BearPi/Drivers/STM32L4xx_HAL_Driver/Src\stm32l4xx_hal_uart.c **** 
1023:D:/iot/felix2/targets/Cloud_STM32L431_BearPi/Drivers/STM32L4xx_HAL_Driver/Src\stm32l4xx_hal_uart.c ****     (#) Blocking mode API's are :
1024:D:/iot/felix2/targets/Cloud_STM32L431_BearPi/Drivers/STM32L4xx_HAL_Driver/Src\stm32l4xx_hal_uart.c ****         (+) HAL_UART_Transmit()
1025:D:/iot/felix2/targets/Cloud_STM32L431_BearPi/Drivers/STM32L4xx_HAL_Driver/Src\stm32l4xx_hal_uart.c ****         (+) HAL_UART_Receive()
1026:D:/iot/felix2/targets/Cloud_STM32L431_BearPi/Drivers/STM32L4xx_HAL_Driver/Src\stm32l4xx_hal_uart.c **** 
1027:D:/iot/felix2/targets/Cloud_STM32L431_BearPi/Drivers/STM32L4xx_HAL_Driver/Src\stm32l4xx_hal_uart.c ****     (#) Non-Blocking mode API's with Interrupt are :
1028:D:/iot/felix2/targets/Cloud_STM32L431_BearPi/Drivers/STM32L4xx_HAL_Driver/Src\stm32l4xx_hal_uart.c ****         (+) HAL_UART_Transmit_IT()
1029:D:/iot/felix2/targets/Cloud_STM32L431_BearPi/Drivers/STM32L4xx_HAL_Driver/Src\stm32l4xx_hal_uart.c ****         (+) HAL_UART_Receive_IT()
1030:D:/iot/felix2/targets/Cloud_STM32L431_BearPi/Drivers/STM32L4xx_HAL_Driver/Src\stm32l4xx_hal_uart.c ****         (+) HAL_UART_IRQHandler()
1031:D:/iot/felix2/targets/Cloud_STM32L431_BearPi/Drivers/STM32L4xx_HAL_Driver/Src\stm32l4xx_hal_uart.c **** 
1032:D:/iot/felix2/targets/Cloud_STM32L431_BearPi/Drivers/STM32L4xx_HAL_Driver/Src\stm32l4xx_hal_uart.c ****     (#) Non-Blocking mode API's with DMA are :
1033:D:/iot/felix2/targets/Cloud_STM32L431_BearPi/Drivers/STM32L4xx_HAL_Driver/Src\stm32l4xx_hal_uart.c ****         (+) HAL_UART_Transmit_DMA()
1034:D:/iot/felix2/targets/Cloud_STM32L431_BearPi/Drivers/STM32L4xx_HAL_Driver/Src\stm32l4xx_hal_uart.c ****         (+) HAL_UART_Receive_DMA()
1035:D:/iot/felix2/targets/Cloud_STM32L431_BearPi/Drivers/STM32L4xx_HAL_Driver/Src\stm32l4xx_hal_uart.c ****         (+) HAL_UART_DMAPause()
1036:D:/iot/felix2/targets/Cloud_STM32L431_BearPi/Drivers/STM32L4xx_HAL_Driver/Src\stm32l4xx_hal_uart.c ****         (+) HAL_UART_DMAResume()
1037:D:/iot/felix2/targets/Cloud_STM32L431_BearPi/Drivers/STM32L4xx_HAL_Driver/Src\stm32l4xx_hal_uart.c ****         (+) HAL_UART_DMAStop()
1038:D:/iot/felix2/targets/Cloud_STM32L431_BearPi/Drivers/STM32L4xx_HAL_Driver/Src\stm32l4xx_hal_uart.c **** 
1039:D:/iot/felix2/targets/Cloud_STM32L431_BearPi/Drivers/STM32L4xx_HAL_Driver/Src\stm32l4xx_hal_uart.c ****     (#) A set of Transfer Complete Callbacks are provided in Non_Blocking mode:
1040:D:/iot/felix2/targets/Cloud_STM32L431_BearPi/Drivers/STM32L4xx_HAL_Driver/Src\stm32l4xx_hal_uart.c ****         (+) HAL_UART_TxHalfCpltCallback()
1041:D:/iot/felix2/targets/Cloud_STM32L431_BearPi/Drivers/STM32L4xx_HAL_Driver/Src\stm32l4xx_hal_uart.c ****         (+) HAL_UART_TxCpltCallback()
1042:D:/iot/felix2/targets/Cloud_STM32L431_BearPi/Drivers/STM32L4xx_HAL_Driver/Src\stm32l4xx_hal_uart.c ****         (+) HAL_UART_RxHalfCpltCallback()
1043:D:/iot/felix2/targets/Cloud_STM32L431_BearPi/Drivers/STM32L4xx_HAL_Driver/Src\stm32l4xx_hal_uart.c ****         (+) HAL_UART_RxCpltCallback()
1044:D:/iot/felix2/targets/Cloud_STM32L431_BearPi/Drivers/STM32L4xx_HAL_Driver/Src\stm32l4xx_hal_uart.c ****         (+) HAL_UART_ErrorCallback()
1045:D:/iot/felix2/targets/Cloud_STM32L431_BearPi/Drivers/STM32L4xx_HAL_Driver/Src\stm32l4xx_hal_uart.c **** 
1046:D:/iot/felix2/targets/Cloud_STM32L431_BearPi/Drivers/STM32L4xx_HAL_Driver/Src\stm32l4xx_hal_uart.c ****     (#) Non-Blocking mode transfers could be aborted using Abort API's :
1047:D:/iot/felix2/targets/Cloud_STM32L431_BearPi/Drivers/STM32L4xx_HAL_Driver/Src\stm32l4xx_hal_uart.c ****         (+) HAL_UART_Abort()
1048:D:/iot/felix2/targets/Cloud_STM32L431_BearPi/Drivers/STM32L4xx_HAL_Driver/Src\stm32l4xx_hal_uart.c ****         (+) HAL_UART_AbortTransmit()
1049:D:/iot/felix2/targets/Cloud_STM32L431_BearPi/Drivers/STM32L4xx_HAL_Driver/Src\stm32l4xx_hal_uart.c ****         (+) HAL_UART_AbortReceive()
1050:D:/iot/felix2/targets/Cloud_STM32L431_BearPi/Drivers/STM32L4xx_HAL_Driver/Src\stm32l4xx_hal_uart.c ****         (+) HAL_UART_Abort_IT()
1051:D:/iot/felix2/targets/Cloud_STM32L431_BearPi/Drivers/STM32L4xx_HAL_Driver/Src\stm32l4xx_hal_uart.c ****         (+) HAL_UART_AbortTransmit_IT()
1052:D:/iot/felix2/targets/Cloud_STM32L431_BearPi/Drivers/STM32L4xx_HAL_Driver/Src\stm32l4xx_hal_uart.c ****         (+) HAL_UART_AbortReceive_IT()
1053:D:/iot/felix2/targets/Cloud_STM32L431_BearPi/Drivers/STM32L4xx_HAL_Driver/Src\stm32l4xx_hal_uart.c **** 
1054:D:/iot/felix2/targets/Cloud_STM32L431_BearPi/Drivers/STM32L4xx_HAL_Driver/Src\stm32l4xx_hal_uart.c ****     (#) For Abort services based on interrupts (HAL_UART_Abortxxx_IT), a set of Abort Complete Call
1055:D:/iot/felix2/targets/Cloud_STM32L431_BearPi/Drivers/STM32L4xx_HAL_Driver/Src\stm32l4xx_hal_uart.c ****         (+) HAL_UART_AbortCpltCallback()
1056:D:/iot/felix2/targets/Cloud_STM32L431_BearPi/Drivers/STM32L4xx_HAL_Driver/Src\stm32l4xx_hal_uart.c ****         (+) HAL_UART_AbortTransmitCpltCallback()
1057:D:/iot/felix2/targets/Cloud_STM32L431_BearPi/Drivers/STM32L4xx_HAL_Driver/Src\stm32l4xx_hal_uart.c ****         (+) HAL_UART_AbortReceiveCpltCallback()
1058:D:/iot/felix2/targets/Cloud_STM32L431_BearPi/Drivers/STM32L4xx_HAL_Driver/Src\stm32l4xx_hal_uart.c **** 
1059:D:/iot/felix2/targets/Cloud_STM32L431_BearPi/Drivers/STM32L4xx_HAL_Driver/Src\stm32l4xx_hal_uart.c ****     (#) In Non-Blocking mode transfers, possible errors are split into 2 categories.
1060:D:/iot/felix2/targets/Cloud_STM32L431_BearPi/Drivers/STM32L4xx_HAL_Driver/Src\stm32l4xx_hal_uart.c ****         Errors are handled as follows :
1061:D:/iot/felix2/targets/Cloud_STM32L431_BearPi/Drivers/STM32L4xx_HAL_Driver/Src\stm32l4xx_hal_uart.c ****        (+) Error is considered as Recoverable and non blocking : Transfer could go till end, but er
1062:D:/iot/felix2/targets/Cloud_STM32L431_BearPi/Drivers/STM32L4xx_HAL_Driver/Src\stm32l4xx_hal_uart.c ****            to be evaluated by user : this concerns Frame Error, Parity Error or Noise Error in Inte
1063:D:/iot/felix2/targets/Cloud_STM32L431_BearPi/Drivers/STM32L4xx_HAL_Driver/Src\stm32l4xx_hal_uart.c ****            Received character is then retrieved and stored in Rx buffer, Error code is set to allow
1064:D:/iot/felix2/targets/Cloud_STM32L431_BearPi/Drivers/STM32L4xx_HAL_Driver/Src\stm32l4xx_hal_uart.c ****            and HAL_UART_ErrorCallback() user callback is executed. Transfer is kept ongoing on UART
1065:D:/iot/felix2/targets/Cloud_STM32L431_BearPi/Drivers/STM32L4xx_HAL_Driver/Src\stm32l4xx_hal_uart.c ****            If user wants to abort it, Abort services should be called by user.
1066:D:/iot/felix2/targets/Cloud_STM32L431_BearPi/Drivers/STM32L4xx_HAL_Driver/Src\stm32l4xx_hal_uart.c ****        (+) Error is considered as Blocking : Transfer could not be completed properly and is aborte
1067:D:/iot/felix2/targets/Cloud_STM32L431_BearPi/Drivers/STM32L4xx_HAL_Driver/Src\stm32l4xx_hal_uart.c ****            This concerns Overrun Error In Interrupt mode reception and all errors in DMA mode.
1068:D:/iot/felix2/targets/Cloud_STM32L431_BearPi/Drivers/STM32L4xx_HAL_Driver/Src\stm32l4xx_hal_uart.c ****            Error code is set to allow user to identify error type, and HAL_UART_ErrorCallback() use
1069:D:/iot/felix2/targets/Cloud_STM32L431_BearPi/Drivers/STM32L4xx_HAL_Driver/Src\stm32l4xx_hal_uart.c **** 
1070:D:/iot/felix2/targets/Cloud_STM32L431_BearPi/Drivers/STM32L4xx_HAL_Driver/Src\stm32l4xx_hal_uart.c ****     -@- In the Half duplex communication, it is forbidden to run the transmit
1071:D:/iot/felix2/targets/Cloud_STM32L431_BearPi/Drivers/STM32L4xx_HAL_Driver/Src\stm32l4xx_hal_uart.c ****         and receive process in parallel, the UART state HAL_UART_STATE_BUSY_TX_RX can't be useful.
1072:D:/iot/felix2/targets/Cloud_STM32L431_BearPi/Drivers/STM32L4xx_HAL_Driver/Src\stm32l4xx_hal_uart.c **** 
ARM GAS  C:\Users\91458\AppData\Local\Temp\ccrpKNIe.s 			page 33


1073:D:/iot/felix2/targets/Cloud_STM32L431_BearPi/Drivers/STM32L4xx_HAL_Driver/Src\stm32l4xx_hal_uart.c **** @endverbatim
1074:D:/iot/felix2/targets/Cloud_STM32L431_BearPi/Drivers/STM32L4xx_HAL_Driver/Src\stm32l4xx_hal_uart.c ****   * @{
1075:D:/iot/felix2/targets/Cloud_STM32L431_BearPi/Drivers/STM32L4xx_HAL_Driver/Src\stm32l4xx_hal_uart.c ****   */
1076:D:/iot/felix2/targets/Cloud_STM32L431_BearPi/Drivers/STM32L4xx_HAL_Driver/Src\stm32l4xx_hal_uart.c **** 
1077:D:/iot/felix2/targets/Cloud_STM32L431_BearPi/Drivers/STM32L4xx_HAL_Driver/Src\stm32l4xx_hal_uart.c **** /**
1078:D:/iot/felix2/targets/Cloud_STM32L431_BearPi/Drivers/STM32L4xx_HAL_Driver/Src\stm32l4xx_hal_uart.c ****   * @brief Send an amount of data in blocking mode.
1079:D:/iot/felix2/targets/Cloud_STM32L431_BearPi/Drivers/STM32L4xx_HAL_Driver/Src\stm32l4xx_hal_uart.c ****   * @note When FIFO mode is enabled, writing a data in the TDR register adds one
1080:D:/iot/felix2/targets/Cloud_STM32L431_BearPi/Drivers/STM32L4xx_HAL_Driver/Src\stm32l4xx_hal_uart.c ****   *       data to the TXFIFO. Write operations to the TDR register are performed
1081:D:/iot/felix2/targets/Cloud_STM32L431_BearPi/Drivers/STM32L4xx_HAL_Driver/Src\stm32l4xx_hal_uart.c ****   *       when TXFNF flag is set. From hardware perspective, TXFNF flag and
1082:D:/iot/felix2/targets/Cloud_STM32L431_BearPi/Drivers/STM32L4xx_HAL_Driver/Src\stm32l4xx_hal_uart.c ****   *       TXE are mapped on the same bit-field.
1083:D:/iot/felix2/targets/Cloud_STM32L431_BearPi/Drivers/STM32L4xx_HAL_Driver/Src\stm32l4xx_hal_uart.c ****   * @param huart   UART handle.
1084:D:/iot/felix2/targets/Cloud_STM32L431_BearPi/Drivers/STM32L4xx_HAL_Driver/Src\stm32l4xx_hal_uart.c ****   * @param pData   Pointer to data buffer.
1085:D:/iot/felix2/targets/Cloud_STM32L431_BearPi/Drivers/STM32L4xx_HAL_Driver/Src\stm32l4xx_hal_uart.c ****   * @param Size    Amount of data to be sent.
1086:D:/iot/felix2/targets/Cloud_STM32L431_BearPi/Drivers/STM32L4xx_HAL_Driver/Src\stm32l4xx_hal_uart.c ****   * @param Timeout Timeout duration.
1087:D:/iot/felix2/targets/Cloud_STM32L431_BearPi/Drivers/STM32L4xx_HAL_Driver/Src\stm32l4xx_hal_uart.c ****   * @retval HAL status
1088:D:/iot/felix2/targets/Cloud_STM32L431_BearPi/Drivers/STM32L4xx_HAL_Driver/Src\stm32l4xx_hal_uart.c ****   */
1089:D:/iot/felix2/targets/Cloud_STM32L431_BearPi/Drivers/STM32L4xx_HAL_Driver/Src\stm32l4xx_hal_uart.c **** HAL_StatusTypeDef HAL_UART_Transmit(UART_HandleTypeDef *huart, uint8_t *pData, uint16_t Size, uint3
1090:D:/iot/felix2/targets/Cloud_STM32L431_BearPi/Drivers/STM32L4xx_HAL_Driver/Src\stm32l4xx_hal_uart.c **** {
 768              		.loc 1 1090 0
 769              		.cfi_startproc
 770              		@ args = 0, pretend = 0, frame = 24
 771              		@ frame_needed = 1, uses_anonymous_args = 0
 772 0000 80B5     		push	{r7, lr}
 773              	.LCFI37:
 774              		.cfi_def_cfa_offset 8
 775              		.cfi_offset 7, -8
 776              		.cfi_offset 14, -4
 777 0002 88B0     		sub	sp, sp, #32
 778              	.LCFI38:
 779              		.cfi_def_cfa_offset 40
 780 0004 02AF     		add	r7, sp, #8
 781              	.LCFI39:
 782              		.cfi_def_cfa 7, 32
 783 0006 F860     		str	r0, [r7, #12]
 784 0008 B960     		str	r1, [r7, #8]
 785 000a 3B60     		str	r3, [r7]
 786 000c 1346     		mov	r3, r2	@ movhi
 787 000e FB80     		strh	r3, [r7, #6]	@ movhi
1091:D:/iot/felix2/targets/Cloud_STM32L431_BearPi/Drivers/STM32L4xx_HAL_Driver/Src\stm32l4xx_hal_uart.c ****   uint16_t *tmp;
1092:D:/iot/felix2/targets/Cloud_STM32L431_BearPi/Drivers/STM32L4xx_HAL_Driver/Src\stm32l4xx_hal_uart.c ****   uint32_t tickstart = 0U;
 788              		.loc 1 1092 0
 789 0010 0023     		movs	r3, #0
 790 0012 7B61     		str	r3, [r7, #20]
1093:D:/iot/felix2/targets/Cloud_STM32L431_BearPi/Drivers/STM32L4xx_HAL_Driver/Src\stm32l4xx_hal_uart.c **** 
1094:D:/iot/felix2/targets/Cloud_STM32L431_BearPi/Drivers/STM32L4xx_HAL_Driver/Src\stm32l4xx_hal_uart.c ****   /* Check that a Tx process is not already ongoing */
1095:D:/iot/felix2/targets/Cloud_STM32L431_BearPi/Drivers/STM32L4xx_HAL_Driver/Src\stm32l4xx_hal_uart.c ****   if (huart->gState == HAL_UART_STATE_READY)
 791              		.loc 1 1095 0
 792 0014 FB68     		ldr	r3, [r7, #12]
 793 0016 93F87130 		ldrb	r3, [r3, #113]
 794 001a DBB2     		uxtb	r3, r3
 795 001c 202B     		cmp	r3, #32
 796 001e 77D1     		bne	.L34
1096:D:/iot/felix2/targets/Cloud_STM32L431_BearPi/Drivers/STM32L4xx_HAL_Driver/Src\stm32l4xx_hal_uart.c ****   {
1097:D:/iot/felix2/targets/Cloud_STM32L431_BearPi/Drivers/STM32L4xx_HAL_Driver/Src\stm32l4xx_hal_uart.c ****     if ((pData == NULL) || (Size == 0U))
 797              		.loc 1 1097 0
 798 0020 BB68     		ldr	r3, [r7, #8]
 799 0022 002B     		cmp	r3, #0
ARM GAS  C:\Users\91458\AppData\Local\Temp\ccrpKNIe.s 			page 34


 800 0024 02D0     		beq	.L35
 801              		.loc 1 1097 0 is_stmt 0 discriminator 1
 802 0026 FB88     		ldrh	r3, [r7, #6]
 803 0028 002B     		cmp	r3, #0
 804 002a 01D1     		bne	.L36
 805              	.L35:
1098:D:/iot/felix2/targets/Cloud_STM32L431_BearPi/Drivers/STM32L4xx_HAL_Driver/Src\stm32l4xx_hal_uart.c ****     {
1099:D:/iot/felix2/targets/Cloud_STM32L431_BearPi/Drivers/STM32L4xx_HAL_Driver/Src\stm32l4xx_hal_uart.c ****       return  HAL_ERROR;
 806              		.loc 1 1099 0 is_stmt 1
 807 002c 0123     		movs	r3, #1
 808 002e 70E0     		b	.L37
 809              	.L36:
1100:D:/iot/felix2/targets/Cloud_STM32L431_BearPi/Drivers/STM32L4xx_HAL_Driver/Src\stm32l4xx_hal_uart.c ****     }
1101:D:/iot/felix2/targets/Cloud_STM32L431_BearPi/Drivers/STM32L4xx_HAL_Driver/Src\stm32l4xx_hal_uart.c **** 
1102:D:/iot/felix2/targets/Cloud_STM32L431_BearPi/Drivers/STM32L4xx_HAL_Driver/Src\stm32l4xx_hal_uart.c ****     /* Process Locked */
1103:D:/iot/felix2/targets/Cloud_STM32L431_BearPi/Drivers/STM32L4xx_HAL_Driver/Src\stm32l4xx_hal_uart.c ****     __HAL_LOCK(huart);
 810              		.loc 1 1103 0
 811 0030 FB68     		ldr	r3, [r7, #12]
 812 0032 93F87030 		ldrb	r3, [r3, #112]	@ zero_extendqisi2
 813 0036 012B     		cmp	r3, #1
 814 0038 01D1     		bne	.L38
 815              		.loc 1 1103 0 is_stmt 0 discriminator 1
 816 003a 0223     		movs	r3, #2
 817 003c 69E0     		b	.L37
 818              	.L38:
 819              		.loc 1 1103 0 discriminator 2
 820 003e FB68     		ldr	r3, [r7, #12]
 821 0040 0122     		movs	r2, #1
 822 0042 83F87020 		strb	r2, [r3, #112]
1104:D:/iot/felix2/targets/Cloud_STM32L431_BearPi/Drivers/STM32L4xx_HAL_Driver/Src\stm32l4xx_hal_uart.c **** 
1105:D:/iot/felix2/targets/Cloud_STM32L431_BearPi/Drivers/STM32L4xx_HAL_Driver/Src\stm32l4xx_hal_uart.c ****     huart->ErrorCode = HAL_UART_ERROR_NONE;
 823              		.loc 1 1105 0 is_stmt 1 discriminator 2
 824 0046 FB68     		ldr	r3, [r7, #12]
 825 0048 0022     		movs	r2, #0
 826 004a 5A67     		str	r2, [r3, #116]
1106:D:/iot/felix2/targets/Cloud_STM32L431_BearPi/Drivers/STM32L4xx_HAL_Driver/Src\stm32l4xx_hal_uart.c ****     huart->gState = HAL_UART_STATE_BUSY_TX;
 827              		.loc 1 1106 0 discriminator 2
 828 004c FB68     		ldr	r3, [r7, #12]
 829 004e 2122     		movs	r2, #33
 830 0050 83F87120 		strb	r2, [r3, #113]
1107:D:/iot/felix2/targets/Cloud_STM32L431_BearPi/Drivers/STM32L4xx_HAL_Driver/Src\stm32l4xx_hal_uart.c **** 
1108:D:/iot/felix2/targets/Cloud_STM32L431_BearPi/Drivers/STM32L4xx_HAL_Driver/Src\stm32l4xx_hal_uart.c ****     /* Init tickstart for timeout managment*/
1109:D:/iot/felix2/targets/Cloud_STM32L431_BearPi/Drivers/STM32L4xx_HAL_Driver/Src\stm32l4xx_hal_uart.c ****     tickstart = HAL_GetTick();
 831              		.loc 1 1109 0 discriminator 2
 832 0054 FFF7FEFF 		bl	HAL_GetTick
 833 0058 7861     		str	r0, [r7, #20]
1110:D:/iot/felix2/targets/Cloud_STM32L431_BearPi/Drivers/STM32L4xx_HAL_Driver/Src\stm32l4xx_hal_uart.c **** 
1111:D:/iot/felix2/targets/Cloud_STM32L431_BearPi/Drivers/STM32L4xx_HAL_Driver/Src\stm32l4xx_hal_uart.c ****     huart->TxXferSize  = Size;
 834              		.loc 1 1111 0 discriminator 2
 835 005a FB68     		ldr	r3, [r7, #12]
 836 005c FA88     		ldrh	r2, [r7, #6]	@ movhi
 837 005e A3F85020 		strh	r2, [r3, #80]	@ movhi
1112:D:/iot/felix2/targets/Cloud_STM32L431_BearPi/Drivers/STM32L4xx_HAL_Driver/Src\stm32l4xx_hal_uart.c ****     huart->TxXferCount = Size;
 838              		.loc 1 1112 0 discriminator 2
 839 0062 FB68     		ldr	r3, [r7, #12]
 840 0064 FA88     		ldrh	r2, [r7, #6]	@ movhi
 841 0066 A3F85220 		strh	r2, [r3, #82]	@ movhi
ARM GAS  C:\Users\91458\AppData\Local\Temp\ccrpKNIe.s 			page 35


1113:D:/iot/felix2/targets/Cloud_STM32L431_BearPi/Drivers/STM32L4xx_HAL_Driver/Src\stm32l4xx_hal_uart.c **** 
1114:D:/iot/felix2/targets/Cloud_STM32L431_BearPi/Drivers/STM32L4xx_HAL_Driver/Src\stm32l4xx_hal_uart.c ****     while (huart->TxXferCount > 0U)
 842              		.loc 1 1114 0 discriminator 2
 843 006a 34E0     		b	.L39
 844              	.L43:
1115:D:/iot/felix2/targets/Cloud_STM32L431_BearPi/Drivers/STM32L4xx_HAL_Driver/Src\stm32l4xx_hal_uart.c ****     {
1116:D:/iot/felix2/targets/Cloud_STM32L431_BearPi/Drivers/STM32L4xx_HAL_Driver/Src\stm32l4xx_hal_uart.c ****       if (UART_WaitOnFlagUntilTimeout(huart, UART_FLAG_TXE, RESET, tickstart, Timeout) != HAL_OK)
 845              		.loc 1 1116 0
 846 006c 3B68     		ldr	r3, [r7]
 847 006e 0093     		str	r3, [sp]
 848 0070 7B69     		ldr	r3, [r7, #20]
 849 0072 0022     		movs	r2, #0
 850 0074 8021     		movs	r1, #128
 851 0076 F868     		ldr	r0, [r7, #12]
 852 0078 FFF7FEFF 		bl	UART_WaitOnFlagUntilTimeout
 853 007c 0346     		mov	r3, r0
 854 007e 002B     		cmp	r3, #0
 855 0080 01D0     		beq	.L40
1117:D:/iot/felix2/targets/Cloud_STM32L431_BearPi/Drivers/STM32L4xx_HAL_Driver/Src\stm32l4xx_hal_uart.c ****       {
1118:D:/iot/felix2/targets/Cloud_STM32L431_BearPi/Drivers/STM32L4xx_HAL_Driver/Src\stm32l4xx_hal_uart.c ****         return HAL_TIMEOUT;
 856              		.loc 1 1118 0
 857 0082 0323     		movs	r3, #3
 858 0084 45E0     		b	.L37
 859              	.L40:
1119:D:/iot/felix2/targets/Cloud_STM32L431_BearPi/Drivers/STM32L4xx_HAL_Driver/Src\stm32l4xx_hal_uart.c ****       }
1120:D:/iot/felix2/targets/Cloud_STM32L431_BearPi/Drivers/STM32L4xx_HAL_Driver/Src\stm32l4xx_hal_uart.c ****       if ((huart->Init.WordLength == UART_WORDLENGTH_9B) && (huart->Init.Parity == UART_PARITY_NONE
 860              		.loc 1 1120 0
 861 0086 FB68     		ldr	r3, [r7, #12]
 862 0088 9B68     		ldr	r3, [r3, #8]
 863 008a B3F5805F 		cmp	r3, #4096
 864 008e 11D1     		bne	.L41
 865              		.loc 1 1120 0 is_stmt 0 discriminator 1
 866 0090 FB68     		ldr	r3, [r7, #12]
 867 0092 1B69     		ldr	r3, [r3, #16]
 868 0094 002B     		cmp	r3, #0
 869 0096 0DD1     		bne	.L41
1121:D:/iot/felix2/targets/Cloud_STM32L431_BearPi/Drivers/STM32L4xx_HAL_Driver/Src\stm32l4xx_hal_uart.c ****       {
1122:D:/iot/felix2/targets/Cloud_STM32L431_BearPi/Drivers/STM32L4xx_HAL_Driver/Src\stm32l4xx_hal_uart.c ****         tmp = (uint16_t *) pData;
 870              		.loc 1 1122 0 is_stmt 1
 871 0098 BB68     		ldr	r3, [r7, #8]
 872 009a 3B61     		str	r3, [r7, #16]
1123:D:/iot/felix2/targets/Cloud_STM32L431_BearPi/Drivers/STM32L4xx_HAL_Driver/Src\stm32l4xx_hal_uart.c ****         huart->Instance->TDR = (*tmp & (uint16_t)0x01FFU);
 873              		.loc 1 1123 0
 874 009c 3B69     		ldr	r3, [r7, #16]
 875 009e 1A88     		ldrh	r2, [r3]
 876 00a0 FB68     		ldr	r3, [r7, #12]
 877 00a2 1B68     		ldr	r3, [r3]
 878 00a4 C2F30802 		ubfx	r2, r2, #0, #9
 879 00a8 92B2     		uxth	r2, r2
 880 00aa 1A85     		strh	r2, [r3, #40]	@ movhi
1124:D:/iot/felix2/targets/Cloud_STM32L431_BearPi/Drivers/STM32L4xx_HAL_Driver/Src\stm32l4xx_hal_uart.c ****         pData += 2U;
 881              		.loc 1 1124 0
 882 00ac BB68     		ldr	r3, [r7, #8]
 883 00ae 0233     		adds	r3, r3, #2
 884 00b0 BB60     		str	r3, [r7, #8]
 885 00b2 07E0     		b	.L42
 886              	.L41:
ARM GAS  C:\Users\91458\AppData\Local\Temp\ccrpKNIe.s 			page 36


1125:D:/iot/felix2/targets/Cloud_STM32L431_BearPi/Drivers/STM32L4xx_HAL_Driver/Src\stm32l4xx_hal_uart.c ****       }
1126:D:/iot/felix2/targets/Cloud_STM32L431_BearPi/Drivers/STM32L4xx_HAL_Driver/Src\stm32l4xx_hal_uart.c ****       else
1127:D:/iot/felix2/targets/Cloud_STM32L431_BearPi/Drivers/STM32L4xx_HAL_Driver/Src\stm32l4xx_hal_uart.c ****       {
1128:D:/iot/felix2/targets/Cloud_STM32L431_BearPi/Drivers/STM32L4xx_HAL_Driver/Src\stm32l4xx_hal_uart.c ****         huart->Instance->TDR = (*pData++ & (uint8_t)0xFFU);
 887              		.loc 1 1128 0
 888 00b4 BB68     		ldr	r3, [r7, #8]
 889 00b6 5A1C     		adds	r2, r3, #1
 890 00b8 BA60     		str	r2, [r7, #8]
 891 00ba 1A78     		ldrb	r2, [r3]	@ zero_extendqisi2
 892 00bc FB68     		ldr	r3, [r7, #12]
 893 00be 1B68     		ldr	r3, [r3]
 894 00c0 92B2     		uxth	r2, r2
 895 00c2 1A85     		strh	r2, [r3, #40]	@ movhi
 896              	.L42:
1129:D:/iot/felix2/targets/Cloud_STM32L431_BearPi/Drivers/STM32L4xx_HAL_Driver/Src\stm32l4xx_hal_uart.c ****       }
1130:D:/iot/felix2/targets/Cloud_STM32L431_BearPi/Drivers/STM32L4xx_HAL_Driver/Src\stm32l4xx_hal_uart.c ****       huart->TxXferCount--;
 897              		.loc 1 1130 0
 898 00c4 FB68     		ldr	r3, [r7, #12]
 899 00c6 B3F85230 		ldrh	r3, [r3, #82]	@ movhi
 900 00ca 9BB2     		uxth	r3, r3
 901 00cc 013B     		subs	r3, r3, #1
 902 00ce 9AB2     		uxth	r2, r3
 903 00d0 FB68     		ldr	r3, [r7, #12]
 904 00d2 A3F85220 		strh	r2, [r3, #82]	@ movhi
 905              	.L39:
1114:D:/iot/felix2/targets/Cloud_STM32L431_BearPi/Drivers/STM32L4xx_HAL_Driver/Src\stm32l4xx_hal_uart.c ****     {
 906              		.loc 1 1114 0
 907 00d6 FB68     		ldr	r3, [r7, #12]
 908 00d8 B3F85230 		ldrh	r3, [r3, #82]	@ movhi
 909 00dc 9BB2     		uxth	r3, r3
 910 00de 002B     		cmp	r3, #0
 911 00e0 C4D1     		bne	.L43
1131:D:/iot/felix2/targets/Cloud_STM32L431_BearPi/Drivers/STM32L4xx_HAL_Driver/Src\stm32l4xx_hal_uart.c ****     }
1132:D:/iot/felix2/targets/Cloud_STM32L431_BearPi/Drivers/STM32L4xx_HAL_Driver/Src\stm32l4xx_hal_uart.c **** 
1133:D:/iot/felix2/targets/Cloud_STM32L431_BearPi/Drivers/STM32L4xx_HAL_Driver/Src\stm32l4xx_hal_uart.c ****     if (UART_WaitOnFlagUntilTimeout(huart, UART_FLAG_TC, RESET, tickstart, Timeout) != HAL_OK)
 912              		.loc 1 1133 0
 913 00e2 3B68     		ldr	r3, [r7]
 914 00e4 0093     		str	r3, [sp]
 915 00e6 7B69     		ldr	r3, [r7, #20]
 916 00e8 0022     		movs	r2, #0
 917 00ea 4021     		movs	r1, #64
 918 00ec F868     		ldr	r0, [r7, #12]
 919 00ee FFF7FEFF 		bl	UART_WaitOnFlagUntilTimeout
 920 00f2 0346     		mov	r3, r0
 921 00f4 002B     		cmp	r3, #0
 922 00f6 01D0     		beq	.L44
1134:D:/iot/felix2/targets/Cloud_STM32L431_BearPi/Drivers/STM32L4xx_HAL_Driver/Src\stm32l4xx_hal_uart.c ****     {
1135:D:/iot/felix2/targets/Cloud_STM32L431_BearPi/Drivers/STM32L4xx_HAL_Driver/Src\stm32l4xx_hal_uart.c ****       return HAL_TIMEOUT;
 923              		.loc 1 1135 0
 924 00f8 0323     		movs	r3, #3
 925 00fa 0AE0     		b	.L37
 926              	.L44:
1136:D:/iot/felix2/targets/Cloud_STM32L431_BearPi/Drivers/STM32L4xx_HAL_Driver/Src\stm32l4xx_hal_uart.c ****     }
1137:D:/iot/felix2/targets/Cloud_STM32L431_BearPi/Drivers/STM32L4xx_HAL_Driver/Src\stm32l4xx_hal_uart.c **** 
1138:D:/iot/felix2/targets/Cloud_STM32L431_BearPi/Drivers/STM32L4xx_HAL_Driver/Src\stm32l4xx_hal_uart.c ****     /* At end of Tx process, restore huart->gState to Ready */
1139:D:/iot/felix2/targets/Cloud_STM32L431_BearPi/Drivers/STM32L4xx_HAL_Driver/Src\stm32l4xx_hal_uart.c ****     huart->gState = HAL_UART_STATE_READY;
 927              		.loc 1 1139 0
ARM GAS  C:\Users\91458\AppData\Local\Temp\ccrpKNIe.s 			page 37


 928 00fc FB68     		ldr	r3, [r7, #12]
 929 00fe 2022     		movs	r2, #32
 930 0100 83F87120 		strb	r2, [r3, #113]
1140:D:/iot/felix2/targets/Cloud_STM32L431_BearPi/Drivers/STM32L4xx_HAL_Driver/Src\stm32l4xx_hal_uart.c **** 
1141:D:/iot/felix2/targets/Cloud_STM32L431_BearPi/Drivers/STM32L4xx_HAL_Driver/Src\stm32l4xx_hal_uart.c ****     /* Process Unlocked */
1142:D:/iot/felix2/targets/Cloud_STM32L431_BearPi/Drivers/STM32L4xx_HAL_Driver/Src\stm32l4xx_hal_uart.c ****     __HAL_UNLOCK(huart);
 931              		.loc 1 1142 0
 932 0104 FB68     		ldr	r3, [r7, #12]
 933 0106 0022     		movs	r2, #0
 934 0108 83F87020 		strb	r2, [r3, #112]
1143:D:/iot/felix2/targets/Cloud_STM32L431_BearPi/Drivers/STM32L4xx_HAL_Driver/Src\stm32l4xx_hal_uart.c **** 
1144:D:/iot/felix2/targets/Cloud_STM32L431_BearPi/Drivers/STM32L4xx_HAL_Driver/Src\stm32l4xx_hal_uart.c ****     return HAL_OK;
 935              		.loc 1 1144 0
 936 010c 0023     		movs	r3, #0
 937 010e 00E0     		b	.L37
 938              	.L34:
1145:D:/iot/felix2/targets/Cloud_STM32L431_BearPi/Drivers/STM32L4xx_HAL_Driver/Src\stm32l4xx_hal_uart.c ****   }
1146:D:/iot/felix2/targets/Cloud_STM32L431_BearPi/Drivers/STM32L4xx_HAL_Driver/Src\stm32l4xx_hal_uart.c ****   else
1147:D:/iot/felix2/targets/Cloud_STM32L431_BearPi/Drivers/STM32L4xx_HAL_Driver/Src\stm32l4xx_hal_uart.c ****   {
1148:D:/iot/felix2/targets/Cloud_STM32L431_BearPi/Drivers/STM32L4xx_HAL_Driver/Src\stm32l4xx_hal_uart.c ****     return HAL_BUSY;
 939              		.loc 1 1148 0
 940 0110 0223     		movs	r3, #2
 941              	.L37:
1149:D:/iot/felix2/targets/Cloud_STM32L431_BearPi/Drivers/STM32L4xx_HAL_Driver/Src\stm32l4xx_hal_uart.c ****   }
1150:D:/iot/felix2/targets/Cloud_STM32L431_BearPi/Drivers/STM32L4xx_HAL_Driver/Src\stm32l4xx_hal_uart.c **** }
 942              		.loc 1 1150 0
 943 0112 1846     		mov	r0, r3
 944 0114 1837     		adds	r7, r7, #24
 945              	.LCFI40:
 946              		.cfi_def_cfa_offset 8
 947 0116 BD46     		mov	sp, r7
 948              	.LCFI41:
 949              		.cfi_def_cfa_register 13
 950              		@ sp needed
 951 0118 80BD     		pop	{r7, pc}
 952              		.cfi_endproc
 953              	.LFE140:
 955              		.section	.text.HAL_UART_Receive,"ax",%progbits
 956              		.align	1
 957              		.global	HAL_UART_Receive
 958              		.syntax unified
 959              		.thumb
 960              		.thumb_func
 961              		.fpu fpv4-sp-d16
 963              	HAL_UART_Receive:
 964              	.LFB141:
1151:D:/iot/felix2/targets/Cloud_STM32L431_BearPi/Drivers/STM32L4xx_HAL_Driver/Src\stm32l4xx_hal_uart.c **** 
1152:D:/iot/felix2/targets/Cloud_STM32L431_BearPi/Drivers/STM32L4xx_HAL_Driver/Src\stm32l4xx_hal_uart.c **** /**
1153:D:/iot/felix2/targets/Cloud_STM32L431_BearPi/Drivers/STM32L4xx_HAL_Driver/Src\stm32l4xx_hal_uart.c ****   * @brief Receive an amount of data in blocking mode.
1154:D:/iot/felix2/targets/Cloud_STM32L431_BearPi/Drivers/STM32L4xx_HAL_Driver/Src\stm32l4xx_hal_uart.c ****   * @note When FIFO mode is enabled, the RXFNE flag is set as long as the RXFIFO
1155:D:/iot/felix2/targets/Cloud_STM32L431_BearPi/Drivers/STM32L4xx_HAL_Driver/Src\stm32l4xx_hal_uart.c ****   *       is not empty. Read operations from the RDR register are performed when
1156:D:/iot/felix2/targets/Cloud_STM32L431_BearPi/Drivers/STM32L4xx_HAL_Driver/Src\stm32l4xx_hal_uart.c ****   *       RXFNE flag is set. From hardware perspective, RXFNE flag and
1157:D:/iot/felix2/targets/Cloud_STM32L431_BearPi/Drivers/STM32L4xx_HAL_Driver/Src\stm32l4xx_hal_uart.c ****   *       RXNE are mapped on the same bit-field.
1158:D:/iot/felix2/targets/Cloud_STM32L431_BearPi/Drivers/STM32L4xx_HAL_Driver/Src\stm32l4xx_hal_uart.c ****   * @param huart   UART handle.
1159:D:/iot/felix2/targets/Cloud_STM32L431_BearPi/Drivers/STM32L4xx_HAL_Driver/Src\stm32l4xx_hal_uart.c ****   * @param pData   Pointer to data buffer.
1160:D:/iot/felix2/targets/Cloud_STM32L431_BearPi/Drivers/STM32L4xx_HAL_Driver/Src\stm32l4xx_hal_uart.c ****   * @param Size    Amount of data to be received.
1161:D:/iot/felix2/targets/Cloud_STM32L431_BearPi/Drivers/STM32L4xx_HAL_Driver/Src\stm32l4xx_hal_uart.c ****   * @param Timeout Timeout duration.
ARM GAS  C:\Users\91458\AppData\Local\Temp\ccrpKNIe.s 			page 38


1162:D:/iot/felix2/targets/Cloud_STM32L431_BearPi/Drivers/STM32L4xx_HAL_Driver/Src\stm32l4xx_hal_uart.c ****   * @retval HAL status
1163:D:/iot/felix2/targets/Cloud_STM32L431_BearPi/Drivers/STM32L4xx_HAL_Driver/Src\stm32l4xx_hal_uart.c ****   */
1164:D:/iot/felix2/targets/Cloud_STM32L431_BearPi/Drivers/STM32L4xx_HAL_Driver/Src\stm32l4xx_hal_uart.c **** HAL_StatusTypeDef HAL_UART_Receive(UART_HandleTypeDef *huart, uint8_t *pData, uint16_t Size, uint32
1165:D:/iot/felix2/targets/Cloud_STM32L431_BearPi/Drivers/STM32L4xx_HAL_Driver/Src\stm32l4xx_hal_uart.c **** {
 965              		.loc 1 1165 0
 966              		.cfi_startproc
 967              		@ args = 0, pretend = 0, frame = 32
 968              		@ frame_needed = 1, uses_anonymous_args = 0
 969 0000 80B5     		push	{r7, lr}
 970              	.LCFI42:
 971              		.cfi_def_cfa_offset 8
 972              		.cfi_offset 7, -8
 973              		.cfi_offset 14, -4
 974 0002 8AB0     		sub	sp, sp, #40
 975              	.LCFI43:
 976              		.cfi_def_cfa_offset 48
 977 0004 02AF     		add	r7, sp, #8
 978              	.LCFI44:
 979              		.cfi_def_cfa 7, 40
 980 0006 F860     		str	r0, [r7, #12]
 981 0008 B960     		str	r1, [r7, #8]
 982 000a 3B60     		str	r3, [r7]
 983 000c 1346     		mov	r3, r2	@ movhi
 984 000e FB80     		strh	r3, [r7, #6]	@ movhi
1166:D:/iot/felix2/targets/Cloud_STM32L431_BearPi/Drivers/STM32L4xx_HAL_Driver/Src\stm32l4xx_hal_uart.c ****   uint16_t *tmp;
1167:D:/iot/felix2/targets/Cloud_STM32L431_BearPi/Drivers/STM32L4xx_HAL_Driver/Src\stm32l4xx_hal_uart.c ****   uint16_t uhMask;
1168:D:/iot/felix2/targets/Cloud_STM32L431_BearPi/Drivers/STM32L4xx_HAL_Driver/Src\stm32l4xx_hal_uart.c ****   uint32_t tickstart = 0;
 985              		.loc 1 1168 0
 986 0010 0023     		movs	r3, #0
 987 0012 FB61     		str	r3, [r7, #28]
1169:D:/iot/felix2/targets/Cloud_STM32L431_BearPi/Drivers/STM32L4xx_HAL_Driver/Src\stm32l4xx_hal_uart.c **** 
1170:D:/iot/felix2/targets/Cloud_STM32L431_BearPi/Drivers/STM32L4xx_HAL_Driver/Src\stm32l4xx_hal_uart.c ****   /* Check that a Rx process is not already ongoing */
1171:D:/iot/felix2/targets/Cloud_STM32L431_BearPi/Drivers/STM32L4xx_HAL_Driver/Src\stm32l4xx_hal_uart.c ****   if (huart->RxState == HAL_UART_STATE_READY)
 988              		.loc 1 1171 0
 989 0014 FB68     		ldr	r3, [r7, #12]
 990 0016 93F87230 		ldrb	r3, [r3, #114]
 991 001a DBB2     		uxtb	r3, r3
 992 001c 202B     		cmp	r3, #32
 993 001e 40F0AD80 		bne	.L46
1172:D:/iot/felix2/targets/Cloud_STM32L431_BearPi/Drivers/STM32L4xx_HAL_Driver/Src\stm32l4xx_hal_uart.c ****   {
1173:D:/iot/felix2/targets/Cloud_STM32L431_BearPi/Drivers/STM32L4xx_HAL_Driver/Src\stm32l4xx_hal_uart.c ****     if ((pData == NULL) || (Size == 0U))
 994              		.loc 1 1173 0
 995 0022 BB68     		ldr	r3, [r7, #8]
 996 0024 002B     		cmp	r3, #0
 997 0026 02D0     		beq	.L47
 998              		.loc 1 1173 0 is_stmt 0 discriminator 1
 999 0028 FB88     		ldrh	r3, [r7, #6]
 1000 002a 002B     		cmp	r3, #0
 1001 002c 01D1     		bne	.L48
 1002              	.L47:
1174:D:/iot/felix2/targets/Cloud_STM32L431_BearPi/Drivers/STM32L4xx_HAL_Driver/Src\stm32l4xx_hal_uart.c ****     {
1175:D:/iot/felix2/targets/Cloud_STM32L431_BearPi/Drivers/STM32L4xx_HAL_Driver/Src\stm32l4xx_hal_uart.c ****       return  HAL_ERROR;
 1003              		.loc 1 1175 0 is_stmt 1
 1004 002e 0123     		movs	r3, #1
 1005 0030 A5E0     		b	.L49
 1006              	.L48:
1176:D:/iot/felix2/targets/Cloud_STM32L431_BearPi/Drivers/STM32L4xx_HAL_Driver/Src\stm32l4xx_hal_uart.c ****     }
ARM GAS  C:\Users\91458\AppData\Local\Temp\ccrpKNIe.s 			page 39


1177:D:/iot/felix2/targets/Cloud_STM32L431_BearPi/Drivers/STM32L4xx_HAL_Driver/Src\stm32l4xx_hal_uart.c **** 
1178:D:/iot/felix2/targets/Cloud_STM32L431_BearPi/Drivers/STM32L4xx_HAL_Driver/Src\stm32l4xx_hal_uart.c ****     /* Process Locked */
1179:D:/iot/felix2/targets/Cloud_STM32L431_BearPi/Drivers/STM32L4xx_HAL_Driver/Src\stm32l4xx_hal_uart.c ****     __HAL_LOCK(huart);
 1007              		.loc 1 1179 0
 1008 0032 FB68     		ldr	r3, [r7, #12]
 1009 0034 93F87030 		ldrb	r3, [r3, #112]	@ zero_extendqisi2
 1010 0038 012B     		cmp	r3, #1
 1011 003a 01D1     		bne	.L50
 1012              		.loc 1 1179 0 is_stmt 0 discriminator 1
 1013 003c 0223     		movs	r3, #2
 1014 003e 9EE0     		b	.L49
 1015              	.L50:
 1016              		.loc 1 1179 0 discriminator 2
 1017 0040 FB68     		ldr	r3, [r7, #12]
 1018 0042 0122     		movs	r2, #1
 1019 0044 83F87020 		strb	r2, [r3, #112]
1180:D:/iot/felix2/targets/Cloud_STM32L431_BearPi/Drivers/STM32L4xx_HAL_Driver/Src\stm32l4xx_hal_uart.c **** 
1181:D:/iot/felix2/targets/Cloud_STM32L431_BearPi/Drivers/STM32L4xx_HAL_Driver/Src\stm32l4xx_hal_uart.c ****     huart->ErrorCode = HAL_UART_ERROR_NONE;
 1020              		.loc 1 1181 0 is_stmt 1 discriminator 2
 1021 0048 FB68     		ldr	r3, [r7, #12]
 1022 004a 0022     		movs	r2, #0
 1023 004c 5A67     		str	r2, [r3, #116]
1182:D:/iot/felix2/targets/Cloud_STM32L431_BearPi/Drivers/STM32L4xx_HAL_Driver/Src\stm32l4xx_hal_uart.c ****     huart->RxState = HAL_UART_STATE_BUSY_RX;
 1024              		.loc 1 1182 0 discriminator 2
 1025 004e FB68     		ldr	r3, [r7, #12]
 1026 0050 2222     		movs	r2, #34
 1027 0052 83F87220 		strb	r2, [r3, #114]
1183:D:/iot/felix2/targets/Cloud_STM32L431_BearPi/Drivers/STM32L4xx_HAL_Driver/Src\stm32l4xx_hal_uart.c **** 
1184:D:/iot/felix2/targets/Cloud_STM32L431_BearPi/Drivers/STM32L4xx_HAL_Driver/Src\stm32l4xx_hal_uart.c ****     /* Init tickstart for timeout managment*/
1185:D:/iot/felix2/targets/Cloud_STM32L431_BearPi/Drivers/STM32L4xx_HAL_Driver/Src\stm32l4xx_hal_uart.c ****     tickstart = HAL_GetTick();
 1028              		.loc 1 1185 0 discriminator 2
 1029 0056 FFF7FEFF 		bl	HAL_GetTick
 1030 005a F861     		str	r0, [r7, #28]
1186:D:/iot/felix2/targets/Cloud_STM32L431_BearPi/Drivers/STM32L4xx_HAL_Driver/Src\stm32l4xx_hal_uart.c **** 
1187:D:/iot/felix2/targets/Cloud_STM32L431_BearPi/Drivers/STM32L4xx_HAL_Driver/Src\stm32l4xx_hal_uart.c ****     huart->RxXferSize  = Size;
 1031              		.loc 1 1187 0 discriminator 2
 1032 005c FB68     		ldr	r3, [r7, #12]
 1033 005e FA88     		ldrh	r2, [r7, #6]	@ movhi
 1034 0060 A3F85820 		strh	r2, [r3, #88]	@ movhi
1188:D:/iot/felix2/targets/Cloud_STM32L431_BearPi/Drivers/STM32L4xx_HAL_Driver/Src\stm32l4xx_hal_uart.c ****     huart->RxXferCount = Size;
 1035              		.loc 1 1188 0 discriminator 2
 1036 0064 FB68     		ldr	r3, [r7, #12]
 1037 0066 FA88     		ldrh	r2, [r7, #6]	@ movhi
 1038 0068 A3F85A20 		strh	r2, [r3, #90]	@ movhi
1189:D:/iot/felix2/targets/Cloud_STM32L431_BearPi/Drivers/STM32L4xx_HAL_Driver/Src\stm32l4xx_hal_uart.c **** 
1190:D:/iot/felix2/targets/Cloud_STM32L431_BearPi/Drivers/STM32L4xx_HAL_Driver/Src\stm32l4xx_hal_uart.c ****     /* Computation of UART mask to apply to RDR register */
1191:D:/iot/felix2/targets/Cloud_STM32L431_BearPi/Drivers/STM32L4xx_HAL_Driver/Src\stm32l4xx_hal_uart.c ****     UART_MASK_COMPUTATION(huart);
 1039              		.loc 1 1191 0 discriminator 2
 1040 006c FB68     		ldr	r3, [r7, #12]
 1041 006e 9B68     		ldr	r3, [r3, #8]
 1042 0070 B3F5805F 		cmp	r3, #4096
 1043 0074 0ED1     		bne	.L51
 1044              		.loc 1 1191 0 is_stmt 0 discriminator 1
 1045 0076 FB68     		ldr	r3, [r7, #12]
 1046 0078 1B69     		ldr	r3, [r3, #16]
 1047 007a 002B     		cmp	r3, #0
 1048 007c 05D1     		bne	.L52
ARM GAS  C:\Users\91458\AppData\Local\Temp\ccrpKNIe.s 			page 40


 1049              		.loc 1 1191 0 discriminator 3
 1050 007e FB68     		ldr	r3, [r7, #12]
 1051 0080 40F2FF12 		movw	r2, #511
 1052 0084 A3F85C20 		strh	r2, [r3, #92]	@ movhi
 1053 0088 28E0     		b	.L54
 1054              	.L52:
 1055              		.loc 1 1191 0 discriminator 4
 1056 008a FB68     		ldr	r3, [r7, #12]
 1057 008c FF22     		movs	r2, #255
 1058 008e A3F85C20 		strh	r2, [r3, #92]	@ movhi
 1059 0092 23E0     		b	.L54
 1060              	.L51:
 1061              		.loc 1 1191 0 discriminator 2
 1062 0094 FB68     		ldr	r3, [r7, #12]
 1063 0096 9B68     		ldr	r3, [r3, #8]
 1064 0098 002B     		cmp	r3, #0
 1065 009a 0DD1     		bne	.L55
 1066              		.loc 1 1191 0 discriminator 5
 1067 009c FB68     		ldr	r3, [r7, #12]
 1068 009e 1B69     		ldr	r3, [r3, #16]
 1069 00a0 002B     		cmp	r3, #0
 1070 00a2 04D1     		bne	.L56
 1071              		.loc 1 1191 0 discriminator 7
 1072 00a4 FB68     		ldr	r3, [r7, #12]
 1073 00a6 FF22     		movs	r2, #255
 1074 00a8 A3F85C20 		strh	r2, [r3, #92]	@ movhi
 1075 00ac 16E0     		b	.L54
 1076              	.L56:
 1077              		.loc 1 1191 0 discriminator 8
 1078 00ae FB68     		ldr	r3, [r7, #12]
 1079 00b0 7F22     		movs	r2, #127
 1080 00b2 A3F85C20 		strh	r2, [r3, #92]	@ movhi
 1081 00b6 11E0     		b	.L54
 1082              	.L55:
 1083              		.loc 1 1191 0 discriminator 6
 1084 00b8 FB68     		ldr	r3, [r7, #12]
 1085 00ba 9B68     		ldr	r3, [r3, #8]
 1086 00bc B3F1805F 		cmp	r3, #268435456
 1087 00c0 0CD1     		bne	.L54
 1088              		.loc 1 1191 0 discriminator 9
 1089 00c2 FB68     		ldr	r3, [r7, #12]
 1090 00c4 1B69     		ldr	r3, [r3, #16]
 1091 00c6 002B     		cmp	r3, #0
 1092 00c8 04D1     		bne	.L58
 1093              		.loc 1 1191 0 discriminator 10
 1094 00ca FB68     		ldr	r3, [r7, #12]
 1095 00cc 7F22     		movs	r2, #127
 1096 00ce A3F85C20 		strh	r2, [r3, #92]	@ movhi
 1097 00d2 03E0     		b	.L54
 1098              	.L58:
 1099              		.loc 1 1191 0 discriminator 11
 1100 00d4 FB68     		ldr	r3, [r7, #12]
 1101 00d6 3F22     		movs	r2, #63
 1102 00d8 A3F85C20 		strh	r2, [r3, #92]	@ movhi
 1103              	.L54:
1192:D:/iot/felix2/targets/Cloud_STM32L431_BearPi/Drivers/STM32L4xx_HAL_Driver/Src\stm32l4xx_hal_uart.c ****     uhMask = huart->Mask;
 1104              		.loc 1 1192 0 is_stmt 1
ARM GAS  C:\Users\91458\AppData\Local\Temp\ccrpKNIe.s 			page 41


 1105 00dc FB68     		ldr	r3, [r7, #12]
 1106 00de B3F85C30 		ldrh	r3, [r3, #92]	@ movhi
 1107 00e2 7B83     		strh	r3, [r7, #26]	@ movhi
1193:D:/iot/felix2/targets/Cloud_STM32L431_BearPi/Drivers/STM32L4xx_HAL_Driver/Src\stm32l4xx_hal_uart.c **** 
1194:D:/iot/felix2/targets/Cloud_STM32L431_BearPi/Drivers/STM32L4xx_HAL_Driver/Src\stm32l4xx_hal_uart.c ****     /* as long as data have to be received */
1195:D:/iot/felix2/targets/Cloud_STM32L431_BearPi/Drivers/STM32L4xx_HAL_Driver/Src\stm32l4xx_hal_uart.c ****     while (huart->RxXferCount > 0U)
 1108              		.loc 1 1195 0
 1109 00e4 3AE0     		b	.L59
 1110              	.L63:
1196:D:/iot/felix2/targets/Cloud_STM32L431_BearPi/Drivers/STM32L4xx_HAL_Driver/Src\stm32l4xx_hal_uart.c ****     {
1197:D:/iot/felix2/targets/Cloud_STM32L431_BearPi/Drivers/STM32L4xx_HAL_Driver/Src\stm32l4xx_hal_uart.c ****       if (UART_WaitOnFlagUntilTimeout(huart, UART_FLAG_RXNE, RESET, tickstart, Timeout) != HAL_OK)
 1111              		.loc 1 1197 0
 1112 00e6 3B68     		ldr	r3, [r7]
 1113 00e8 0093     		str	r3, [sp]
 1114 00ea FB69     		ldr	r3, [r7, #28]
 1115 00ec 0022     		movs	r2, #0
 1116 00ee 2021     		movs	r1, #32
 1117 00f0 F868     		ldr	r0, [r7, #12]
 1118 00f2 FFF7FEFF 		bl	UART_WaitOnFlagUntilTimeout
 1119 00f6 0346     		mov	r3, r0
 1120 00f8 002B     		cmp	r3, #0
 1121 00fa 01D0     		beq	.L60
1198:D:/iot/felix2/targets/Cloud_STM32L431_BearPi/Drivers/STM32L4xx_HAL_Driver/Src\stm32l4xx_hal_uart.c ****       {
1199:D:/iot/felix2/targets/Cloud_STM32L431_BearPi/Drivers/STM32L4xx_HAL_Driver/Src\stm32l4xx_hal_uart.c ****         return HAL_TIMEOUT;
 1122              		.loc 1 1199 0
 1123 00fc 0323     		movs	r3, #3
 1124 00fe 3EE0     		b	.L49
 1125              	.L60:
1200:D:/iot/felix2/targets/Cloud_STM32L431_BearPi/Drivers/STM32L4xx_HAL_Driver/Src\stm32l4xx_hal_uart.c ****       }
1201:D:/iot/felix2/targets/Cloud_STM32L431_BearPi/Drivers/STM32L4xx_HAL_Driver/Src\stm32l4xx_hal_uart.c ****       if ((huart->Init.WordLength == UART_WORDLENGTH_9B) && (huart->Init.Parity == UART_PARITY_NONE
 1126              		.loc 1 1201 0
 1127 0100 FB68     		ldr	r3, [r7, #12]
 1128 0102 9B68     		ldr	r3, [r3, #8]
 1129 0104 B3F5805F 		cmp	r3, #4096
 1130 0108 12D1     		bne	.L61
 1131              		.loc 1 1201 0 is_stmt 0 discriminator 1
 1132 010a FB68     		ldr	r3, [r7, #12]
 1133 010c 1B69     		ldr	r3, [r3, #16]
 1134 010e 002B     		cmp	r3, #0
 1135 0110 0ED1     		bne	.L61
1202:D:/iot/felix2/targets/Cloud_STM32L431_BearPi/Drivers/STM32L4xx_HAL_Driver/Src\stm32l4xx_hal_uart.c ****       {
1203:D:/iot/felix2/targets/Cloud_STM32L431_BearPi/Drivers/STM32L4xx_HAL_Driver/Src\stm32l4xx_hal_uart.c ****         tmp = (uint16_t *) pData ;
 1136              		.loc 1 1203 0 is_stmt 1
 1137 0112 BB68     		ldr	r3, [r7, #8]
 1138 0114 7B61     		str	r3, [r7, #20]
1204:D:/iot/felix2/targets/Cloud_STM32L431_BearPi/Drivers/STM32L4xx_HAL_Driver/Src\stm32l4xx_hal_uart.c ****         *tmp = (uint16_t)(huart->Instance->RDR & uhMask);
 1139              		.loc 1 1204 0
 1140 0116 FB68     		ldr	r3, [r7, #12]
 1141 0118 1B68     		ldr	r3, [r3]
 1142 011a 9B8C     		ldrh	r3, [r3, #36]	@ movhi
 1143 011c 9AB2     		uxth	r2, r3
 1144 011e 7B8B     		ldrh	r3, [r7, #26]	@ movhi
 1145 0120 1340     		ands	r3, r3, r2
 1146 0122 9AB2     		uxth	r2, r3
 1147 0124 7B69     		ldr	r3, [r7, #20]
 1148 0126 1A80     		strh	r2, [r3]	@ movhi
1205:D:/iot/felix2/targets/Cloud_STM32L431_BearPi/Drivers/STM32L4xx_HAL_Driver/Src\stm32l4xx_hal_uart.c ****         pData += 2U;
ARM GAS  C:\Users\91458\AppData\Local\Temp\ccrpKNIe.s 			page 42


 1149              		.loc 1 1205 0
 1150 0128 BB68     		ldr	r3, [r7, #8]
 1151 012a 0233     		adds	r3, r3, #2
 1152 012c BB60     		str	r3, [r7, #8]
 1153 012e 0CE0     		b	.L62
 1154              	.L61:
1206:D:/iot/felix2/targets/Cloud_STM32L431_BearPi/Drivers/STM32L4xx_HAL_Driver/Src\stm32l4xx_hal_uart.c ****       }
1207:D:/iot/felix2/targets/Cloud_STM32L431_BearPi/Drivers/STM32L4xx_HAL_Driver/Src\stm32l4xx_hal_uart.c ****       else
1208:D:/iot/felix2/targets/Cloud_STM32L431_BearPi/Drivers/STM32L4xx_HAL_Driver/Src\stm32l4xx_hal_uart.c ****       {
1209:D:/iot/felix2/targets/Cloud_STM32L431_BearPi/Drivers/STM32L4xx_HAL_Driver/Src\stm32l4xx_hal_uart.c ****         *pData++ = (uint8_t)(huart->Instance->RDR & (uint8_t)uhMask);
 1155              		.loc 1 1209 0
 1156 0130 FB68     		ldr	r3, [r7, #12]
 1157 0132 1B68     		ldr	r3, [r3]
 1158 0134 9B8C     		ldrh	r3, [r3, #36]	@ movhi
 1159 0136 9BB2     		uxth	r3, r3
 1160 0138 D9B2     		uxtb	r1, r3
 1161 013a 7B8B     		ldrh	r3, [r7, #26]	@ movhi
 1162 013c DAB2     		uxtb	r2, r3
 1163 013e BB68     		ldr	r3, [r7, #8]
 1164 0140 581C     		adds	r0, r3, #1
 1165 0142 B860     		str	r0, [r7, #8]
 1166 0144 0A40     		ands	r2, r2, r1
 1167 0146 D2B2     		uxtb	r2, r2
 1168 0148 1A70     		strb	r2, [r3]
 1169              	.L62:
1210:D:/iot/felix2/targets/Cloud_STM32L431_BearPi/Drivers/STM32L4xx_HAL_Driver/Src\stm32l4xx_hal_uart.c ****       }
1211:D:/iot/felix2/targets/Cloud_STM32L431_BearPi/Drivers/STM32L4xx_HAL_Driver/Src\stm32l4xx_hal_uart.c ****       huart->RxXferCount--;
 1170              		.loc 1 1211 0
 1171 014a FB68     		ldr	r3, [r7, #12]
 1172 014c B3F85A30 		ldrh	r3, [r3, #90]	@ movhi
 1173 0150 9BB2     		uxth	r3, r3
 1174 0152 013B     		subs	r3, r3, #1
 1175 0154 9AB2     		uxth	r2, r3
 1176 0156 FB68     		ldr	r3, [r7, #12]
 1177 0158 A3F85A20 		strh	r2, [r3, #90]	@ movhi
 1178              	.L59:
1195:D:/iot/felix2/targets/Cloud_STM32L431_BearPi/Drivers/STM32L4xx_HAL_Driver/Src\stm32l4xx_hal_uart.c ****     {
 1179              		.loc 1 1195 0
 1180 015c FB68     		ldr	r3, [r7, #12]
 1181 015e B3F85A30 		ldrh	r3, [r3, #90]	@ movhi
 1182 0162 9BB2     		uxth	r3, r3
 1183 0164 002B     		cmp	r3, #0
 1184 0166 BED1     		bne	.L63
1212:D:/iot/felix2/targets/Cloud_STM32L431_BearPi/Drivers/STM32L4xx_HAL_Driver/Src\stm32l4xx_hal_uart.c ****     }
1213:D:/iot/felix2/targets/Cloud_STM32L431_BearPi/Drivers/STM32L4xx_HAL_Driver/Src\stm32l4xx_hal_uart.c **** 
1214:D:/iot/felix2/targets/Cloud_STM32L431_BearPi/Drivers/STM32L4xx_HAL_Driver/Src\stm32l4xx_hal_uart.c ****     /* At end of Rx process, restore huart->RxState to Ready */
1215:D:/iot/felix2/targets/Cloud_STM32L431_BearPi/Drivers/STM32L4xx_HAL_Driver/Src\stm32l4xx_hal_uart.c ****     huart->RxState = HAL_UART_STATE_READY;
 1185              		.loc 1 1215 0
 1186 0168 FB68     		ldr	r3, [r7, #12]
 1187 016a 2022     		movs	r2, #32
 1188 016c 83F87220 		strb	r2, [r3, #114]
1216:D:/iot/felix2/targets/Cloud_STM32L431_BearPi/Drivers/STM32L4xx_HAL_Driver/Src\stm32l4xx_hal_uart.c **** 
1217:D:/iot/felix2/targets/Cloud_STM32L431_BearPi/Drivers/STM32L4xx_HAL_Driver/Src\stm32l4xx_hal_uart.c ****     /* Process Unlocked */
1218:D:/iot/felix2/targets/Cloud_STM32L431_BearPi/Drivers/STM32L4xx_HAL_Driver/Src\stm32l4xx_hal_uart.c ****     __HAL_UNLOCK(huart);
 1189              		.loc 1 1218 0
 1190 0170 FB68     		ldr	r3, [r7, #12]
 1191 0172 0022     		movs	r2, #0
ARM GAS  C:\Users\91458\AppData\Local\Temp\ccrpKNIe.s 			page 43


 1192 0174 83F87020 		strb	r2, [r3, #112]
1219:D:/iot/felix2/targets/Cloud_STM32L431_BearPi/Drivers/STM32L4xx_HAL_Driver/Src\stm32l4xx_hal_uart.c **** 
1220:D:/iot/felix2/targets/Cloud_STM32L431_BearPi/Drivers/STM32L4xx_HAL_Driver/Src\stm32l4xx_hal_uart.c ****     return HAL_OK;
 1193              		.loc 1 1220 0
 1194 0178 0023     		movs	r3, #0
 1195 017a 00E0     		b	.L49
 1196              	.L46:
1221:D:/iot/felix2/targets/Cloud_STM32L431_BearPi/Drivers/STM32L4xx_HAL_Driver/Src\stm32l4xx_hal_uart.c ****   }
1222:D:/iot/felix2/targets/Cloud_STM32L431_BearPi/Drivers/STM32L4xx_HAL_Driver/Src\stm32l4xx_hal_uart.c ****   else
1223:D:/iot/felix2/targets/Cloud_STM32L431_BearPi/Drivers/STM32L4xx_HAL_Driver/Src\stm32l4xx_hal_uart.c ****   {
1224:D:/iot/felix2/targets/Cloud_STM32L431_BearPi/Drivers/STM32L4xx_HAL_Driver/Src\stm32l4xx_hal_uart.c ****     return HAL_BUSY;
 1197              		.loc 1 1224 0
 1198 017c 0223     		movs	r3, #2
 1199              	.L49:
1225:D:/iot/felix2/targets/Cloud_STM32L431_BearPi/Drivers/STM32L4xx_HAL_Driver/Src\stm32l4xx_hal_uart.c ****   }
1226:D:/iot/felix2/targets/Cloud_STM32L431_BearPi/Drivers/STM32L4xx_HAL_Driver/Src\stm32l4xx_hal_uart.c **** }
 1200              		.loc 1 1226 0
 1201 017e 1846     		mov	r0, r3
 1202 0180 2037     		adds	r7, r7, #32
 1203              	.LCFI45:
 1204              		.cfi_def_cfa_offset 8
 1205 0182 BD46     		mov	sp, r7
 1206              	.LCFI46:
 1207              		.cfi_def_cfa_register 13
 1208              		@ sp needed
 1209 0184 80BD     		pop	{r7, pc}
 1210              		.cfi_endproc
 1211              	.LFE141:
 1213              		.section	.text.HAL_UART_Transmit_IT,"ax",%progbits
 1214              		.align	1
 1215              		.global	HAL_UART_Transmit_IT
 1216              		.syntax unified
 1217              		.thumb
 1218              		.thumb_func
 1219              		.fpu fpv4-sp-d16
 1221              	HAL_UART_Transmit_IT:
 1222              	.LFB142:
1227:D:/iot/felix2/targets/Cloud_STM32L431_BearPi/Drivers/STM32L4xx_HAL_Driver/Src\stm32l4xx_hal_uart.c **** 
1228:D:/iot/felix2/targets/Cloud_STM32L431_BearPi/Drivers/STM32L4xx_HAL_Driver/Src\stm32l4xx_hal_uart.c **** /**
1229:D:/iot/felix2/targets/Cloud_STM32L431_BearPi/Drivers/STM32L4xx_HAL_Driver/Src\stm32l4xx_hal_uart.c ****   * @brief Send an amount of data in interrupt mode.
1230:D:/iot/felix2/targets/Cloud_STM32L431_BearPi/Drivers/STM32L4xx_HAL_Driver/Src\stm32l4xx_hal_uart.c ****   * @param huart UART handle.
1231:D:/iot/felix2/targets/Cloud_STM32L431_BearPi/Drivers/STM32L4xx_HAL_Driver/Src\stm32l4xx_hal_uart.c ****   * @param pData Pointer to data buffer.
1232:D:/iot/felix2/targets/Cloud_STM32L431_BearPi/Drivers/STM32L4xx_HAL_Driver/Src\stm32l4xx_hal_uart.c ****   * @param Size  Amount of data to be sent.
1233:D:/iot/felix2/targets/Cloud_STM32L431_BearPi/Drivers/STM32L4xx_HAL_Driver/Src\stm32l4xx_hal_uart.c ****   * @retval HAL status
1234:D:/iot/felix2/targets/Cloud_STM32L431_BearPi/Drivers/STM32L4xx_HAL_Driver/Src\stm32l4xx_hal_uart.c ****   */
1235:D:/iot/felix2/targets/Cloud_STM32L431_BearPi/Drivers/STM32L4xx_HAL_Driver/Src\stm32l4xx_hal_uart.c **** HAL_StatusTypeDef HAL_UART_Transmit_IT(UART_HandleTypeDef *huart, uint8_t *pData, uint16_t Size)
1236:D:/iot/felix2/targets/Cloud_STM32L431_BearPi/Drivers/STM32L4xx_HAL_Driver/Src\stm32l4xx_hal_uart.c **** {
 1223              		.loc 1 1236 0
 1224              		.cfi_startproc
 1225              		@ args = 0, pretend = 0, frame = 16
 1226              		@ frame_needed = 1, uses_anonymous_args = 0
 1227              		@ link register save eliminated.
 1228 0000 80B4     		push	{r7}
 1229              	.LCFI47:
 1230              		.cfi_def_cfa_offset 4
 1231              		.cfi_offset 7, -4
 1232 0002 85B0     		sub	sp, sp, #20
ARM GAS  C:\Users\91458\AppData\Local\Temp\ccrpKNIe.s 			page 44


 1233              	.LCFI48:
 1234              		.cfi_def_cfa_offset 24
 1235 0004 00AF     		add	r7, sp, #0
 1236              	.LCFI49:
 1237              		.cfi_def_cfa_register 7
 1238 0006 F860     		str	r0, [r7, #12]
 1239 0008 B960     		str	r1, [r7, #8]
 1240 000a 1346     		mov	r3, r2
 1241 000c FB80     		strh	r3, [r7, #6]	@ movhi
1237:D:/iot/felix2/targets/Cloud_STM32L431_BearPi/Drivers/STM32L4xx_HAL_Driver/Src\stm32l4xx_hal_uart.c ****   /* Check that a Tx process is not already ongoing */
1238:D:/iot/felix2/targets/Cloud_STM32L431_BearPi/Drivers/STM32L4xx_HAL_Driver/Src\stm32l4xx_hal_uart.c ****   if (huart->gState == HAL_UART_STATE_READY)
 1242              		.loc 1 1238 0
 1243 000e FB68     		ldr	r3, [r7, #12]
 1244 0010 93F87130 		ldrb	r3, [r3, #113]
 1245 0014 DBB2     		uxtb	r3, r3
 1246 0016 202B     		cmp	r3, #32
 1247 0018 45D1     		bne	.L65
1239:D:/iot/felix2/targets/Cloud_STM32L431_BearPi/Drivers/STM32L4xx_HAL_Driver/Src\stm32l4xx_hal_uart.c ****   {
1240:D:/iot/felix2/targets/Cloud_STM32L431_BearPi/Drivers/STM32L4xx_HAL_Driver/Src\stm32l4xx_hal_uart.c ****     if ((pData == NULL) || (Size == 0U))
 1248              		.loc 1 1240 0
 1249 001a BB68     		ldr	r3, [r7, #8]
 1250 001c 002B     		cmp	r3, #0
 1251 001e 02D0     		beq	.L66
 1252              		.loc 1 1240 0 is_stmt 0 discriminator 1
 1253 0020 FB88     		ldrh	r3, [r7, #6]
 1254 0022 002B     		cmp	r3, #0
 1255 0024 01D1     		bne	.L67
 1256              	.L66:
1241:D:/iot/felix2/targets/Cloud_STM32L431_BearPi/Drivers/STM32L4xx_HAL_Driver/Src\stm32l4xx_hal_uart.c ****     {
1242:D:/iot/felix2/targets/Cloud_STM32L431_BearPi/Drivers/STM32L4xx_HAL_Driver/Src\stm32l4xx_hal_uart.c ****       return HAL_ERROR;
 1257              		.loc 1 1242 0 is_stmt 1
 1258 0026 0123     		movs	r3, #1
 1259 0028 3EE0     		b	.L68
 1260              	.L67:
1243:D:/iot/felix2/targets/Cloud_STM32L431_BearPi/Drivers/STM32L4xx_HAL_Driver/Src\stm32l4xx_hal_uart.c ****     }
1244:D:/iot/felix2/targets/Cloud_STM32L431_BearPi/Drivers/STM32L4xx_HAL_Driver/Src\stm32l4xx_hal_uart.c **** 
1245:D:/iot/felix2/targets/Cloud_STM32L431_BearPi/Drivers/STM32L4xx_HAL_Driver/Src\stm32l4xx_hal_uart.c ****     /* Process Locked */
1246:D:/iot/felix2/targets/Cloud_STM32L431_BearPi/Drivers/STM32L4xx_HAL_Driver/Src\stm32l4xx_hal_uart.c ****     __HAL_LOCK(huart);
 1261              		.loc 1 1246 0
 1262 002a FB68     		ldr	r3, [r7, #12]
 1263 002c 93F87030 		ldrb	r3, [r3, #112]	@ zero_extendqisi2
 1264 0030 012B     		cmp	r3, #1
 1265 0032 01D1     		bne	.L69
 1266              		.loc 1 1246 0 is_stmt 0 discriminator 1
 1267 0034 0223     		movs	r3, #2
 1268 0036 37E0     		b	.L68
 1269              	.L69:
 1270              		.loc 1 1246 0 discriminator 2
 1271 0038 FB68     		ldr	r3, [r7, #12]
 1272 003a 0122     		movs	r2, #1
 1273 003c 83F87020 		strb	r2, [r3, #112]
1247:D:/iot/felix2/targets/Cloud_STM32L431_BearPi/Drivers/STM32L4xx_HAL_Driver/Src\stm32l4xx_hal_uart.c **** 
1248:D:/iot/felix2/targets/Cloud_STM32L431_BearPi/Drivers/STM32L4xx_HAL_Driver/Src\stm32l4xx_hal_uart.c ****     huart->pTxBuffPtr  = pData;
 1274              		.loc 1 1248 0 is_stmt 1 discriminator 2
 1275 0040 FB68     		ldr	r3, [r7, #12]
 1276 0042 BA68     		ldr	r2, [r7, #8]
 1277 0044 DA64     		str	r2, [r3, #76]
ARM GAS  C:\Users\91458\AppData\Local\Temp\ccrpKNIe.s 			page 45


1249:D:/iot/felix2/targets/Cloud_STM32L431_BearPi/Drivers/STM32L4xx_HAL_Driver/Src\stm32l4xx_hal_uart.c ****     huart->TxXferSize  = Size;
 1278              		.loc 1 1249 0 discriminator 2
 1279 0046 FB68     		ldr	r3, [r7, #12]
 1280 0048 FA88     		ldrh	r2, [r7, #6]	@ movhi
 1281 004a A3F85020 		strh	r2, [r3, #80]	@ movhi
1250:D:/iot/felix2/targets/Cloud_STM32L431_BearPi/Drivers/STM32L4xx_HAL_Driver/Src\stm32l4xx_hal_uart.c ****     huart->TxXferCount = Size;
 1282              		.loc 1 1250 0 discriminator 2
 1283 004e FB68     		ldr	r3, [r7, #12]
 1284 0050 FA88     		ldrh	r2, [r7, #6]	@ movhi
 1285 0052 A3F85220 		strh	r2, [r3, #82]	@ movhi
1251:D:/iot/felix2/targets/Cloud_STM32L431_BearPi/Drivers/STM32L4xx_HAL_Driver/Src\stm32l4xx_hal_uart.c ****     huart->TxISR       = NULL;
 1286              		.loc 1 1251 0 discriminator 2
 1287 0056 FB68     		ldr	r3, [r7, #12]
 1288 0058 0022     		movs	r2, #0
 1289 005a 5A66     		str	r2, [r3, #100]
1252:D:/iot/felix2/targets/Cloud_STM32L431_BearPi/Drivers/STM32L4xx_HAL_Driver/Src\stm32l4xx_hal_uart.c **** 
1253:D:/iot/felix2/targets/Cloud_STM32L431_BearPi/Drivers/STM32L4xx_HAL_Driver/Src\stm32l4xx_hal_uart.c ****     huart->ErrorCode = HAL_UART_ERROR_NONE;
 1290              		.loc 1 1253 0 discriminator 2
 1291 005c FB68     		ldr	r3, [r7, #12]
 1292 005e 0022     		movs	r2, #0
 1293 0060 5A67     		str	r2, [r3, #116]
1254:D:/iot/felix2/targets/Cloud_STM32L431_BearPi/Drivers/STM32L4xx_HAL_Driver/Src\stm32l4xx_hal_uart.c ****     huart->gState = HAL_UART_STATE_BUSY_TX;
 1294              		.loc 1 1254 0 discriminator 2
 1295 0062 FB68     		ldr	r3, [r7, #12]
 1296 0064 2122     		movs	r2, #33
 1297 0066 83F87120 		strb	r2, [r3, #113]
1255:D:/iot/felix2/targets/Cloud_STM32L431_BearPi/Drivers/STM32L4xx_HAL_Driver/Src\stm32l4xx_hal_uart.c **** 
1256:D:/iot/felix2/targets/Cloud_STM32L431_BearPi/Drivers/STM32L4xx_HAL_Driver/Src\stm32l4xx_hal_uart.c **** #if defined(USART_CR1_FIFOEN)
1257:D:/iot/felix2/targets/Cloud_STM32L431_BearPi/Drivers/STM32L4xx_HAL_Driver/Src\stm32l4xx_hal_uart.c ****     /* Configure Tx interrupt processing */
1258:D:/iot/felix2/targets/Cloud_STM32L431_BearPi/Drivers/STM32L4xx_HAL_Driver/Src\stm32l4xx_hal_uart.c ****     if (huart->FifoMode == UART_FIFOMODE_ENABLE)
1259:D:/iot/felix2/targets/Cloud_STM32L431_BearPi/Drivers/STM32L4xx_HAL_Driver/Src\stm32l4xx_hal_uart.c ****     {
1260:D:/iot/felix2/targets/Cloud_STM32L431_BearPi/Drivers/STM32L4xx_HAL_Driver/Src\stm32l4xx_hal_uart.c ****       /* Set the Tx ISR function pointer according to the data word length */
1261:D:/iot/felix2/targets/Cloud_STM32L431_BearPi/Drivers/STM32L4xx_HAL_Driver/Src\stm32l4xx_hal_uart.c ****       if ((huart->Init.WordLength == UART_WORDLENGTH_9B) && (huart->Init.Parity == UART_PARITY_NONE
1262:D:/iot/felix2/targets/Cloud_STM32L431_BearPi/Drivers/STM32L4xx_HAL_Driver/Src\stm32l4xx_hal_uart.c ****       {
1263:D:/iot/felix2/targets/Cloud_STM32L431_BearPi/Drivers/STM32L4xx_HAL_Driver/Src\stm32l4xx_hal_uart.c ****         huart->TxISR = UART_TxISR_16BIT_FIFOEN;
1264:D:/iot/felix2/targets/Cloud_STM32L431_BearPi/Drivers/STM32L4xx_HAL_Driver/Src\stm32l4xx_hal_uart.c ****       }
1265:D:/iot/felix2/targets/Cloud_STM32L431_BearPi/Drivers/STM32L4xx_HAL_Driver/Src\stm32l4xx_hal_uart.c ****       else
1266:D:/iot/felix2/targets/Cloud_STM32L431_BearPi/Drivers/STM32L4xx_HAL_Driver/Src\stm32l4xx_hal_uart.c ****       {
1267:D:/iot/felix2/targets/Cloud_STM32L431_BearPi/Drivers/STM32L4xx_HAL_Driver/Src\stm32l4xx_hal_uart.c ****         huart->TxISR = UART_TxISR_8BIT_FIFOEN;
1268:D:/iot/felix2/targets/Cloud_STM32L431_BearPi/Drivers/STM32L4xx_HAL_Driver/Src\stm32l4xx_hal_uart.c ****       }
1269:D:/iot/felix2/targets/Cloud_STM32L431_BearPi/Drivers/STM32L4xx_HAL_Driver/Src\stm32l4xx_hal_uart.c **** 
1270:D:/iot/felix2/targets/Cloud_STM32L431_BearPi/Drivers/STM32L4xx_HAL_Driver/Src\stm32l4xx_hal_uart.c ****       /* Process Unlocked */
1271:D:/iot/felix2/targets/Cloud_STM32L431_BearPi/Drivers/STM32L4xx_HAL_Driver/Src\stm32l4xx_hal_uart.c ****       __HAL_UNLOCK(huart);
1272:D:/iot/felix2/targets/Cloud_STM32L431_BearPi/Drivers/STM32L4xx_HAL_Driver/Src\stm32l4xx_hal_uart.c **** 
1273:D:/iot/felix2/targets/Cloud_STM32L431_BearPi/Drivers/STM32L4xx_HAL_Driver/Src\stm32l4xx_hal_uart.c ****       /* Enable the TX FIFO threshold interrupt */
1274:D:/iot/felix2/targets/Cloud_STM32L431_BearPi/Drivers/STM32L4xx_HAL_Driver/Src\stm32l4xx_hal_uart.c ****       SET_BIT(huart->Instance->CR3, USART_CR3_TXFTIE);
1275:D:/iot/felix2/targets/Cloud_STM32L431_BearPi/Drivers/STM32L4xx_HAL_Driver/Src\stm32l4xx_hal_uart.c ****     }
1276:D:/iot/felix2/targets/Cloud_STM32L431_BearPi/Drivers/STM32L4xx_HAL_Driver/Src\stm32l4xx_hal_uart.c ****     else
1277:D:/iot/felix2/targets/Cloud_STM32L431_BearPi/Drivers/STM32L4xx_HAL_Driver/Src\stm32l4xx_hal_uart.c **** #endif
1278:D:/iot/felix2/targets/Cloud_STM32L431_BearPi/Drivers/STM32L4xx_HAL_Driver/Src\stm32l4xx_hal_uart.c ****     {
1279:D:/iot/felix2/targets/Cloud_STM32L431_BearPi/Drivers/STM32L4xx_HAL_Driver/Src\stm32l4xx_hal_uart.c ****       /* Set the Tx ISR function pointer according to the data word length */
1280:D:/iot/felix2/targets/Cloud_STM32L431_BearPi/Drivers/STM32L4xx_HAL_Driver/Src\stm32l4xx_hal_uart.c ****       if ((huart->Init.WordLength == UART_WORDLENGTH_9B) && (huart->Init.Parity == UART_PARITY_NONE
 1298              		.loc 1 1280 0 discriminator 2
 1299 006a FB68     		ldr	r3, [r7, #12]
 1300 006c 9B68     		ldr	r3, [r3, #8]
 1301 006e B3F5805F 		cmp	r3, #4096
 1302 0072 07D1     		bne	.L70
ARM GAS  C:\Users\91458\AppData\Local\Temp\ccrpKNIe.s 			page 46


 1303              		.loc 1 1280 0 is_stmt 0 discriminator 1
 1304 0074 FB68     		ldr	r3, [r7, #12]
 1305 0076 1B69     		ldr	r3, [r3, #16]
 1306 0078 002B     		cmp	r3, #0
 1307 007a 03D1     		bne	.L70
1281:D:/iot/felix2/targets/Cloud_STM32L431_BearPi/Drivers/STM32L4xx_HAL_Driver/Src\stm32l4xx_hal_uart.c ****       {
1282:D:/iot/felix2/targets/Cloud_STM32L431_BearPi/Drivers/STM32L4xx_HAL_Driver/Src\stm32l4xx_hal_uart.c ****         huart->TxISR = UART_TxISR_16BIT;
 1308              		.loc 1 1282 0 is_stmt 1
 1309 007c FB68     		ldr	r3, [r7, #12]
 1310 007e 0D4A     		ldr	r2, .L72
 1311 0080 5A66     		str	r2, [r3, #100]
 1312 0082 02E0     		b	.L71
 1313              	.L70:
1283:D:/iot/felix2/targets/Cloud_STM32L431_BearPi/Drivers/STM32L4xx_HAL_Driver/Src\stm32l4xx_hal_uart.c ****       }
1284:D:/iot/felix2/targets/Cloud_STM32L431_BearPi/Drivers/STM32L4xx_HAL_Driver/Src\stm32l4xx_hal_uart.c ****       else
1285:D:/iot/felix2/targets/Cloud_STM32L431_BearPi/Drivers/STM32L4xx_HAL_Driver/Src\stm32l4xx_hal_uart.c ****       {
1286:D:/iot/felix2/targets/Cloud_STM32L431_BearPi/Drivers/STM32L4xx_HAL_Driver/Src\stm32l4xx_hal_uart.c ****         huart->TxISR = UART_TxISR_8BIT;
 1314              		.loc 1 1286 0
 1315 0084 FB68     		ldr	r3, [r7, #12]
 1316 0086 0C4A     		ldr	r2, .L72+4
 1317 0088 5A66     		str	r2, [r3, #100]
 1318              	.L71:
1287:D:/iot/felix2/targets/Cloud_STM32L431_BearPi/Drivers/STM32L4xx_HAL_Driver/Src\stm32l4xx_hal_uart.c ****       }
1288:D:/iot/felix2/targets/Cloud_STM32L431_BearPi/Drivers/STM32L4xx_HAL_Driver/Src\stm32l4xx_hal_uart.c **** 
1289:D:/iot/felix2/targets/Cloud_STM32L431_BearPi/Drivers/STM32L4xx_HAL_Driver/Src\stm32l4xx_hal_uart.c ****       /* Process Unlocked */
1290:D:/iot/felix2/targets/Cloud_STM32L431_BearPi/Drivers/STM32L4xx_HAL_Driver/Src\stm32l4xx_hal_uart.c ****       __HAL_UNLOCK(huart);
 1319              		.loc 1 1290 0
 1320 008a FB68     		ldr	r3, [r7, #12]
 1321 008c 0022     		movs	r2, #0
 1322 008e 83F87020 		strb	r2, [r3, #112]
1291:D:/iot/felix2/targets/Cloud_STM32L431_BearPi/Drivers/STM32L4xx_HAL_Driver/Src\stm32l4xx_hal_uart.c **** 
1292:D:/iot/felix2/targets/Cloud_STM32L431_BearPi/Drivers/STM32L4xx_HAL_Driver/Src\stm32l4xx_hal_uart.c ****       /* Enable the Transmit Data Register Empty interrupt */
1293:D:/iot/felix2/targets/Cloud_STM32L431_BearPi/Drivers/STM32L4xx_HAL_Driver/Src\stm32l4xx_hal_uart.c **** #if defined(USART_CR1_FIFOEN)
1294:D:/iot/felix2/targets/Cloud_STM32L431_BearPi/Drivers/STM32L4xx_HAL_Driver/Src\stm32l4xx_hal_uart.c ****       SET_BIT(huart->Instance->CR1, USART_CR1_TXEIE_TXFNFIE);
1295:D:/iot/felix2/targets/Cloud_STM32L431_BearPi/Drivers/STM32L4xx_HAL_Driver/Src\stm32l4xx_hal_uart.c **** #else
1296:D:/iot/felix2/targets/Cloud_STM32L431_BearPi/Drivers/STM32L4xx_HAL_Driver/Src\stm32l4xx_hal_uart.c ****       SET_BIT(huart->Instance->CR1, USART_CR1_TXEIE);
 1323              		.loc 1 1296 0
 1324 0092 FB68     		ldr	r3, [r7, #12]
 1325 0094 1B68     		ldr	r3, [r3]
 1326 0096 1A68     		ldr	r2, [r3]
 1327 0098 FB68     		ldr	r3, [r7, #12]
 1328 009a 1B68     		ldr	r3, [r3]
 1329 009c 42F08002 		orr	r2, r2, #128
 1330 00a0 1A60     		str	r2, [r3]
1297:D:/iot/felix2/targets/Cloud_STM32L431_BearPi/Drivers/STM32L4xx_HAL_Driver/Src\stm32l4xx_hal_uart.c **** #endif
1298:D:/iot/felix2/targets/Cloud_STM32L431_BearPi/Drivers/STM32L4xx_HAL_Driver/Src\stm32l4xx_hal_uart.c ****     }
1299:D:/iot/felix2/targets/Cloud_STM32L431_BearPi/Drivers/STM32L4xx_HAL_Driver/Src\stm32l4xx_hal_uart.c **** 
1300:D:/iot/felix2/targets/Cloud_STM32L431_BearPi/Drivers/STM32L4xx_HAL_Driver/Src\stm32l4xx_hal_uart.c ****     return HAL_OK;
 1331              		.loc 1 1300 0
 1332 00a2 0023     		movs	r3, #0
 1333 00a4 00E0     		b	.L68
 1334              	.L65:
1301:D:/iot/felix2/targets/Cloud_STM32L431_BearPi/Drivers/STM32L4xx_HAL_Driver/Src\stm32l4xx_hal_uart.c ****   }
1302:D:/iot/felix2/targets/Cloud_STM32L431_BearPi/Drivers/STM32L4xx_HAL_Driver/Src\stm32l4xx_hal_uart.c ****   else
1303:D:/iot/felix2/targets/Cloud_STM32L431_BearPi/Drivers/STM32L4xx_HAL_Driver/Src\stm32l4xx_hal_uart.c ****   {
1304:D:/iot/felix2/targets/Cloud_STM32L431_BearPi/Drivers/STM32L4xx_HAL_Driver/Src\stm32l4xx_hal_uart.c ****     return HAL_BUSY;
 1335              		.loc 1 1304 0
ARM GAS  C:\Users\91458\AppData\Local\Temp\ccrpKNIe.s 			page 47


 1336 00a6 0223     		movs	r3, #2
 1337              	.L68:
1305:D:/iot/felix2/targets/Cloud_STM32L431_BearPi/Drivers/STM32L4xx_HAL_Driver/Src\stm32l4xx_hal_uart.c ****   }
1306:D:/iot/felix2/targets/Cloud_STM32L431_BearPi/Drivers/STM32L4xx_HAL_Driver/Src\stm32l4xx_hal_uart.c **** }
 1338              		.loc 1 1306 0
 1339 00a8 1846     		mov	r0, r3
 1340 00aa 1437     		adds	r7, r7, #20
 1341              	.LCFI50:
 1342              		.cfi_def_cfa_offset 4
 1343 00ac BD46     		mov	sp, r7
 1344              	.LCFI51:
 1345              		.cfi_def_cfa_register 13
 1346              		@ sp needed
 1347 00ae 5DF8047B 		ldr	r7, [sp], #4
 1348              	.LCFI52:
 1349              		.cfi_restore 7
 1350              		.cfi_def_cfa_offset 0
 1351 00b2 7047     		bx	lr
 1352              	.L73:
 1353              		.align	2
 1354              	.L72:
 1355 00b4 00000000 		.word	UART_TxISR_16BIT
 1356 00b8 00000000 		.word	UART_TxISR_8BIT
 1357              		.cfi_endproc
 1358              	.LFE142:
 1360              		.section	.text.HAL_UART_Receive_IT,"ax",%progbits
 1361              		.align	1
 1362              		.global	HAL_UART_Receive_IT
 1363              		.syntax unified
 1364              		.thumb
 1365              		.thumb_func
 1366              		.fpu fpv4-sp-d16
 1368              	HAL_UART_Receive_IT:
 1369              	.LFB143:
1307:D:/iot/felix2/targets/Cloud_STM32L431_BearPi/Drivers/STM32L4xx_HAL_Driver/Src\stm32l4xx_hal_uart.c **** 
1308:D:/iot/felix2/targets/Cloud_STM32L431_BearPi/Drivers/STM32L4xx_HAL_Driver/Src\stm32l4xx_hal_uart.c **** /**
1309:D:/iot/felix2/targets/Cloud_STM32L431_BearPi/Drivers/STM32L4xx_HAL_Driver/Src\stm32l4xx_hal_uart.c ****   * @brief Receive an amount of data in interrupt mode.
1310:D:/iot/felix2/targets/Cloud_STM32L431_BearPi/Drivers/STM32L4xx_HAL_Driver/Src\stm32l4xx_hal_uart.c ****   * @param huart UART handle.
1311:D:/iot/felix2/targets/Cloud_STM32L431_BearPi/Drivers/STM32L4xx_HAL_Driver/Src\stm32l4xx_hal_uart.c ****   * @param pData Pointer to data buffer.
1312:D:/iot/felix2/targets/Cloud_STM32L431_BearPi/Drivers/STM32L4xx_HAL_Driver/Src\stm32l4xx_hal_uart.c ****   * @param Size  Amount of data to be received.
1313:D:/iot/felix2/targets/Cloud_STM32L431_BearPi/Drivers/STM32L4xx_HAL_Driver/Src\stm32l4xx_hal_uart.c ****   * @retval HAL status
1314:D:/iot/felix2/targets/Cloud_STM32L431_BearPi/Drivers/STM32L4xx_HAL_Driver/Src\stm32l4xx_hal_uart.c ****   */
1315:D:/iot/felix2/targets/Cloud_STM32L431_BearPi/Drivers/STM32L4xx_HAL_Driver/Src\stm32l4xx_hal_uart.c **** HAL_StatusTypeDef HAL_UART_Receive_IT(UART_HandleTypeDef *huart, uint8_t *pData, uint16_t Size)
1316:D:/iot/felix2/targets/Cloud_STM32L431_BearPi/Drivers/STM32L4xx_HAL_Driver/Src\stm32l4xx_hal_uart.c **** {
 1370              		.loc 1 1316 0
 1371              		.cfi_startproc
 1372              		@ args = 0, pretend = 0, frame = 16
 1373              		@ frame_needed = 1, uses_anonymous_args = 0
 1374              		@ link register save eliminated.
 1375 0000 80B4     		push	{r7}
 1376              	.LCFI53:
 1377              		.cfi_def_cfa_offset 4
 1378              		.cfi_offset 7, -4
 1379 0002 85B0     		sub	sp, sp, #20
 1380              	.LCFI54:
 1381              		.cfi_def_cfa_offset 24
 1382 0004 00AF     		add	r7, sp, #0
ARM GAS  C:\Users\91458\AppData\Local\Temp\ccrpKNIe.s 			page 48


 1383              	.LCFI55:
 1384              		.cfi_def_cfa_register 7
 1385 0006 F860     		str	r0, [r7, #12]
 1386 0008 B960     		str	r1, [r7, #8]
 1387 000a 1346     		mov	r3, r2
 1388 000c FB80     		strh	r3, [r7, #6]	@ movhi
1317:D:/iot/felix2/targets/Cloud_STM32L431_BearPi/Drivers/STM32L4xx_HAL_Driver/Src\stm32l4xx_hal_uart.c ****   /* Check that a Rx process is not already ongoing */
1318:D:/iot/felix2/targets/Cloud_STM32L431_BearPi/Drivers/STM32L4xx_HAL_Driver/Src\stm32l4xx_hal_uart.c ****   if (huart->RxState == HAL_UART_STATE_READY)
 1389              		.loc 1 1318 0
 1390 000e FB68     		ldr	r3, [r7, #12]
 1391 0010 93F87230 		ldrb	r3, [r3, #114]
 1392 0014 DBB2     		uxtb	r3, r3
 1393 0016 202B     		cmp	r3, #32
 1394 0018 40F08680 		bne	.L75
1319:D:/iot/felix2/targets/Cloud_STM32L431_BearPi/Drivers/STM32L4xx_HAL_Driver/Src\stm32l4xx_hal_uart.c ****   {
1320:D:/iot/felix2/targets/Cloud_STM32L431_BearPi/Drivers/STM32L4xx_HAL_Driver/Src\stm32l4xx_hal_uart.c ****     if ((pData == NULL) || (Size == 0U))
 1395              		.loc 1 1320 0
 1396 001c BB68     		ldr	r3, [r7, #8]
 1397 001e 002B     		cmp	r3, #0
 1398 0020 02D0     		beq	.L76
 1399              		.loc 1 1320 0 is_stmt 0 discriminator 1
 1400 0022 FB88     		ldrh	r3, [r7, #6]
 1401 0024 002B     		cmp	r3, #0
 1402 0026 01D1     		bne	.L77
 1403              	.L76:
1321:D:/iot/felix2/targets/Cloud_STM32L431_BearPi/Drivers/STM32L4xx_HAL_Driver/Src\stm32l4xx_hal_uart.c ****     {
1322:D:/iot/felix2/targets/Cloud_STM32L431_BearPi/Drivers/STM32L4xx_HAL_Driver/Src\stm32l4xx_hal_uart.c ****       return HAL_ERROR;
 1404              		.loc 1 1322 0 is_stmt 1
 1405 0028 0123     		movs	r3, #1
 1406 002a 7EE0     		b	.L78
 1407              	.L77:
1323:D:/iot/felix2/targets/Cloud_STM32L431_BearPi/Drivers/STM32L4xx_HAL_Driver/Src\stm32l4xx_hal_uart.c ****     }
1324:D:/iot/felix2/targets/Cloud_STM32L431_BearPi/Drivers/STM32L4xx_HAL_Driver/Src\stm32l4xx_hal_uart.c **** 
1325:D:/iot/felix2/targets/Cloud_STM32L431_BearPi/Drivers/STM32L4xx_HAL_Driver/Src\stm32l4xx_hal_uart.c ****     /* Process Locked */
1326:D:/iot/felix2/targets/Cloud_STM32L431_BearPi/Drivers/STM32L4xx_HAL_Driver/Src\stm32l4xx_hal_uart.c ****     __HAL_LOCK(huart);
 1408              		.loc 1 1326 0
 1409 002c FB68     		ldr	r3, [r7, #12]
 1410 002e 93F87030 		ldrb	r3, [r3, #112]	@ zero_extendqisi2
 1411 0032 012B     		cmp	r3, #1
 1412 0034 01D1     		bne	.L79
 1413              		.loc 1 1326 0 is_stmt 0 discriminator 1
 1414 0036 0223     		movs	r3, #2
 1415 0038 77E0     		b	.L78
 1416              	.L79:
 1417              		.loc 1 1326 0 discriminator 2
 1418 003a FB68     		ldr	r3, [r7, #12]
 1419 003c 0122     		movs	r2, #1
 1420 003e 83F87020 		strb	r2, [r3, #112]
1327:D:/iot/felix2/targets/Cloud_STM32L431_BearPi/Drivers/STM32L4xx_HAL_Driver/Src\stm32l4xx_hal_uart.c **** 
1328:D:/iot/felix2/targets/Cloud_STM32L431_BearPi/Drivers/STM32L4xx_HAL_Driver/Src\stm32l4xx_hal_uart.c ****     huart->pRxBuffPtr  = pData;
 1421              		.loc 1 1328 0 is_stmt 1 discriminator 2
 1422 0042 FB68     		ldr	r3, [r7, #12]
 1423 0044 BA68     		ldr	r2, [r7, #8]
 1424 0046 5A65     		str	r2, [r3, #84]
1329:D:/iot/felix2/targets/Cloud_STM32L431_BearPi/Drivers/STM32L4xx_HAL_Driver/Src\stm32l4xx_hal_uart.c ****     huart->RxXferSize  = Size;
 1425              		.loc 1 1329 0 discriminator 2
 1426 0048 FB68     		ldr	r3, [r7, #12]
ARM GAS  C:\Users\91458\AppData\Local\Temp\ccrpKNIe.s 			page 49


 1427 004a FA88     		ldrh	r2, [r7, #6]	@ movhi
 1428 004c A3F85820 		strh	r2, [r3, #88]	@ movhi
