ARM GAS  C:\Users\91458\AppData\Local\Temp\ccHvSglx.s 			page 1


   1              		.cpu cortex-m4
   2              		.eabi_attribute 27, 1
   3              		.eabi_attribute 28, 1
   4              		.eabi_attribute 20, 1
   5              		.eabi_attribute 21, 1
   6              		.eabi_attribute 23, 3
   7              		.eabi_attribute 24, 1
   8              		.eabi_attribute 25, 1
   9              		.eabi_attribute 26, 1
  10              		.eabi_attribute 30, 6
  11              		.eabi_attribute 34, 1
  12              		.eabi_attribute 18, 4
  13              		.file	"stm32l4xx_hal_rcc.c"
  14              		.text
  15              	.Ltext0:
  16              		.cfi_sections	.debug_frame
  17              		.section	.text.HAL_RCC_DeInit,"ax",%progbits
  18              		.align	1
  19              		.global	HAL_RCC_DeInit
  20              		.syntax unified
  21              		.thumb
  22              		.thumb_func
  23              		.fpu fpv4-sp-d16
  25              	HAL_RCC_DeInit:
  26              	.LFB133:
  27              		.file 1 "D:/iot/felix2/targets/Cloud_STM32L431_BearPi/Drivers/STM32L4xx_HAL_Driver/Src/stm32l4xx_h
   1:D:/iot/felix2/targets/Cloud_STM32L431_BearPi/Drivers/STM32L4xx_HAL_Driver/Src\stm32l4xx_hal_rcc.c **** /**
   2:D:/iot/felix2/targets/Cloud_STM32L431_BearPi/Drivers/STM32L4xx_HAL_Driver/Src\stm32l4xx_hal_rcc.c ****   ******************************************************************************
   3:D:/iot/felix2/targets/Cloud_STM32L431_BearPi/Drivers/STM32L4xx_HAL_Driver/Src\stm32l4xx_hal_rcc.c ****   * @file    stm32l4xx_hal_rcc.c
   4:D:/iot/felix2/targets/Cloud_STM32L431_BearPi/Drivers/STM32L4xx_HAL_Driver/Src\stm32l4xx_hal_rcc.c ****   * @author  MCD Application Team
   5:D:/iot/felix2/targets/Cloud_STM32L431_BearPi/Drivers/STM32L4xx_HAL_Driver/Src\stm32l4xx_hal_rcc.c ****   * @brief   RCC HAL module driver.
   6:D:/iot/felix2/targets/Cloud_STM32L431_BearPi/Drivers/STM32L4xx_HAL_Driver/Src\stm32l4xx_hal_rcc.c ****   *          This file provides firmware functions to manage the following
   7:D:/iot/felix2/targets/Cloud_STM32L431_BearPi/Drivers/STM32L4xx_HAL_Driver/Src\stm32l4xx_hal_rcc.c ****   *          functionalities of the Reset and Clock Control (RCC) peripheral:
   8:D:/iot/felix2/targets/Cloud_STM32L431_BearPi/Drivers/STM32L4xx_HAL_Driver/Src\stm32l4xx_hal_rcc.c ****   *           + Initialization and de-initialization functions
   9:D:/iot/felix2/targets/Cloud_STM32L431_BearPi/Drivers/STM32L4xx_HAL_Driver/Src\stm32l4xx_hal_rcc.c ****   *           + Peripheral Control functions
  10:D:/iot/felix2/targets/Cloud_STM32L431_BearPi/Drivers/STM32L4xx_HAL_Driver/Src\stm32l4xx_hal_rcc.c ****   *
  11:D:/iot/felix2/targets/Cloud_STM32L431_BearPi/Drivers/STM32L4xx_HAL_Driver/Src\stm32l4xx_hal_rcc.c ****   @verbatim
  12:D:/iot/felix2/targets/Cloud_STM32L431_BearPi/Drivers/STM32L4xx_HAL_Driver/Src\stm32l4xx_hal_rcc.c ****   ==============================================================================
  13:D:/iot/felix2/targets/Cloud_STM32L431_BearPi/Drivers/STM32L4xx_HAL_Driver/Src\stm32l4xx_hal_rcc.c ****                       ##### RCC specific features #####
  14:D:/iot/felix2/targets/Cloud_STM32L431_BearPi/Drivers/STM32L4xx_HAL_Driver/Src\stm32l4xx_hal_rcc.c ****   ==============================================================================
  15:D:/iot/felix2/targets/Cloud_STM32L431_BearPi/Drivers/STM32L4xx_HAL_Driver/Src\stm32l4xx_hal_rcc.c ****     [..]
  16:D:/iot/felix2/targets/Cloud_STM32L431_BearPi/Drivers/STM32L4xx_HAL_Driver/Src\stm32l4xx_hal_rcc.c ****       After reset the device is running from Multiple Speed Internal oscillator
  17:D:/iot/felix2/targets/Cloud_STM32L431_BearPi/Drivers/STM32L4xx_HAL_Driver/Src\stm32l4xx_hal_rcc.c ****       (4 MHz) with Flash 0 wait state. Flash prefetch buffer, D-Cache
  18:D:/iot/felix2/targets/Cloud_STM32L431_BearPi/Drivers/STM32L4xx_HAL_Driver/Src\stm32l4xx_hal_rcc.c ****       and I-Cache are disabled, and all peripherals are off except internal
  19:D:/iot/felix2/targets/Cloud_STM32L431_BearPi/Drivers/STM32L4xx_HAL_Driver/Src\stm32l4xx_hal_rcc.c ****       SRAM, Flash and JTAG.
  20:D:/iot/felix2/targets/Cloud_STM32L431_BearPi/Drivers/STM32L4xx_HAL_Driver/Src\stm32l4xx_hal_rcc.c **** 
  21:D:/iot/felix2/targets/Cloud_STM32L431_BearPi/Drivers/STM32L4xx_HAL_Driver/Src\stm32l4xx_hal_rcc.c ****       (+) There is no prescaler on High speed (AHBs) and Low speed (APBs) busses:
  22:D:/iot/felix2/targets/Cloud_STM32L431_BearPi/Drivers/STM32L4xx_HAL_Driver/Src\stm32l4xx_hal_rcc.c ****           all peripherals mapped on these busses are running at MSI speed.
  23:D:/iot/felix2/targets/Cloud_STM32L431_BearPi/Drivers/STM32L4xx_HAL_Driver/Src\stm32l4xx_hal_rcc.c ****       (+) The clock for all peripherals is switched off, except the SRAM and FLASH.
  24:D:/iot/felix2/targets/Cloud_STM32L431_BearPi/Drivers/STM32L4xx_HAL_Driver/Src\stm32l4xx_hal_rcc.c ****       (+) All GPIOs are in analog mode, except the JTAG pins which
  25:D:/iot/felix2/targets/Cloud_STM32L431_BearPi/Drivers/STM32L4xx_HAL_Driver/Src\stm32l4xx_hal_rcc.c ****           are assigned to be used for debug purpose.
  26:D:/iot/felix2/targets/Cloud_STM32L431_BearPi/Drivers/STM32L4xx_HAL_Driver/Src\stm32l4xx_hal_rcc.c **** 
  27:D:/iot/felix2/targets/Cloud_STM32L431_BearPi/Drivers/STM32L4xx_HAL_Driver/Src\stm32l4xx_hal_rcc.c ****     [..]
  28:D:/iot/felix2/targets/Cloud_STM32L431_BearPi/Drivers/STM32L4xx_HAL_Driver/Src\stm32l4xx_hal_rcc.c ****       Once the device started from reset, the user application has to:
  29:D:/iot/felix2/targets/Cloud_STM32L431_BearPi/Drivers/STM32L4xx_HAL_Driver/Src\stm32l4xx_hal_rcc.c ****       (+) Configure the clock source to be used to drive the System clock
  30:D:/iot/felix2/targets/Cloud_STM32L431_BearPi/Drivers/STM32L4xx_HAL_Driver/Src\stm32l4xx_hal_rcc.c ****           (if the application needs higher frequency/performance)
  31:D:/iot/felix2/targets/Cloud_STM32L431_BearPi/Drivers/STM32L4xx_HAL_Driver/Src\stm32l4xx_hal_rcc.c ****       (+) Configure the System clock frequency and Flash settings
ARM GAS  C:\Users\91458\AppData\Local\Temp\ccHvSglx.s 			page 2


  32:D:/iot/felix2/targets/Cloud_STM32L431_BearPi/Drivers/STM32L4xx_HAL_Driver/Src\stm32l4xx_hal_rcc.c ****       (+) Configure the AHB and APB busses prescalers
  33:D:/iot/felix2/targets/Cloud_STM32L431_BearPi/Drivers/STM32L4xx_HAL_Driver/Src\stm32l4xx_hal_rcc.c ****       (+) Enable the clock for the peripheral(s) to be used
  34:D:/iot/felix2/targets/Cloud_STM32L431_BearPi/Drivers/STM32L4xx_HAL_Driver/Src\stm32l4xx_hal_rcc.c ****       (+) Configure the clock source(s) for peripherals which clocks are not
  35:D:/iot/felix2/targets/Cloud_STM32L431_BearPi/Drivers/STM32L4xx_HAL_Driver/Src\stm32l4xx_hal_rcc.c ****           derived from the System clock (SAIx, RTC, ADC, USB OTG FS/SDMMC1/RNG)
  36:D:/iot/felix2/targets/Cloud_STM32L431_BearPi/Drivers/STM32L4xx_HAL_Driver/Src\stm32l4xx_hal_rcc.c **** 
  37:D:/iot/felix2/targets/Cloud_STM32L431_BearPi/Drivers/STM32L4xx_HAL_Driver/Src\stm32l4xx_hal_rcc.c ****   @endverbatim
  38:D:/iot/felix2/targets/Cloud_STM32L431_BearPi/Drivers/STM32L4xx_HAL_Driver/Src\stm32l4xx_hal_rcc.c ****   ******************************************************************************
  39:D:/iot/felix2/targets/Cloud_STM32L431_BearPi/Drivers/STM32L4xx_HAL_Driver/Src\stm32l4xx_hal_rcc.c ****   * @attention
  40:D:/iot/felix2/targets/Cloud_STM32L431_BearPi/Drivers/STM32L4xx_HAL_Driver/Src\stm32l4xx_hal_rcc.c ****   *
  41:D:/iot/felix2/targets/Cloud_STM32L431_BearPi/Drivers/STM32L4xx_HAL_Driver/Src\stm32l4xx_hal_rcc.c ****   * <h2><center>&copy; COPYRIGHT(c) 2017 STMicroelectronics</center></h2>
  42:D:/iot/felix2/targets/Cloud_STM32L431_BearPi/Drivers/STM32L4xx_HAL_Driver/Src\stm32l4xx_hal_rcc.c ****   *
  43:D:/iot/felix2/targets/Cloud_STM32L431_BearPi/Drivers/STM32L4xx_HAL_Driver/Src\stm32l4xx_hal_rcc.c ****   * Redistribution and use in source and binary forms, with or without modification,
  44:D:/iot/felix2/targets/Cloud_STM32L431_BearPi/Drivers/STM32L4xx_HAL_Driver/Src\stm32l4xx_hal_rcc.c ****   * are permitted provided that the following conditions are met:
  45:D:/iot/felix2/targets/Cloud_STM32L431_BearPi/Drivers/STM32L4xx_HAL_Driver/Src\stm32l4xx_hal_rcc.c ****   *   1. Redistributions of source code must retain the above copyright notice,
  46:D:/iot/felix2/targets/Cloud_STM32L431_BearPi/Drivers/STM32L4xx_HAL_Driver/Src\stm32l4xx_hal_rcc.c ****   *      this list of conditions and the following disclaimer.
  47:D:/iot/felix2/targets/Cloud_STM32L431_BearPi/Drivers/STM32L4xx_HAL_Driver/Src\stm32l4xx_hal_rcc.c ****   *   2. Redistributions in binary form must reproduce the above copyright notice,
  48:D:/iot/felix2/targets/Cloud_STM32L431_BearPi/Drivers/STM32L4xx_HAL_Driver/Src\stm32l4xx_hal_rcc.c ****   *      this list of conditions and the following disclaimer in the documentation
  49:D:/iot/felix2/targets/Cloud_STM32L431_BearPi/Drivers/STM32L4xx_HAL_Driver/Src\stm32l4xx_hal_rcc.c ****   *      and/or other materials provided with the distribution.
  50:D:/iot/felix2/targets/Cloud_STM32L431_BearPi/Drivers/STM32L4xx_HAL_Driver/Src\stm32l4xx_hal_rcc.c ****   *   3. Neither the name of STMicroelectronics nor the names of its contributors
  51:D:/iot/felix2/targets/Cloud_STM32L431_BearPi/Drivers/STM32L4xx_HAL_Driver/Src\stm32l4xx_hal_rcc.c ****   *      may be used to endorse or promote products derived from this software
  52:D:/iot/felix2/targets/Cloud_STM32L431_BearPi/Drivers/STM32L4xx_HAL_Driver/Src\stm32l4xx_hal_rcc.c ****   *      without specific prior written permission.
  53:D:/iot/felix2/targets/Cloud_STM32L431_BearPi/Drivers/STM32L4xx_HAL_Driver/Src\stm32l4xx_hal_rcc.c ****   *
  54:D:/iot/felix2/targets/Cloud_STM32L431_BearPi/Drivers/STM32L4xx_HAL_Driver/Src\stm32l4xx_hal_rcc.c ****   * THIS SOFTWARE IS PROVIDED BY THE COPYRIGHT HOLDERS AND CONTRIBUTORS "AS IS"
  55:D:/iot/felix2/targets/Cloud_STM32L431_BearPi/Drivers/STM32L4xx_HAL_Driver/Src\stm32l4xx_hal_rcc.c ****   * AND ANY EXPRESS OR IMPLIED WARRANTIES, INCLUDING, BUT NOT LIMITED TO, THE
  56:D:/iot/felix2/targets/Cloud_STM32L431_BearPi/Drivers/STM32L4xx_HAL_Driver/Src\stm32l4xx_hal_rcc.c ****   * IMPLIED WARRANTIES OF MERCHANTABILITY AND FITNESS FOR A PARTICULAR PURPOSE ARE
  57:D:/iot/felix2/targets/Cloud_STM32L431_BearPi/Drivers/STM32L4xx_HAL_Driver/Src\stm32l4xx_hal_rcc.c ****   * DISCLAIMED. IN NO EVENT SHALL THE COPYRIGHT HOLDER OR CONTRIBUTORS BE LIABLE
  58:D:/iot/felix2/targets/Cloud_STM32L431_BearPi/Drivers/STM32L4xx_HAL_Driver/Src\stm32l4xx_hal_rcc.c ****   * FOR ANY DIRECT, INDIRECT, INCIDENTAL, SPECIAL, EXEMPLARY, OR CONSEQUENTIAL
  59:D:/iot/felix2/targets/Cloud_STM32L431_BearPi/Drivers/STM32L4xx_HAL_Driver/Src\stm32l4xx_hal_rcc.c ****   * DAMAGES (INCLUDING, BUT NOT LIMITED TO, PROCUREMENT OF SUBSTITUTE GOODS OR
  60:D:/iot/felix2/targets/Cloud_STM32L431_BearPi/Drivers/STM32L4xx_HAL_Driver/Src\stm32l4xx_hal_rcc.c ****   * SERVICES; LOSS OF USE, DATA, OR PROFITS; OR BUSINESS INTERRUPTION) HOWEVER
  61:D:/iot/felix2/targets/Cloud_STM32L431_BearPi/Drivers/STM32L4xx_HAL_Driver/Src\stm32l4xx_hal_rcc.c ****   * CAUSED AND ON ANY THEORY OF LIABILITY, WHETHER IN CONTRACT, STRICT LIABILITY,
  62:D:/iot/felix2/targets/Cloud_STM32L431_BearPi/Drivers/STM32L4xx_HAL_Driver/Src\stm32l4xx_hal_rcc.c ****   * OR TORT (INCLUDING NEGLIGENCE OR OTHERWISE) ARISING IN ANY WAY OUT OF THE USE
  63:D:/iot/felix2/targets/Cloud_STM32L431_BearPi/Drivers/STM32L4xx_HAL_Driver/Src\stm32l4xx_hal_rcc.c ****   * OF THIS SOFTWARE, EVEN IF ADVISED OF THE POSSIBILITY OF SUCH DAMAGE.
  64:D:/iot/felix2/targets/Cloud_STM32L431_BearPi/Drivers/STM32L4xx_HAL_Driver/Src\stm32l4xx_hal_rcc.c ****   *
  65:D:/iot/felix2/targets/Cloud_STM32L431_BearPi/Drivers/STM32L4xx_HAL_Driver/Src\stm32l4xx_hal_rcc.c ****   ******************************************************************************
  66:D:/iot/felix2/targets/Cloud_STM32L431_BearPi/Drivers/STM32L4xx_HAL_Driver/Src\stm32l4xx_hal_rcc.c ****   */
  67:D:/iot/felix2/targets/Cloud_STM32L431_BearPi/Drivers/STM32L4xx_HAL_Driver/Src\stm32l4xx_hal_rcc.c **** 
  68:D:/iot/felix2/targets/Cloud_STM32L431_BearPi/Drivers/STM32L4xx_HAL_Driver/Src\stm32l4xx_hal_rcc.c **** /* Includes ------------------------------------------------------------------*/
  69:D:/iot/felix2/targets/Cloud_STM32L431_BearPi/Drivers/STM32L4xx_HAL_Driver/Src\stm32l4xx_hal_rcc.c **** #include "stm32l4xx_hal.h"
  70:D:/iot/felix2/targets/Cloud_STM32L431_BearPi/Drivers/STM32L4xx_HAL_Driver/Src\stm32l4xx_hal_rcc.c **** 
  71:D:/iot/felix2/targets/Cloud_STM32L431_BearPi/Drivers/STM32L4xx_HAL_Driver/Src\stm32l4xx_hal_rcc.c **** /** @addtogroup STM32L4xx_HAL_Driver
  72:D:/iot/felix2/targets/Cloud_STM32L431_BearPi/Drivers/STM32L4xx_HAL_Driver/Src\stm32l4xx_hal_rcc.c ****   * @{
  73:D:/iot/felix2/targets/Cloud_STM32L431_BearPi/Drivers/STM32L4xx_HAL_Driver/Src\stm32l4xx_hal_rcc.c ****   */
  74:D:/iot/felix2/targets/Cloud_STM32L431_BearPi/Drivers/STM32L4xx_HAL_Driver/Src\stm32l4xx_hal_rcc.c **** 
  75:D:/iot/felix2/targets/Cloud_STM32L431_BearPi/Drivers/STM32L4xx_HAL_Driver/Src\stm32l4xx_hal_rcc.c **** /** @defgroup RCC RCC
  76:D:/iot/felix2/targets/Cloud_STM32L431_BearPi/Drivers/STM32L4xx_HAL_Driver/Src\stm32l4xx_hal_rcc.c ****   * @brief RCC HAL module driver
  77:D:/iot/felix2/targets/Cloud_STM32L431_BearPi/Drivers/STM32L4xx_HAL_Driver/Src\stm32l4xx_hal_rcc.c ****   * @{
  78:D:/iot/felix2/targets/Cloud_STM32L431_BearPi/Drivers/STM32L4xx_HAL_Driver/Src\stm32l4xx_hal_rcc.c ****   */
  79:D:/iot/felix2/targets/Cloud_STM32L431_BearPi/Drivers/STM32L4xx_HAL_Driver/Src\stm32l4xx_hal_rcc.c **** 
  80:D:/iot/felix2/targets/Cloud_STM32L431_BearPi/Drivers/STM32L4xx_HAL_Driver/Src\stm32l4xx_hal_rcc.c **** #ifdef HAL_RCC_MODULE_ENABLED
  81:D:/iot/felix2/targets/Cloud_STM32L431_BearPi/Drivers/STM32L4xx_HAL_Driver/Src\stm32l4xx_hal_rcc.c **** 
  82:D:/iot/felix2/targets/Cloud_STM32L431_BearPi/Drivers/STM32L4xx_HAL_Driver/Src\stm32l4xx_hal_rcc.c **** /* Private typedef -----------------------------------------------------------*/
  83:D:/iot/felix2/targets/Cloud_STM32L431_BearPi/Drivers/STM32L4xx_HAL_Driver/Src\stm32l4xx_hal_rcc.c **** /* Private define ------------------------------------------------------------*/
  84:D:/iot/felix2/targets/Cloud_STM32L431_BearPi/Drivers/STM32L4xx_HAL_Driver/Src\stm32l4xx_hal_rcc.c **** /** @defgroup RCC_Private_Constants RCC Private Constants
  85:D:/iot/felix2/targets/Cloud_STM32L431_BearPi/Drivers/STM32L4xx_HAL_Driver/Src\stm32l4xx_hal_rcc.c ****  * @{
  86:D:/iot/felix2/targets/Cloud_STM32L431_BearPi/Drivers/STM32L4xx_HAL_Driver/Src\stm32l4xx_hal_rcc.c ****  */
  87:D:/iot/felix2/targets/Cloud_STM32L431_BearPi/Drivers/STM32L4xx_HAL_Driver/Src\stm32l4xx_hal_rcc.c **** #define HSE_TIMEOUT_VALUE          HSE_STARTUP_TIMEOUT
  88:D:/iot/felix2/targets/Cloud_STM32L431_BearPi/Drivers/STM32L4xx_HAL_Driver/Src\stm32l4xx_hal_rcc.c **** #define HSI_TIMEOUT_VALUE          2U    /* 2 ms (minimum Tick + 1) */
ARM GAS  C:\Users\91458\AppData\Local\Temp\ccHvSglx.s 			page 3


  89:D:/iot/felix2/targets/Cloud_STM32L431_BearPi/Drivers/STM32L4xx_HAL_Driver/Src\stm32l4xx_hal_rcc.c **** #define MSI_TIMEOUT_VALUE          2U    /* 2 ms (minimum Tick + 1) */
  90:D:/iot/felix2/targets/Cloud_STM32L431_BearPi/Drivers/STM32L4xx_HAL_Driver/Src\stm32l4xx_hal_rcc.c **** #define LSI_TIMEOUT_VALUE          2U    /* 2 ms (minimum Tick + 1) */
  91:D:/iot/felix2/targets/Cloud_STM32L431_BearPi/Drivers/STM32L4xx_HAL_Driver/Src\stm32l4xx_hal_rcc.c **** #define HSI48_TIMEOUT_VALUE        2U    /* 2 ms (minimum Tick + 1) */
  92:D:/iot/felix2/targets/Cloud_STM32L431_BearPi/Drivers/STM32L4xx_HAL_Driver/Src\stm32l4xx_hal_rcc.c **** #define PLL_TIMEOUT_VALUE          2U    /* 2 ms (minimum Tick + 1) */
  93:D:/iot/felix2/targets/Cloud_STM32L431_BearPi/Drivers/STM32L4xx_HAL_Driver/Src\stm32l4xx_hal_rcc.c **** #define CLOCKSWITCH_TIMEOUT_VALUE  5000U /* 5 s    */
  94:D:/iot/felix2/targets/Cloud_STM32L431_BearPi/Drivers/STM32L4xx_HAL_Driver/Src\stm32l4xx_hal_rcc.c **** /**
  95:D:/iot/felix2/targets/Cloud_STM32L431_BearPi/Drivers/STM32L4xx_HAL_Driver/Src\stm32l4xx_hal_rcc.c ****   * @}
  96:D:/iot/felix2/targets/Cloud_STM32L431_BearPi/Drivers/STM32L4xx_HAL_Driver/Src\stm32l4xx_hal_rcc.c ****   */
  97:D:/iot/felix2/targets/Cloud_STM32L431_BearPi/Drivers/STM32L4xx_HAL_Driver/Src\stm32l4xx_hal_rcc.c **** 
  98:D:/iot/felix2/targets/Cloud_STM32L431_BearPi/Drivers/STM32L4xx_HAL_Driver/Src\stm32l4xx_hal_rcc.c **** /* Private macro -------------------------------------------------------------*/
  99:D:/iot/felix2/targets/Cloud_STM32L431_BearPi/Drivers/STM32L4xx_HAL_Driver/Src\stm32l4xx_hal_rcc.c **** /** @defgroup RCC_Private_Macros RCC Private Macros
 100:D:/iot/felix2/targets/Cloud_STM32L431_BearPi/Drivers/STM32L4xx_HAL_Driver/Src\stm32l4xx_hal_rcc.c ****   * @{
 101:D:/iot/felix2/targets/Cloud_STM32L431_BearPi/Drivers/STM32L4xx_HAL_Driver/Src\stm32l4xx_hal_rcc.c ****   */
 102:D:/iot/felix2/targets/Cloud_STM32L431_BearPi/Drivers/STM32L4xx_HAL_Driver/Src\stm32l4xx_hal_rcc.c **** #define __MCO1_CLK_ENABLE()   __HAL_RCC_GPIOA_CLK_ENABLE()
 103:D:/iot/felix2/targets/Cloud_STM32L431_BearPi/Drivers/STM32L4xx_HAL_Driver/Src\stm32l4xx_hal_rcc.c **** #define MCO1_GPIO_PORT        GPIOA
 104:D:/iot/felix2/targets/Cloud_STM32L431_BearPi/Drivers/STM32L4xx_HAL_Driver/Src\stm32l4xx_hal_rcc.c **** #define MCO1_PIN              GPIO_PIN_8
 105:D:/iot/felix2/targets/Cloud_STM32L431_BearPi/Drivers/STM32L4xx_HAL_Driver/Src\stm32l4xx_hal_rcc.c **** 
 106:D:/iot/felix2/targets/Cloud_STM32L431_BearPi/Drivers/STM32L4xx_HAL_Driver/Src\stm32l4xx_hal_rcc.c **** #define RCC_PLL_OSCSOURCE_CONFIG(__HAL_RCC_PLLSOURCE__) \
 107:D:/iot/felix2/targets/Cloud_STM32L431_BearPi/Drivers/STM32L4xx_HAL_Driver/Src\stm32l4xx_hal_rcc.c ****             (MODIFY_REG(RCC->PLLCFGR, RCC_PLLCFGR_PLLSRC, (__HAL_RCC_PLLSOURCE__)))
 108:D:/iot/felix2/targets/Cloud_STM32L431_BearPi/Drivers/STM32L4xx_HAL_Driver/Src\stm32l4xx_hal_rcc.c **** /**
 109:D:/iot/felix2/targets/Cloud_STM32L431_BearPi/Drivers/STM32L4xx_HAL_Driver/Src\stm32l4xx_hal_rcc.c ****   * @}
 110:D:/iot/felix2/targets/Cloud_STM32L431_BearPi/Drivers/STM32L4xx_HAL_Driver/Src\stm32l4xx_hal_rcc.c ****   */
 111:D:/iot/felix2/targets/Cloud_STM32L431_BearPi/Drivers/STM32L4xx_HAL_Driver/Src\stm32l4xx_hal_rcc.c **** 
 112:D:/iot/felix2/targets/Cloud_STM32L431_BearPi/Drivers/STM32L4xx_HAL_Driver/Src\stm32l4xx_hal_rcc.c **** /* Private variables ---------------------------------------------------------*/
 113:D:/iot/felix2/targets/Cloud_STM32L431_BearPi/Drivers/STM32L4xx_HAL_Driver/Src\stm32l4xx_hal_rcc.c **** 
 114:D:/iot/felix2/targets/Cloud_STM32L431_BearPi/Drivers/STM32L4xx_HAL_Driver/Src\stm32l4xx_hal_rcc.c **** /* Private function prototypes -----------------------------------------------*/
 115:D:/iot/felix2/targets/Cloud_STM32L431_BearPi/Drivers/STM32L4xx_HAL_Driver/Src\stm32l4xx_hal_rcc.c **** /** @defgroup RCC_Private_Functions RCC Private Functions
 116:D:/iot/felix2/targets/Cloud_STM32L431_BearPi/Drivers/STM32L4xx_HAL_Driver/Src\stm32l4xx_hal_rcc.c ****   * @{
 117:D:/iot/felix2/targets/Cloud_STM32L431_BearPi/Drivers/STM32L4xx_HAL_Driver/Src\stm32l4xx_hal_rcc.c ****   */
 118:D:/iot/felix2/targets/Cloud_STM32L431_BearPi/Drivers/STM32L4xx_HAL_Driver/Src\stm32l4xx_hal_rcc.c **** static HAL_StatusTypeDef RCC_SetFlashLatencyFromMSIRange(uint32_t msirange);
 119:D:/iot/felix2/targets/Cloud_STM32L431_BearPi/Drivers/STM32L4xx_HAL_Driver/Src\stm32l4xx_hal_rcc.c **** #if defined(STM32L4R5xx) || defined(STM32L4R7xx) || defined(STM32L4R9xx) || defined(STM32L4S5xx) ||
 120:D:/iot/felix2/targets/Cloud_STM32L431_BearPi/Drivers/STM32L4xx_HAL_Driver/Src\stm32l4xx_hal_rcc.c **** static uint32_t          RCC_GetSysClockFreqFromPLLSource(void);
 121:D:/iot/felix2/targets/Cloud_STM32L431_BearPi/Drivers/STM32L4xx_HAL_Driver/Src\stm32l4xx_hal_rcc.c **** #endif
 122:D:/iot/felix2/targets/Cloud_STM32L431_BearPi/Drivers/STM32L4xx_HAL_Driver/Src\stm32l4xx_hal_rcc.c **** /**
 123:D:/iot/felix2/targets/Cloud_STM32L431_BearPi/Drivers/STM32L4xx_HAL_Driver/Src\stm32l4xx_hal_rcc.c ****   * @}
 124:D:/iot/felix2/targets/Cloud_STM32L431_BearPi/Drivers/STM32L4xx_HAL_Driver/Src\stm32l4xx_hal_rcc.c ****   */
 125:D:/iot/felix2/targets/Cloud_STM32L431_BearPi/Drivers/STM32L4xx_HAL_Driver/Src\stm32l4xx_hal_rcc.c **** 
 126:D:/iot/felix2/targets/Cloud_STM32L431_BearPi/Drivers/STM32L4xx_HAL_Driver/Src\stm32l4xx_hal_rcc.c **** /* Exported functions --------------------------------------------------------*/
 127:D:/iot/felix2/targets/Cloud_STM32L431_BearPi/Drivers/STM32L4xx_HAL_Driver/Src\stm32l4xx_hal_rcc.c **** 
 128:D:/iot/felix2/targets/Cloud_STM32L431_BearPi/Drivers/STM32L4xx_HAL_Driver/Src\stm32l4xx_hal_rcc.c **** /** @defgroup RCC_Exported_Functions RCC Exported Functions
 129:D:/iot/felix2/targets/Cloud_STM32L431_BearPi/Drivers/STM32L4xx_HAL_Driver/Src\stm32l4xx_hal_rcc.c ****   * @{
 130:D:/iot/felix2/targets/Cloud_STM32L431_BearPi/Drivers/STM32L4xx_HAL_Driver/Src\stm32l4xx_hal_rcc.c ****   */
 131:D:/iot/felix2/targets/Cloud_STM32L431_BearPi/Drivers/STM32L4xx_HAL_Driver/Src\stm32l4xx_hal_rcc.c **** 
 132:D:/iot/felix2/targets/Cloud_STM32L431_BearPi/Drivers/STM32L4xx_HAL_Driver/Src\stm32l4xx_hal_rcc.c **** /** @defgroup RCC_Exported_Functions_Group1 Initialization and de-initialization functions
 133:D:/iot/felix2/targets/Cloud_STM32L431_BearPi/Drivers/STM32L4xx_HAL_Driver/Src\stm32l4xx_hal_rcc.c ****   *  @brief    Initialization and Configuration functions
 134:D:/iot/felix2/targets/Cloud_STM32L431_BearPi/Drivers/STM32L4xx_HAL_Driver/Src\stm32l4xx_hal_rcc.c ****   *
 135:D:/iot/felix2/targets/Cloud_STM32L431_BearPi/Drivers/STM32L4xx_HAL_Driver/Src\stm32l4xx_hal_rcc.c ****   @verbatim
 136:D:/iot/felix2/targets/Cloud_STM32L431_BearPi/Drivers/STM32L4xx_HAL_Driver/Src\stm32l4xx_hal_rcc.c ****  ===============================================================================
 137:D:/iot/felix2/targets/Cloud_STM32L431_BearPi/Drivers/STM32L4xx_HAL_Driver/Src\stm32l4xx_hal_rcc.c ****            ##### Initialization and de-initialization functions #####
 138:D:/iot/felix2/targets/Cloud_STM32L431_BearPi/Drivers/STM32L4xx_HAL_Driver/Src\stm32l4xx_hal_rcc.c ****  ===============================================================================
 139:D:/iot/felix2/targets/Cloud_STM32L431_BearPi/Drivers/STM32L4xx_HAL_Driver/Src\stm32l4xx_hal_rcc.c ****     [..]
 140:D:/iot/felix2/targets/Cloud_STM32L431_BearPi/Drivers/STM32L4xx_HAL_Driver/Src\stm32l4xx_hal_rcc.c ****       This section provides functions allowing to configure the internal and external oscillators
 141:D:/iot/felix2/targets/Cloud_STM32L431_BearPi/Drivers/STM32L4xx_HAL_Driver/Src\stm32l4xx_hal_rcc.c ****       (HSE, HSI, LSE, MSI, LSI, PLL, CSS and MCO) and the System busses clocks (SYSCLK, AHB, APB1
 142:D:/iot/felix2/targets/Cloud_STM32L431_BearPi/Drivers/STM32L4xx_HAL_Driver/Src\stm32l4xx_hal_rcc.c ****        and APB2).
 143:D:/iot/felix2/targets/Cloud_STM32L431_BearPi/Drivers/STM32L4xx_HAL_Driver/Src\stm32l4xx_hal_rcc.c **** 
 144:D:/iot/felix2/targets/Cloud_STM32L431_BearPi/Drivers/STM32L4xx_HAL_Driver/Src\stm32l4xx_hal_rcc.c ****     [..] Internal/external clock and PLL configuration
 145:D:/iot/felix2/targets/Cloud_STM32L431_BearPi/Drivers/STM32L4xx_HAL_Driver/Src\stm32l4xx_hal_rcc.c ****          (+) HSI (high-speed internal): 16 MHz factory-trimmed RC used directly or through
ARM GAS  C:\Users\91458\AppData\Local\Temp\ccHvSglx.s 			page 4


 146:D:/iot/felix2/targets/Cloud_STM32L431_BearPi/Drivers/STM32L4xx_HAL_Driver/Src\stm32l4xx_hal_rcc.c ****              the PLL as System clock source.
 147:D:/iot/felix2/targets/Cloud_STM32L431_BearPi/Drivers/STM32L4xx_HAL_Driver/Src\stm32l4xx_hal_rcc.c **** 
 148:D:/iot/felix2/targets/Cloud_STM32L431_BearPi/Drivers/STM32L4xx_HAL_Driver/Src\stm32l4xx_hal_rcc.c ****          (+) MSI (Mutiple Speed Internal): Its frequency is software trimmable from 100KHZ to 48MHZ
 149:D:/iot/felix2/targets/Cloud_STM32L431_BearPi/Drivers/STM32L4xx_HAL_Driver/Src\stm32l4xx_hal_rcc.c ****              It can be used to generate the clock for the USB OTG FS (48 MHz).
 150:D:/iot/felix2/targets/Cloud_STM32L431_BearPi/Drivers/STM32L4xx_HAL_Driver/Src\stm32l4xx_hal_rcc.c ****              The number of flash wait states is automatically adjusted when MSI range is updated wi
 151:D:/iot/felix2/targets/Cloud_STM32L431_BearPi/Drivers/STM32L4xx_HAL_Driver/Src\stm32l4xx_hal_rcc.c ****              HAL_RCC_OscConfig() and the MSI is used as System clock source.
 152:D:/iot/felix2/targets/Cloud_STM32L431_BearPi/Drivers/STM32L4xx_HAL_Driver/Src\stm32l4xx_hal_rcc.c **** 
 153:D:/iot/felix2/targets/Cloud_STM32L431_BearPi/Drivers/STM32L4xx_HAL_Driver/Src\stm32l4xx_hal_rcc.c ****          (+) LSI (low-speed internal): 32 KHz low consumption RC used as IWDG and/or RTC
 154:D:/iot/felix2/targets/Cloud_STM32L431_BearPi/Drivers/STM32L4xx_HAL_Driver/Src\stm32l4xx_hal_rcc.c ****              clock source.
 155:D:/iot/felix2/targets/Cloud_STM32L431_BearPi/Drivers/STM32L4xx_HAL_Driver/Src\stm32l4xx_hal_rcc.c **** 
 156:D:/iot/felix2/targets/Cloud_STM32L431_BearPi/Drivers/STM32L4xx_HAL_Driver/Src\stm32l4xx_hal_rcc.c ****          (+) HSE (high-speed external): 4 to 48 MHz crystal oscillator used directly or
 157:D:/iot/felix2/targets/Cloud_STM32L431_BearPi/Drivers/STM32L4xx_HAL_Driver/Src\stm32l4xx_hal_rcc.c ****              through the PLL as System clock source. Can be used also optionally as RTC clock sourc
 158:D:/iot/felix2/targets/Cloud_STM32L431_BearPi/Drivers/STM32L4xx_HAL_Driver/Src\stm32l4xx_hal_rcc.c **** 
 159:D:/iot/felix2/targets/Cloud_STM32L431_BearPi/Drivers/STM32L4xx_HAL_Driver/Src\stm32l4xx_hal_rcc.c ****          (+) LSE (low-speed external): 32.768 KHz oscillator used optionally as RTC clock source.
 160:D:/iot/felix2/targets/Cloud_STM32L431_BearPi/Drivers/STM32L4xx_HAL_Driver/Src\stm32l4xx_hal_rcc.c **** 
 161:D:/iot/felix2/targets/Cloud_STM32L431_BearPi/Drivers/STM32L4xx_HAL_Driver/Src\stm32l4xx_hal_rcc.c ****          (+) PLL (clocked by HSI, HSE or MSI) providing up to three independent output clocks:
 162:D:/iot/felix2/targets/Cloud_STM32L431_BearPi/Drivers/STM32L4xx_HAL_Driver/Src\stm32l4xx_hal_rcc.c ****            (++) The first output is used to generate the high speed system clock (up to 80MHz).
 163:D:/iot/felix2/targets/Cloud_STM32L431_BearPi/Drivers/STM32L4xx_HAL_Driver/Src\stm32l4xx_hal_rcc.c ****            (++) The second output is used to generate the clock for the USB OTG FS (48 MHz),
 164:D:/iot/felix2/targets/Cloud_STM32L431_BearPi/Drivers/STM32L4xx_HAL_Driver/Src\stm32l4xx_hal_rcc.c ****                 the random analog generator (<=48 MHz) and the SDMMC1 (<= 48 MHz).
 165:D:/iot/felix2/targets/Cloud_STM32L431_BearPi/Drivers/STM32L4xx_HAL_Driver/Src\stm32l4xx_hal_rcc.c ****            (++) The third output is used to generate an accurate clock to achieve
 166:D:/iot/felix2/targets/Cloud_STM32L431_BearPi/Drivers/STM32L4xx_HAL_Driver/Src\stm32l4xx_hal_rcc.c ****                 high-quality audio performance on SAI interface.
 167:D:/iot/felix2/targets/Cloud_STM32L431_BearPi/Drivers/STM32L4xx_HAL_Driver/Src\stm32l4xx_hal_rcc.c **** 
 168:D:/iot/felix2/targets/Cloud_STM32L431_BearPi/Drivers/STM32L4xx_HAL_Driver/Src\stm32l4xx_hal_rcc.c ****          (+) PLLSAI1 (clocked by HSI, HSE or MSI) providing up to three independent output clocks:
 169:D:/iot/felix2/targets/Cloud_STM32L431_BearPi/Drivers/STM32L4xx_HAL_Driver/Src\stm32l4xx_hal_rcc.c ****            (++) The first output is used to generate SAR ADC1 clock.
 170:D:/iot/felix2/targets/Cloud_STM32L431_BearPi/Drivers/STM32L4xx_HAL_Driver/Src\stm32l4xx_hal_rcc.c ****            (++) The second output is used to generate the clock for the USB OTG FS (48 MHz),
 171:D:/iot/felix2/targets/Cloud_STM32L431_BearPi/Drivers/STM32L4xx_HAL_Driver/Src\stm32l4xx_hal_rcc.c ****                 the random analog generator (<=48 MHz) and the SDMMC1 (<= 48 MHz).
 172:D:/iot/felix2/targets/Cloud_STM32L431_BearPi/Drivers/STM32L4xx_HAL_Driver/Src\stm32l4xx_hal_rcc.c ****            (++) The Third output is used to generate an accurate clock to achieve
 173:D:/iot/felix2/targets/Cloud_STM32L431_BearPi/Drivers/STM32L4xx_HAL_Driver/Src\stm32l4xx_hal_rcc.c ****                 high-quality audio performance on SAI interface.
 174:D:/iot/felix2/targets/Cloud_STM32L431_BearPi/Drivers/STM32L4xx_HAL_Driver/Src\stm32l4xx_hal_rcc.c **** 
 175:D:/iot/felix2/targets/Cloud_STM32L431_BearPi/Drivers/STM32L4xx_HAL_Driver/Src\stm32l4xx_hal_rcc.c ****          (+) PLLSAI2 (clocked by HSI , HSE or MSI) providing up to two independent output clocks:
 176:D:/iot/felix2/targets/Cloud_STM32L431_BearPi/Drivers/STM32L4xx_HAL_Driver/Src\stm32l4xx_hal_rcc.c ****            (++) The first output is used to generate SAR ADC2 clock.
 177:D:/iot/felix2/targets/Cloud_STM32L431_BearPi/Drivers/STM32L4xx_HAL_Driver/Src\stm32l4xx_hal_rcc.c ****            (++) The second  output is used to generate an accurate clock to achieve
 178:D:/iot/felix2/targets/Cloud_STM32L431_BearPi/Drivers/STM32L4xx_HAL_Driver/Src\stm32l4xx_hal_rcc.c ****                 high-quality audio performance on SAI interface.
 179:D:/iot/felix2/targets/Cloud_STM32L431_BearPi/Drivers/STM32L4xx_HAL_Driver/Src\stm32l4xx_hal_rcc.c **** 
 180:D:/iot/felix2/targets/Cloud_STM32L431_BearPi/Drivers/STM32L4xx_HAL_Driver/Src\stm32l4xx_hal_rcc.c ****          (+) CSS (Clock security system): once enabled, if a HSE clock failure occurs
 181:D:/iot/felix2/targets/Cloud_STM32L431_BearPi/Drivers/STM32L4xx_HAL_Driver/Src\stm32l4xx_hal_rcc.c ****             (HSE used directly or through PLL as System clock source), the System clock
 182:D:/iot/felix2/targets/Cloud_STM32L431_BearPi/Drivers/STM32L4xx_HAL_Driver/Src\stm32l4xx_hal_rcc.c ****              is automatically switched to HSI and an interrupt is generated if enabled.
 183:D:/iot/felix2/targets/Cloud_STM32L431_BearPi/Drivers/STM32L4xx_HAL_Driver/Src\stm32l4xx_hal_rcc.c ****              The interrupt is linked to the Cortex-M4 NMI (Non-Maskable Interrupt)
 184:D:/iot/felix2/targets/Cloud_STM32L431_BearPi/Drivers/STM32L4xx_HAL_Driver/Src\stm32l4xx_hal_rcc.c ****              exception vector.
 185:D:/iot/felix2/targets/Cloud_STM32L431_BearPi/Drivers/STM32L4xx_HAL_Driver/Src\stm32l4xx_hal_rcc.c **** 
 186:D:/iot/felix2/targets/Cloud_STM32L431_BearPi/Drivers/STM32L4xx_HAL_Driver/Src\stm32l4xx_hal_rcc.c ****          (+) MCO (microcontroller clock output): used to output MSI, LSI, HSI, LSE, HSE or
 187:D:/iot/felix2/targets/Cloud_STM32L431_BearPi/Drivers/STM32L4xx_HAL_Driver/Src\stm32l4xx_hal_rcc.c ****              main PLL clock (through a configurable prescaler) on PA8 pin.
 188:D:/iot/felix2/targets/Cloud_STM32L431_BearPi/Drivers/STM32L4xx_HAL_Driver/Src\stm32l4xx_hal_rcc.c **** 
 189:D:/iot/felix2/targets/Cloud_STM32L431_BearPi/Drivers/STM32L4xx_HAL_Driver/Src\stm32l4xx_hal_rcc.c ****     [..] System, AHB and APB busses clocks configuration
 190:D:/iot/felix2/targets/Cloud_STM32L431_BearPi/Drivers/STM32L4xx_HAL_Driver/Src\stm32l4xx_hal_rcc.c ****          (+) Several clock sources can be used to drive the System clock (SYSCLK): MSI, HSI,
 191:D:/iot/felix2/targets/Cloud_STM32L431_BearPi/Drivers/STM32L4xx_HAL_Driver/Src\stm32l4xx_hal_rcc.c ****              HSE and main PLL.
 192:D:/iot/felix2/targets/Cloud_STM32L431_BearPi/Drivers/STM32L4xx_HAL_Driver/Src\stm32l4xx_hal_rcc.c ****              The AHB clock (HCLK) is derived from System clock through configurable
 193:D:/iot/felix2/targets/Cloud_STM32L431_BearPi/Drivers/STM32L4xx_HAL_Driver/Src\stm32l4xx_hal_rcc.c ****              prescaler and used to clock the CPU, memory and peripherals mapped
 194:D:/iot/felix2/targets/Cloud_STM32L431_BearPi/Drivers/STM32L4xx_HAL_Driver/Src\stm32l4xx_hal_rcc.c ****              on AHB bus (DMA, GPIO...). APB1 (PCLK1) and APB2 (PCLK2) clocks are derived
 195:D:/iot/felix2/targets/Cloud_STM32L431_BearPi/Drivers/STM32L4xx_HAL_Driver/Src\stm32l4xx_hal_rcc.c ****              from AHB clock through configurable prescalers and used to clock
 196:D:/iot/felix2/targets/Cloud_STM32L431_BearPi/Drivers/STM32L4xx_HAL_Driver/Src\stm32l4xx_hal_rcc.c ****              the peripherals mapped on these busses. You can use
 197:D:/iot/felix2/targets/Cloud_STM32L431_BearPi/Drivers/STM32L4xx_HAL_Driver/Src\stm32l4xx_hal_rcc.c ****              "HAL_RCC_GetSysClockFreq()" function to retrieve the frequencies of these clocks.
 198:D:/iot/felix2/targets/Cloud_STM32L431_BearPi/Drivers/STM32L4xx_HAL_Driver/Src\stm32l4xx_hal_rcc.c **** 
 199:D:/iot/felix2/targets/Cloud_STM32L431_BearPi/Drivers/STM32L4xx_HAL_Driver/Src\stm32l4xx_hal_rcc.c ****          -@- All the peripheral clocks are derived from the System clock (SYSCLK) except:
 200:D:/iot/felix2/targets/Cloud_STM32L431_BearPi/Drivers/STM32L4xx_HAL_Driver/Src\stm32l4xx_hal_rcc.c **** 
 201:D:/iot/felix2/targets/Cloud_STM32L431_BearPi/Drivers/STM32L4xx_HAL_Driver/Src\stm32l4xx_hal_rcc.c ****            (+@) SAI: the SAI clock can be derived either from a specific PLL (PLLSAI1) or (PLLSAI2)
 202:D:/iot/felix2/targets/Cloud_STM32L431_BearPi/Drivers/STM32L4xx_HAL_Driver/Src\stm32l4xx_hal_rcc.c ****                 from an external clock mapped on the SAI_CKIN pin.
ARM GAS  C:\Users\91458\AppData\Local\Temp\ccHvSglx.s 			page 5


 203:D:/iot/felix2/targets/Cloud_STM32L431_BearPi/Drivers/STM32L4xx_HAL_Driver/Src\stm32l4xx_hal_rcc.c ****                 You have to use HAL_RCCEx_PeriphCLKConfig() function to configure this clock.
 204:D:/iot/felix2/targets/Cloud_STM32L431_BearPi/Drivers/STM32L4xx_HAL_Driver/Src\stm32l4xx_hal_rcc.c ****            (+@) RTC: the RTC clock can be derived either from the LSI, LSE or HSE clock
 205:D:/iot/felix2/targets/Cloud_STM32L431_BearPi/Drivers/STM32L4xx_HAL_Driver/Src\stm32l4xx_hal_rcc.c ****                 divided by 2 to 31.
 206:D:/iot/felix2/targets/Cloud_STM32L431_BearPi/Drivers/STM32L4xx_HAL_Driver/Src\stm32l4xx_hal_rcc.c ****                 You have to use __HAL_RCC_RTC_ENABLE() and HAL_RCCEx_PeriphCLKConfig() function
 207:D:/iot/felix2/targets/Cloud_STM32L431_BearPi/Drivers/STM32L4xx_HAL_Driver/Src\stm32l4xx_hal_rcc.c ****                 to configure this clock.
 208:D:/iot/felix2/targets/Cloud_STM32L431_BearPi/Drivers/STM32L4xx_HAL_Driver/Src\stm32l4xx_hal_rcc.c ****            (+@) USB OTG FS, SDMMC1 and RNG: USB OTG FS requires a frequency equal to 48 MHz
 209:D:/iot/felix2/targets/Cloud_STM32L431_BearPi/Drivers/STM32L4xx_HAL_Driver/Src\stm32l4xx_hal_rcc.c ****                 to work correctly, while the SDMMC1 and RNG peripherals require a frequency
 210:D:/iot/felix2/targets/Cloud_STM32L431_BearPi/Drivers/STM32L4xx_HAL_Driver/Src\stm32l4xx_hal_rcc.c ****                 equal or lower than to 48 MHz. This clock is derived of the main PLL or PLLSAI1
 211:D:/iot/felix2/targets/Cloud_STM32L431_BearPi/Drivers/STM32L4xx_HAL_Driver/Src\stm32l4xx_hal_rcc.c ****                 through PLLQ divider. You have to enable the peripheral clock and use
 212:D:/iot/felix2/targets/Cloud_STM32L431_BearPi/Drivers/STM32L4xx_HAL_Driver/Src\stm32l4xx_hal_rcc.c ****                 HAL_RCCEx_PeriphCLKConfig() function to configure this clock.
 213:D:/iot/felix2/targets/Cloud_STM32L431_BearPi/Drivers/STM32L4xx_HAL_Driver/Src\stm32l4xx_hal_rcc.c ****            (+@) IWDG clock which is always the LSI clock.
 214:D:/iot/felix2/targets/Cloud_STM32L431_BearPi/Drivers/STM32L4xx_HAL_Driver/Src\stm32l4xx_hal_rcc.c **** 
 215:D:/iot/felix2/targets/Cloud_STM32L431_BearPi/Drivers/STM32L4xx_HAL_Driver/Src\stm32l4xx_hal_rcc.c **** 
 216:D:/iot/felix2/targets/Cloud_STM32L431_BearPi/Drivers/STM32L4xx_HAL_Driver/Src\stm32l4xx_hal_rcc.c ****          (+) The maximum frequency of the SYSCLK, HCLK, PCLK1 and PCLK2 is 80 MHz.
 217:D:/iot/felix2/targets/Cloud_STM32L431_BearPi/Drivers/STM32L4xx_HAL_Driver/Src\stm32l4xx_hal_rcc.c ****              The clock source frequency should be adapted depending on the device voltage range
 218:D:/iot/felix2/targets/Cloud_STM32L431_BearPi/Drivers/STM32L4xx_HAL_Driver/Src\stm32l4xx_hal_rcc.c ****              as listed in the Reference Manual "Clock source frequency versus voltage scaling" chap
 219:D:/iot/felix2/targets/Cloud_STM32L431_BearPi/Drivers/STM32L4xx_HAL_Driver/Src\stm32l4xx_hal_rcc.c **** 
 220:D:/iot/felix2/targets/Cloud_STM32L431_BearPi/Drivers/STM32L4xx_HAL_Driver/Src\stm32l4xx_hal_rcc.c ****   @endverbatim
 221:D:/iot/felix2/targets/Cloud_STM32L431_BearPi/Drivers/STM32L4xx_HAL_Driver/Src\stm32l4xx_hal_rcc.c **** 
 222:D:/iot/felix2/targets/Cloud_STM32L431_BearPi/Drivers/STM32L4xx_HAL_Driver/Src\stm32l4xx_hal_rcc.c ****            Table 1. HCLK clock frequency for STM32L4Rx/STM32L4Sx devices
 223:D:/iot/felix2/targets/Cloud_STM32L431_BearPi/Drivers/STM32L4xx_HAL_Driver/Src\stm32l4xx_hal_rcc.c ****            +--------------------------------------------------------+
 224:D:/iot/felix2/targets/Cloud_STM32L431_BearPi/Drivers/STM32L4xx_HAL_Driver/Src\stm32l4xx_hal_rcc.c ****            | Latency         |     HCLK clock frequency (MHz)       |
 225:D:/iot/felix2/targets/Cloud_STM32L431_BearPi/Drivers/STM32L4xx_HAL_Driver/Src\stm32l4xx_hal_rcc.c ****            |                 |--------------------------------------|
 226:D:/iot/felix2/targets/Cloud_STM32L431_BearPi/Drivers/STM32L4xx_HAL_Driver/Src\stm32l4xx_hal_rcc.c ****            |                 |  voltage range 1  | voltage range 2  |
 227:D:/iot/felix2/targets/Cloud_STM32L431_BearPi/Drivers/STM32L4xx_HAL_Driver/Src\stm32l4xx_hal_rcc.c ****            |                 |       1.2 V       |     1.0 V        |
 228:D:/iot/felix2/targets/Cloud_STM32L431_BearPi/Drivers/STM32L4xx_HAL_Driver/Src\stm32l4xx_hal_rcc.c ****            |-----------------|-------------------|------------------|
 229:D:/iot/felix2/targets/Cloud_STM32L431_BearPi/Drivers/STM32L4xx_HAL_Driver/Src\stm32l4xx_hal_rcc.c ****            |0WS(1 CPU cycles)|   0 < HCLK <= 20  |  0 < HCLK <= 8   |
 230:D:/iot/felix2/targets/Cloud_STM32L431_BearPi/Drivers/STM32L4xx_HAL_Driver/Src\stm32l4xx_hal_rcc.c ****            |-----------------|-------------------|------------------|
 231:D:/iot/felix2/targets/Cloud_STM32L431_BearPi/Drivers/STM32L4xx_HAL_Driver/Src\stm32l4xx_hal_rcc.c ****            |1WS(2 CPU cycles)|  20 < HCLK <= 40  |  8 < HCLK <= 16  |
 232:D:/iot/felix2/targets/Cloud_STM32L431_BearPi/Drivers/STM32L4xx_HAL_Driver/Src\stm32l4xx_hal_rcc.c ****            |-----------------|-------------------|------------------|
 233:D:/iot/felix2/targets/Cloud_STM32L431_BearPi/Drivers/STM32L4xx_HAL_Driver/Src\stm32l4xx_hal_rcc.c ****            |2WS(3 CPU cycles)|  40 < HCLK <= 60  | 16 < HCLK <= 26  |
 234:D:/iot/felix2/targets/Cloud_STM32L431_BearPi/Drivers/STM32L4xx_HAL_Driver/Src\stm32l4xx_hal_rcc.c ****            |-----------------|-------------------|------------------|
 235:D:/iot/felix2/targets/Cloud_STM32L431_BearPi/Drivers/STM32L4xx_HAL_Driver/Src\stm32l4xx_hal_rcc.c ****            |3WS(4 CPU cycles)|  60 < HCLK <= 80  | 16 < HCLK <= 26  |
 236:D:/iot/felix2/targets/Cloud_STM32L431_BearPi/Drivers/STM32L4xx_HAL_Driver/Src\stm32l4xx_hal_rcc.c ****            |-----------------|-------------------|------------------|
 237:D:/iot/felix2/targets/Cloud_STM32L431_BearPi/Drivers/STM32L4xx_HAL_Driver/Src\stm32l4xx_hal_rcc.c ****            |4WS(5 CPU cycles)|  80 < HCLK <= 100 | 16 < HCLK <= 26  |
 238:D:/iot/felix2/targets/Cloud_STM32L431_BearPi/Drivers/STM32L4xx_HAL_Driver/Src\stm32l4xx_hal_rcc.c ****            |-----------------|-------------------|------------------|
 239:D:/iot/felix2/targets/Cloud_STM32L431_BearPi/Drivers/STM32L4xx_HAL_Driver/Src\stm32l4xx_hal_rcc.c ****            |5WS(6 CPU cycles)| 100 < HCLK <= 120 | 16 < HCLK <= 26  |
 240:D:/iot/felix2/targets/Cloud_STM32L431_BearPi/Drivers/STM32L4xx_HAL_Driver/Src\stm32l4xx_hal_rcc.c ****            +--------------------------------------------------------+
 241:D:/iot/felix2/targets/Cloud_STM32L431_BearPi/Drivers/STM32L4xx_HAL_Driver/Src\stm32l4xx_hal_rcc.c **** 
 242:D:/iot/felix2/targets/Cloud_STM32L431_BearPi/Drivers/STM32L4xx_HAL_Driver/Src\stm32l4xx_hal_rcc.c ****            Table 2. HCLK clock frequency for other STM32L4 devices
 243:D:/iot/felix2/targets/Cloud_STM32L431_BearPi/Drivers/STM32L4xx_HAL_Driver/Src\stm32l4xx_hal_rcc.c ****            +-------------------------------------------------------+
 244:D:/iot/felix2/targets/Cloud_STM32L431_BearPi/Drivers/STM32L4xx_HAL_Driver/Src\stm32l4xx_hal_rcc.c ****            | Latency         |    HCLK clock frequency (MHz)       |
 245:D:/iot/felix2/targets/Cloud_STM32L431_BearPi/Drivers/STM32L4xx_HAL_Driver/Src\stm32l4xx_hal_rcc.c ****            |                 |-------------------------------------|
 246:D:/iot/felix2/targets/Cloud_STM32L431_BearPi/Drivers/STM32L4xx_HAL_Driver/Src\stm32l4xx_hal_rcc.c ****            |                 | voltage range 1  | voltage range 2  |
 247:D:/iot/felix2/targets/Cloud_STM32L431_BearPi/Drivers/STM32L4xx_HAL_Driver/Src\stm32l4xx_hal_rcc.c ****            |                 |      1.2 V       |     1.0 V        |
 248:D:/iot/felix2/targets/Cloud_STM32L431_BearPi/Drivers/STM32L4xx_HAL_Driver/Src\stm32l4xx_hal_rcc.c ****            |-----------------|------------------|------------------|
 249:D:/iot/felix2/targets/Cloud_STM32L431_BearPi/Drivers/STM32L4xx_HAL_Driver/Src\stm32l4xx_hal_rcc.c ****            |0WS(1 CPU cycles)|  0 < HCLK <= 16  |  0 < HCLK <= 6   |
 250:D:/iot/felix2/targets/Cloud_STM32L431_BearPi/Drivers/STM32L4xx_HAL_Driver/Src\stm32l4xx_hal_rcc.c ****            |-----------------|------------------|------------------|
 251:D:/iot/felix2/targets/Cloud_STM32L431_BearPi/Drivers/STM32L4xx_HAL_Driver/Src\stm32l4xx_hal_rcc.c ****            |1WS(2 CPU cycles)| 16 < HCLK <= 32  |  6 < HCLK <= 12  |
 252:D:/iot/felix2/targets/Cloud_STM32L431_BearPi/Drivers/STM32L4xx_HAL_Driver/Src\stm32l4xx_hal_rcc.c ****            |-----------------|------------------|------------------|
 253:D:/iot/felix2/targets/Cloud_STM32L431_BearPi/Drivers/STM32L4xx_HAL_Driver/Src\stm32l4xx_hal_rcc.c ****            |2WS(3 CPU cycles)| 32 < HCLK <= 48  | 12 < HCLK <= 18  |
 254:D:/iot/felix2/targets/Cloud_STM32L431_BearPi/Drivers/STM32L4xx_HAL_Driver/Src\stm32l4xx_hal_rcc.c ****            |-----------------|------------------|------------------|
 255:D:/iot/felix2/targets/Cloud_STM32L431_BearPi/Drivers/STM32L4xx_HAL_Driver/Src\stm32l4xx_hal_rcc.c ****            |3WS(4 CPU cycles)| 48 < HCLK <= 64  | 18 < HCLK <= 26  |
 256:D:/iot/felix2/targets/Cloud_STM32L431_BearPi/Drivers/STM32L4xx_HAL_Driver/Src\stm32l4xx_hal_rcc.c ****            |-----------------|------------------|------------------|
 257:D:/iot/felix2/targets/Cloud_STM32L431_BearPi/Drivers/STM32L4xx_HAL_Driver/Src\stm32l4xx_hal_rcc.c ****            |4WS(5 CPU cycles)| 64 < HCLK <= 80  | 18 < HCLK <= 26  |
 258:D:/iot/felix2/targets/Cloud_STM32L431_BearPi/Drivers/STM32L4xx_HAL_Driver/Src\stm32l4xx_hal_rcc.c ****            +-------------------------------------------------------+
 259:D:/iot/felix2/targets/Cloud_STM32L431_BearPi/Drivers/STM32L4xx_HAL_Driver/Src\stm32l4xx_hal_rcc.c ****   * @{
ARM GAS  C:\Users\91458\AppData\Local\Temp\ccHvSglx.s 			page 6


 260:D:/iot/felix2/targets/Cloud_STM32L431_BearPi/Drivers/STM32L4xx_HAL_Driver/Src\stm32l4xx_hal_rcc.c ****   */
 261:D:/iot/felix2/targets/Cloud_STM32L431_BearPi/Drivers/STM32L4xx_HAL_Driver/Src\stm32l4xx_hal_rcc.c **** 
 262:D:/iot/felix2/targets/Cloud_STM32L431_BearPi/Drivers/STM32L4xx_HAL_Driver/Src\stm32l4xx_hal_rcc.c **** /**
 263:D:/iot/felix2/targets/Cloud_STM32L431_BearPi/Drivers/STM32L4xx_HAL_Driver/Src\stm32l4xx_hal_rcc.c ****   * @brief  Reset the RCC clock configuration to the default reset state.
 264:D:/iot/felix2/targets/Cloud_STM32L431_BearPi/Drivers/STM32L4xx_HAL_Driver/Src\stm32l4xx_hal_rcc.c ****   * @note   The default reset state of the clock configuration is given below:
 265:D:/iot/felix2/targets/Cloud_STM32L431_BearPi/Drivers/STM32L4xx_HAL_Driver/Src\stm32l4xx_hal_rcc.c ****   *            - MSI ON and used as system clock source
 266:D:/iot/felix2/targets/Cloud_STM32L431_BearPi/Drivers/STM32L4xx_HAL_Driver/Src\stm32l4xx_hal_rcc.c ****   *            - HSE, HSI, PLL, PLLSAI1 and PLLISAI2 OFF
 267:D:/iot/felix2/targets/Cloud_STM32L431_BearPi/Drivers/STM32L4xx_HAL_Driver/Src\stm32l4xx_hal_rcc.c ****   *            - AHB, APB1 and APB2 prescaler set to 1.
 268:D:/iot/felix2/targets/Cloud_STM32L431_BearPi/Drivers/STM32L4xx_HAL_Driver/Src\stm32l4xx_hal_rcc.c ****   *            - CSS, MCO1 OFF
 269:D:/iot/felix2/targets/Cloud_STM32L431_BearPi/Drivers/STM32L4xx_HAL_Driver/Src\stm32l4xx_hal_rcc.c ****   *            - All interrupts disabled
 270:D:/iot/felix2/targets/Cloud_STM32L431_BearPi/Drivers/STM32L4xx_HAL_Driver/Src\stm32l4xx_hal_rcc.c ****   *            - All interrupt and reset flags cleared
 271:D:/iot/felix2/targets/Cloud_STM32L431_BearPi/Drivers/STM32L4xx_HAL_Driver/Src\stm32l4xx_hal_rcc.c ****   * @note   This function doesn't modify the configuration of the
 272:D:/iot/felix2/targets/Cloud_STM32L431_BearPi/Drivers/STM32L4xx_HAL_Driver/Src\stm32l4xx_hal_rcc.c ****   *            - Peripheral clocks
 273:D:/iot/felix2/targets/Cloud_STM32L431_BearPi/Drivers/STM32L4xx_HAL_Driver/Src\stm32l4xx_hal_rcc.c ****   *            - LSI, LSE and RTC clocks
 274:D:/iot/felix2/targets/Cloud_STM32L431_BearPi/Drivers/STM32L4xx_HAL_Driver/Src\stm32l4xx_hal_rcc.c ****   * @retval HAL status
 275:D:/iot/felix2/targets/Cloud_STM32L431_BearPi/Drivers/STM32L4xx_HAL_Driver/Src\stm32l4xx_hal_rcc.c ****   */
 276:D:/iot/felix2/targets/Cloud_STM32L431_BearPi/Drivers/STM32L4xx_HAL_Driver/Src\stm32l4xx_hal_rcc.c **** HAL_StatusTypeDef HAL_RCC_DeInit(void)
 277:D:/iot/felix2/targets/Cloud_STM32L431_BearPi/Drivers/STM32L4xx_HAL_Driver/Src\stm32l4xx_hal_rcc.c **** {
  28              		.loc 1 277 0
  29              		.cfi_startproc
  30              		@ args = 0, pretend = 0, frame = 8
  31              		@ frame_needed = 1, uses_anonymous_args = 0
  32 0000 80B5     		push	{r7, lr}
  33              	.LCFI0:
  34              		.cfi_def_cfa_offset 8
  35              		.cfi_offset 7, -8
  36              		.cfi_offset 14, -4
  37 0002 82B0     		sub	sp, sp, #8
  38              	.LCFI1:
  39              		.cfi_def_cfa_offset 16
  40 0004 00AF     		add	r7, sp, #0
  41              	.LCFI2:
  42              		.cfi_def_cfa_register 7
 278:D:/iot/felix2/targets/Cloud_STM32L431_BearPi/Drivers/STM32L4xx_HAL_Driver/Src\stm32l4xx_hal_rcc.c ****   uint32_t tickstart = 0;
  43              		.loc 1 278 0
  44 0006 0023     		movs	r3, #0
  45 0008 7B60     		str	r3, [r7, #4]
 279:D:/iot/felix2/targets/Cloud_STM32L431_BearPi/Drivers/STM32L4xx_HAL_Driver/Src\stm32l4xx_hal_rcc.c **** 
 280:D:/iot/felix2/targets/Cloud_STM32L431_BearPi/Drivers/STM32L4xx_HAL_Driver/Src\stm32l4xx_hal_rcc.c ****   /* Set MSION bit */
 281:D:/iot/felix2/targets/Cloud_STM32L431_BearPi/Drivers/STM32L4xx_HAL_Driver/Src\stm32l4xx_hal_rcc.c ****   SET_BIT(RCC->CR, RCC_CR_MSION);
  46              		.loc 1 281 0
  47 000a 444B     		ldr	r3, .L10
  48 000c 1B68     		ldr	r3, [r3]
  49 000e 434A     		ldr	r2, .L10
  50 0010 43F00103 		orr	r3, r3, #1
  51 0014 1360     		str	r3, [r2]
 282:D:/iot/felix2/targets/Cloud_STM32L431_BearPi/Drivers/STM32L4xx_HAL_Driver/Src\stm32l4xx_hal_rcc.c **** 
 283:D:/iot/felix2/targets/Cloud_STM32L431_BearPi/Drivers/STM32L4xx_HAL_Driver/Src\stm32l4xx_hal_rcc.c ****   /* Insure MSIRDY bit is set before writing default MSIRANGE value */
 284:D:/iot/felix2/targets/Cloud_STM32L431_BearPi/Drivers/STM32L4xx_HAL_Driver/Src\stm32l4xx_hal_rcc.c ****   /* Get start tick */
 285:D:/iot/felix2/targets/Cloud_STM32L431_BearPi/Drivers/STM32L4xx_HAL_Driver/Src\stm32l4xx_hal_rcc.c ****   tickstart = HAL_GetTick();
  52              		.loc 1 285 0
  53 0016 FFF7FEFF 		bl	HAL_GetTick
  54 001a 7860     		str	r0, [r7, #4]
 286:D:/iot/felix2/targets/Cloud_STM32L431_BearPi/Drivers/STM32L4xx_HAL_Driver/Src\stm32l4xx_hal_rcc.c **** 
 287:D:/iot/felix2/targets/Cloud_STM32L431_BearPi/Drivers/STM32L4xx_HAL_Driver/Src\stm32l4xx_hal_rcc.c ****   /* Wait till MSI is ready */
 288:D:/iot/felix2/targets/Cloud_STM32L431_BearPi/Drivers/STM32L4xx_HAL_Driver/Src\stm32l4xx_hal_rcc.c ****   while(READ_BIT(RCC->CR, RCC_CR_MSIRDY) == RESET)
  55              		.loc 1 288 0
ARM GAS  C:\Users\91458\AppData\Local\Temp\ccHvSglx.s 			page 7


  56 001c 08E0     		b	.L2
  57              	.L4:
 289:D:/iot/felix2/targets/Cloud_STM32L431_BearPi/Drivers/STM32L4xx_HAL_Driver/Src\stm32l4xx_hal_rcc.c ****   {
 290:D:/iot/felix2/targets/Cloud_STM32L431_BearPi/Drivers/STM32L4xx_HAL_Driver/Src\stm32l4xx_hal_rcc.c ****     if((HAL_GetTick() - tickstart) > MSI_TIMEOUT_VALUE)
  58              		.loc 1 290 0
  59 001e FFF7FEFF 		bl	HAL_GetTick
  60 0022 0246     		mov	r2, r0
  61 0024 7B68     		ldr	r3, [r7, #4]
  62 0026 D31A     		subs	r3, r2, r3
  63 0028 022B     		cmp	r3, #2
  64 002a 01D9     		bls	.L2
 291:D:/iot/felix2/targets/Cloud_STM32L431_BearPi/Drivers/STM32L4xx_HAL_Driver/Src\stm32l4xx_hal_rcc.c ****     {
 292:D:/iot/felix2/targets/Cloud_STM32L431_BearPi/Drivers/STM32L4xx_HAL_Driver/Src\stm32l4xx_hal_rcc.c ****       return HAL_TIMEOUT;
  65              		.loc 1 292 0
  66 002c 0323     		movs	r3, #3
  67 002e 71E0     		b	.L3
  68              	.L2:
 288:D:/iot/felix2/targets/Cloud_STM32L431_BearPi/Drivers/STM32L4xx_HAL_Driver/Src\stm32l4xx_hal_rcc.c ****   {
  69              		.loc 1 288 0
  70 0030 3A4B     		ldr	r3, .L10
  71 0032 1B68     		ldr	r3, [r3]
  72 0034 03F00203 		and	r3, r3, #2
  73 0038 002B     		cmp	r3, #0
  74 003a F0D0     		beq	.L4
 293:D:/iot/felix2/targets/Cloud_STM32L431_BearPi/Drivers/STM32L4xx_HAL_Driver/Src\stm32l4xx_hal_rcc.c ****     }
 294:D:/iot/felix2/targets/Cloud_STM32L431_BearPi/Drivers/STM32L4xx_HAL_Driver/Src\stm32l4xx_hal_rcc.c ****   }
 295:D:/iot/felix2/targets/Cloud_STM32L431_BearPi/Drivers/STM32L4xx_HAL_Driver/Src\stm32l4xx_hal_rcc.c **** 
 296:D:/iot/felix2/targets/Cloud_STM32L431_BearPi/Drivers/STM32L4xx_HAL_Driver/Src\stm32l4xx_hal_rcc.c ****   /* Set MSIRANGE default value */
 297:D:/iot/felix2/targets/Cloud_STM32L431_BearPi/Drivers/STM32L4xx_HAL_Driver/Src\stm32l4xx_hal_rcc.c ****   MODIFY_REG(RCC->CR, RCC_CR_MSIRANGE, RCC_MSIRANGE_6);
  75              		.loc 1 297 0
  76 003c 374B     		ldr	r3, .L10
  77 003e 1B68     		ldr	r3, [r3]
  78 0040 23F0F003 		bic	r3, r3, #240
  79 0044 354A     		ldr	r2, .L10
  80 0046 43F06003 		orr	r3, r3, #96
  81 004a 1360     		str	r3, [r2]
 298:D:/iot/felix2/targets/Cloud_STM32L431_BearPi/Drivers/STM32L4xx_HAL_Driver/Src\stm32l4xx_hal_rcc.c **** 
 299:D:/iot/felix2/targets/Cloud_STM32L431_BearPi/Drivers/STM32L4xx_HAL_Driver/Src\stm32l4xx_hal_rcc.c ****   /* Reset CFGR register (MSI is selected as system clock source) */
 300:D:/iot/felix2/targets/Cloud_STM32L431_BearPi/Drivers/STM32L4xx_HAL_Driver/Src\stm32l4xx_hal_rcc.c ****   CLEAR_REG(RCC->CFGR);
  82              		.loc 1 300 0
  83 004c 334B     		ldr	r3, .L10
  84 004e 0022     		movs	r2, #0
  85 0050 9A60     		str	r2, [r3, #8]
 301:D:/iot/felix2/targets/Cloud_STM32L431_BearPi/Drivers/STM32L4xx_HAL_Driver/Src\stm32l4xx_hal_rcc.c **** 
 302:D:/iot/felix2/targets/Cloud_STM32L431_BearPi/Drivers/STM32L4xx_HAL_Driver/Src\stm32l4xx_hal_rcc.c ****   /* Update the SystemCoreClock global variable for MSI as system clock source */
 303:D:/iot/felix2/targets/Cloud_STM32L431_BearPi/Drivers/STM32L4xx_HAL_Driver/Src\stm32l4xx_hal_rcc.c ****   SystemCoreClock = MSI_VALUE;
  86              		.loc 1 303 0
  87 0052 334B     		ldr	r3, .L10+4
  88 0054 334A     		ldr	r2, .L10+8
  89 0056 1A60     		str	r2, [r3]
 304:D:/iot/felix2/targets/Cloud_STM32L431_BearPi/Drivers/STM32L4xx_HAL_Driver/Src\stm32l4xx_hal_rcc.c **** 
 305:D:/iot/felix2/targets/Cloud_STM32L431_BearPi/Drivers/STM32L4xx_HAL_Driver/Src\stm32l4xx_hal_rcc.c ****   /* Configure the source of time base considering new system clock settings  */
 306:D:/iot/felix2/targets/Cloud_STM32L431_BearPi/Drivers/STM32L4xx_HAL_Driver/Src\stm32l4xx_hal_rcc.c ****   if(HAL_InitTick(TICK_INT_PRIORITY) != HAL_OK)
  90              		.loc 1 306 0
  91 0058 0020     		movs	r0, #0
  92 005a FFF7FEFF 		bl	HAL_InitTick
  93 005e 0346     		mov	r3, r0
ARM GAS  C:\Users\91458\AppData\Local\Temp\ccHvSglx.s 			page 8


  94 0060 002B     		cmp	r3, #0
  95 0062 01D0     		beq	.L5
 307:D:/iot/felix2/targets/Cloud_STM32L431_BearPi/Drivers/STM32L4xx_HAL_Driver/Src\stm32l4xx_hal_rcc.c ****   {
 308:D:/iot/felix2/targets/Cloud_STM32L431_BearPi/Drivers/STM32L4xx_HAL_Driver/Src\stm32l4xx_hal_rcc.c ****     return HAL_ERROR;
  96              		.loc 1 308 0
  97 0064 0123     		movs	r3, #1
  98 0066 55E0     		b	.L3
  99              	.L5:
 309:D:/iot/felix2/targets/Cloud_STM32L431_BearPi/Drivers/STM32L4xx_HAL_Driver/Src\stm32l4xx_hal_rcc.c ****   }
 310:D:/iot/felix2/targets/Cloud_STM32L431_BearPi/Drivers/STM32L4xx_HAL_Driver/Src\stm32l4xx_hal_rcc.c **** 
 311:D:/iot/felix2/targets/Cloud_STM32L431_BearPi/Drivers/STM32L4xx_HAL_Driver/Src\stm32l4xx_hal_rcc.c ****   /* Insure MSI selected as system clock source */
 312:D:/iot/felix2/targets/Cloud_STM32L431_BearPi/Drivers/STM32L4xx_HAL_Driver/Src\stm32l4xx_hal_rcc.c ****   /* Get start tick */
 313:D:/iot/felix2/targets/Cloud_STM32L431_BearPi/Drivers/STM32L4xx_HAL_Driver/Src\stm32l4xx_hal_rcc.c ****   tickstart = HAL_GetTick();
 100              		.loc 1 313 0
 101 0068 FFF7FEFF 		bl	HAL_GetTick
 102 006c 7860     		str	r0, [r7, #4]
 314:D:/iot/felix2/targets/Cloud_STM32L431_BearPi/Drivers/STM32L4xx_HAL_Driver/Src\stm32l4xx_hal_rcc.c **** 
 315:D:/iot/felix2/targets/Cloud_STM32L431_BearPi/Drivers/STM32L4xx_HAL_Driver/Src\stm32l4xx_hal_rcc.c ****   /* Wait till system clock source is ready */
 316:D:/iot/felix2/targets/Cloud_STM32L431_BearPi/Drivers/STM32L4xx_HAL_Driver/Src\stm32l4xx_hal_rcc.c ****   while(READ_BIT(RCC->CFGR, RCC_CFGR_SWS) != RCC_CFGR_SWS_MSI)
 103              		.loc 1 316 0
 104 006e 0AE0     		b	.L6
 105              	.L7:
 317:D:/iot/felix2/targets/Cloud_STM32L431_BearPi/Drivers/STM32L4xx_HAL_Driver/Src\stm32l4xx_hal_rcc.c ****   {
 318:D:/iot/felix2/targets/Cloud_STM32L431_BearPi/Drivers/STM32L4xx_HAL_Driver/Src\stm32l4xx_hal_rcc.c ****     if((HAL_GetTick() - tickstart) > CLOCKSWITCH_TIMEOUT_VALUE)
 106              		.loc 1 318 0
 107 0070 FFF7FEFF 		bl	HAL_GetTick
 108 0074 0246     		mov	r2, r0
 109 0076 7B68     		ldr	r3, [r7, #4]
 110 0078 D31A     		subs	r3, r2, r3
 111 007a 41F28832 		movw	r2, #5000
 112 007e 9342     		cmp	r3, r2
 113 0080 01D9     		bls	.L6
 319:D:/iot/felix2/targets/Cloud_STM32L431_BearPi/Drivers/STM32L4xx_HAL_Driver/Src\stm32l4xx_hal_rcc.c ****     {
 320:D:/iot/felix2/targets/Cloud_STM32L431_BearPi/Drivers/STM32L4xx_HAL_Driver/Src\stm32l4xx_hal_rcc.c ****       return HAL_TIMEOUT;
 114              		.loc 1 320 0
 115 0082 0323     		movs	r3, #3
 116 0084 46E0     		b	.L3
 117              	.L6:
 316:D:/iot/felix2/targets/Cloud_STM32L431_BearPi/Drivers/STM32L4xx_HAL_Driver/Src\stm32l4xx_hal_rcc.c ****   {
 118              		.loc 1 316 0
 119 0086 254B     		ldr	r3, .L10
 120 0088 9B68     		ldr	r3, [r3, #8]
 121 008a 03F00C03 		and	r3, r3, #12
 122 008e 002B     		cmp	r3, #0
 123 0090 EED1     		bne	.L7
 321:D:/iot/felix2/targets/Cloud_STM32L431_BearPi/Drivers/STM32L4xx_HAL_Driver/Src\stm32l4xx_hal_rcc.c ****     }
 322:D:/iot/felix2/targets/Cloud_STM32L431_BearPi/Drivers/STM32L4xx_HAL_Driver/Src\stm32l4xx_hal_rcc.c ****   }
 323:D:/iot/felix2/targets/Cloud_STM32L431_BearPi/Drivers/STM32L4xx_HAL_Driver/Src\stm32l4xx_hal_rcc.c **** 
 324:D:/iot/felix2/targets/Cloud_STM32L431_BearPi/Drivers/STM32L4xx_HAL_Driver/Src\stm32l4xx_hal_rcc.c ****   /* Reset HSION, HSIKERON, HSIASFS, HSEON, HSECSSON, PLLON, PLLSAIxON bits */
 325:D:/iot/felix2/targets/Cloud_STM32L431_BearPi/Drivers/STM32L4xx_HAL_Driver/Src\stm32l4xx_hal_rcc.c **** #if defined(RCC_PLLSAI2_SUPPORT)
 326:D:/iot/felix2/targets/Cloud_STM32L431_BearPi/Drivers/STM32L4xx_HAL_Driver/Src\stm32l4xx_hal_rcc.c **** 
 327:D:/iot/felix2/targets/Cloud_STM32L431_BearPi/Drivers/STM32L4xx_HAL_Driver/Src\stm32l4xx_hal_rcc.c ****   CLEAR_BIT(RCC->CR, RCC_CR_HSEON | RCC_CR_HSION | RCC_CR_HSIKERON| RCC_CR_HSIASFS | RCC_CR_PLLON |
 328:D:/iot/felix2/targets/Cloud_STM32L431_BearPi/Drivers/STM32L4xx_HAL_Driver/Src\stm32l4xx_hal_rcc.c **** 
 329:D:/iot/felix2/targets/Cloud_STM32L431_BearPi/Drivers/STM32L4xx_HAL_Driver/Src\stm32l4xx_hal_rcc.c **** #else
 330:D:/iot/felix2/targets/Cloud_STM32L431_BearPi/Drivers/STM32L4xx_HAL_Driver/Src\stm32l4xx_hal_rcc.c **** 
 331:D:/iot/felix2/targets/Cloud_STM32L431_BearPi/Drivers/STM32L4xx_HAL_Driver/Src\stm32l4xx_hal_rcc.c ****   CLEAR_BIT(RCC->CR, RCC_CR_HSEON | RCC_CR_HSION | RCC_CR_HSIKERON| RCC_CR_HSIASFS | RCC_CR_PLLON |
 124              		.loc 1 331 0
ARM GAS  C:\Users\91458\AppData\Local\Temp\ccHvSglx.s 			page 9


 125 0092 224B     		ldr	r3, .L10
 126 0094 1A68     		ldr	r2, [r3]
 127 0096 2149     		ldr	r1, .L10
 128 0098 234B     		ldr	r3, .L10+12
 129 009a 1340     		ands	r3, r3, r2
 130 009c 0B60     		str	r3, [r1]
 332:D:/iot/felix2/targets/Cloud_STM32L431_BearPi/Drivers/STM32L4xx_HAL_Driver/Src\stm32l4xx_hal_rcc.c **** 
 333:D:/iot/felix2/targets/Cloud_STM32L431_BearPi/Drivers/STM32L4xx_HAL_Driver/Src\stm32l4xx_hal_rcc.c **** #endif /* RCC_PLLSAI2_SUPPORT */
 334:D:/iot/felix2/targets/Cloud_STM32L431_BearPi/Drivers/STM32L4xx_HAL_Driver/Src\stm32l4xx_hal_rcc.c **** 
 335:D:/iot/felix2/targets/Cloud_STM32L431_BearPi/Drivers/STM32L4xx_HAL_Driver/Src\stm32l4xx_hal_rcc.c ****   /* Insure PLLRDY, PLLSAI1RDY and PLLSAI2RDY (if present) are reset */
 336:D:/iot/felix2/targets/Cloud_STM32L431_BearPi/Drivers/STM32L4xx_HAL_Driver/Src\stm32l4xx_hal_rcc.c ****   /* Get start tick */
 337:D:/iot/felix2/targets/Cloud_STM32L431_BearPi/Drivers/STM32L4xx_HAL_Driver/Src\stm32l4xx_hal_rcc.c ****   tickstart = HAL_GetTick();
 131              		.loc 1 337 0
 132 009e FFF7FEFF 		bl	HAL_GetTick
 133 00a2 7860     		str	r0, [r7, #4]
 338:D:/iot/felix2/targets/Cloud_STM32L431_BearPi/Drivers/STM32L4xx_HAL_Driver/Src\stm32l4xx_hal_rcc.c **** 
 339:D:/iot/felix2/targets/Cloud_STM32L431_BearPi/Drivers/STM32L4xx_HAL_Driver/Src\stm32l4xx_hal_rcc.c **** #if defined(RCC_PLLSAI2_SUPPORT)
 340:D:/iot/felix2/targets/Cloud_STM32L431_BearPi/Drivers/STM32L4xx_HAL_Driver/Src\stm32l4xx_hal_rcc.c **** 
 341:D:/iot/felix2/targets/Cloud_STM32L431_BearPi/Drivers/STM32L4xx_HAL_Driver/Src\stm32l4xx_hal_rcc.c ****   while(READ_BIT(RCC->CR, RCC_CR_PLLRDY | RCC_CR_PLLSAI1RDY | RCC_CR_PLLSAI2RDY) != 0U)
 342:D:/iot/felix2/targets/Cloud_STM32L431_BearPi/Drivers/STM32L4xx_HAL_Driver/Src\stm32l4xx_hal_rcc.c **** 
 343:D:/iot/felix2/targets/Cloud_STM32L431_BearPi/Drivers/STM32L4xx_HAL_Driver/Src\stm32l4xx_hal_rcc.c **** #else
 344:D:/iot/felix2/targets/Cloud_STM32L431_BearPi/Drivers/STM32L4xx_HAL_Driver/Src\stm32l4xx_hal_rcc.c **** 
 345:D:/iot/felix2/targets/Cloud_STM32L431_BearPi/Drivers/STM32L4xx_HAL_Driver/Src\stm32l4xx_hal_rcc.c ****   while(READ_BIT(RCC->CR, RCC_CR_PLLRDY | RCC_CR_PLLSAI1RDY) != 0U)
 134              		.loc 1 345 0
 135 00a4 08E0     		b	.L8
 136              	.L9:
 346:D:/iot/felix2/targets/Cloud_STM32L431_BearPi/Drivers/STM32L4xx_HAL_Driver/Src\stm32l4xx_hal_rcc.c **** 
 347:D:/iot/felix2/targets/Cloud_STM32L431_BearPi/Drivers/STM32L4xx_HAL_Driver/Src\stm32l4xx_hal_rcc.c **** #endif
 348:D:/iot/felix2/targets/Cloud_STM32L431_BearPi/Drivers/STM32L4xx_HAL_Driver/Src\stm32l4xx_hal_rcc.c ****   {
 349:D:/iot/felix2/targets/Cloud_STM32L431_BearPi/Drivers/STM32L4xx_HAL_Driver/Src\stm32l4xx_hal_rcc.c ****     if((HAL_GetTick() - tickstart) > PLL_TIMEOUT_VALUE)
 137              		.loc 1 349 0
 138 00a6 FFF7FEFF 		bl	HAL_GetTick
 139 00aa 0246     		mov	r2, r0
 140 00ac 7B68     		ldr	r3, [r7, #4]
 141 00ae D31A     		subs	r3, r2, r3
 142 00b0 022B     		cmp	r3, #2
 143 00b2 01D9     		bls	.L8
 350:D:/iot/felix2/targets/Cloud_STM32L431_BearPi/Drivers/STM32L4xx_HAL_Driver/Src\stm32l4xx_hal_rcc.c ****     {
 351:D:/iot/felix2/targets/Cloud_STM32L431_BearPi/Drivers/STM32L4xx_HAL_Driver/Src\stm32l4xx_hal_rcc.c ****       return HAL_TIMEOUT;
 144              		.loc 1 351 0
 145 00b4 0323     		movs	r3, #3
 146 00b6 2DE0     		b	.L3
 147              	.L8:
 345:D:/iot/felix2/targets/Cloud_STM32L431_BearPi/Drivers/STM32L4xx_HAL_Driver/Src\stm32l4xx_hal_rcc.c **** 
 148              		.loc 1 345 0
 149 00b8 184B     		ldr	r3, .L10
 150 00ba 1B68     		ldr	r3, [r3]
 151 00bc 03F02063 		and	r3, r3, #167772160
 152 00c0 002B     		cmp	r3, #0
 153 00c2 F0D1     		bne	.L9
 352:D:/iot/felix2/targets/Cloud_STM32L431_BearPi/Drivers/STM32L4xx_HAL_Driver/Src\stm32l4xx_hal_rcc.c ****     }
 353:D:/iot/felix2/targets/Cloud_STM32L431_BearPi/Drivers/STM32L4xx_HAL_Driver/Src\stm32l4xx_hal_rcc.c ****   }
 354:D:/iot/felix2/targets/Cloud_STM32L431_BearPi/Drivers/STM32L4xx_HAL_Driver/Src\stm32l4xx_hal_rcc.c **** 
 355:D:/iot/felix2/targets/Cloud_STM32L431_BearPi/Drivers/STM32L4xx_HAL_Driver/Src\stm32l4xx_hal_rcc.c ****   /* Reset PLLCFGR register */
 356:D:/iot/felix2/targets/Cloud_STM32L431_BearPi/Drivers/STM32L4xx_HAL_Driver/Src\stm32l4xx_hal_rcc.c ****   CLEAR_REG(RCC->PLLCFGR);
 154              		.loc 1 356 0
 155 00c4 154B     		ldr	r3, .L10
ARM GAS  C:\Users\91458\AppData\Local\Temp\ccHvSglx.s 			page 10


 156 00c6 0022     		movs	r2, #0
 157 00c8 DA60     		str	r2, [r3, #12]
 357:D:/iot/felix2/targets/Cloud_STM32L431_BearPi/Drivers/STM32L4xx_HAL_Driver/Src\stm32l4xx_hal_rcc.c ****   SET_BIT(RCC->PLLCFGR, RCC_PLLCFGR_PLLN_4 );
 158              		.loc 1 357 0
 159 00ca 144B     		ldr	r3, .L10
 160 00cc DB68     		ldr	r3, [r3, #12]
 161 00ce 134A     		ldr	r2, .L10
 162 00d0 43F48053 		orr	r3, r3, #4096
 163 00d4 D360     		str	r3, [r2, #12]
 358:D:/iot/felix2/targets/Cloud_STM32L431_BearPi/Drivers/STM32L4xx_HAL_Driver/Src\stm32l4xx_hal_rcc.c **** 
 359:D:/iot/felix2/targets/Cloud_STM32L431_BearPi/Drivers/STM32L4xx_HAL_Driver/Src\stm32l4xx_hal_rcc.c ****   /* Reset PLLSAI1CFGR register */
 360:D:/iot/felix2/targets/Cloud_STM32L431_BearPi/Drivers/STM32L4xx_HAL_Driver/Src\stm32l4xx_hal_rcc.c ****   CLEAR_REG(RCC->PLLSAI1CFGR);
 164              		.loc 1 360 0
 165 00d6 114B     		ldr	r3, .L10
 166 00d8 0022     		movs	r2, #0
 167 00da 1A61     		str	r2, [r3, #16]
 361:D:/iot/felix2/targets/Cloud_STM32L431_BearPi/Drivers/STM32L4xx_HAL_Driver/Src\stm32l4xx_hal_rcc.c ****   SET_BIT(RCC->PLLSAI1CFGR,  RCC_PLLSAI1CFGR_PLLSAI1N_4 );
 168              		.loc 1 361 0
 169 00dc 0F4B     		ldr	r3, .L10
 170 00de 1B69     		ldr	r3, [r3, #16]
 171 00e0 0E4A     		ldr	r2, .L10
 172 00e2 43F48053 		orr	r3, r3, #4096
 173 00e6 1361     		str	r3, [r2, #16]
 362:D:/iot/felix2/targets/Cloud_STM32L431_BearPi/Drivers/STM32L4xx_HAL_Driver/Src\stm32l4xx_hal_rcc.c **** 
 363:D:/iot/felix2/targets/Cloud_STM32L431_BearPi/Drivers/STM32L4xx_HAL_Driver/Src\stm32l4xx_hal_rcc.c **** #if defined(RCC_PLLSAI2_SUPPORT)
 364:D:/iot/felix2/targets/Cloud_STM32L431_BearPi/Drivers/STM32L4xx_HAL_Driver/Src\stm32l4xx_hal_rcc.c **** 
 365:D:/iot/felix2/targets/Cloud_STM32L431_BearPi/Drivers/STM32L4xx_HAL_Driver/Src\stm32l4xx_hal_rcc.c ****   /* Reset PLLSAI2CFGR register */
 366:D:/iot/felix2/targets/Cloud_STM32L431_BearPi/Drivers/STM32L4xx_HAL_Driver/Src\stm32l4xx_hal_rcc.c ****   CLEAR_REG(RCC->PLLSAI2CFGR);
 367:D:/iot/felix2/targets/Cloud_STM32L431_BearPi/Drivers/STM32L4xx_HAL_Driver/Src\stm32l4xx_hal_rcc.c ****   SET_BIT(RCC->PLLSAI2CFGR,  RCC_PLLSAI2CFGR_PLLSAI2N_4 );
 368:D:/iot/felix2/targets/Cloud_STM32L431_BearPi/Drivers/STM32L4xx_HAL_Driver/Src\stm32l4xx_hal_rcc.c **** 
 369:D:/iot/felix2/targets/Cloud_STM32L431_BearPi/Drivers/STM32L4xx_HAL_Driver/Src\stm32l4xx_hal_rcc.c **** #endif /* RCC_PLLSAI2_SUPPORT */
 370:D:/iot/felix2/targets/Cloud_STM32L431_BearPi/Drivers/STM32L4xx_HAL_Driver/Src\stm32l4xx_hal_rcc.c **** 
 371:D:/iot/felix2/targets/Cloud_STM32L431_BearPi/Drivers/STM32L4xx_HAL_Driver/Src\stm32l4xx_hal_rcc.c ****   /* Reset HSEBYP bit */
 372:D:/iot/felix2/targets/Cloud_STM32L431_BearPi/Drivers/STM32L4xx_HAL_Driver/Src\stm32l4xx_hal_rcc.c ****   CLEAR_BIT(RCC->CR, RCC_CR_HSEBYP);
 174              		.loc 1 372 0
 175 00e8 0C4B     		ldr	r3, .L10
 176 00ea 1B68     		ldr	r3, [r3]
 177 00ec 0B4A     		ldr	r2, .L10
 178 00ee 23F48023 		bic	r3, r3, #262144
 179 00f2 1360     		str	r3, [r2]
 373:D:/iot/felix2/targets/Cloud_STM32L431_BearPi/Drivers/STM32L4xx_HAL_Driver/Src\stm32l4xx_hal_rcc.c **** 
 374:D:/iot/felix2/targets/Cloud_STM32L431_BearPi/Drivers/STM32L4xx_HAL_Driver/Src\stm32l4xx_hal_rcc.c ****   /* Disable all interrupts */
 375:D:/iot/felix2/targets/Cloud_STM32L431_BearPi/Drivers/STM32L4xx_HAL_Driver/Src\stm32l4xx_hal_rcc.c ****   CLEAR_REG(RCC->CIER);
 180              		.loc 1 375 0
 181 00f4 094B     		ldr	r3, .L10
 182 00f6 0022     		movs	r2, #0
 183 00f8 9A61     		str	r2, [r3, #24]
 376:D:/iot/felix2/targets/Cloud_STM32L431_BearPi/Drivers/STM32L4xx_HAL_Driver/Src\stm32l4xx_hal_rcc.c **** 
 377:D:/iot/felix2/targets/Cloud_STM32L431_BearPi/Drivers/STM32L4xx_HAL_Driver/Src\stm32l4xx_hal_rcc.c ****   /* Clear all interrupt flags */
 378:D:/iot/felix2/targets/Cloud_STM32L431_BearPi/Drivers/STM32L4xx_HAL_Driver/Src\stm32l4xx_hal_rcc.c ****   WRITE_REG(RCC->CICR, 0xFFFFFFFFU);
 184              		.loc 1 378 0
 185 00fa 084B     		ldr	r3, .L10
 186 00fc 4FF0FF32 		mov	r2, #-1
 187 0100 1A62     		str	r2, [r3, #32]
 379:D:/iot/felix2/targets/Cloud_STM32L431_BearPi/Drivers/STM32L4xx_HAL_Driver/Src\stm32l4xx_hal_rcc.c **** 
 380:D:/iot/felix2/targets/Cloud_STM32L431_BearPi/Drivers/STM32L4xx_HAL_Driver/Src\stm32l4xx_hal_rcc.c ****   /* Clear all reset flags */
 381:D:/iot/felix2/targets/Cloud_STM32L431_BearPi/Drivers/STM32L4xx_HAL_Driver/Src\stm32l4xx_hal_rcc.c ****   SET_BIT(RCC->CSR, RCC_CSR_RMVF);
ARM GAS  C:\Users\91458\AppData\Local\Temp\ccHvSglx.s 			page 11


 188              		.loc 1 381 0
 189 0102 064B     		ldr	r3, .L10
 190 0104 D3F89430 		ldr	r3, [r3, #148]
 191 0108 044A     		ldr	r2, .L10
 192 010a 43F40003 		orr	r3, r3, #8388608
 193 010e C2F89430 		str	r3, [r2, #148]
 382:D:/iot/felix2/targets/Cloud_STM32L431_BearPi/Drivers/STM32L4xx_HAL_Driver/Src\stm32l4xx_hal_rcc.c **** 
 383:D:/iot/felix2/targets/Cloud_STM32L431_BearPi/Drivers/STM32L4xx_HAL_Driver/Src\stm32l4xx_hal_rcc.c ****   return HAL_OK;
 194              		.loc 1 383 0
 195 0112 0023     		movs	r3, #0
 196              	.L3:
 384:D:/iot/felix2/targets/Cloud_STM32L431_BearPi/Drivers/STM32L4xx_HAL_Driver/Src\stm32l4xx_hal_rcc.c **** }
 197              		.loc 1 384 0
 198 0114 1846     		mov	r0, r3
 199 0116 0837     		adds	r7, r7, #8
 200              	.LCFI3:
 201              		.cfi_def_cfa_offset 8
 202 0118 BD46     		mov	sp, r7
 203              	.LCFI4:
 204              		.cfi_def_cfa_register 13
 205              		@ sp needed
 206 011a 80BD     		pop	{r7, pc}
 207              	.L11:
 208              		.align	2
 209              	.L10:
 210 011c 00100240 		.word	1073876992
 211 0120 00000000 		.word	SystemCoreClock
 212 0124 00093D00 		.word	4000000
 213 0128 FFF4FEFA 		.word	-83954433
 214              		.cfi_endproc
 215              	.LFE133:
 217              		.section	.text.HAL_RCC_OscConfig,"ax",%progbits
 218              		.align	1
 219              		.global	HAL_RCC_OscConfig
 220              		.syntax unified
 221              		.thumb
 222              		.thumb_func
 223              		.fpu fpv4-sp-d16
 225              	HAL_RCC_OscConfig:
 226              	.LFB134:
 385:D:/iot/felix2/targets/Cloud_STM32L431_BearPi/Drivers/STM32L4xx_HAL_Driver/Src\stm32l4xx_hal_rcc.c **** 
 386:D:/iot/felix2/targets/Cloud_STM32L431_BearPi/Drivers/STM32L4xx_HAL_Driver/Src\stm32l4xx_hal_rcc.c **** /**
 387:D:/iot/felix2/targets/Cloud_STM32L431_BearPi/Drivers/STM32L4xx_HAL_Driver/Src\stm32l4xx_hal_rcc.c ****   * @brief  Initialize the RCC Oscillators according to the specified parameters in the
 388:D:/iot/felix2/targets/Cloud_STM32L431_BearPi/Drivers/STM32L4xx_HAL_Driver/Src\stm32l4xx_hal_rcc.c ****   *         RCC_OscInitTypeDef.
 389:D:/iot/felix2/targets/Cloud_STM32L431_BearPi/Drivers/STM32L4xx_HAL_Driver/Src\stm32l4xx_hal_rcc.c ****   * @param  RCC_OscInitStruct  pointer to an RCC_OscInitTypeDef structure that
 390:D:/iot/felix2/targets/Cloud_STM32L431_BearPi/Drivers/STM32L4xx_HAL_Driver/Src\stm32l4xx_hal_rcc.c ****   *         contains the configuration information for the RCC Oscillators.
 391:D:/iot/felix2/targets/Cloud_STM32L431_BearPi/Drivers/STM32L4xx_HAL_Driver/Src\stm32l4xx_hal_rcc.c ****   * @note   The PLL is not disabled when used as system clock.
 392:D:/iot/felix2/targets/Cloud_STM32L431_BearPi/Drivers/STM32L4xx_HAL_Driver/Src\stm32l4xx_hal_rcc.c ****   * @note   Transitions LSE Bypass to LSE On and LSE On to LSE Bypass are not
 393:D:/iot/felix2/targets/Cloud_STM32L431_BearPi/Drivers/STM32L4xx_HAL_Driver/Src\stm32l4xx_hal_rcc.c ****   *         supported by this macro. User should request a transition to LSE Off
 394:D:/iot/felix2/targets/Cloud_STM32L431_BearPi/Drivers/STM32L4xx_HAL_Driver/Src\stm32l4xx_hal_rcc.c ****   *         first and then LSE On or LSE Bypass.
 395:D:/iot/felix2/targets/Cloud_STM32L431_BearPi/Drivers/STM32L4xx_HAL_Driver/Src\stm32l4xx_hal_rcc.c ****   * @note   Transition HSE Bypass to HSE On and HSE On to HSE Bypass are not
 396:D:/iot/felix2/targets/Cloud_STM32L431_BearPi/Drivers/STM32L4xx_HAL_Driver/Src\stm32l4xx_hal_rcc.c ****   *         supported by this macro. User should request a transition to HSE Off
 397:D:/iot/felix2/targets/Cloud_STM32L431_BearPi/Drivers/STM32L4xx_HAL_Driver/Src\stm32l4xx_hal_rcc.c ****   *         first and then HSE On or HSE Bypass.
 398:D:/iot/felix2/targets/Cloud_STM32L431_BearPi/Drivers/STM32L4xx_HAL_Driver/Src\stm32l4xx_hal_rcc.c ****   * @retval HAL status
 399:D:/iot/felix2/targets/Cloud_STM32L431_BearPi/Drivers/STM32L4xx_HAL_Driver/Src\stm32l4xx_hal_rcc.c ****   */
 400:D:/iot/felix2/targets/Cloud_STM32L431_BearPi/Drivers/STM32L4xx_HAL_Driver/Src\stm32l4xx_hal_rcc.c **** HAL_StatusTypeDef HAL_RCC_OscConfig(RCC_OscInitTypeDef  *RCC_OscInitStruct)
 401:D:/iot/felix2/targets/Cloud_STM32L431_BearPi/Drivers/STM32L4xx_HAL_Driver/Src\stm32l4xx_hal_rcc.c **** {
ARM GAS  C:\Users\91458\AppData\Local\Temp\ccHvSglx.s 			page 12


 227              		.loc 1 401 0
 228              		.cfi_startproc
 229              		@ args = 0, pretend = 0, frame = 24
 230              		@ frame_needed = 1, uses_anonymous_args = 0
 231 0000 80B5     		push	{r7, lr}
 232              	.LCFI5:
 233              		.cfi_def_cfa_offset 8
 234              		.cfi_offset 7, -8
 235              		.cfi_offset 14, -4
 236 0002 86B0     		sub	sp, sp, #24
 237              	.LCFI6:
 238              		.cfi_def_cfa_offset 32
 239 0004 00AF     		add	r7, sp, #0
 240              	.LCFI7:
 241              		.cfi_def_cfa_register 7
 242 0006 7860     		str	r0, [r7, #4]
 402:D:/iot/felix2/targets/Cloud_STM32L431_BearPi/Drivers/STM32L4xx_HAL_Driver/Src\stm32l4xx_hal_rcc.c ****   uint32_t tickstart;
 403:D:/iot/felix2/targets/Cloud_STM32L431_BearPi/Drivers/STM32L4xx_HAL_Driver/Src\stm32l4xx_hal_rcc.c **** 
 404:D:/iot/felix2/targets/Cloud_STM32L431_BearPi/Drivers/STM32L4xx_HAL_Driver/Src\stm32l4xx_hal_rcc.c ****   /* Check Null pointer */
 405:D:/iot/felix2/targets/Cloud_STM32L431_BearPi/Drivers/STM32L4xx_HAL_Driver/Src\stm32l4xx_hal_rcc.c ****   if(RCC_OscInitStruct == NULL)
 243              		.loc 1 405 0
 244 0008 7B68     		ldr	r3, [r7, #4]
 245 000a 002B     		cmp	r3, #0
 246 000c 01D1     		bne	.L13
 406:D:/iot/felix2/targets/Cloud_STM32L431_BearPi/Drivers/STM32L4xx_HAL_Driver/Src\stm32l4xx_hal_rcc.c ****   {
 407:D:/iot/felix2/targets/Cloud_STM32L431_BearPi/Drivers/STM32L4xx_HAL_Driver/Src\stm32l4xx_hal_rcc.c ****     return HAL_ERROR;
 247              		.loc 1 407 0
 248 000e 0123     		movs	r3, #1
 249 0010 92E3     		b	.L14
 250              	.L13:
 408:D:/iot/felix2/targets/Cloud_STM32L431_BearPi/Drivers/STM32L4xx_HAL_Driver/Src\stm32l4xx_hal_rcc.c ****   }
 409:D:/iot/felix2/targets/Cloud_STM32L431_BearPi/Drivers/STM32L4xx_HAL_Driver/Src\stm32l4xx_hal_rcc.c **** 
 410:D:/iot/felix2/targets/Cloud_STM32L431_BearPi/Drivers/STM32L4xx_HAL_Driver/Src\stm32l4xx_hal_rcc.c ****   /* Check the parameters */
 411:D:/iot/felix2/targets/Cloud_STM32L431_BearPi/Drivers/STM32L4xx_HAL_Driver/Src\stm32l4xx_hal_rcc.c ****   assert_param(IS_RCC_OSCILLATORTYPE(RCC_OscInitStruct->OscillatorType));
 412:D:/iot/felix2/targets/Cloud_STM32L431_BearPi/Drivers/STM32L4xx_HAL_Driver/Src\stm32l4xx_hal_rcc.c **** 
 413:D:/iot/felix2/targets/Cloud_STM32L431_BearPi/Drivers/STM32L4xx_HAL_Driver/Src\stm32l4xx_hal_rcc.c ****   /*----------------------------- MSI Configuration --------------------------*/
 414:D:/iot/felix2/targets/Cloud_STM32L431_BearPi/Drivers/STM32L4xx_HAL_Driver/Src\stm32l4xx_hal_rcc.c ****   if(((RCC_OscInitStruct->OscillatorType) & RCC_OSCILLATORTYPE_MSI) == RCC_OSCILLATORTYPE_MSI)
 251              		.loc 1 414 0
 252 0012 7B68     		ldr	r3, [r7, #4]
 253 0014 1B68     		ldr	r3, [r3]
 254 0016 03F01003 		and	r3, r3, #16
 255 001a 002B     		cmp	r3, #0
 256 001c 00F0D080 		beq	.L15
 415:D:/iot/felix2/targets/Cloud_STM32L431_BearPi/Drivers/STM32L4xx_HAL_Driver/Src\stm32l4xx_hal_rcc.c ****   {
 416:D:/iot/felix2/targets/Cloud_STM32L431_BearPi/Drivers/STM32L4xx_HAL_Driver/Src\stm32l4xx_hal_rcc.c ****     /* Check the parameters */
 417:D:/iot/felix2/targets/Cloud_STM32L431_BearPi/Drivers/STM32L4xx_HAL_Driver/Src\stm32l4xx_hal_rcc.c ****     assert_param(IS_RCC_MSI(RCC_OscInitStruct->MSIState));
 418:D:/iot/felix2/targets/Cloud_STM32L431_BearPi/Drivers/STM32L4xx_HAL_Driver/Src\stm32l4xx_hal_rcc.c ****     assert_param(IS_RCC_MSICALIBRATION_VALUE(RCC_OscInitStruct->MSICalibrationValue));
 419:D:/iot/felix2/targets/Cloud_STM32L431_BearPi/Drivers/STM32L4xx_HAL_Driver/Src\stm32l4xx_hal_rcc.c ****     assert_param(IS_RCC_MSI_CLOCK_RANGE(RCC_OscInitStruct->MSIClockRange));
 420:D:/iot/felix2/targets/Cloud_STM32L431_BearPi/Drivers/STM32L4xx_HAL_Driver/Src\stm32l4xx_hal_rcc.c **** 
 421:D:/iot/felix2/targets/Cloud_STM32L431_BearPi/Drivers/STM32L4xx_HAL_Driver/Src\stm32l4xx_hal_rcc.c ****     /* When the MSI is used as system clock it will not be disabled */
 422:D:/iot/felix2/targets/Cloud_STM32L431_BearPi/Drivers/STM32L4xx_HAL_Driver/Src\stm32l4xx_hal_rcc.c ****     if((__HAL_RCC_GET_SYSCLK_SOURCE() == RCC_CFGR_SWS_MSI) )
 257              		.loc 1 422 0
 258 0020 A14B     		ldr	r3, .L86
 259 0022 9B68     		ldr	r3, [r3, #8]
 260 0024 03F00C03 		and	r3, r3, #12
 261 0028 002B     		cmp	r3, #0
 262 002a 79D1     		bne	.L16
ARM GAS  C:\Users\91458\AppData\Local\Temp\ccHvSglx.s 			page 13


 423:D:/iot/felix2/targets/Cloud_STM32L431_BearPi/Drivers/STM32L4xx_HAL_Driver/Src\stm32l4xx_hal_rcc.c ****     {
 424:D:/iot/felix2/targets/Cloud_STM32L431_BearPi/Drivers/STM32L4xx_HAL_Driver/Src\stm32l4xx_hal_rcc.c ****       if((READ_BIT(RCC->CR, RCC_CR_MSIRDY) != RESET) && (RCC_OscInitStruct->MSIState == RCC_MSI_OFF
 263              		.loc 1 424 0
 264 002c 9E4B     		ldr	r3, .L86
 265 002e 1B68     		ldr	r3, [r3]
 266 0030 03F00203 		and	r3, r3, #2
 267 0034 002B     		cmp	r3, #0
 268 0036 05D0     		beq	.L17
 269              		.loc 1 424 0 is_stmt 0 discriminator 1
 270 0038 7B68     		ldr	r3, [r7, #4]
 271 003a 9B69     		ldr	r3, [r3, #24]
 272 003c 002B     		cmp	r3, #0
 273 003e 01D1     		bne	.L17
 425:D:/iot/felix2/targets/Cloud_STM32L431_BearPi/Drivers/STM32L4xx_HAL_Driver/Src\stm32l4xx_hal_rcc.c ****       {
 426:D:/iot/felix2/targets/Cloud_STM32L431_BearPi/Drivers/STM32L4xx_HAL_Driver/Src\stm32l4xx_hal_rcc.c ****         return HAL_ERROR;
 274              		.loc 1 426 0 is_stmt 1
 275 0040 0123     		movs	r3, #1
 276 0042 79E3     		b	.L14
 277              	.L17:
 427:D:/iot/felix2/targets/Cloud_STM32L431_BearPi/Drivers/STM32L4xx_HAL_Driver/Src\stm32l4xx_hal_rcc.c ****       }
 428:D:/iot/felix2/targets/Cloud_STM32L431_BearPi/Drivers/STM32L4xx_HAL_Driver/Src\stm32l4xx_hal_rcc.c **** 
 429:D:/iot/felix2/targets/Cloud_STM32L431_BearPi/Drivers/STM32L4xx_HAL_Driver/Src\stm32l4xx_hal_rcc.c ****        /* Otherwise, just the calibration and MSI range change are allowed */
 430:D:/iot/felix2/targets/Cloud_STM32L431_BearPi/Drivers/STM32L4xx_HAL_Driver/Src\stm32l4xx_hal_rcc.c ****       else
 431:D:/iot/felix2/targets/Cloud_STM32L431_BearPi/Drivers/STM32L4xx_HAL_Driver/Src\stm32l4xx_hal_rcc.c ****       {
 432:D:/iot/felix2/targets/Cloud_STM32L431_BearPi/Drivers/STM32L4xx_HAL_Driver/Src\stm32l4xx_hal_rcc.c ****         /* To correctly read data from FLASH memory, the number of wait states (LATENCY)
 433:D:/iot/felix2/targets/Cloud_STM32L431_BearPi/Drivers/STM32L4xx_HAL_Driver/Src\stm32l4xx_hal_rcc.c ****            must be correctly programmed according to the frequency of the CPU clock
 434:D:/iot/felix2/targets/Cloud_STM32L431_BearPi/Drivers/STM32L4xx_HAL_Driver/Src\stm32l4xx_hal_rcc.c ****            (HCLK) and the supply voltage of the device. */
 435:D:/iot/felix2/targets/Cloud_STM32L431_BearPi/Drivers/STM32L4xx_HAL_Driver/Src\stm32l4xx_hal_rcc.c ****         if(RCC_OscInitStruct->MSIClockRange > __HAL_RCC_GET_MSI_RANGE())
 278              		.loc 1 435 0
 279 0044 7B68     		ldr	r3, [r7, #4]
 280 0046 1A6A     		ldr	r2, [r3, #32]
 281 0048 974B     		ldr	r3, .L86
 282 004a 1B68     		ldr	r3, [r3]
 283 004c 03F00803 		and	r3, r3, #8
 284 0050 002B     		cmp	r3, #0
 285 0052 04D0     		beq	.L18
 286              		.loc 1 435 0 is_stmt 0 discriminator 1
 287 0054 944B     		ldr	r3, .L86
 288 0056 1B68     		ldr	r3, [r3]
 289 0058 03F0F003 		and	r3, r3, #240
 290 005c 05E0     		b	.L19
 291              	.L18:
 292              		.loc 1 435 0 discriminator 2
 293 005e 924B     		ldr	r3, .L86
 294 0060 D3F89430 		ldr	r3, [r3, #148]
 295 0064 1B09     		lsrs	r3, r3, #4
 296 0066 03F0F003 		and	r3, r3, #240
 297              	.L19:
 298              		.loc 1 435 0 discriminator 4
 299 006a 9342     		cmp	r3, r2
 300 006c 23D2     		bcs	.L20
 436:D:/iot/felix2/targets/Cloud_STM32L431_BearPi/Drivers/STM32L4xx_HAL_Driver/Src\stm32l4xx_hal_rcc.c ****         {
 437:D:/iot/felix2/targets/Cloud_STM32L431_BearPi/Drivers/STM32L4xx_HAL_Driver/Src\stm32l4xx_hal_rcc.c ****           /* First increase number of wait states update if necessary */
 438:D:/iot/felix2/targets/Cloud_STM32L431_BearPi/Drivers/STM32L4xx_HAL_Driver/Src\stm32l4xx_hal_rcc.c ****           if(RCC_SetFlashLatencyFromMSIRange(RCC_OscInitStruct->MSIClockRange) != HAL_OK)
 301              		.loc 1 438 0 is_stmt 1
 302 006e 7B68     		ldr	r3, [r7, #4]
 303 0070 1B6A     		ldr	r3, [r3, #32]
ARM GAS  C:\Users\91458\AppData\Local\Temp\ccHvSglx.s 			page 14


 304 0072 1846     		mov	r0, r3
 305 0074 FFF7FEFF 		bl	RCC_SetFlashLatencyFromMSIRange
 306 0078 0346     		mov	r3, r0
 307 007a 002B     		cmp	r3, #0
 308 007c 01D0     		beq	.L21
 439:D:/iot/felix2/targets/Cloud_STM32L431_BearPi/Drivers/STM32L4xx_HAL_Driver/Src\stm32l4xx_hal_rcc.c ****           {
 440:D:/iot/felix2/targets/Cloud_STM32L431_BearPi/Drivers/STM32L4xx_HAL_Driver/Src\stm32l4xx_hal_rcc.c ****             return HAL_ERROR;
 309              		.loc 1 440 0
 310 007e 0123     		movs	r3, #1
 311 0080 5AE3     		b	.L14
 312              	.L21:
 441:D:/iot/felix2/targets/Cloud_STM32L431_BearPi/Drivers/STM32L4xx_HAL_Driver/Src\stm32l4xx_hal_rcc.c ****           }
 442:D:/iot/felix2/targets/Cloud_STM32L431_BearPi/Drivers/STM32L4xx_HAL_Driver/Src\stm32l4xx_hal_rcc.c **** 
 443:D:/iot/felix2/targets/Cloud_STM32L431_BearPi/Drivers/STM32L4xx_HAL_Driver/Src\stm32l4xx_hal_rcc.c ****           /* Selects the Multiple Speed oscillator (MSI) clock range .*/
 444:D:/iot/felix2/targets/Cloud_STM32L431_BearPi/Drivers/STM32L4xx_HAL_Driver/Src\stm32l4xx_hal_rcc.c ****           __HAL_RCC_MSI_RANGE_CONFIG(RCC_OscInitStruct->MSIClockRange);
 313              		.loc 1 444 0
 314 0082 894B     		ldr	r3, .L86
 315 0084 1B68     		ldr	r3, [r3]
 316 0086 884A     		ldr	r2, .L86
 317 0088 43F00803 		orr	r3, r3, #8
 318 008c 1360     		str	r3, [r2]
 319 008e 864B     		ldr	r3, .L86
 320 0090 1B68     		ldr	r3, [r3]
 321 0092 23F0F002 		bic	r2, r3, #240
 322 0096 7B68     		ldr	r3, [r7, #4]
 323 0098 1B6A     		ldr	r3, [r3, #32]
 324 009a 8349     		ldr	r1, .L86
 325 009c 1343     		orrs	r3, r3, r2
 326 009e 0B60     		str	r3, [r1]
 445:D:/iot/felix2/targets/Cloud_STM32L431_BearPi/Drivers/STM32L4xx_HAL_Driver/Src\stm32l4xx_hal_rcc.c ****           /* Adjusts the Multiple Speed oscillator (MSI) calibration value.*/
 446:D:/iot/felix2/targets/Cloud_STM32L431_BearPi/Drivers/STM32L4xx_HAL_Driver/Src\stm32l4xx_hal_rcc.c ****           __HAL_RCC_MSI_CALIBRATIONVALUE_ADJUST(RCC_OscInitStruct->MSICalibrationValue);
 327              		.loc 1 446 0
 328 00a0 814B     		ldr	r3, .L86
 329 00a2 5B68     		ldr	r3, [r3, #4]
 330 00a4 23F47F42 		bic	r2, r3, #65280
 331 00a8 7B68     		ldr	r3, [r7, #4]
 332 00aa DB69     		ldr	r3, [r3, #28]
 333 00ac 1B02     		lsls	r3, r3, #8
 334 00ae 7E49     		ldr	r1, .L86
 335 00b0 1343     		orrs	r3, r3, r2
 336 00b2 4B60     		str	r3, [r1, #4]
 337 00b4 22E0     		b	.L22
 338              	.L20:
 447:D:/iot/felix2/targets/Cloud_STM32L431_BearPi/Drivers/STM32L4xx_HAL_Driver/Src\stm32l4xx_hal_rcc.c ****         }
 448:D:/iot/felix2/targets/Cloud_STM32L431_BearPi/Drivers/STM32L4xx_HAL_Driver/Src\stm32l4xx_hal_rcc.c ****         else
 449:D:/iot/felix2/targets/Cloud_STM32L431_BearPi/Drivers/STM32L4xx_HAL_Driver/Src\stm32l4xx_hal_rcc.c ****         {
 450:D:/iot/felix2/targets/Cloud_STM32L431_BearPi/Drivers/STM32L4xx_HAL_Driver/Src\stm32l4xx_hal_rcc.c ****           /* Else, keep current flash latency while decreasing applies */
 451:D:/iot/felix2/targets/Cloud_STM32L431_BearPi/Drivers/STM32L4xx_HAL_Driver/Src\stm32l4xx_hal_rcc.c ****           /* Selects the Multiple Speed oscillator (MSI) clock range .*/
 452:D:/iot/felix2/targets/Cloud_STM32L431_BearPi/Drivers/STM32L4xx_HAL_Driver/Src\stm32l4xx_hal_rcc.c ****           __HAL_RCC_MSI_RANGE_CONFIG(RCC_OscInitStruct->MSIClockRange);
 339              		.loc 1 452 0
 340 00b6 7C4B     		ldr	r3, .L86
 341 00b8 1B68     		ldr	r3, [r3]
 342 00ba 7B4A     		ldr	r2, .L86
 343 00bc 43F00803 		orr	r3, r3, #8
 344 00c0 1360     		str	r3, [r2]
 345 00c2 794B     		ldr	r3, .L86
 346 00c4 1B68     		ldr	r3, [r3]
ARM GAS  C:\Users\91458\AppData\Local\Temp\ccHvSglx.s 			page 15


 347 00c6 23F0F002 		bic	r2, r3, #240
 348 00ca 7B68     		ldr	r3, [r7, #4]
 349 00cc 1B6A     		ldr	r3, [r3, #32]
 350 00ce 7649     		ldr	r1, .L86
 351 00d0 1343     		orrs	r3, r3, r2
 352 00d2 0B60     		str	r3, [r1]
 453:D:/iot/felix2/targets/Cloud_STM32L431_BearPi/Drivers/STM32L4xx_HAL_Driver/Src\stm32l4xx_hal_rcc.c ****           /* Adjusts the Multiple Speed oscillator (MSI) calibration value.*/
 454:D:/iot/felix2/targets/Cloud_STM32L431_BearPi/Drivers/STM32L4xx_HAL_Driver/Src\stm32l4xx_hal_rcc.c ****           __HAL_RCC_MSI_CALIBRATIONVALUE_ADJUST(RCC_OscInitStruct->MSICalibrationValue);
 353              		.loc 1 454 0
 354 00d4 744B     		ldr	r3, .L86
 355 00d6 5B68     		ldr	r3, [r3, #4]
 356 00d8 23F47F42 		bic	r2, r3, #65280
 357 00dc 7B68     		ldr	r3, [r7, #4]
 358 00de DB69     		ldr	r3, [r3, #28]
 359 00e0 1B02     		lsls	r3, r3, #8
 360 00e2 7149     		ldr	r1, .L86
 361 00e4 1343     		orrs	r3, r3, r2
 362 00e6 4B60     		str	r3, [r1, #4]
 455:D:/iot/felix2/targets/Cloud_STM32L431_BearPi/Drivers/STM32L4xx_HAL_Driver/Src\stm32l4xx_hal_rcc.c **** 
 456:D:/iot/felix2/targets/Cloud_STM32L431_BearPi/Drivers/STM32L4xx_HAL_Driver/Src\stm32l4xx_hal_rcc.c ****           /* Decrease number of wait states update if necessary */
 457:D:/iot/felix2/targets/Cloud_STM32L431_BearPi/Drivers/STM32L4xx_HAL_Driver/Src\stm32l4xx_hal_rcc.c ****           if(RCC_SetFlashLatencyFromMSIRange(RCC_OscInitStruct->MSIClockRange) != HAL_OK)
 363              		.loc 1 457 0
 364 00e8 7B68     		ldr	r3, [r7, #4]
 365 00ea 1B6A     		ldr	r3, [r3, #32]
 366 00ec 1846     		mov	r0, r3
 367 00ee FFF7FEFF 		bl	RCC_SetFlashLatencyFromMSIRange
 368 00f2 0346     		mov	r3, r0
 369 00f4 002B     		cmp	r3, #0
 370 00f6 01D0     		beq	.L22
 458:D:/iot/felix2/targets/Cloud_STM32L431_BearPi/Drivers/STM32L4xx_HAL_Driver/Src\stm32l4xx_hal_rcc.c ****           {
 459:D:/iot/felix2/targets/Cloud_STM32L431_BearPi/Drivers/STM32L4xx_HAL_Driver/Src\stm32l4xx_hal_rcc.c ****             return HAL_ERROR;
 371              		.loc 1 459 0
 372 00f8 0123     		movs	r3, #1
 373 00fa 1DE3     		b	.L14
 374              	.L22:
 460:D:/iot/felix2/targets/Cloud_STM32L431_BearPi/Drivers/STM32L4xx_HAL_Driver/Src\stm32l4xx_hal_rcc.c ****           }
 461:D:/iot/felix2/targets/Cloud_STM32L431_BearPi/Drivers/STM32L4xx_HAL_Driver/Src\stm32l4xx_hal_rcc.c ****         }
 462:D:/iot/felix2/targets/Cloud_STM32L431_BearPi/Drivers/STM32L4xx_HAL_Driver/Src\stm32l4xx_hal_rcc.c **** 
 463:D:/iot/felix2/targets/Cloud_STM32L431_BearPi/Drivers/STM32L4xx_HAL_Driver/Src\stm32l4xx_hal_rcc.c ****         /* Update the SystemCoreClock global variable */
 464:D:/iot/felix2/targets/Cloud_STM32L431_BearPi/Drivers/STM32L4xx_HAL_Driver/Src\stm32l4xx_hal_rcc.c ****         SystemCoreClock = HAL_RCC_GetSysClockFreq() >> AHBPrescTable[READ_BIT(RCC->CFGR, RCC_CFGR_H
 375              		.loc 1 464 0
 376 00fc FFF7FEFF 		bl	HAL_RCC_GetSysClockFreq
 377 0100 0146     		mov	r1, r0
 378 0102 694B     		ldr	r3, .L86
 379 0104 9B68     		ldr	r3, [r3, #8]
 380 0106 1B09     		lsrs	r3, r3, #4
 381 0108 03F00F03 		and	r3, r3, #15
 382 010c 674A     		ldr	r2, .L86+4
 383 010e D35C     		ldrb	r3, [r2, r3]	@ zero_extendqisi2
 384 0110 21FA03F3 		lsr	r3, r1, r3
 385 0114 664A     		ldr	r2, .L86+8
 386 0116 1360     		str	r3, [r2]
 465:D:/iot/felix2/targets/Cloud_STM32L431_BearPi/Drivers/STM32L4xx_HAL_Driver/Src\stm32l4xx_hal_rcc.c **** 
 466:D:/iot/felix2/targets/Cloud_STM32L431_BearPi/Drivers/STM32L4xx_HAL_Driver/Src\stm32l4xx_hal_rcc.c ****         /* Configure the source of time base considering new system clocks settings*/
 467:D:/iot/felix2/targets/Cloud_STM32L431_BearPi/Drivers/STM32L4xx_HAL_Driver/Src\stm32l4xx_hal_rcc.c ****         HAL_InitTick (TICK_INT_PRIORITY);
 387              		.loc 1 467 0
 388 0118 0020     		movs	r0, #0
ARM GAS  C:\Users\91458\AppData\Local\Temp\ccHvSglx.s 			page 16


 389 011a FFF7FEFF 		bl	HAL_InitTick
 390 011e 4FE0     		b	.L15
 391              	.L16:
 468:D:/iot/felix2/targets/Cloud_STM32L431_BearPi/Drivers/STM32L4xx_HAL_Driver/Src\stm32l4xx_hal_rcc.c ****       }
 469:D:/iot/felix2/targets/Cloud_STM32L431_BearPi/Drivers/STM32L4xx_HAL_Driver/Src\stm32l4xx_hal_rcc.c ****     }
 470:D:/iot/felix2/targets/Cloud_STM32L431_BearPi/Drivers/STM32L4xx_HAL_Driver/Src\stm32l4xx_hal_rcc.c ****     else
 471:D:/iot/felix2/targets/Cloud_STM32L431_BearPi/Drivers/STM32L4xx_HAL_Driver/Src\stm32l4xx_hal_rcc.c ****     {
 472:D:/iot/felix2/targets/Cloud_STM32L431_BearPi/Drivers/STM32L4xx_HAL_Driver/Src\stm32l4xx_hal_rcc.c ****       /* Check the MSI State */
 473:D:/iot/felix2/targets/Cloud_STM32L431_BearPi/Drivers/STM32L4xx_HAL_Driver/Src\stm32l4xx_hal_rcc.c ****       if(RCC_OscInitStruct->MSIState != RCC_MSI_OFF)
 392              		.loc 1 473 0
 393 0120 7B68     		ldr	r3, [r7, #4]
 394 0122 9B69     		ldr	r3, [r3, #24]
 395 0124 002B     		cmp	r3, #0
 396 0126 32D0     		beq	.L23
 474:D:/iot/felix2/targets/Cloud_STM32L431_BearPi/Drivers/STM32L4xx_HAL_Driver/Src\stm32l4xx_hal_rcc.c ****       {
 475:D:/iot/felix2/targets/Cloud_STM32L431_BearPi/Drivers/STM32L4xx_HAL_Driver/Src\stm32l4xx_hal_rcc.c ****         /* Enable the Internal High Speed oscillator (MSI). */
 476:D:/iot/felix2/targets/Cloud_STM32L431_BearPi/Drivers/STM32L4xx_HAL_Driver/Src\stm32l4xx_hal_rcc.c ****         __HAL_RCC_MSI_ENABLE();
 397              		.loc 1 476 0
 398 0128 5F4B     		ldr	r3, .L86
 399 012a 1B68     		ldr	r3, [r3]
 400 012c 5E4A     		ldr	r2, .L86
 401 012e 43F00103 		orr	r3, r3, #1
 402 0132 1360     		str	r3, [r2]
 477:D:/iot/felix2/targets/Cloud_STM32L431_BearPi/Drivers/STM32L4xx_HAL_Driver/Src\stm32l4xx_hal_rcc.c **** 
 478:D:/iot/felix2/targets/Cloud_STM32L431_BearPi/Drivers/STM32L4xx_HAL_Driver/Src\stm32l4xx_hal_rcc.c ****         /* Get timeout */
 479:D:/iot/felix2/targets/Cloud_STM32L431_BearPi/Drivers/STM32L4xx_HAL_Driver/Src\stm32l4xx_hal_rcc.c ****         tickstart = HAL_GetTick();
 403              		.loc 1 479 0
 404 0134 FFF7FEFF 		bl	HAL_GetTick
 405 0138 3861     		str	r0, [r7, #16]
 480:D:/iot/felix2/targets/Cloud_STM32L431_BearPi/Drivers/STM32L4xx_HAL_Driver/Src\stm32l4xx_hal_rcc.c **** 
 481:D:/iot/felix2/targets/Cloud_STM32L431_BearPi/Drivers/STM32L4xx_HAL_Driver/Src\stm32l4xx_hal_rcc.c ****         /* Wait till MSI is ready */
 482:D:/iot/felix2/targets/Cloud_STM32L431_BearPi/Drivers/STM32L4xx_HAL_Driver/Src\stm32l4xx_hal_rcc.c ****         while(READ_BIT(RCC->CR, RCC_CR_MSIRDY) == RESET)
 406              		.loc 1 482 0
 407 013a 08E0     		b	.L24
 408              	.L25:
 483:D:/iot/felix2/targets/Cloud_STM32L431_BearPi/Drivers/STM32L4xx_HAL_Driver/Src\stm32l4xx_hal_rcc.c ****         {
 484:D:/iot/felix2/targets/Cloud_STM32L431_BearPi/Drivers/STM32L4xx_HAL_Driver/Src\stm32l4xx_hal_rcc.c ****           if((HAL_GetTick() - tickstart) > MSI_TIMEOUT_VALUE)
 409              		.loc 1 484 0
 410 013c FFF7FEFF 		bl	HAL_GetTick
 411 0140 0246     		mov	r2, r0
 412 0142 3B69     		ldr	r3, [r7, #16]
 413 0144 D31A     		subs	r3, r2, r3
 414 0146 022B     		cmp	r3, #2
 415 0148 01D9     		bls	.L24
 485:D:/iot/felix2/targets/Cloud_STM32L431_BearPi/Drivers/STM32L4xx_HAL_Driver/Src\stm32l4xx_hal_rcc.c ****           {
 486:D:/iot/felix2/targets/Cloud_STM32L431_BearPi/Drivers/STM32L4xx_HAL_Driver/Src\stm32l4xx_hal_rcc.c ****             return HAL_TIMEOUT;
 416              		.loc 1 486 0
 417 014a 0323     		movs	r3, #3
 418 014c F4E2     		b	.L14
 419              	.L24:
 482:D:/iot/felix2/targets/Cloud_STM32L431_BearPi/Drivers/STM32L4xx_HAL_Driver/Src\stm32l4xx_hal_rcc.c ****         {
 420              		.loc 1 482 0
 421 014e 564B     		ldr	r3, .L86
 422 0150 1B68     		ldr	r3, [r3]
 423 0152 03F00203 		and	r3, r3, #2
 424 0156 002B     		cmp	r3, #0
 425 0158 F0D0     		beq	.L25
ARM GAS  C:\Users\91458\AppData\Local\Temp\ccHvSglx.s 			page 17


 487:D:/iot/felix2/targets/Cloud_STM32L431_BearPi/Drivers/STM32L4xx_HAL_Driver/Src\stm32l4xx_hal_rcc.c ****           }
 488:D:/iot/felix2/targets/Cloud_STM32L431_BearPi/Drivers/STM32L4xx_HAL_Driver/Src\stm32l4xx_hal_rcc.c ****         }
 489:D:/iot/felix2/targets/Cloud_STM32L431_BearPi/Drivers/STM32L4xx_HAL_Driver/Src\stm32l4xx_hal_rcc.c ****          /* Selects the Multiple Speed oscillator (MSI) clock range .*/
 490:D:/iot/felix2/targets/Cloud_STM32L431_BearPi/Drivers/STM32L4xx_HAL_Driver/Src\stm32l4xx_hal_rcc.c ****         __HAL_RCC_MSI_RANGE_CONFIG(RCC_OscInitStruct->MSIClockRange);
 426              		.loc 1 490 0
 427 015a 534B     		ldr	r3, .L86
 428 015c 1B68     		ldr	r3, [r3]
 429 015e 524A     		ldr	r2, .L86
 430 0160 43F00803 		orr	r3, r3, #8
 431 0164 1360     		str	r3, [r2]
 432 0166 504B     		ldr	r3, .L86
 433 0168 1B68     		ldr	r3, [r3]
 434 016a 23F0F002 		bic	r2, r3, #240
 435 016e 7B68     		ldr	r3, [r7, #4]
 436 0170 1B6A     		ldr	r3, [r3, #32]
 437 0172 4D49     		ldr	r1, .L86
 438 0174 1343     		orrs	r3, r3, r2
 439 0176 0B60     		str	r3, [r1]
 491:D:/iot/felix2/targets/Cloud_STM32L431_BearPi/Drivers/STM32L4xx_HAL_Driver/Src\stm32l4xx_hal_rcc.c ****          /* Adjusts the Multiple Speed oscillator (MSI) calibration value.*/
 492:D:/iot/felix2/targets/Cloud_STM32L431_BearPi/Drivers/STM32L4xx_HAL_Driver/Src\stm32l4xx_hal_rcc.c ****         __HAL_RCC_MSI_CALIBRATIONVALUE_ADJUST(RCC_OscInitStruct->MSICalibrationValue);
 440              		.loc 1 492 0
 441 0178 4B4B     		ldr	r3, .L86
 442 017a 5B68     		ldr	r3, [r3, #4]
 443 017c 23F47F42 		bic	r2, r3, #65280
 444 0180 7B68     		ldr	r3, [r7, #4]
 445 0182 DB69     		ldr	r3, [r3, #28]
 446 0184 1B02     		lsls	r3, r3, #8
 447 0186 4849     		ldr	r1, .L86
 448 0188 1343     		orrs	r3, r3, r2
 449 018a 4B60     		str	r3, [r1, #4]
 450 018c 18E0     		b	.L15
 451              	.L23:
 493:D:/iot/felix2/targets/Cloud_STM32L431_BearPi/Drivers/STM32L4xx_HAL_Driver/Src\stm32l4xx_hal_rcc.c **** 
 494:D:/iot/felix2/targets/Cloud_STM32L431_BearPi/Drivers/STM32L4xx_HAL_Driver/Src\stm32l4xx_hal_rcc.c ****       }
 495:D:/iot/felix2/targets/Cloud_STM32L431_BearPi/Drivers/STM32L4xx_HAL_Driver/Src\stm32l4xx_hal_rcc.c ****       else
 496:D:/iot/felix2/targets/Cloud_STM32L431_BearPi/Drivers/STM32L4xx_HAL_Driver/Src\stm32l4xx_hal_rcc.c ****       {
 497:D:/iot/felix2/targets/Cloud_STM32L431_BearPi/Drivers/STM32L4xx_HAL_Driver/Src\stm32l4xx_hal_rcc.c ****         /* Disable the Internal High Speed oscillator (MSI). */
 498:D:/iot/felix2/targets/Cloud_STM32L431_BearPi/Drivers/STM32L4xx_HAL_Driver/Src\stm32l4xx_hal_rcc.c ****         __HAL_RCC_MSI_DISABLE();
 452              		.loc 1 498 0
 453 018e 464B     		ldr	r3, .L86
 454 0190 1B68     		ldr	r3, [r3]
 455 0192 454A     		ldr	r2, .L86
 456 0194 23F00103 		bic	r3, r3, #1
 457 0198 1360     		str	r3, [r2]
 499:D:/iot/felix2/targets/Cloud_STM32L431_BearPi/Drivers/STM32L4xx_HAL_Driver/Src\stm32l4xx_hal_rcc.c **** 
 500:D:/iot/felix2/targets/Cloud_STM32L431_BearPi/Drivers/STM32L4xx_HAL_Driver/Src\stm32l4xx_hal_rcc.c ****         /* Get timeout */
 501:D:/iot/felix2/targets/Cloud_STM32L431_BearPi/Drivers/STM32L4xx_HAL_Driver/Src\stm32l4xx_hal_rcc.c ****         tickstart = HAL_GetTick();
 458              		.loc 1 501 0
 459 019a FFF7FEFF 		bl	HAL_GetTick
 460 019e 3861     		str	r0, [r7, #16]
 502:D:/iot/felix2/targets/Cloud_STM32L431_BearPi/Drivers/STM32L4xx_HAL_Driver/Src\stm32l4xx_hal_rcc.c **** 
 503:D:/iot/felix2/targets/Cloud_STM32L431_BearPi/Drivers/STM32L4xx_HAL_Driver/Src\stm32l4xx_hal_rcc.c ****         /* Wait till MSI is ready */
 504:D:/iot/felix2/targets/Cloud_STM32L431_BearPi/Drivers/STM32L4xx_HAL_Driver/Src\stm32l4xx_hal_rcc.c ****         while(READ_BIT(RCC->CR, RCC_CR_MSIRDY) != RESET)
 461              		.loc 1 504 0
 462 01a0 08E0     		b	.L26
 463              	.L27:
 505:D:/iot/felix2/targets/Cloud_STM32L431_BearPi/Drivers/STM32L4xx_HAL_Driver/Src\stm32l4xx_hal_rcc.c ****         {
ARM GAS  C:\Users\91458\AppData\Local\Temp\ccHvSglx.s 			page 18


 506:D:/iot/felix2/targets/Cloud_STM32L431_BearPi/Drivers/STM32L4xx_HAL_Driver/Src\stm32l4xx_hal_rcc.c ****           if((HAL_GetTick() - tickstart) > MSI_TIMEOUT_VALUE)
 464              		.loc 1 506 0
 465 01a2 FFF7FEFF 		bl	HAL_GetTick
 466 01a6 0246     		mov	r2, r0
 467 01a8 3B69     		ldr	r3, [r7, #16]
 468 01aa D31A     		subs	r3, r2, r3
 469 01ac 022B     		cmp	r3, #2
 470 01ae 01D9     		bls	.L26
 507:D:/iot/felix2/targets/Cloud_STM32L431_BearPi/Drivers/STM32L4xx_HAL_Driver/Src\stm32l4xx_hal_rcc.c ****           {
 508:D:/iot/felix2/targets/Cloud_STM32L431_BearPi/Drivers/STM32L4xx_HAL_Driver/Src\stm32l4xx_hal_rcc.c ****             return HAL_TIMEOUT;
 471              		.loc 1 508 0
 472 01b0 0323     		movs	r3, #3
 473 01b2 C1E2     		b	.L14
 474              	.L26:
 504:D:/iot/felix2/targets/Cloud_STM32L431_BearPi/Drivers/STM32L4xx_HAL_Driver/Src\stm32l4xx_hal_rcc.c ****         {
 475              		.loc 1 504 0
 476 01b4 3C4B     		ldr	r3, .L86
 477 01b6 1B68     		ldr	r3, [r3]
 478 01b8 03F00203 		and	r3, r3, #2
 479 01bc 002B     		cmp	r3, #0
 480 01be F0D1     		bne	.L27
 481              	.L15:
 509:D:/iot/felix2/targets/Cloud_STM32L431_BearPi/Drivers/STM32L4xx_HAL_Driver/Src\stm32l4xx_hal_rcc.c ****           }
 510:D:/iot/felix2/targets/Cloud_STM32L431_BearPi/Drivers/STM32L4xx_HAL_Driver/Src\stm32l4xx_hal_rcc.c ****         }
 511:D:/iot/felix2/targets/Cloud_STM32L431_BearPi/Drivers/STM32L4xx_HAL_Driver/Src\stm32l4xx_hal_rcc.c ****       }
 512:D:/iot/felix2/targets/Cloud_STM32L431_BearPi/Drivers/STM32L4xx_HAL_Driver/Src\stm32l4xx_hal_rcc.c ****     }
 513:D:/iot/felix2/targets/Cloud_STM32L431_BearPi/Drivers/STM32L4xx_HAL_Driver/Src\stm32l4xx_hal_rcc.c ****   }
 514:D:/iot/felix2/targets/Cloud_STM32L431_BearPi/Drivers/STM32L4xx_HAL_Driver/Src\stm32l4xx_hal_rcc.c ****   /*------------------------------- HSE Configuration ------------------------*/
 515:D:/iot/felix2/targets/Cloud_STM32L431_BearPi/Drivers/STM32L4xx_HAL_Driver/Src\stm32l4xx_hal_rcc.c ****   if(((RCC_OscInitStruct->OscillatorType) & RCC_OSCILLATORTYPE_HSE) == RCC_OSCILLATORTYPE_HSE)
 482              		.loc 1 515 0
 483 01c0 7B68     		ldr	r3, [r7, #4]
 484 01c2 1B68     		ldr	r3, [r3]
 485 01c4 03F00103 		and	r3, r3, #1
 486 01c8 002B     		cmp	r3, #0
 487 01ca 7BD0     		beq	.L28
 516:D:/iot/felix2/targets/Cloud_STM32L431_BearPi/Drivers/STM32L4xx_HAL_Driver/Src\stm32l4xx_hal_rcc.c ****   {
 517:D:/iot/felix2/targets/Cloud_STM32L431_BearPi/Drivers/STM32L4xx_HAL_Driver/Src\stm32l4xx_hal_rcc.c ****     /* Check the parameters */
 518:D:/iot/felix2/targets/Cloud_STM32L431_BearPi/Drivers/STM32L4xx_HAL_Driver/Src\stm32l4xx_hal_rcc.c ****     assert_param(IS_RCC_HSE(RCC_OscInitStruct->HSEState));
 519:D:/iot/felix2/targets/Cloud_STM32L431_BearPi/Drivers/STM32L4xx_HAL_Driver/Src\stm32l4xx_hal_rcc.c **** 
 520:D:/iot/felix2/targets/Cloud_STM32L431_BearPi/Drivers/STM32L4xx_HAL_Driver/Src\stm32l4xx_hal_rcc.c ****     /* When the HSE is used as system clock or clock source for PLL in these cases it is not allowe
 521:D:/iot/felix2/targets/Cloud_STM32L431_BearPi/Drivers/STM32L4xx_HAL_Driver/Src\stm32l4xx_hal_rcc.c ****     if((__HAL_RCC_GET_SYSCLK_SOURCE() == RCC_CFGR_SWS_HSE) ||
 488              		.loc 1 521 0
 489 01cc 364B     		ldr	r3, .L86
 490 01ce 9B68     		ldr	r3, [r3, #8]
 491 01d0 03F00C03 		and	r3, r3, #12
 492 01d4 082B     		cmp	r3, #8
 493 01d6 0BD0     		beq	.L29
 522:D:/iot/felix2/targets/Cloud_STM32L431_BearPi/Drivers/STM32L4xx_HAL_Driver/Src\stm32l4xx_hal_rcc.c ****        ((__HAL_RCC_GET_SYSCLK_SOURCE() == RCC_CFGR_SWS_PLL) && (__HAL_RCC_GET_PLL_OSCSOURCE() == RC
 494              		.loc 1 522 0 discriminator 1
 495 01d8 334B     		ldr	r3, .L86
 496 01da 9B68     		ldr	r3, [r3, #8]
 497 01dc 03F00C03 		and	r3, r3, #12
 521:D:/iot/felix2/targets/Cloud_STM32L431_BearPi/Drivers/STM32L4xx_HAL_Driver/Src\stm32l4xx_hal_rcc.c ****        ((__HAL_RCC_GET_SYSCLK_SOURCE() == RCC_CFGR_SWS_PLL) && (__HAL_RCC_GET_PLL_OSCSOURCE() == RC
 498              		.loc 1 521 0 discriminator 1
 499 01e0 0C2B     		cmp	r3, #12
 500 01e2 11D1     		bne	.L30
 501              		.loc 1 522 0
ARM GAS  C:\Users\91458\AppData\Local\Temp\ccHvSglx.s 			page 19


 502 01e4 304B     		ldr	r3, .L86
 503 01e6 DB68     		ldr	r3, [r3, #12]
 504 01e8 03F00303 		and	r3, r3, #3
 505 01ec 032B     		cmp	r3, #3
 506 01ee 0BD1     		bne	.L30
 507              	.L29:
 523:D:/iot/felix2/targets/Cloud_STM32L431_BearPi/Drivers/STM32L4xx_HAL_Driver/Src\stm32l4xx_hal_rcc.c ****     {
 524:D:/iot/felix2/targets/Cloud_STM32L431_BearPi/Drivers/STM32L4xx_HAL_Driver/Src\stm32l4xx_hal_rcc.c ****       if((READ_BIT(RCC->CR, RCC_CR_HSERDY) != RESET) && (RCC_OscInitStruct->HSEState == RCC_HSE_OFF
 508              		.loc 1 524 0
 509 01f0 2D4B     		ldr	r3, .L86
 510 01f2 1B68     		ldr	r3, [r3]
 511 01f4 03F40033 		and	r3, r3, #131072
 512 01f8 002B     		cmp	r3, #0
 513 01fa 62D0     		beq	.L85
 514              		.loc 1 524 0 is_stmt 0 discriminator 1
 515 01fc 7B68     		ldr	r3, [r7, #4]
 516 01fe 5B68     		ldr	r3, [r3, #4]
 517 0200 002B     		cmp	r3, #0
 518 0202 5ED1     		bne	.L85
 525:D:/iot/felix2/targets/Cloud_STM32L431_BearPi/Drivers/STM32L4xx_HAL_Driver/Src\stm32l4xx_hal_rcc.c ****       {
 526:D:/iot/felix2/targets/Cloud_STM32L431_BearPi/Drivers/STM32L4xx_HAL_Driver/Src\stm32l4xx_hal_rcc.c ****         return HAL_ERROR;
 519              		.loc 1 526 0 is_stmt 1
 520 0204 0123     		movs	r3, #1
 521 0206 97E2     		b	.L14
 522              	.L30:
 527:D:/iot/felix2/targets/Cloud_STM32L431_BearPi/Drivers/STM32L4xx_HAL_Driver/Src\stm32l4xx_hal_rcc.c ****       }
 528:D:/iot/felix2/targets/Cloud_STM32L431_BearPi/Drivers/STM32L4xx_HAL_Driver/Src\stm32l4xx_hal_rcc.c ****     }
 529:D:/iot/felix2/targets/Cloud_STM32L431_BearPi/Drivers/STM32L4xx_HAL_Driver/Src\stm32l4xx_hal_rcc.c ****     else
 530:D:/iot/felix2/targets/Cloud_STM32L431_BearPi/Drivers/STM32L4xx_HAL_Driver/Src\stm32l4xx_hal_rcc.c ****     {
 531:D:/iot/felix2/targets/Cloud_STM32L431_BearPi/Drivers/STM32L4xx_HAL_Driver/Src\stm32l4xx_hal_rcc.c ****       /* Set the new HSE configuration ---------------------------------------*/
 532:D:/iot/felix2/targets/Cloud_STM32L431_BearPi/Drivers/STM32L4xx_HAL_Driver/Src\stm32l4xx_hal_rcc.c ****       __HAL_RCC_HSE_CONFIG(RCC_OscInitStruct->HSEState);
 523              		.loc 1 532 0
 524 0208 7B68     		ldr	r3, [r7, #4]
 525 020a 5B68     		ldr	r3, [r3, #4]
 526 020c B3F5803F 		cmp	r3, #65536
 527 0210 06D1     		bne	.L32
 528              		.loc 1 532 0 is_stmt 0 discriminator 1
 529 0212 254B     		ldr	r3, .L86
 530 0214 1B68     		ldr	r3, [r3]
 531 0216 244A     		ldr	r2, .L86
 532 0218 43F48033 		orr	r3, r3, #65536
 533 021c 1360     		str	r3, [r2]
 534 021e 1DE0     		b	.L33
 535              	.L32:
 536              		.loc 1 532 0 discriminator 2
 537 0220 7B68     		ldr	r3, [r7, #4]
 538 0222 5B68     		ldr	r3, [r3, #4]
 539 0224 B3F5A02F 		cmp	r3, #327680
 540 0228 0CD1     		bne	.L34
 541              		.loc 1 532 0 discriminator 3
 542 022a 1F4B     		ldr	r3, .L86
 543 022c 1B68     		ldr	r3, [r3]
 544 022e 1E4A     		ldr	r2, .L86
 545 0230 43F48023 		orr	r3, r3, #262144
 546 0234 1360     		str	r3, [r2]
 547 0236 1C4B     		ldr	r3, .L86
 548 0238 1B68     		ldr	r3, [r3]
ARM GAS  C:\Users\91458\AppData\Local\Temp\ccHvSglx.s 			page 20


 549 023a 1B4A     		ldr	r2, .L86
 550 023c 43F48033 		orr	r3, r3, #65536
 551 0240 1360     		str	r3, [r2]
 552 0242 0BE0     		b	.L33
 553              	.L34:
 554              		.loc 1 532 0 discriminator 4
 555 0244 184B     		ldr	r3, .L86
 556 0246 1B68     		ldr	r3, [r3]
 557 0248 174A     		ldr	r2, .L86
 558 024a 23F48033 		bic	r3, r3, #65536
 559 024e 1360     		str	r3, [r2]
 560 0250 154B     		ldr	r3, .L86
 561 0252 1B68     		ldr	r3, [r3]
 562 0254 144A     		ldr	r2, .L86
 563 0256 23F48023 		bic	r3, r3, #262144
 564 025a 1360     		str	r3, [r2]
 565              	.L33:
 533:D:/iot/felix2/targets/Cloud_STM32L431_BearPi/Drivers/STM32L4xx_HAL_Driver/Src\stm32l4xx_hal_rcc.c **** 
 534:D:/iot/felix2/targets/Cloud_STM32L431_BearPi/Drivers/STM32L4xx_HAL_Driver/Src\stm32l4xx_hal_rcc.c ****       /* Check the HSE State */
 535:D:/iot/felix2/targets/Cloud_STM32L431_BearPi/Drivers/STM32L4xx_HAL_Driver/Src\stm32l4xx_hal_rcc.c ****       if(RCC_OscInitStruct->HSEState != RCC_HSE_OFF)
 566              		.loc 1 535 0 is_stmt 1
 567 025c 7B68     		ldr	r3, [r7, #4]
 568 025e 5B68     		ldr	r3, [r3, #4]
 569 0260 002B     		cmp	r3, #0
 570 0262 13D0     		beq	.L35
 536:D:/iot/felix2/targets/Cloud_STM32L431_BearPi/Drivers/STM32L4xx_HAL_Driver/Src\stm32l4xx_hal_rcc.c ****       {
 537:D:/iot/felix2/targets/Cloud_STM32L431_BearPi/Drivers/STM32L4xx_HAL_Driver/Src\stm32l4xx_hal_rcc.c ****         /* Get Start Tick*/
 538:D:/iot/felix2/targets/Cloud_STM32L431_BearPi/Drivers/STM32L4xx_HAL_Driver/Src\stm32l4xx_hal_rcc.c ****         tickstart = HAL_GetTick();
 571              		.loc 1 538 0
 572 0264 FFF7FEFF 		bl	HAL_GetTick
 573 0268 3861     		str	r0, [r7, #16]
 539:D:/iot/felix2/targets/Cloud_STM32L431_BearPi/Drivers/STM32L4xx_HAL_Driver/Src\stm32l4xx_hal_rcc.c **** 
 540:D:/iot/felix2/targets/Cloud_STM32L431_BearPi/Drivers/STM32L4xx_HAL_Driver/Src\stm32l4xx_hal_rcc.c ****         /* Wait till HSE is ready */
 541:D:/iot/felix2/targets/Cloud_STM32L431_BearPi/Drivers/STM32L4xx_HAL_Driver/Src\stm32l4xx_hal_rcc.c ****         while(READ_BIT(RCC->CR, RCC_CR_HSERDY) == RESET)
 574              		.loc 1 541 0
 575 026a 08E0     		b	.L36
 576              	.L37:
 542:D:/iot/felix2/targets/Cloud_STM32L431_BearPi/Drivers/STM32L4xx_HAL_Driver/Src\stm32l4xx_hal_rcc.c ****         {
 543:D:/iot/felix2/targets/Cloud_STM32L431_BearPi/Drivers/STM32L4xx_HAL_Driver/Src\stm32l4xx_hal_rcc.c ****           if((HAL_GetTick() - tickstart) > HSE_TIMEOUT_VALUE)
 577              		.loc 1 543 0
 578 026c FFF7FEFF 		bl	HAL_GetTick
 579 0270 0246     		mov	r2, r0
 580 0272 3B69     		ldr	r3, [r7, #16]
 581 0274 D31A     		subs	r3, r2, r3
 582 0276 642B     		cmp	r3, #100
 583 0278 01D9     		bls	.L36
 544:D:/iot/felix2/targets/Cloud_STM32L431_BearPi/Drivers/STM32L4xx_HAL_Driver/Src\stm32l4xx_hal_rcc.c ****           {
 545:D:/iot/felix2/targets/Cloud_STM32L431_BearPi/Drivers/STM32L4xx_HAL_Driver/Src\stm32l4xx_hal_rcc.c ****             return HAL_TIMEOUT;
 584              		.loc 1 545 0
 585 027a 0323     		movs	r3, #3
 586 027c 5CE2     		b	.L14
 587              	.L36:
 541:D:/iot/felix2/targets/Cloud_STM32L431_BearPi/Drivers/STM32L4xx_HAL_Driver/Src\stm32l4xx_hal_rcc.c ****         {
 588              		.loc 1 541 0
 589 027e 0A4B     		ldr	r3, .L86
 590 0280 1B68     		ldr	r3, [r3]
 591 0282 03F40033 		and	r3, r3, #131072
ARM GAS  C:\Users\91458\AppData\Local\Temp\ccHvSglx.s 			page 21


 592 0286 002B     		cmp	r3, #0
 593 0288 F0D0     		beq	.L37
 594 028a 1BE0     		b	.L28
 595              	.L35:
 546:D:/iot/felix2/targets/Cloud_STM32L431_BearPi/Drivers/STM32L4xx_HAL_Driver/Src\stm32l4xx_hal_rcc.c ****           }
 547:D:/iot/felix2/targets/Cloud_STM32L431_BearPi/Drivers/STM32L4xx_HAL_Driver/Src\stm32l4xx_hal_rcc.c ****         }
 548:D:/iot/felix2/targets/Cloud_STM32L431_BearPi/Drivers/STM32L4xx_HAL_Driver/Src\stm32l4xx_hal_rcc.c ****       }
 549:D:/iot/felix2/targets/Cloud_STM32L431_BearPi/Drivers/STM32L4xx_HAL_Driver/Src\stm32l4xx_hal_rcc.c ****       else
 550:D:/iot/felix2/targets/Cloud_STM32L431_BearPi/Drivers/STM32L4xx_HAL_Driver/Src\stm32l4xx_hal_rcc.c ****       {
 551:D:/iot/felix2/targets/Cloud_STM32L431_BearPi/Drivers/STM32L4xx_HAL_Driver/Src\stm32l4xx_hal_rcc.c ****         /* Get Start Tick*/
 552:D:/iot/felix2/targets/Cloud_STM32L431_BearPi/Drivers/STM32L4xx_HAL_Driver/Src\stm32l4xx_hal_rcc.c ****         tickstart = HAL_GetTick();
 596              		.loc 1 552 0
 597 028c FFF7FEFF 		bl	HAL_GetTick
 598 0290 3861     		str	r0, [r7, #16]
 553:D:/iot/felix2/targets/Cloud_STM32L431_BearPi/Drivers/STM32L4xx_HAL_Driver/Src\stm32l4xx_hal_rcc.c **** 
 554:D:/iot/felix2/targets/Cloud_STM32L431_BearPi/Drivers/STM32L4xx_HAL_Driver/Src\stm32l4xx_hal_rcc.c ****         /* Wait till HSE is disabled */
 555:D:/iot/felix2/targets/Cloud_STM32L431_BearPi/Drivers/STM32L4xx_HAL_Driver/Src\stm32l4xx_hal_rcc.c ****         while(READ_BIT(RCC->CR, RCC_CR_HSERDY) != RESET)
 599              		.loc 1 555 0
 600 0292 0FE0     		b	.L38
 601              	.L39:
 556:D:/iot/felix2/targets/Cloud_STM32L431_BearPi/Drivers/STM32L4xx_HAL_Driver/Src\stm32l4xx_hal_rcc.c ****         {
 557:D:/iot/felix2/targets/Cloud_STM32L431_BearPi/Drivers/STM32L4xx_HAL_Driver/Src\stm32l4xx_hal_rcc.c ****           if((HAL_GetTick() - tickstart) > HSE_TIMEOUT_VALUE)
 602              		.loc 1 557 0
 603 0294 FFF7FEFF 		bl	HAL_GetTick
 604 0298 0246     		mov	r2, r0
 605 029a 3B69     		ldr	r3, [r7, #16]
 606 029c D31A     		subs	r3, r2, r3
 607 029e 642B     		cmp	r3, #100
 608 02a0 08D9     		bls	.L38
 558:D:/iot/felix2/targets/Cloud_STM32L431_BearPi/Drivers/STM32L4xx_HAL_Driver/Src\stm32l4xx_hal_rcc.c ****           {
 559:D:/iot/felix2/targets/Cloud_STM32L431_BearPi/Drivers/STM32L4xx_HAL_Driver/Src\stm32l4xx_hal_rcc.c ****             return HAL_TIMEOUT;
 609              		.loc 1 559 0
 610 02a2 0323     		movs	r3, #3
 611 02a4 48E2     		b	.L14
 612              	.L87:
 613 02a6 00BF     		.align	2
 614              	.L86:
 615 02a8 00100240 		.word	1073876992
 616 02ac 00000000 		.word	AHBPrescTable
 617 02b0 00000000 		.word	SystemCoreClock
 618              	.L38:
 555:D:/iot/felix2/targets/Cloud_STM32L431_BearPi/Drivers/STM32L4xx_HAL_Driver/Src\stm32l4xx_hal_rcc.c ****         {
 619              		.loc 1 555 0
 620 02b4 A94B     		ldr	r3, .L88
 621 02b6 1B68     		ldr	r3, [r3]
 622 02b8 03F40033 		and	r3, r3, #131072
 623 02bc 002B     		cmp	r3, #0
 624 02be E9D1     		bne	.L39
 625 02c0 00E0     		b	.L28
 626              	.L85:
 524:D:/iot/felix2/targets/Cloud_STM32L431_BearPi/Drivers/STM32L4xx_HAL_Driver/Src\stm32l4xx_hal_rcc.c ****       {
 627              		.loc 1 524 0
 628 02c2 00BF     		nop
 629              	.L28:
 560:D:/iot/felix2/targets/Cloud_STM32L431_BearPi/Drivers/STM32L4xx_HAL_Driver/Src\stm32l4xx_hal_rcc.c ****           }
 561:D:/iot/felix2/targets/Cloud_STM32L431_BearPi/Drivers/STM32L4xx_HAL_Driver/Src\stm32l4xx_hal_rcc.c ****         }
 562:D:/iot/felix2/targets/Cloud_STM32L431_BearPi/Drivers/STM32L4xx_HAL_Driver/Src\stm32l4xx_hal_rcc.c ****       }
ARM GAS  C:\Users\91458\AppData\Local\Temp\ccHvSglx.s 			page 22


 563:D:/iot/felix2/targets/Cloud_STM32L431_BearPi/Drivers/STM32L4xx_HAL_Driver/Src\stm32l4xx_hal_rcc.c ****     }
 564:D:/iot/felix2/targets/Cloud_STM32L431_BearPi/Drivers/STM32L4xx_HAL_Driver/Src\stm32l4xx_hal_rcc.c ****   }
 565:D:/iot/felix2/targets/Cloud_STM32L431_BearPi/Drivers/STM32L4xx_HAL_Driver/Src\stm32l4xx_hal_rcc.c ****   /*----------------------------- HSI Configuration --------------------------*/
 566:D:/iot/felix2/targets/Cloud_STM32L431_BearPi/Drivers/STM32L4xx_HAL_Driver/Src\stm32l4xx_hal_rcc.c ****   if(((RCC_OscInitStruct->OscillatorType) & RCC_OSCILLATORTYPE_HSI) == RCC_OSCILLATORTYPE_HSI)
 630              		.loc 1 566 0
 631 02c4 7B68     		ldr	r3, [r7, #4]
 632 02c6 1B68     		ldr	r3, [r3]
 633 02c8 03F00203 		and	r3, r3, #2
 634 02cc 002B     		cmp	r3, #0
 635 02ce 69D0     		beq	.L40
 567:D:/iot/felix2/targets/Cloud_STM32L431_BearPi/Drivers/STM32L4xx_HAL_Driver/Src\stm32l4xx_hal_rcc.c ****   {
 568:D:/iot/felix2/targets/Cloud_STM32L431_BearPi/Drivers/STM32L4xx_HAL_Driver/Src\stm32l4xx_hal_rcc.c ****     /* Check the parameters */
 569:D:/iot/felix2/targets/Cloud_STM32L431_BearPi/Drivers/STM32L4xx_HAL_Driver/Src\stm32l4xx_hal_rcc.c ****     assert_param(IS_RCC_HSI(RCC_OscInitStruct->HSIState));
 570:D:/iot/felix2/targets/Cloud_STM32L431_BearPi/Drivers/STM32L4xx_HAL_Driver/Src\stm32l4xx_hal_rcc.c ****     assert_param(IS_RCC_HSI_CALIBRATION_VALUE(RCC_OscInitStruct->HSICalibrationValue));
 571:D:/iot/felix2/targets/Cloud_STM32L431_BearPi/Drivers/STM32L4xx_HAL_Driver/Src\stm32l4xx_hal_rcc.c **** 
 572:D:/iot/felix2/targets/Cloud_STM32L431_BearPi/Drivers/STM32L4xx_HAL_Driver/Src\stm32l4xx_hal_rcc.c ****     /* Check if HSI is used as system clock or as PLL source when PLL is selected as system clock *
 573:D:/iot/felix2/targets/Cloud_STM32L431_BearPi/Drivers/STM32L4xx_HAL_Driver/Src\stm32l4xx_hal_rcc.c ****     if((__HAL_RCC_GET_SYSCLK_SOURCE() == RCC_CFGR_SWS_HSI) ||
 636              		.loc 1 573 0
 637 02d0 A24B     		ldr	r3, .L88
 638 02d2 9B68     		ldr	r3, [r3, #8]
 639 02d4 03F00C03 		and	r3, r3, #12
 640 02d8 042B     		cmp	r3, #4
 641 02da 0BD0     		beq	.L41
 574:D:/iot/felix2/targets/Cloud_STM32L431_BearPi/Drivers/STM32L4xx_HAL_Driver/Src\stm32l4xx_hal_rcc.c ****        ((__HAL_RCC_GET_SYSCLK_SOURCE() == RCC_CFGR_SWS_PLL) && (__HAL_RCC_GET_PLL_OSCSOURCE() == RC
 642              		.loc 1 574 0 discriminator 1
 643 02dc 9F4B     		ldr	r3, .L88
 644 02de 9B68     		ldr	r3, [r3, #8]
 645 02e0 03F00C03 		and	r3, r3, #12
 573:D:/iot/felix2/targets/Cloud_STM32L431_BearPi/Drivers/STM32L4xx_HAL_Driver/Src\stm32l4xx_hal_rcc.c ****        ((__HAL_RCC_GET_SYSCLK_SOURCE() == RCC_CFGR_SWS_PLL) && (__HAL_RCC_GET_PLL_OSCSOURCE() == RC
 646              		.loc 1 573 0 discriminator 1
 647 02e4 0C2B     		cmp	r3, #12
 648 02e6 1CD1     		bne	.L42
 649              		.loc 1 574 0
 650 02e8 9C4B     		ldr	r3, .L88
 651 02ea DB68     		ldr	r3, [r3, #12]
 652 02ec 03F00303 		and	r3, r3, #3
 653 02f0 022B     		cmp	r3, #2
 654 02f2 16D1     		bne	.L42
 655              	.L41:
 575:D:/iot/felix2/targets/Cloud_STM32L431_BearPi/Drivers/STM32L4xx_HAL_Driver/Src\stm32l4xx_hal_rcc.c ****     {
 576:D:/iot/felix2/targets/Cloud_STM32L431_BearPi/Drivers/STM32L4xx_HAL_Driver/Src\stm32l4xx_hal_rcc.c ****       /* When HSI is used as system clock it will not be disabled */
 577:D:/iot/felix2/targets/Cloud_STM32L431_BearPi/Drivers/STM32L4xx_HAL_Driver/Src\stm32l4xx_hal_rcc.c ****       if((READ_BIT(RCC->CR, RCC_CR_HSIRDY) != RESET) && (RCC_OscInitStruct->HSIState == RCC_HSI_OFF
 656              		.loc 1 577 0
 657 02f4 994B     		ldr	r3, .L88
 658 02f6 1B68     		ldr	r3, [r3]
 659 02f8 03F48063 		and	r3, r3, #1024
 660 02fc 002B     		cmp	r3, #0
 661 02fe 05D0     		beq	.L43
 662              		.loc 1 577 0 is_stmt 0 discriminator 1
 663 0300 7B68     		ldr	r3, [r7, #4]
 664 0302 DB68     		ldr	r3, [r3, #12]
 665 0304 002B     		cmp	r3, #0
 666 0306 01D1     		bne	.L43
 578:D:/iot/felix2/targets/Cloud_STM32L431_BearPi/Drivers/STM32L4xx_HAL_Driver/Src\stm32l4xx_hal_rcc.c ****       {
 579:D:/iot/felix2/targets/Cloud_STM32L431_BearPi/Drivers/STM32L4xx_HAL_Driver/Src\stm32l4xx_hal_rcc.c ****         return HAL_ERROR;
 667              		.loc 1 579 0 is_stmt 1
 668 0308 0123     		movs	r3, #1
ARM GAS  C:\Users\91458\AppData\Local\Temp\ccHvSglx.s 			page 23


 669 030a 15E2     		b	.L14
 670              	.L43:
 580:D:/iot/felix2/targets/Cloud_STM32L431_BearPi/Drivers/STM32L4xx_HAL_Driver/Src\stm32l4xx_hal_rcc.c ****       }
 581:D:/iot/felix2/targets/Cloud_STM32L431_BearPi/Drivers/STM32L4xx_HAL_Driver/Src\stm32l4xx_hal_rcc.c ****       /* Otherwise, just the calibration is allowed */
 582:D:/iot/felix2/targets/Cloud_STM32L431_BearPi/Drivers/STM32L4xx_HAL_Driver/Src\stm32l4xx_hal_rcc.c ****       else
 583:D:/iot/felix2/targets/Cloud_STM32L431_BearPi/Drivers/STM32L4xx_HAL_Driver/Src\stm32l4xx_hal_rcc.c ****       {
 584:D:/iot/felix2/targets/Cloud_STM32L431_BearPi/Drivers/STM32L4xx_HAL_Driver/Src\stm32l4xx_hal_rcc.c ****         /* Adjusts the Internal High Speed oscillator (HSI) calibration value.*/
 585:D:/iot/felix2/targets/Cloud_STM32L431_BearPi/Drivers/STM32L4xx_HAL_Driver/Src\stm32l4xx_hal_rcc.c ****         __HAL_RCC_HSI_CALIBRATIONVALUE_ADJUST(RCC_OscInitStruct->HSICalibrationValue);
 671              		.loc 1 585 0
 672 030c 934B     		ldr	r3, .L88
 673 030e 5B68     		ldr	r3, [r3, #4]
 674 0310 23F0F852 		bic	r2, r3, #520093696
 675 0314 7B68     		ldr	r3, [r7, #4]
 676 0316 1B69     		ldr	r3, [r3, #16]
 677 0318 1B06     		lsls	r3, r3, #24
 678 031a 9049     		ldr	r1, .L88
 679 031c 1343     		orrs	r3, r3, r2
 680 031e 4B60     		str	r3, [r1, #4]
 577:D:/iot/felix2/targets/Cloud_STM32L431_BearPi/Drivers/STM32L4xx_HAL_Driver/Src\stm32l4xx_hal_rcc.c ****       {
 681              		.loc 1 577 0
 682 0320 40E0     		b	.L40
 683              	.L42:
 586:D:/iot/felix2/targets/Cloud_STM32L431_BearPi/Drivers/STM32L4xx_HAL_Driver/Src\stm32l4xx_hal_rcc.c ****       }
 587:D:/iot/felix2/targets/Cloud_STM32L431_BearPi/Drivers/STM32L4xx_HAL_Driver/Src\stm32l4xx_hal_rcc.c ****     }
 588:D:/iot/felix2/targets/Cloud_STM32L431_BearPi/Drivers/STM32L4xx_HAL_Driver/Src\stm32l4xx_hal_rcc.c ****     else
 589:D:/iot/felix2/targets/Cloud_STM32L431_BearPi/Drivers/STM32L4xx_HAL_Driver/Src\stm32l4xx_hal_rcc.c ****     {
 590:D:/iot/felix2/targets/Cloud_STM32L431_BearPi/Drivers/STM32L4xx_HAL_Driver/Src\stm32l4xx_hal_rcc.c ****       /* Check the HSI State */
 591:D:/iot/felix2/targets/Cloud_STM32L431_BearPi/Drivers/STM32L4xx_HAL_Driver/Src\stm32l4xx_hal_rcc.c ****       if(RCC_OscInitStruct->HSIState != RCC_HSI_OFF)
 684              		.loc 1 591 0
 685 0322 7B68     		ldr	r3, [r7, #4]
 686 0324 DB68     		ldr	r3, [r3, #12]
 687 0326 002B     		cmp	r3, #0
 688 0328 23D0     		beq	.L44
 592:D:/iot/felix2/targets/Cloud_STM32L431_BearPi/Drivers/STM32L4xx_HAL_Driver/Src\stm32l4xx_hal_rcc.c ****       {
 593:D:/iot/felix2/targets/Cloud_STM32L431_BearPi/Drivers/STM32L4xx_HAL_Driver/Src\stm32l4xx_hal_rcc.c ****         /* Enable the Internal High Speed oscillator (HSI). */
 594:D:/iot/felix2/targets/Cloud_STM32L431_BearPi/Drivers/STM32L4xx_HAL_Driver/Src\stm32l4xx_hal_rcc.c ****         __HAL_RCC_HSI_ENABLE();
 689              		.loc 1 594 0
 690 032a 8C4B     		ldr	r3, .L88
 691 032c 1B68     		ldr	r3, [r3]
 692 032e 8B4A     		ldr	r2, .L88
 693 0330 43F48073 		orr	r3, r3, #256
 694 0334 1360     		str	r3, [r2]
 595:D:/iot/felix2/targets/Cloud_STM32L431_BearPi/Drivers/STM32L4xx_HAL_Driver/Src\stm32l4xx_hal_rcc.c **** 
 596:D:/iot/felix2/targets/Cloud_STM32L431_BearPi/Drivers/STM32L4xx_HAL_Driver/Src\stm32l4xx_hal_rcc.c ****         /* Get Start Tick*/
 597:D:/iot/felix2/targets/Cloud_STM32L431_BearPi/Drivers/STM32L4xx_HAL_Driver/Src\stm32l4xx_hal_rcc.c ****         tickstart = HAL_GetTick();
 695              		.loc 1 597 0
 696 0336 FFF7FEFF 		bl	HAL_GetTick
 697 033a 3861     		str	r0, [r7, #16]
 598:D:/iot/felix2/targets/Cloud_STM32L431_BearPi/Drivers/STM32L4xx_HAL_Driver/Src\stm32l4xx_hal_rcc.c **** 
 599:D:/iot/felix2/targets/Cloud_STM32L431_BearPi/Drivers/STM32L4xx_HAL_Driver/Src\stm32l4xx_hal_rcc.c ****         /* Wait till HSI is ready */
 600:D:/iot/felix2/targets/Cloud_STM32L431_BearPi/Drivers/STM32L4xx_HAL_Driver/Src\stm32l4xx_hal_rcc.c ****         while(READ_BIT(RCC->CR, RCC_CR_HSIRDY) == RESET)
 698              		.loc 1 600 0
 699 033c 08E0     		b	.L45
 700              	.L46:
 601:D:/iot/felix2/targets/Cloud_STM32L431_BearPi/Drivers/STM32L4xx_HAL_Driver/Src\stm32l4xx_hal_rcc.c ****         {
 602:D:/iot/felix2/targets/Cloud_STM32L431_BearPi/Drivers/STM32L4xx_HAL_Driver/Src\stm32l4xx_hal_rcc.c ****           if((HAL_GetTick() - tickstart) > HSI_TIMEOUT_VALUE)
 701              		.loc 1 602 0
ARM GAS  C:\Users\91458\AppData\Local\Temp\ccHvSglx.s 			page 24


 702 033e FFF7FEFF 		bl	HAL_GetTick
 703 0342 0246     		mov	r2, r0
 704 0344 3B69     		ldr	r3, [r7, #16]
 705 0346 D31A     		subs	r3, r2, r3
 706 0348 022B     		cmp	r3, #2
 707 034a 01D9     		bls	.L45
 603:D:/iot/felix2/targets/Cloud_STM32L431_BearPi/Drivers/STM32L4xx_HAL_Driver/Src\stm32l4xx_hal_rcc.c ****           {
 604:D:/iot/felix2/targets/Cloud_STM32L431_BearPi/Drivers/STM32L4xx_HAL_Driver/Src\stm32l4xx_hal_rcc.c ****             return HAL_TIMEOUT;
 708              		.loc 1 604 0
 709 034c 0323     		movs	r3, #3
 710 034e F3E1     		b	.L14
 711              	.L45:
 600:D:/iot/felix2/targets/Cloud_STM32L431_BearPi/Drivers/STM32L4xx_HAL_Driver/Src\stm32l4xx_hal_rcc.c ****         {
 712              		.loc 1 600 0
 713 0350 824B     		ldr	r3, .L88
 714 0352 1B68     		ldr	r3, [r3]
 715 0354 03F48063 		and	r3, r3, #1024
 716 0358 002B     		cmp	r3, #0
 717 035a F0D0     		beq	.L46
 605:D:/iot/felix2/targets/Cloud_STM32L431_BearPi/Drivers/STM32L4xx_HAL_Driver/Src\stm32l4xx_hal_rcc.c ****           }
 606:D:/iot/felix2/targets/Cloud_STM32L431_BearPi/Drivers/STM32L4xx_HAL_Driver/Src\stm32l4xx_hal_rcc.c ****         }
 607:D:/iot/felix2/targets/Cloud_STM32L431_BearPi/Drivers/STM32L4xx_HAL_Driver/Src\stm32l4xx_hal_rcc.c **** 
 608:D:/iot/felix2/targets/Cloud_STM32L431_BearPi/Drivers/STM32L4xx_HAL_Driver/Src\stm32l4xx_hal_rcc.c ****         /* Adjusts the Internal High Speed oscillator (HSI) calibration value.*/
 609:D:/iot/felix2/targets/Cloud_STM32L431_BearPi/Drivers/STM32L4xx_HAL_Driver/Src\stm32l4xx_hal_rcc.c ****         __HAL_RCC_HSI_CALIBRATIONVALUE_ADJUST(RCC_OscInitStruct->HSICalibrationValue);
 718              		.loc 1 609 0
 719 035c 7F4B     		ldr	r3, .L88
 720 035e 5B68     		ldr	r3, [r3, #4]
 721 0360 23F0F852 		bic	r2, r3, #520093696
 722 0364 7B68     		ldr	r3, [r7, #4]
 723 0366 1B69     		ldr	r3, [r3, #16]
 724 0368 1B06     		lsls	r3, r3, #24
 725 036a 7C49     		ldr	r1, .L88
 726 036c 1343     		orrs	r3, r3, r2
 727 036e 4B60     		str	r3, [r1, #4]
 728 0370 18E0     		b	.L40
 729              	.L44:
 610:D:/iot/felix2/targets/Cloud_STM32L431_BearPi/Drivers/STM32L4xx_HAL_Driver/Src\stm32l4xx_hal_rcc.c ****       }
 611:D:/iot/felix2/targets/Cloud_STM32L431_BearPi/Drivers/STM32L4xx_HAL_Driver/Src\stm32l4xx_hal_rcc.c ****       else
 612:D:/iot/felix2/targets/Cloud_STM32L431_BearPi/Drivers/STM32L4xx_HAL_Driver/Src\stm32l4xx_hal_rcc.c ****       {
 613:D:/iot/felix2/targets/Cloud_STM32L431_BearPi/Drivers/STM32L4xx_HAL_Driver/Src\stm32l4xx_hal_rcc.c ****         /* Disable the Internal High Speed oscillator (HSI). */
 614:D:/iot/felix2/targets/Cloud_STM32L431_BearPi/Drivers/STM32L4xx_HAL_Driver/Src\stm32l4xx_hal_rcc.c ****         __HAL_RCC_HSI_DISABLE();
 730              		.loc 1 614 0
 731 0372 7A4B     		ldr	r3, .L88
 732 0374 1B68     		ldr	r3, [r3]
 733 0376 794A     		ldr	r2, .L88
 734 0378 23F48073 		bic	r3, r3, #256
 735 037c 1360     		str	r3, [r2]
 615:D:/iot/felix2/targets/Cloud_STM32L431_BearPi/Drivers/STM32L4xx_HAL_Driver/Src\stm32l4xx_hal_rcc.c **** 
 616:D:/iot/felix2/targets/Cloud_STM32L431_BearPi/Drivers/STM32L4xx_HAL_Driver/Src\stm32l4xx_hal_rcc.c ****         /* Get Start Tick*/
 617:D:/iot/felix2/targets/Cloud_STM32L431_BearPi/Drivers/STM32L4xx_HAL_Driver/Src\stm32l4xx_hal_rcc.c ****         tickstart = HAL_GetTick();
 736              		.loc 1 617 0
 737 037e FFF7FEFF 		bl	HAL_GetTick
 738 0382 3861     		str	r0, [r7, #16]
 618:D:/iot/felix2/targets/Cloud_STM32L431_BearPi/Drivers/STM32L4xx_HAL_Driver/Src\stm32l4xx_hal_rcc.c **** 
 619:D:/iot/felix2/targets/Cloud_STM32L431_BearPi/Drivers/STM32L4xx_HAL_Driver/Src\stm32l4xx_hal_rcc.c ****         /* Wait till HSI is disabled */
 620:D:/iot/felix2/targets/Cloud_STM32L431_BearPi/Drivers/STM32L4xx_HAL_Driver/Src\stm32l4xx_hal_rcc.c ****         while(READ_BIT(RCC->CR, RCC_CR_HSIRDY) != RESET)
 739              		.loc 1 620 0
ARM GAS  C:\Users\91458\AppData\Local\Temp\ccHvSglx.s 			page 25


 740 0384 08E0     		b	.L47
 741              	.L48:
 621:D:/iot/felix2/targets/Cloud_STM32L431_BearPi/Drivers/STM32L4xx_HAL_Driver/Src\stm32l4xx_hal_rcc.c ****         {
 622:D:/iot/felix2/targets/Cloud_STM32L431_BearPi/Drivers/STM32L4xx_HAL_Driver/Src\stm32l4xx_hal_rcc.c ****           if((HAL_GetTick() - tickstart) > HSI_TIMEOUT_VALUE)
 742              		.loc 1 622 0
 743 0386 FFF7FEFF 		bl	HAL_GetTick
 744 038a 0246     		mov	r2, r0
 745 038c 3B69     		ldr	r3, [r7, #16]
 746 038e D31A     		subs	r3, r2, r3
 747 0390 022B     		cmp	r3, #2
 748 0392 01D9     		bls	.L47
 623:D:/iot/felix2/targets/Cloud_STM32L431_BearPi/Drivers/STM32L4xx_HAL_Driver/Src\stm32l4xx_hal_rcc.c ****           {
 624:D:/iot/felix2/targets/Cloud_STM32L431_BearPi/Drivers/STM32L4xx_HAL_Driver/Src\stm32l4xx_hal_rcc.c ****             return HAL_TIMEOUT;
 749              		.loc 1 624 0
 750 0394 0323     		movs	r3, #3
 751 0396 CFE1     		b	.L14
 752              	.L47:
 620:D:/iot/felix2/targets/Cloud_STM32L431_BearPi/Drivers/STM32L4xx_HAL_Driver/Src\stm32l4xx_hal_rcc.c ****         {
 753              		.loc 1 620 0
 754 0398 704B     		ldr	r3, .L88
 755 039a 1B68     		ldr	r3, [r3]
 756 039c 03F48063 		and	r3, r3, #1024
 757 03a0 002B     		cmp	r3, #0
 758 03a2 F0D1     		bne	.L48
 759              	.L40:
 625:D:/iot/felix2/targets/Cloud_STM32L431_BearPi/Drivers/STM32L4xx_HAL_Driver/Src\stm32l4xx_hal_rcc.c ****           }
 626:D:/iot/felix2/targets/Cloud_STM32L431_BearPi/Drivers/STM32L4xx_HAL_Driver/Src\stm32l4xx_hal_rcc.c ****         }
 627:D:/iot/felix2/targets/Cloud_STM32L431_BearPi/Drivers/STM32L4xx_HAL_Driver/Src\stm32l4xx_hal_rcc.c ****       }
 628:D:/iot/felix2/targets/Cloud_STM32L431_BearPi/Drivers/STM32L4xx_HAL_Driver/Src\stm32l4xx_hal_rcc.c ****     }
 629:D:/iot/felix2/targets/Cloud_STM32L431_BearPi/Drivers/STM32L4xx_HAL_Driver/Src\stm32l4xx_hal_rcc.c ****   }
 630:D:/iot/felix2/targets/Cloud_STM32L431_BearPi/Drivers/STM32L4xx_HAL_Driver/Src\stm32l4xx_hal_rcc.c ****   /*------------------------------ LSI Configuration -------------------------*/
 631:D:/iot/felix2/targets/Cloud_STM32L431_BearPi/Drivers/STM32L4xx_HAL_Driver/Src\stm32l4xx_hal_rcc.c ****   if(((RCC_OscInitStruct->OscillatorType) & RCC_OSCILLATORTYPE_LSI) == RCC_OSCILLATORTYPE_LSI)
 760              		.loc 1 631 0
 761 03a4 7B68     		ldr	r3, [r7, #4]
 762 03a6 1B68     		ldr	r3, [r3]
 763 03a8 03F00803 		and	r3, r3, #8
 764 03ac 002B     		cmp	r3, #0
 765 03ae 3CD0     		beq	.L49
 632:D:/iot/felix2/targets/Cloud_STM32L431_BearPi/Drivers/STM32L4xx_HAL_Driver/Src\stm32l4xx_hal_rcc.c ****   {
 633:D:/iot/felix2/targets/Cloud_STM32L431_BearPi/Drivers/STM32L4xx_HAL_Driver/Src\stm32l4xx_hal_rcc.c ****     /* Check the parameters */
 634:D:/iot/felix2/targets/Cloud_STM32L431_BearPi/Drivers/STM32L4xx_HAL_Driver/Src\stm32l4xx_hal_rcc.c ****     assert_param(IS_RCC_LSI(RCC_OscInitStruct->LSIState));
 635:D:/iot/felix2/targets/Cloud_STM32L431_BearPi/Drivers/STM32L4xx_HAL_Driver/Src\stm32l4xx_hal_rcc.c **** 
 636:D:/iot/felix2/targets/Cloud_STM32L431_BearPi/Drivers/STM32L4xx_HAL_Driver/Src\stm32l4xx_hal_rcc.c ****     /* Check the LSI State */
 637:D:/iot/felix2/targets/Cloud_STM32L431_BearPi/Drivers/STM32L4xx_HAL_Driver/Src\stm32l4xx_hal_rcc.c ****     if(RCC_OscInitStruct->LSIState != RCC_LSI_OFF)
 766              		.loc 1 637 0
 767 03b0 7B68     		ldr	r3, [r7, #4]
 768 03b2 5B69     		ldr	r3, [r3, #20]
 769 03b4 002B     		cmp	r3, #0
 770 03b6 1CD0     		beq	.L50
 638:D:/iot/felix2/targets/Cloud_STM32L431_BearPi/Drivers/STM32L4xx_HAL_Driver/Src\stm32l4xx_hal_rcc.c ****     {
 639:D:/iot/felix2/targets/Cloud_STM32L431_BearPi/Drivers/STM32L4xx_HAL_Driver/Src\stm32l4xx_hal_rcc.c ****       /* Enable the Internal Low Speed oscillator (LSI). */
 640:D:/iot/felix2/targets/Cloud_STM32L431_BearPi/Drivers/STM32L4xx_HAL_Driver/Src\stm32l4xx_hal_rcc.c ****       __HAL_RCC_LSI_ENABLE();
 771              		.loc 1 640 0
 772 03b8 684B     		ldr	r3, .L88
 773 03ba D3F89430 		ldr	r3, [r3, #148]
 774 03be 674A     		ldr	r2, .L88
 775 03c0 43F00103 		orr	r3, r3, #1
ARM GAS  C:\Users\91458\AppData\Local\Temp\ccHvSglx.s 			page 26


 776 03c4 C2F89430 		str	r3, [r2, #148]
 641:D:/iot/felix2/targets/Cloud_STM32L431_BearPi/Drivers/STM32L4xx_HAL_Driver/Src\stm32l4xx_hal_rcc.c **** 
 642:D:/iot/felix2/targets/Cloud_STM32L431_BearPi/Drivers/STM32L4xx_HAL_Driver/Src\stm32l4xx_hal_rcc.c ****       /* Get Start Tick*/
 643:D:/iot/felix2/targets/Cloud_STM32L431_BearPi/Drivers/STM32L4xx_HAL_Driver/Src\stm32l4xx_hal_rcc.c ****       tickstart = HAL_GetTick();
 777              		.loc 1 643 0
 778 03c8 FFF7FEFF 		bl	HAL_GetTick
 779 03cc 3861     		str	r0, [r7, #16]
 644:D:/iot/felix2/targets/Cloud_STM32L431_BearPi/Drivers/STM32L4xx_HAL_Driver/Src\stm32l4xx_hal_rcc.c **** 
 645:D:/iot/felix2/targets/Cloud_STM32L431_BearPi/Drivers/STM32L4xx_HAL_Driver/Src\stm32l4xx_hal_rcc.c ****       /* Wait till LSI is ready */
 646:D:/iot/felix2/targets/Cloud_STM32L431_BearPi/Drivers/STM32L4xx_HAL_Driver/Src\stm32l4xx_hal_rcc.c ****       while(READ_BIT(RCC->CSR, RCC_CSR_LSIRDY) == RESET)
 780              		.loc 1 646 0
 781 03ce 08E0     		b	.L51
 782              	.L52:
 647:D:/iot/felix2/targets/Cloud_STM32L431_BearPi/Drivers/STM32L4xx_HAL_Driver/Src\stm32l4xx_hal_rcc.c ****       {
 648:D:/iot/felix2/targets/Cloud_STM32L431_BearPi/Drivers/STM32L4xx_HAL_Driver/Src\stm32l4xx_hal_rcc.c ****         if((HAL_GetTick() - tickstart) > LSI_TIMEOUT_VALUE)
 783              		.loc 1 648 0
 784 03d0 FFF7FEFF 		bl	HAL_GetTick
 785 03d4 0246     		mov	r2, r0
 786 03d6 3B69     		ldr	r3, [r7, #16]
 787 03d8 D31A     		subs	r3, r2, r3
 788 03da 022B     		cmp	r3, #2
 789 03dc 01D9     		bls	.L51
 649:D:/iot/felix2/targets/Cloud_STM32L431_BearPi/Drivers/STM32L4xx_HAL_Driver/Src\stm32l4xx_hal_rcc.c ****         {
 650:D:/iot/felix2/targets/Cloud_STM32L431_BearPi/Drivers/STM32L4xx_HAL_Driver/Src\stm32l4xx_hal_rcc.c ****           return HAL_TIMEOUT;
 790              		.loc 1 650 0
 791 03de 0323     		movs	r3, #3
 792 03e0 AAE1     		b	.L14
 793              	.L51:
 646:D:/iot/felix2/targets/Cloud_STM32L431_BearPi/Drivers/STM32L4xx_HAL_Driver/Src\stm32l4xx_hal_rcc.c ****       {
 794              		.loc 1 646 0
 795 03e2 5E4B     		ldr	r3, .L88
 796 03e4 D3F89430 		ldr	r3, [r3, #148]
 797 03e8 03F00203 		and	r3, r3, #2
 798 03ec 002B     		cmp	r3, #0
 799 03ee EFD0     		beq	.L52
 800 03f0 1BE0     		b	.L49
 801              	.L50:
 651:D:/iot/felix2/targets/Cloud_STM32L431_BearPi/Drivers/STM32L4xx_HAL_Driver/Src\stm32l4xx_hal_rcc.c ****         }
 652:D:/iot/felix2/targets/Cloud_STM32L431_BearPi/Drivers/STM32L4xx_HAL_Driver/Src\stm32l4xx_hal_rcc.c ****       }
 653:D:/iot/felix2/targets/Cloud_STM32L431_BearPi/Drivers/STM32L4xx_HAL_Driver/Src\stm32l4xx_hal_rcc.c ****     }
 654:D:/iot/felix2/targets/Cloud_STM32L431_BearPi/Drivers/STM32L4xx_HAL_Driver/Src\stm32l4xx_hal_rcc.c ****     else
 655:D:/iot/felix2/targets/Cloud_STM32L431_BearPi/Drivers/STM32L4xx_HAL_Driver/Src\stm32l4xx_hal_rcc.c ****     {
 656:D:/iot/felix2/targets/Cloud_STM32L431_BearPi/Drivers/STM32L4xx_HAL_Driver/Src\stm32l4xx_hal_rcc.c ****       /* Disable the Internal Low Speed oscillator (LSI). */
 657:D:/iot/felix2/targets/Cloud_STM32L431_BearPi/Drivers/STM32L4xx_HAL_Driver/Src\stm32l4xx_hal_rcc.c ****       __HAL_RCC_LSI_DISABLE();
 802              		.loc 1 657 0
 803 03f2 5A4B     		ldr	r3, .L88
 804 03f4 D3F89430 		ldr	r3, [r3, #148]
 805 03f8 584A     		ldr	r2, .L88
 806 03fa 23F00103 		bic	r3, r3, #1
 807 03fe C2F89430 		str	r3, [r2, #148]
 658:D:/iot/felix2/targets/Cloud_STM32L431_BearPi/Drivers/STM32L4xx_HAL_Driver/Src\stm32l4xx_hal_rcc.c **** 
 659:D:/iot/felix2/targets/Cloud_STM32L431_BearPi/Drivers/STM32L4xx_HAL_Driver/Src\stm32l4xx_hal_rcc.c ****       /* Get Start Tick*/
 660:D:/iot/felix2/targets/Cloud_STM32L431_BearPi/Drivers/STM32L4xx_HAL_Driver/Src\stm32l4xx_hal_rcc.c ****       tickstart = HAL_GetTick();
 808              		.loc 1 660 0
 809 0402 FFF7FEFF 		bl	HAL_GetTick
 810 0406 3861     		str	r0, [r7, #16]
 661:D:/iot/felix2/targets/Cloud_STM32L431_BearPi/Drivers/STM32L4xx_HAL_Driver/Src\stm32l4xx_hal_rcc.c **** 
ARM GAS  C:\Users\91458\AppData\Local\Temp\ccHvSglx.s 			page 27


 662:D:/iot/felix2/targets/Cloud_STM32L431_BearPi/Drivers/STM32L4xx_HAL_Driver/Src\stm32l4xx_hal_rcc.c ****       /* Wait till LSI is disabled */
 663:D:/iot/felix2/targets/Cloud_STM32L431_BearPi/Drivers/STM32L4xx_HAL_Driver/Src\stm32l4xx_hal_rcc.c ****       while(READ_BIT(RCC->CSR, RCC_CSR_LSIRDY) != RESET)
 811              		.loc 1 663 0
 812 0408 08E0     		b	.L53
 813              	.L54:
 664:D:/iot/felix2/targets/Cloud_STM32L431_BearPi/Drivers/STM32L4xx_HAL_Driver/Src\stm32l4xx_hal_rcc.c ****       {
 665:D:/iot/felix2/targets/Cloud_STM32L431_BearPi/Drivers/STM32L4xx_HAL_Driver/Src\stm32l4xx_hal_rcc.c ****         if((HAL_GetTick() - tickstart) > LSI_TIMEOUT_VALUE)
 814              		.loc 1 665 0
 815 040a FFF7FEFF 		bl	HAL_GetTick
 816 040e 0246     		mov	r2, r0
 817 0410 3B69     		ldr	r3, [r7, #16]
 818 0412 D31A     		subs	r3, r2, r3
 819 0414 022B     		cmp	r3, #2
 820 0416 01D9     		bls	.L53
 666:D:/iot/felix2/targets/Cloud_STM32L431_BearPi/Drivers/STM32L4xx_HAL_Driver/Src\stm32l4xx_hal_rcc.c ****         {
 667:D:/iot/felix2/targets/Cloud_STM32L431_BearPi/Drivers/STM32L4xx_HAL_Driver/Src\stm32l4xx_hal_rcc.c ****           return HAL_TIMEOUT;
 821              		.loc 1 667 0
 822 0418 0323     		movs	r3, #3
 823 041a 8DE1     		b	.L14
 824              	.L53:
 663:D:/iot/felix2/targets/Cloud_STM32L431_BearPi/Drivers/STM32L4xx_HAL_Driver/Src\stm32l4xx_hal_rcc.c ****       {
 825              		.loc 1 663 0
 826 041c 4F4B     		ldr	r3, .L88
 827 041e D3F89430 		ldr	r3, [r3, #148]
 828 0422 03F00203 		and	r3, r3, #2
 829 0426 002B     		cmp	r3, #0
 830 0428 EFD1     		bne	.L54
 831              	.L49:
 668:D:/iot/felix2/targets/Cloud_STM32L431_BearPi/Drivers/STM32L4xx_HAL_Driver/Src\stm32l4xx_hal_rcc.c ****         }
 669:D:/iot/felix2/targets/Cloud_STM32L431_BearPi/Drivers/STM32L4xx_HAL_Driver/Src\stm32l4xx_hal_rcc.c ****       }
 670:D:/iot/felix2/targets/Cloud_STM32L431_BearPi/Drivers/STM32L4xx_HAL_Driver/Src\stm32l4xx_hal_rcc.c ****     }
 671:D:/iot/felix2/targets/Cloud_STM32L431_BearPi/Drivers/STM32L4xx_HAL_Driver/Src\stm32l4xx_hal_rcc.c ****   }
 672:D:/iot/felix2/targets/Cloud_STM32L431_BearPi/Drivers/STM32L4xx_HAL_Driver/Src\stm32l4xx_hal_rcc.c ****   /*------------------------------ LSE Configuration -------------------------*/
 673:D:/iot/felix2/targets/Cloud_STM32L431_BearPi/Drivers/STM32L4xx_HAL_Driver/Src\stm32l4xx_hal_rcc.c ****   if(((RCC_OscInitStruct->OscillatorType) & RCC_OSCILLATORTYPE_LSE) == RCC_OSCILLATORTYPE_LSE)
 832              		.loc 1 673 0
 833 042a 7B68     		ldr	r3, [r7, #4]
 834 042c 1B68     		ldr	r3, [r3]
 835 042e 03F00403 		and	r3, r3, #4
 836 0432 002B     		cmp	r3, #0
 837 0434 00F0A680 		beq	.L55
 838              	.LBB2:
 674:D:/iot/felix2/targets/Cloud_STM32L431_BearPi/Drivers/STM32L4xx_HAL_Driver/Src\stm32l4xx_hal_rcc.c ****   {
 675:D:/iot/felix2/targets/Cloud_STM32L431_BearPi/Drivers/STM32L4xx_HAL_Driver/Src\stm32l4xx_hal_rcc.c ****     FlagStatus       pwrclkchanged = RESET;
 839              		.loc 1 675 0
 840 0438 0023     		movs	r3, #0
 841 043a FB75     		strb	r3, [r7, #23]
 676:D:/iot/felix2/targets/Cloud_STM32L431_BearPi/Drivers/STM32L4xx_HAL_Driver/Src\stm32l4xx_hal_rcc.c **** 
 677:D:/iot/felix2/targets/Cloud_STM32L431_BearPi/Drivers/STM32L4xx_HAL_Driver/Src\stm32l4xx_hal_rcc.c ****     /* Check the parameters */
 678:D:/iot/felix2/targets/Cloud_STM32L431_BearPi/Drivers/STM32L4xx_HAL_Driver/Src\stm32l4xx_hal_rcc.c ****     assert_param(IS_RCC_LSE(RCC_OscInitStruct->LSEState));
 679:D:/iot/felix2/targets/Cloud_STM32L431_BearPi/Drivers/STM32L4xx_HAL_Driver/Src\stm32l4xx_hal_rcc.c **** 
 680:D:/iot/felix2/targets/Cloud_STM32L431_BearPi/Drivers/STM32L4xx_HAL_Driver/Src\stm32l4xx_hal_rcc.c ****     /* Update LSE configuration in Backup Domain control register    */
 681:D:/iot/felix2/targets/Cloud_STM32L431_BearPi/Drivers/STM32L4xx_HAL_Driver/Src\stm32l4xx_hal_rcc.c ****     /* Requires to enable write access to Backup Domain of necessary */
 682:D:/iot/felix2/targets/Cloud_STM32L431_BearPi/Drivers/STM32L4xx_HAL_Driver/Src\stm32l4xx_hal_rcc.c ****     if(HAL_IS_BIT_CLR(RCC->APB1ENR1, RCC_APB1ENR1_PWREN))
 842              		.loc 1 682 0
 843 043c 474B     		ldr	r3, .L88
 844 043e 9B6D     		ldr	r3, [r3, #88]
 845 0440 03F08053 		and	r3, r3, #268435456
ARM GAS  C:\Users\91458\AppData\Local\Temp\ccHvSglx.s 			page 28


 846 0444 002B     		cmp	r3, #0
 847 0446 0DD1     		bne	.L56
 848              	.LBB3:
 683:D:/iot/felix2/targets/Cloud_STM32L431_BearPi/Drivers/STM32L4xx_HAL_Driver/Src\stm32l4xx_hal_rcc.c ****     {
 684:D:/iot/felix2/targets/Cloud_STM32L431_BearPi/Drivers/STM32L4xx_HAL_Driver/Src\stm32l4xx_hal_rcc.c ****       __HAL_RCC_PWR_CLK_ENABLE();
 849              		.loc 1 684 0
 850 0448 444B     		ldr	r3, .L88
 851 044a 9B6D     		ldr	r3, [r3, #88]
 852 044c 434A     		ldr	r2, .L88
 853 044e 43F08053 		orr	r3, r3, #268435456
 854 0452 9365     		str	r3, [r2, #88]
 855 0454 414B     		ldr	r3, .L88
 856 0456 9B6D     		ldr	r3, [r3, #88]
 857 0458 03F08053 		and	r3, r3, #268435456
 858 045c FB60     		str	r3, [r7, #12]
 859 045e FB68     		ldr	r3, [r7, #12]
 860              	.LBE3:
 685:D:/iot/felix2/targets/Cloud_STM32L431_BearPi/Drivers/STM32L4xx_HAL_Driver/Src\stm32l4xx_hal_rcc.c ****       pwrclkchanged = SET;
 861              		.loc 1 685 0
 862 0460 0123     		movs	r3, #1
 863 0462 FB75     		strb	r3, [r7, #23]
 864              	.L56:
 686:D:/iot/felix2/targets/Cloud_STM32L431_BearPi/Drivers/STM32L4xx_HAL_Driver/Src\stm32l4xx_hal_rcc.c ****     }
 687:D:/iot/felix2/targets/Cloud_STM32L431_BearPi/Drivers/STM32L4xx_HAL_Driver/Src\stm32l4xx_hal_rcc.c **** 
 688:D:/iot/felix2/targets/Cloud_STM32L431_BearPi/Drivers/STM32L4xx_HAL_Driver/Src\stm32l4xx_hal_rcc.c ****     if(HAL_IS_BIT_CLR(PWR->CR1, PWR_CR1_DBP))
 865              		.loc 1 688 0
 866 0464 3E4B     		ldr	r3, .L88+4
 867 0466 1B68     		ldr	r3, [r3]
 868 0468 03F48073 		and	r3, r3, #256
 869 046c 002B     		cmp	r3, #0
 870 046e 18D1     		bne	.L57
 689:D:/iot/felix2/targets/Cloud_STM32L431_BearPi/Drivers/STM32L4xx_HAL_Driver/Src\stm32l4xx_hal_rcc.c ****     {
 690:D:/iot/felix2/targets/Cloud_STM32L431_BearPi/Drivers/STM32L4xx_HAL_Driver/Src\stm32l4xx_hal_rcc.c ****       /* Enable write access to Backup domain */
 691:D:/iot/felix2/targets/Cloud_STM32L431_BearPi/Drivers/STM32L4xx_HAL_Driver/Src\stm32l4xx_hal_rcc.c ****       SET_BIT(PWR->CR1, PWR_CR1_DBP);
 871              		.loc 1 691 0
 872 0470 3B4B     		ldr	r3, .L88+4
 873 0472 1B68     		ldr	r3, [r3]
 874 0474 3A4A     		ldr	r2, .L88+4
 875 0476 43F48073 		orr	r3, r3, #256
 876 047a 1360     		str	r3, [r2]
 692:D:/iot/felix2/targets/Cloud_STM32L431_BearPi/Drivers/STM32L4xx_HAL_Driver/Src\stm32l4xx_hal_rcc.c **** 
 693:D:/iot/felix2/targets/Cloud_STM32L431_BearPi/Drivers/STM32L4xx_HAL_Driver/Src\stm32l4xx_hal_rcc.c ****       /* Wait for Backup domain Write protection disable */
 694:D:/iot/felix2/targets/Cloud_STM32L431_BearPi/Drivers/STM32L4xx_HAL_Driver/Src\stm32l4xx_hal_rcc.c ****       tickstart = HAL_GetTick();
 877              		.loc 1 694 0
 878 047c FFF7FEFF 		bl	HAL_GetTick
 879 0480 3861     		str	r0, [r7, #16]
 695:D:/iot/felix2/targets/Cloud_STM32L431_BearPi/Drivers/STM32L4xx_HAL_Driver/Src\stm32l4xx_hal_rcc.c **** 
 696:D:/iot/felix2/targets/Cloud_STM32L431_BearPi/Drivers/STM32L4xx_HAL_Driver/Src\stm32l4xx_hal_rcc.c ****       while(HAL_IS_BIT_CLR(PWR->CR1, PWR_CR1_DBP))
 880              		.loc 1 696 0
 881 0482 08E0     		b	.L58
 882              	.L59:
 697:D:/iot/felix2/targets/Cloud_STM32L431_BearPi/Drivers/STM32L4xx_HAL_Driver/Src\stm32l4xx_hal_rcc.c ****       {
 698:D:/iot/felix2/targets/Cloud_STM32L431_BearPi/Drivers/STM32L4xx_HAL_Driver/Src\stm32l4xx_hal_rcc.c ****         if((HAL_GetTick() - tickstart) > RCC_DBP_TIMEOUT_VALUE)
 883              		.loc 1 698 0
 884 0484 FFF7FEFF 		bl	HAL_GetTick
 885 0488 0246     		mov	r2, r0
 886 048a 3B69     		ldr	r3, [r7, #16]
ARM GAS  C:\Users\91458\AppData\Local\Temp\ccHvSglx.s 			page 29


 887 048c D31A     		subs	r3, r2, r3
 888 048e 022B     		cmp	r3, #2
 889 0490 01D9     		bls	.L58
 699:D:/iot/felix2/targets/Cloud_STM32L431_BearPi/Drivers/STM32L4xx_HAL_Driver/Src\stm32l4xx_hal_rcc.c ****         {
 700:D:/iot/felix2/targets/Cloud_STM32L431_BearPi/Drivers/STM32L4xx_HAL_Driver/Src\stm32l4xx_hal_rcc.c ****           return HAL_TIMEOUT;
 890              		.loc 1 700 0
 891 0492 0323     		movs	r3, #3
 892 0494 50E1     		b	.L14
 893              	.L58:
 696:D:/iot/felix2/targets/Cloud_STM32L431_BearPi/Drivers/STM32L4xx_HAL_Driver/Src\stm32l4xx_hal_rcc.c ****       {
 894              		.loc 1 696 0
 895 0496 324B     		ldr	r3, .L88+4
 896 0498 1B68     		ldr	r3, [r3]
 897 049a 03F48073 		and	r3, r3, #256
 898 049e 002B     		cmp	r3, #0
 899 04a0 F0D0     		beq	.L59
 900              	.L57:
 701:D:/iot/felix2/targets/Cloud_STM32L431_BearPi/Drivers/STM32L4xx_HAL_Driver/Src\stm32l4xx_hal_rcc.c ****         }
 702:D:/iot/felix2/targets/Cloud_STM32L431_BearPi/Drivers/STM32L4xx_HAL_Driver/Src\stm32l4xx_hal_rcc.c ****       }
 703:D:/iot/felix2/targets/Cloud_STM32L431_BearPi/Drivers/STM32L4xx_HAL_Driver/Src\stm32l4xx_hal_rcc.c ****     }
 704:D:/iot/felix2/targets/Cloud_STM32L431_BearPi/Drivers/STM32L4xx_HAL_Driver/Src\stm32l4xx_hal_rcc.c **** 
 705:D:/iot/felix2/targets/Cloud_STM32L431_BearPi/Drivers/STM32L4xx_HAL_Driver/Src\stm32l4xx_hal_rcc.c ****     /* Set the new LSE configuration -----------------------------------------*/
 706:D:/iot/felix2/targets/Cloud_STM32L431_BearPi/Drivers/STM32L4xx_HAL_Driver/Src\stm32l4xx_hal_rcc.c ****     __HAL_RCC_LSE_CONFIG(RCC_OscInitStruct->LSEState);
 901              		.loc 1 706 0
 902 04a2 7B68     		ldr	r3, [r7, #4]
 903 04a4 9B68     		ldr	r3, [r3, #8]
 904 04a6 012B     		cmp	r3, #1
 905 04a8 08D1     		bne	.L60
 906              		.loc 1 706 0 is_stmt 0 discriminator 1
 907 04aa 2C4B     		ldr	r3, .L88
 908 04ac D3F89030 		ldr	r3, [r3, #144]
 909 04b0 2A4A     		ldr	r2, .L88
 910 04b2 43F00103 		orr	r3, r3, #1
 911 04b6 C2F89030 		str	r3, [r2, #144]
 912 04ba 24E0     		b	.L61
 913              	.L60:
 914              		.loc 1 706 0 discriminator 2
 915 04bc 7B68     		ldr	r3, [r7, #4]
 916 04be 9B68     		ldr	r3, [r3, #8]
 917 04c0 052B     		cmp	r3, #5
 918 04c2 10D1     		bne	.L62
 919              		.loc 1 706 0 discriminator 3
 920 04c4 254B     		ldr	r3, .L88
 921 04c6 D3F89030 		ldr	r3, [r3, #144]
 922 04ca 244A     		ldr	r2, .L88
 923 04cc 43F00403 		orr	r3, r3, #4
 924 04d0 C2F89030 		str	r3, [r2, #144]
 925 04d4 214B     		ldr	r3, .L88
 926 04d6 D3F89030 		ldr	r3, [r3, #144]
 927 04da 204A     		ldr	r2, .L88
 928 04dc 43F00103 		orr	r3, r3, #1
 929 04e0 C2F89030 		str	r3, [r2, #144]
 930 04e4 0FE0     		b	.L61
 931              	.L62:
 932              		.loc 1 706 0 discriminator 4
 933 04e6 1D4B     		ldr	r3, .L88
 934 04e8 D3F89030 		ldr	r3, [r3, #144]
ARM GAS  C:\Users\91458\AppData\Local\Temp\ccHvSglx.s 			page 30


 935 04ec 1B4A     		ldr	r2, .L88
 936 04ee 23F00103 		bic	r3, r3, #1
 937 04f2 C2F89030 		str	r3, [r2, #144]
 938 04f6 194B     		ldr	r3, .L88
 939 04f8 D3F89030 		ldr	r3, [r3, #144]
 940 04fc 174A     		ldr	r2, .L88
 941 04fe 23F00403 		bic	r3, r3, #4
 942 0502 C2F89030 		str	r3, [r2, #144]
 943              	.L61:
 707:D:/iot/felix2/targets/Cloud_STM32L431_BearPi/Drivers/STM32L4xx_HAL_Driver/Src\stm32l4xx_hal_rcc.c **** 
 708:D:/iot/felix2/targets/Cloud_STM32L431_BearPi/Drivers/STM32L4xx_HAL_Driver/Src\stm32l4xx_hal_rcc.c ****     /* Check the LSE State */
 709:D:/iot/felix2/targets/Cloud_STM32L431_BearPi/Drivers/STM32L4xx_HAL_Driver/Src\stm32l4xx_hal_rcc.c ****     if(RCC_OscInitStruct->LSEState != RCC_LSE_OFF)
 944              		.loc 1 709 0 is_stmt 1
 945 0506 7B68     		ldr	r3, [r7, #4]
 946 0508 9B68     		ldr	r3, [r3, #8]
 947 050a 002B     		cmp	r3, #0
 948 050c 16D0     		beq	.L63
 710:D:/iot/felix2/targets/Cloud_STM32L431_BearPi/Drivers/STM32L4xx_HAL_Driver/Src\stm32l4xx_hal_rcc.c ****     {
 711:D:/iot/felix2/targets/Cloud_STM32L431_BearPi/Drivers/STM32L4xx_HAL_Driver/Src\stm32l4xx_hal_rcc.c ****       /* Get Start Tick*/
 712:D:/iot/felix2/targets/Cloud_STM32L431_BearPi/Drivers/STM32L4xx_HAL_Driver/Src\stm32l4xx_hal_rcc.c ****       tickstart = HAL_GetTick();
 949              		.loc 1 712 0
 950 050e FFF7FEFF 		bl	HAL_GetTick
 951 0512 3861     		str	r0, [r7, #16]
 713:D:/iot/felix2/targets/Cloud_STM32L431_BearPi/Drivers/STM32L4xx_HAL_Driver/Src\stm32l4xx_hal_rcc.c **** 
 714:D:/iot/felix2/targets/Cloud_STM32L431_BearPi/Drivers/STM32L4xx_HAL_Driver/Src\stm32l4xx_hal_rcc.c ****       /* Wait till LSE is ready */
 715:D:/iot/felix2/targets/Cloud_STM32L431_BearPi/Drivers/STM32L4xx_HAL_Driver/Src\stm32l4xx_hal_rcc.c ****       while(READ_BIT(RCC->BDCR, RCC_BDCR_LSERDY) == RESET)
 952              		.loc 1 715 0
 953 0514 0AE0     		b	.L64
 954              	.L65:
 716:D:/iot/felix2/targets/Cloud_STM32L431_BearPi/Drivers/STM32L4xx_HAL_Driver/Src\stm32l4xx_hal_rcc.c ****       {
 717:D:/iot/felix2/targets/Cloud_STM32L431_BearPi/Drivers/STM32L4xx_HAL_Driver/Src\stm32l4xx_hal_rcc.c ****         if((HAL_GetTick() - tickstart) > RCC_LSE_TIMEOUT_VALUE)
 955              		.loc 1 717 0
 956 0516 FFF7FEFF 		bl	HAL_GetTick
 957 051a 0246     		mov	r2, r0
 958 051c 3B69     		ldr	r3, [r7, #16]
 959 051e D31A     		subs	r3, r2, r3
 960 0520 41F28832 		movw	r2, #5000
 961 0524 9342     		cmp	r3, r2
 962 0526 01D9     		bls	.L64
 718:D:/iot/felix2/targets/Cloud_STM32L431_BearPi/Drivers/STM32L4xx_HAL_Driver/Src\stm32l4xx_hal_rcc.c ****         {
 719:D:/iot/felix2/targets/Cloud_STM32L431_BearPi/Drivers/STM32L4xx_HAL_Driver/Src\stm32l4xx_hal_rcc.c ****           return HAL_TIMEOUT;
 963              		.loc 1 719 0
 964 0528 0323     		movs	r3, #3
 965 052a 05E1     		b	.L14
 966              	.L64:
 715:D:/iot/felix2/targets/Cloud_STM32L431_BearPi/Drivers/STM32L4xx_HAL_Driver/Src\stm32l4xx_hal_rcc.c ****       {
 967              		.loc 1 715 0
 968 052c 0B4B     		ldr	r3, .L88
 969 052e D3F89030 		ldr	r3, [r3, #144]
 970 0532 03F00203 		and	r3, r3, #2
 971 0536 002B     		cmp	r3, #0
 972 0538 EDD0     		beq	.L65
 973 053a 1AE0     		b	.L66
 974              	.L63:
 720:D:/iot/felix2/targets/Cloud_STM32L431_BearPi/Drivers/STM32L4xx_HAL_Driver/Src\stm32l4xx_hal_rcc.c ****         }
 721:D:/iot/felix2/targets/Cloud_STM32L431_BearPi/Drivers/STM32L4xx_HAL_Driver/Src\stm32l4xx_hal_rcc.c ****       }
 722:D:/iot/felix2/targets/Cloud_STM32L431_BearPi/Drivers/STM32L4xx_HAL_Driver/Src\stm32l4xx_hal_rcc.c ****     }
ARM GAS  C:\Users\91458\AppData\Local\Temp\ccHvSglx.s 			page 31


 723:D:/iot/felix2/targets/Cloud_STM32L431_BearPi/Drivers/STM32L4xx_HAL_Driver/Src\stm32l4xx_hal_rcc.c ****     else
 724:D:/iot/felix2/targets/Cloud_STM32L431_BearPi/Drivers/STM32L4xx_HAL_Driver/Src\stm32l4xx_hal_rcc.c ****     {
 725:D:/iot/felix2/targets/Cloud_STM32L431_BearPi/Drivers/STM32L4xx_HAL_Driver/Src\stm32l4xx_hal_rcc.c ****       /* Get Start Tick*/
 726:D:/iot/felix2/targets/Cloud_STM32L431_BearPi/Drivers/STM32L4xx_HAL_Driver/Src\stm32l4xx_hal_rcc.c ****       tickstart = HAL_GetTick();
 975              		.loc 1 726 0
 976 053c FFF7FEFF 		bl	HAL_GetTick
 977 0540 3861     		str	r0, [r7, #16]
 727:D:/iot/felix2/targets/Cloud_STM32L431_BearPi/Drivers/STM32L4xx_HAL_Driver/Src\stm32l4xx_hal_rcc.c **** 
 728:D:/iot/felix2/targets/Cloud_STM32L431_BearPi/Drivers/STM32L4xx_HAL_Driver/Src\stm32l4xx_hal_rcc.c ****       /* Wait till LSE is disabled */
 729:D:/iot/felix2/targets/Cloud_STM32L431_BearPi/Drivers/STM32L4xx_HAL_Driver/Src\stm32l4xx_hal_rcc.c ****       while(READ_BIT(RCC->BDCR, RCC_BDCR_LSERDY) != RESET)
 978              		.loc 1 729 0
 979 0542 0FE0     		b	.L67
 980              	.L68:
 730:D:/iot/felix2/targets/Cloud_STM32L431_BearPi/Drivers/STM32L4xx_HAL_Driver/Src\stm32l4xx_hal_rcc.c ****       {
 731:D:/iot/felix2/targets/Cloud_STM32L431_BearPi/Drivers/STM32L4xx_HAL_Driver/Src\stm32l4xx_hal_rcc.c ****         if((HAL_GetTick() - tickstart) > RCC_LSE_TIMEOUT_VALUE)
 981              		.loc 1 731 0
 982 0544 FFF7FEFF 		bl	HAL_GetTick
 983 0548 0246     		mov	r2, r0
 984 054a 3B69     		ldr	r3, [r7, #16]
 985 054c D31A     		subs	r3, r2, r3
 986 054e 41F28832 		movw	r2, #5000
 987 0552 9342     		cmp	r3, r2
 988 0554 06D9     		bls	.L67
 732:D:/iot/felix2/targets/Cloud_STM32L431_BearPi/Drivers/STM32L4xx_HAL_Driver/Src\stm32l4xx_hal_rcc.c ****         {
 733:D:/iot/felix2/targets/Cloud_STM32L431_BearPi/Drivers/STM32L4xx_HAL_Driver/Src\stm32l4xx_hal_rcc.c ****           return HAL_TIMEOUT;
 989              		.loc 1 733 0
 990 0556 0323     		movs	r3, #3
 991 0558 EEE0     		b	.L14
 992              	.L89:
 993 055a 00BF     		.align	2
 994              	.L88:
 995 055c 00100240 		.word	1073876992
 996 0560 00700040 		.word	1073770496
 997              	.L67:
 729:D:/iot/felix2/targets/Cloud_STM32L431_BearPi/Drivers/STM32L4xx_HAL_Driver/Src\stm32l4xx_hal_rcc.c ****       {
 998              		.loc 1 729 0
 999 0564 764B     		ldr	r3, .L90
 1000 0566 D3F89030 		ldr	r3, [r3, #144]
 1001 056a 03F00203 		and	r3, r3, #2
 1002 056e 002B     		cmp	r3, #0
 1003 0570 E8D1     		bne	.L68
 1004              	.L66:
 734:D:/iot/felix2/targets/Cloud_STM32L431_BearPi/Drivers/STM32L4xx_HAL_Driver/Src\stm32l4xx_hal_rcc.c ****         }
 735:D:/iot/felix2/targets/Cloud_STM32L431_BearPi/Drivers/STM32L4xx_HAL_Driver/Src\stm32l4xx_hal_rcc.c ****       }
 736:D:/iot/felix2/targets/Cloud_STM32L431_BearPi/Drivers/STM32L4xx_HAL_Driver/Src\stm32l4xx_hal_rcc.c ****     }
 737:D:/iot/felix2/targets/Cloud_STM32L431_BearPi/Drivers/STM32L4xx_HAL_Driver/Src\stm32l4xx_hal_rcc.c **** 
 738:D:/iot/felix2/targets/Cloud_STM32L431_BearPi/Drivers/STM32L4xx_HAL_Driver/Src\stm32l4xx_hal_rcc.c ****     /* Restore clock configuration if changed */
 739:D:/iot/felix2/targets/Cloud_STM32L431_BearPi/Drivers/STM32L4xx_HAL_Driver/Src\stm32l4xx_hal_rcc.c ****     if(pwrclkchanged == SET)
 1005              		.loc 1 739 0
 1006 0572 FB7D     		ldrb	r3, [r7, #23]	@ zero_extendqisi2
 1007 0574 012B     		cmp	r3, #1
 1008 0576 05D1     		bne	.L55
 740:D:/iot/felix2/targets/Cloud_STM32L431_BearPi/Drivers/STM32L4xx_HAL_Driver/Src\stm32l4xx_hal_rcc.c ****     {
 741:D:/iot/felix2/targets/Cloud_STM32L431_BearPi/Drivers/STM32L4xx_HAL_Driver/Src\stm32l4xx_hal_rcc.c ****       __HAL_RCC_PWR_CLK_DISABLE();
 1009              		.loc 1 741 0
 1010 0578 714B     		ldr	r3, .L90
 1011 057a 9B6D     		ldr	r3, [r3, #88]
ARM GAS  C:\Users\91458\AppData\Local\Temp\ccHvSglx.s 			page 32


 1012 057c 704A     		ldr	r2, .L90
 1013 057e 23F08053 		bic	r3, r3, #268435456
 1014 0582 9365     		str	r3, [r2, #88]
 1015              	.L55:
 1016              	.LBE2:
 742:D:/iot/felix2/targets/Cloud_STM32L431_BearPi/Drivers/STM32L4xx_HAL_Driver/Src\stm32l4xx_hal_rcc.c ****     }
 743:D:/iot/felix2/targets/Cloud_STM32L431_BearPi/Drivers/STM32L4xx_HAL_Driver/Src\stm32l4xx_hal_rcc.c ****   }
 744:D:/iot/felix2/targets/Cloud_STM32L431_BearPi/Drivers/STM32L4xx_HAL_Driver/Src\stm32l4xx_hal_rcc.c **** #if defined(RCC_HSI48_SUPPORT)
 745:D:/iot/felix2/targets/Cloud_STM32L431_BearPi/Drivers/STM32L4xx_HAL_Driver/Src\stm32l4xx_hal_rcc.c ****   /*------------------------------ HSI48 Configuration -----------------------*/
 746:D:/iot/felix2/targets/Cloud_STM32L431_BearPi/Drivers/STM32L4xx_HAL_Driver/Src\stm32l4xx_hal_rcc.c ****   if(((RCC_OscInitStruct->OscillatorType) & RCC_OSCILLATORTYPE_HSI48) == RCC_OSCILLATORTYPE_HSI48)
 1017              		.loc 1 746 0
 1018 0584 7B68     		ldr	r3, [r7, #4]
 1019 0586 1B68     		ldr	r3, [r3]
 1020 0588 03F02003 		and	r3, r3, #32
 1021 058c 002B     		cmp	r3, #0
 1022 058e 3CD0     		beq	.L69
 747:D:/iot/felix2/targets/Cloud_STM32L431_BearPi/Drivers/STM32L4xx_HAL_Driver/Src\stm32l4xx_hal_rcc.c ****   {
 748:D:/iot/felix2/targets/Cloud_STM32L431_BearPi/Drivers/STM32L4xx_HAL_Driver/Src\stm32l4xx_hal_rcc.c ****     /* Check the parameters */
 749:D:/iot/felix2/targets/Cloud_STM32L431_BearPi/Drivers/STM32L4xx_HAL_Driver/Src\stm32l4xx_hal_rcc.c ****     assert_param(IS_RCC_HSI48(RCC_OscInitStruct->HSI48State));
 750:D:/iot/felix2/targets/Cloud_STM32L431_BearPi/Drivers/STM32L4xx_HAL_Driver/Src\stm32l4xx_hal_rcc.c **** 
 751:D:/iot/felix2/targets/Cloud_STM32L431_BearPi/Drivers/STM32L4xx_HAL_Driver/Src\stm32l4xx_hal_rcc.c ****     /* Check the LSI State */
 752:D:/iot/felix2/targets/Cloud_STM32L431_BearPi/Drivers/STM32L4xx_HAL_Driver/Src\stm32l4xx_hal_rcc.c ****     if(RCC_OscInitStruct->HSI48State != RCC_HSI48_OFF)
 1023              		.loc 1 752 0
 1024 0590 7B68     		ldr	r3, [r7, #4]
 1025 0592 5B6A     		ldr	r3, [r3, #36]
 1026 0594 002B     		cmp	r3, #0
 1027 0596 1CD0     		beq	.L70
 753:D:/iot/felix2/targets/Cloud_STM32L431_BearPi/Drivers/STM32L4xx_HAL_Driver/Src\stm32l4xx_hal_rcc.c ****     {
 754:D:/iot/felix2/targets/Cloud_STM32L431_BearPi/Drivers/STM32L4xx_HAL_Driver/Src\stm32l4xx_hal_rcc.c ****       /* Enable the Internal Low Speed oscillator (HSI48). */
 755:D:/iot/felix2/targets/Cloud_STM32L431_BearPi/Drivers/STM32L4xx_HAL_Driver/Src\stm32l4xx_hal_rcc.c ****       __HAL_RCC_HSI48_ENABLE();
 1028              		.loc 1 755 0
 1029 0598 694B     		ldr	r3, .L90
 1030 059a D3F89830 		ldr	r3, [r3, #152]
 1031 059e 684A     		ldr	r2, .L90
 1032 05a0 43F00103 		orr	r3, r3, #1
 1033 05a4 C2F89830 		str	r3, [r2, #152]
 756:D:/iot/felix2/targets/Cloud_STM32L431_BearPi/Drivers/STM32L4xx_HAL_Driver/Src\stm32l4xx_hal_rcc.c **** 
 757:D:/iot/felix2/targets/Cloud_STM32L431_BearPi/Drivers/STM32L4xx_HAL_Driver/Src\stm32l4xx_hal_rcc.c ****       /* Get Start Tick*/
 758:D:/iot/felix2/targets/Cloud_STM32L431_BearPi/Drivers/STM32L4xx_HAL_Driver/Src\stm32l4xx_hal_rcc.c ****       tickstart = HAL_GetTick();
 1034              		.loc 1 758 0
 1035 05a8 FFF7FEFF 		bl	HAL_GetTick
 1036 05ac 3861     		str	r0, [r7, #16]
 759:D:/iot/felix2/targets/Cloud_STM32L431_BearPi/Drivers/STM32L4xx_HAL_Driver/Src\stm32l4xx_hal_rcc.c **** 
 760:D:/iot/felix2/targets/Cloud_STM32L431_BearPi/Drivers/STM32L4xx_HAL_Driver/Src\stm32l4xx_hal_rcc.c ****       /* Wait till HSI48 is ready */
 761:D:/iot/felix2/targets/Cloud_STM32L431_BearPi/Drivers/STM32L4xx_HAL_Driver/Src\stm32l4xx_hal_rcc.c ****       while(READ_BIT(RCC->CRRCR, RCC_CRRCR_HSI48RDY) == RESET)
 1037              		.loc 1 761 0
 1038 05ae 08E0     		b	.L71
 1039              	.L72:
 762:D:/iot/felix2/targets/Cloud_STM32L431_BearPi/Drivers/STM32L4xx_HAL_Driver/Src\stm32l4xx_hal_rcc.c ****       {
 763:D:/iot/felix2/targets/Cloud_STM32L431_BearPi/Drivers/STM32L4xx_HAL_Driver/Src\stm32l4xx_hal_rcc.c ****         if((HAL_GetTick() - tickstart) > HSI48_TIMEOUT_VALUE)
 1040              		.loc 1 763 0
 1041 05b0 FFF7FEFF 		bl	HAL_GetTick
 1042 05b4 0246     		mov	r2, r0
 1043 05b6 3B69     		ldr	r3, [r7, #16]
 1044 05b8 D31A     		subs	r3, r2, r3
 1045 05ba 022B     		cmp	r3, #2
 1046 05bc 01D9     		bls	.L71
ARM GAS  C:\Users\91458\AppData\Local\Temp\ccHvSglx.s 			page 33


 764:D:/iot/felix2/targets/Cloud_STM32L431_BearPi/Drivers/STM32L4xx_HAL_Driver/Src\stm32l4xx_hal_rcc.c ****         {
 765:D:/iot/felix2/targets/Cloud_STM32L431_BearPi/Drivers/STM32L4xx_HAL_Driver/Src\stm32l4xx_hal_rcc.c ****           return HAL_TIMEOUT;
 1047              		.loc 1 765 0
 1048 05be 0323     		movs	r3, #3
 1049 05c0 BAE0     		b	.L14
 1050              	.L71:
 761:D:/iot/felix2/targets/Cloud_STM32L431_BearPi/Drivers/STM32L4xx_HAL_Driver/Src\stm32l4xx_hal_rcc.c ****       {
 1051              		.loc 1 761 0
 1052 05c2 5F4B     		ldr	r3, .L90
 1053 05c4 D3F89830 		ldr	r3, [r3, #152]
 1054 05c8 03F00203 		and	r3, r3, #2
 1055 05cc 002B     		cmp	r3, #0
 1056 05ce EFD0     		beq	.L72
 1057 05d0 1BE0     		b	.L69
 1058              	.L70:
 766:D:/iot/felix2/targets/Cloud_STM32L431_BearPi/Drivers/STM32L4xx_HAL_Driver/Src\stm32l4xx_hal_rcc.c ****         }
 767:D:/iot/felix2/targets/Cloud_STM32L431_BearPi/Drivers/STM32L4xx_HAL_Driver/Src\stm32l4xx_hal_rcc.c ****       }
 768:D:/iot/felix2/targets/Cloud_STM32L431_BearPi/Drivers/STM32L4xx_HAL_Driver/Src\stm32l4xx_hal_rcc.c ****     }
 769:D:/iot/felix2/targets/Cloud_STM32L431_BearPi/Drivers/STM32L4xx_HAL_Driver/Src\stm32l4xx_hal_rcc.c ****     else
 770:D:/iot/felix2/targets/Cloud_STM32L431_BearPi/Drivers/STM32L4xx_HAL_Driver/Src\stm32l4xx_hal_rcc.c ****     {
 771:D:/iot/felix2/targets/Cloud_STM32L431_BearPi/Drivers/STM32L4xx_HAL_Driver/Src\stm32l4xx_hal_rcc.c ****       /* Disable the Internal Low Speed oscillator (HSI48). */
 772:D:/iot/felix2/targets/Cloud_STM32L431_BearPi/Drivers/STM32L4xx_HAL_Driver/Src\stm32l4xx_hal_rcc.c ****       __HAL_RCC_HSI48_DISABLE();
 1059              		.loc 1 772 0
 1060 05d2 5B4B     		ldr	r3, .L90
 1061 05d4 D3F89830 		ldr	r3, [r3, #152]
 1062 05d8 594A     		ldr	r2, .L90
 1063 05da 23F00103 		bic	r3, r3, #1
 1064 05de C2F89830 		str	r3, [r2, #152]
 773:D:/iot/felix2/targets/Cloud_STM32L431_BearPi/Drivers/STM32L4xx_HAL_Driver/Src\stm32l4xx_hal_rcc.c **** 
 774:D:/iot/felix2/targets/Cloud_STM32L431_BearPi/Drivers/STM32L4xx_HAL_Driver/Src\stm32l4xx_hal_rcc.c ****       /* Get Start Tick*/
 775:D:/iot/felix2/targets/Cloud_STM32L431_BearPi/Drivers/STM32L4xx_HAL_Driver/Src\stm32l4xx_hal_rcc.c ****       tickstart = HAL_GetTick();
 1065              		.loc 1 775 0
 1066 05e2 FFF7FEFF 		bl	HAL_GetTick
 1067 05e6 3861     		str	r0, [r7, #16]
 776:D:/iot/felix2/targets/Cloud_STM32L431_BearPi/Drivers/STM32L4xx_HAL_Driver/Src\stm32l4xx_hal_rcc.c **** 
 777:D:/iot/felix2/targets/Cloud_STM32L431_BearPi/Drivers/STM32L4xx_HAL_Driver/Src\stm32l4xx_hal_rcc.c ****       /* Wait till HSI48 is disabled */
 778:D:/iot/felix2/targets/Cloud_STM32L431_BearPi/Drivers/STM32L4xx_HAL_Driver/Src\stm32l4xx_hal_rcc.c ****       while(READ_BIT(RCC->CRRCR, RCC_CRRCR_HSI48RDY) != RESET)
 1068              		.loc 1 778 0
 1069 05e8 08E0     		b	.L73
 1070              	.L74:
 779:D:/iot/felix2/targets/Cloud_STM32L431_BearPi/Drivers/STM32L4xx_HAL_Driver/Src\stm32l4xx_hal_rcc.c ****       {
 780:D:/iot/felix2/targets/Cloud_STM32L431_BearPi/Drivers/STM32L4xx_HAL_Driver/Src\stm32l4xx_hal_rcc.c ****         if((HAL_GetTick() - tickstart) > HSI48_TIMEOUT_VALUE)
 1071              		.loc 1 780 0
 1072 05ea FFF7FEFF 		bl	HAL_GetTick
 1073 05ee 0246     		mov	r2, r0
 1074 05f0 3B69     		ldr	r3, [r7, #16]
 1075 05f2 D31A     		subs	r3, r2, r3
 1076 05f4 022B     		cmp	r3, #2
 1077 05f6 01D9     		bls	.L73
 781:D:/iot/felix2/targets/Cloud_STM32L431_BearPi/Drivers/STM32L4xx_HAL_Driver/Src\stm32l4xx_hal_rcc.c ****         {
 782:D:/iot/felix2/targets/Cloud_STM32L431_BearPi/Drivers/STM32L4xx_HAL_Driver/Src\stm32l4xx_hal_rcc.c ****           return HAL_TIMEOUT;
 1078              		.loc 1 782 0
 1079 05f8 0323     		movs	r3, #3
 1080 05fa 9DE0     		b	.L14
 1081              	.L73:
 778:D:/iot/felix2/targets/Cloud_STM32L431_BearPi/Drivers/STM32L4xx_HAL_Driver/Src\stm32l4xx_hal_rcc.c ****       {
 1082              		.loc 1 778 0
ARM GAS  C:\Users\91458\AppData\Local\Temp\ccHvSglx.s 			page 34


 1083 05fc 504B     		ldr	r3, .L90
 1084 05fe D3F89830 		ldr	r3, [r3, #152]
 1085 0602 03F00203 		and	r3, r3, #2
 1086 0606 002B     		cmp	r3, #0
 1087 0608 EFD1     		bne	.L74
 1088              	.L69:
 783:D:/iot/felix2/targets/Cloud_STM32L431_BearPi/Drivers/STM32L4xx_HAL_Driver/Src\stm32l4xx_hal_rcc.c ****         }
 784:D:/iot/felix2/targets/Cloud_STM32L431_BearPi/Drivers/STM32L4xx_HAL_Driver/Src\stm32l4xx_hal_rcc.c ****       }
 785:D:/iot/felix2/targets/Cloud_STM32L431_BearPi/Drivers/STM32L4xx_HAL_Driver/Src\stm32l4xx_hal_rcc.c ****     }
 786:D:/iot/felix2/targets/Cloud_STM32L431_BearPi/Drivers/STM32L4xx_HAL_Driver/Src\stm32l4xx_hal_rcc.c ****   }
 787:D:/iot/felix2/targets/Cloud_STM32L431_BearPi/Drivers/STM32L4xx_HAL_Driver/Src\stm32l4xx_hal_rcc.c **** #endif /* RCC_HSI48_SUPPORT */
 788:D:/iot/felix2/targets/Cloud_STM32L431_BearPi/Drivers/STM32L4xx_HAL_Driver/Src\stm32l4xx_hal_rcc.c ****   /*-------------------------------- PLL Configuration -----------------------*/
 789:D:/iot/felix2/targets/Cloud_STM32L431_BearPi/Drivers/STM32L4xx_HAL_Driver/Src\stm32l4xx_hal_rcc.c ****   /* Check the parameters */
 790:D:/iot/felix2/targets/Cloud_STM32L431_BearPi/Drivers/STM32L4xx_HAL_Driver/Src\stm32l4xx_hal_rcc.c ****   assert_param(IS_RCC_PLL(RCC_OscInitStruct->PLL.PLLState));
 791:D:/iot/felix2/targets/Cloud_STM32L431_BearPi/Drivers/STM32L4xx_HAL_Driver/Src\stm32l4xx_hal_rcc.c **** 
 792:D:/iot/felix2/targets/Cloud_STM32L431_BearPi/Drivers/STM32L4xx_HAL_Driver/Src\stm32l4xx_hal_rcc.c ****   if(RCC_OscInitStruct->PLL.PLLState != RCC_PLL_NONE)
 1089              		.loc 1 792 0
 1090 060a 7B68     		ldr	r3, [r7, #4]
 1091 060c 9B6A     		ldr	r3, [r3, #40]
 1092 060e 002B     		cmp	r3, #0
 1093 0610 00F09180 		beq	.L75
 793:D:/iot/felix2/targets/Cloud_STM32L431_BearPi/Drivers/STM32L4xx_HAL_Driver/Src\stm32l4xx_hal_rcc.c ****   {
 794:D:/iot/felix2/targets/Cloud_STM32L431_BearPi/Drivers/STM32L4xx_HAL_Driver/Src\stm32l4xx_hal_rcc.c ****     /* Check if the PLL is used as system clock or not */
 795:D:/iot/felix2/targets/Cloud_STM32L431_BearPi/Drivers/STM32L4xx_HAL_Driver/Src\stm32l4xx_hal_rcc.c ****     if(__HAL_RCC_GET_SYSCLK_SOURCE() != RCC_CFGR_SWS_PLL)
 1094              		.loc 1 795 0
 1095 0614 4A4B     		ldr	r3, .L90
 1096 0616 9B68     		ldr	r3, [r3, #8]
 1097 0618 03F00C03 		and	r3, r3, #12
 1098 061c 0C2B     		cmp	r3, #12
 1099 061e 00F08880 		beq	.L76
 796:D:/iot/felix2/targets/Cloud_STM32L431_BearPi/Drivers/STM32L4xx_HAL_Driver/Src\stm32l4xx_hal_rcc.c ****     {
 797:D:/iot/felix2/targets/Cloud_STM32L431_BearPi/Drivers/STM32L4xx_HAL_Driver/Src\stm32l4xx_hal_rcc.c ****       if(RCC_OscInitStruct->PLL.PLLState == RCC_PLL_ON)
 1100              		.loc 1 797 0
 1101 0622 7B68     		ldr	r3, [r7, #4]
 1102 0624 9B6A     		ldr	r3, [r3, #40]
 1103 0626 022B     		cmp	r3, #2
 1104 0628 55D1     		bne	.L77
 798:D:/iot/felix2/targets/Cloud_STM32L431_BearPi/Drivers/STM32L4xx_HAL_Driver/Src\stm32l4xx_hal_rcc.c ****       {
 799:D:/iot/felix2/targets/Cloud_STM32L431_BearPi/Drivers/STM32L4xx_HAL_Driver/Src\stm32l4xx_hal_rcc.c ****         /* Check the parameters */
 800:D:/iot/felix2/targets/Cloud_STM32L431_BearPi/Drivers/STM32L4xx_HAL_Driver/Src\stm32l4xx_hal_rcc.c ****         assert_param(IS_RCC_PLLSOURCE(RCC_OscInitStruct->PLL.PLLSource));
 801:D:/iot/felix2/targets/Cloud_STM32L431_BearPi/Drivers/STM32L4xx_HAL_Driver/Src\stm32l4xx_hal_rcc.c ****         assert_param(IS_RCC_PLLM_VALUE(RCC_OscInitStruct->PLL.PLLM));
 802:D:/iot/felix2/targets/Cloud_STM32L431_BearPi/Drivers/STM32L4xx_HAL_Driver/Src\stm32l4xx_hal_rcc.c ****         assert_param(IS_RCC_PLLN_VALUE(RCC_OscInitStruct->PLL.PLLN));
 803:D:/iot/felix2/targets/Cloud_STM32L431_BearPi/Drivers/STM32L4xx_HAL_Driver/Src\stm32l4xx_hal_rcc.c ****         assert_param(IS_RCC_PLLP_VALUE(RCC_OscInitStruct->PLL.PLLP));
 804:D:/iot/felix2/targets/Cloud_STM32L431_BearPi/Drivers/STM32L4xx_HAL_Driver/Src\stm32l4xx_hal_rcc.c ****         assert_param(IS_RCC_PLLQ_VALUE(RCC_OscInitStruct->PLL.PLLQ));
 805:D:/iot/felix2/targets/Cloud_STM32L431_BearPi/Drivers/STM32L4xx_HAL_Driver/Src\stm32l4xx_hal_rcc.c ****         assert_param(IS_RCC_PLLR_VALUE(RCC_OscInitStruct->PLL.PLLR));
 806:D:/iot/felix2/targets/Cloud_STM32L431_BearPi/Drivers/STM32L4xx_HAL_Driver/Src\stm32l4xx_hal_rcc.c **** 
 807:D:/iot/felix2/targets/Cloud_STM32L431_BearPi/Drivers/STM32L4xx_HAL_Driver/Src\stm32l4xx_hal_rcc.c ****         /* Disable the main PLL. */
 808:D:/iot/felix2/targets/Cloud_STM32L431_BearPi/Drivers/STM32L4xx_HAL_Driver/Src\stm32l4xx_hal_rcc.c ****         __HAL_RCC_PLL_DISABLE();
 1105              		.loc 1 808 0
 1106 062a 454B     		ldr	r3, .L90
 1107 062c 1B68     		ldr	r3, [r3]
 1108 062e 444A     		ldr	r2, .L90
 1109 0630 23F08073 		bic	r3, r3, #16777216
 1110 0634 1360     		str	r3, [r2]
 809:D:/iot/felix2/targets/Cloud_STM32L431_BearPi/Drivers/STM32L4xx_HAL_Driver/Src\stm32l4xx_hal_rcc.c **** 
 810:D:/iot/felix2/targets/Cloud_STM32L431_BearPi/Drivers/STM32L4xx_HAL_Driver/Src\stm32l4xx_hal_rcc.c ****         /* Get Start Tick*/
 811:D:/iot/felix2/targets/Cloud_STM32L431_BearPi/Drivers/STM32L4xx_HAL_Driver/Src\stm32l4xx_hal_rcc.c ****         tickstart = HAL_GetTick();
ARM GAS  C:\Users\91458\AppData\Local\Temp\ccHvSglx.s 			page 35


 1111              		.loc 1 811 0
 1112 0636 FFF7FEFF 		bl	HAL_GetTick
 1113 063a 3861     		str	r0, [r7, #16]
 812:D:/iot/felix2/targets/Cloud_STM32L431_BearPi/Drivers/STM32L4xx_HAL_Driver/Src\stm32l4xx_hal_rcc.c **** 
 813:D:/iot/felix2/targets/Cloud_STM32L431_BearPi/Drivers/STM32L4xx_HAL_Driver/Src\stm32l4xx_hal_rcc.c ****         /* Wait till PLL is ready */
 814:D:/iot/felix2/targets/Cloud_STM32L431_BearPi/Drivers/STM32L4xx_HAL_Driver/Src\stm32l4xx_hal_rcc.c ****         while(READ_BIT(RCC->CR, RCC_CR_PLLRDY) != RESET)
 1114              		.loc 1 814 0
 1115 063c 08E0     		b	.L78
 1116              	.L79:
 815:D:/iot/felix2/targets/Cloud_STM32L431_BearPi/Drivers/STM32L4xx_HAL_Driver/Src\stm32l4xx_hal_rcc.c ****         {
 816:D:/iot/felix2/targets/Cloud_STM32L431_BearPi/Drivers/STM32L4xx_HAL_Driver/Src\stm32l4xx_hal_rcc.c ****           if((HAL_GetTick() - tickstart) > PLL_TIMEOUT_VALUE)
 1117              		.loc 1 816 0
 1118 063e FFF7FEFF 		bl	HAL_GetTick
 1119 0642 0246     		mov	r2, r0
 1120 0644 3B69     		ldr	r3, [r7, #16]
 1121 0646 D31A     		subs	r3, r2, r3
 1122 0648 022B     		cmp	r3, #2
 1123 064a 01D9     		bls	.L78
 817:D:/iot/felix2/targets/Cloud_STM32L431_BearPi/Drivers/STM32L4xx_HAL_Driver/Src\stm32l4xx_hal_rcc.c ****           {
 818:D:/iot/felix2/targets/Cloud_STM32L431_BearPi/Drivers/STM32L4xx_HAL_Driver/Src\stm32l4xx_hal_rcc.c ****             return HAL_TIMEOUT;
 1124              		.loc 1 818 0
 1125 064c 0323     		movs	r3, #3
 1126 064e 73E0     		b	.L14
 1127              	.L78:
 814:D:/iot/felix2/targets/Cloud_STM32L431_BearPi/Drivers/STM32L4xx_HAL_Driver/Src\stm32l4xx_hal_rcc.c ****         {
 1128              		.loc 1 814 0
 1129 0650 3B4B     		ldr	r3, .L90
 1130 0652 1B68     		ldr	r3, [r3]
 1131 0654 03F00073 		and	r3, r3, #33554432
 1132 0658 002B     		cmp	r3, #0
 1133 065a F0D1     		bne	.L79
 819:D:/iot/felix2/targets/Cloud_STM32L431_BearPi/Drivers/STM32L4xx_HAL_Driver/Src\stm32l4xx_hal_rcc.c ****           }
 820:D:/iot/felix2/targets/Cloud_STM32L431_BearPi/Drivers/STM32L4xx_HAL_Driver/Src\stm32l4xx_hal_rcc.c ****         }
 821:D:/iot/felix2/targets/Cloud_STM32L431_BearPi/Drivers/STM32L4xx_HAL_Driver/Src\stm32l4xx_hal_rcc.c **** 
 822:D:/iot/felix2/targets/Cloud_STM32L431_BearPi/Drivers/STM32L4xx_HAL_Driver/Src\stm32l4xx_hal_rcc.c ****         /* Configure the main PLL clock source, multiplication and division factors. */
 823:D:/iot/felix2/targets/Cloud_STM32L431_BearPi/Drivers/STM32L4xx_HAL_Driver/Src\stm32l4xx_hal_rcc.c ****         __HAL_RCC_PLL_CONFIG(RCC_OscInitStruct->PLL.PLLSource,
 1134              		.loc 1 823 0
 1135 065c 7B68     		ldr	r3, [r7, #4]
 1136 065e 1B6B     		ldr	r3, [r3, #48]
 1137 0660 013B     		subs	r3, r3, #1
 1138 0662 1A01     		lsls	r2, r3, #4
 1139 0664 7B68     		ldr	r3, [r7, #4]
 1140 0666 5B6B     		ldr	r3, [r3, #52]
 1141 0668 1B02     		lsls	r3, r3, #8
 1142 066a 1A43     		orrs	r2, r2, r3
 1143 066c 7B68     		ldr	r3, [r7, #4]
 1144 066e DB6A     		ldr	r3, [r3, #44]
 1145 0670 1A43     		orrs	r2, r2, r3
 1146 0672 7B68     		ldr	r3, [r7, #4]
 1147 0674 DB6B     		ldr	r3, [r3, #60]
 1148 0676 5B08     		lsrs	r3, r3, #1
 1149 0678 013B     		subs	r3, r3, #1
 1150 067a 5B05     		lsls	r3, r3, #21
 1151 067c 1A43     		orrs	r2, r2, r3
 1152 067e 7B68     		ldr	r3, [r7, #4]
 1153 0680 1B6C     		ldr	r3, [r3, #64]
 1154 0682 5B08     		lsrs	r3, r3, #1
ARM GAS  C:\Users\91458\AppData\Local\Temp\ccHvSglx.s 			page 36


 1155 0684 013B     		subs	r3, r3, #1
 1156 0686 5B06     		lsls	r3, r3, #25
 1157 0688 1A43     		orrs	r2, r2, r3
 1158 068a 7B68     		ldr	r3, [r7, #4]
 1159 068c 9B6B     		ldr	r3, [r3, #56]
 1160 068e DB06     		lsls	r3, r3, #27
 1161 0690 2B49     		ldr	r1, .L90
 1162 0692 1343     		orrs	r3, r3, r2
 1163 0694 CB60     		str	r3, [r1, #12]
 824:D:/iot/felix2/targets/Cloud_STM32L431_BearPi/Drivers/STM32L4xx_HAL_Driver/Src\stm32l4xx_hal_rcc.c ****                              RCC_OscInitStruct->PLL.PLLM,
 825:D:/iot/felix2/targets/Cloud_STM32L431_BearPi/Drivers/STM32L4xx_HAL_Driver/Src\stm32l4xx_hal_rcc.c ****                              RCC_OscInitStruct->PLL.PLLN,
 826:D:/iot/felix2/targets/Cloud_STM32L431_BearPi/Drivers/STM32L4xx_HAL_Driver/Src\stm32l4xx_hal_rcc.c ****                              RCC_OscInitStruct->PLL.PLLP,
 827:D:/iot/felix2/targets/Cloud_STM32L431_BearPi/Drivers/STM32L4xx_HAL_Driver/Src\stm32l4xx_hal_rcc.c ****                              RCC_OscInitStruct->PLL.PLLQ,
 828:D:/iot/felix2/targets/Cloud_STM32L431_BearPi/Drivers/STM32L4xx_HAL_Driver/Src\stm32l4xx_hal_rcc.c ****                              RCC_OscInitStruct->PLL.PLLR);
 829:D:/iot/felix2/targets/Cloud_STM32L431_BearPi/Drivers/STM32L4xx_HAL_Driver/Src\stm32l4xx_hal_rcc.c **** 
 830:D:/iot/felix2/targets/Cloud_STM32L431_BearPi/Drivers/STM32L4xx_HAL_Driver/Src\stm32l4xx_hal_rcc.c ****         /* Enable the main PLL. */
 831:D:/iot/felix2/targets/Cloud_STM32L431_BearPi/Drivers/STM32L4xx_HAL_Driver/Src\stm32l4xx_hal_rcc.c ****         __HAL_RCC_PLL_ENABLE();
 1164              		.loc 1 831 0
 1165 0696 2A4B     		ldr	r3, .L90
 1166 0698 1B68     		ldr	r3, [r3]
 1167 069a 294A     		ldr	r2, .L90
 1168 069c 43F08073 		orr	r3, r3, #16777216
 1169 06a0 1360     		str	r3, [r2]
 832:D:/iot/felix2/targets/Cloud_STM32L431_BearPi/Drivers/STM32L4xx_HAL_Driver/Src\stm32l4xx_hal_rcc.c **** 
 833:D:/iot/felix2/targets/Cloud_STM32L431_BearPi/Drivers/STM32L4xx_HAL_Driver/Src\stm32l4xx_hal_rcc.c ****         /* Enable PLL System Clock output. */
 834:D:/iot/felix2/targets/Cloud_STM32L431_BearPi/Drivers/STM32L4xx_HAL_Driver/Src\stm32l4xx_hal_rcc.c ****          __HAL_RCC_PLLCLKOUT_ENABLE(RCC_PLL_SYSCLK);
 1170              		.loc 1 834 0
 1171 06a2 274B     		ldr	r3, .L90
 1172 06a4 DB68     		ldr	r3, [r3, #12]
 1173 06a6 264A     		ldr	r2, .L90
 1174 06a8 43F08073 		orr	r3, r3, #16777216
 1175 06ac D360     		str	r3, [r2, #12]
 835:D:/iot/felix2/targets/Cloud_STM32L431_BearPi/Drivers/STM32L4xx_HAL_Driver/Src\stm32l4xx_hal_rcc.c **** 
 836:D:/iot/felix2/targets/Cloud_STM32L431_BearPi/Drivers/STM32L4xx_HAL_Driver/Src\stm32l4xx_hal_rcc.c ****         /* Get Start Tick*/
 837:D:/iot/felix2/targets/Cloud_STM32L431_BearPi/Drivers/STM32L4xx_HAL_Driver/Src\stm32l4xx_hal_rcc.c ****         tickstart = HAL_GetTick();
 1176              		.loc 1 837 0
 1177 06ae FFF7FEFF 		bl	HAL_GetTick
 1178 06b2 3861     		str	r0, [r7, #16]
 838:D:/iot/felix2/targets/Cloud_STM32L431_BearPi/Drivers/STM32L4xx_HAL_Driver/Src\stm32l4xx_hal_rcc.c **** 
 839:D:/iot/felix2/targets/Cloud_STM32L431_BearPi/Drivers/STM32L4xx_HAL_Driver/Src\stm32l4xx_hal_rcc.c ****         /* Wait till PLL is ready */
 840:D:/iot/felix2/targets/Cloud_STM32L431_BearPi/Drivers/STM32L4xx_HAL_Driver/Src\stm32l4xx_hal_rcc.c ****         while(READ_BIT(RCC->CR, RCC_CR_PLLRDY) == RESET)
 1179              		.loc 1 840 0
 1180 06b4 08E0     		b	.L80
 1181              	.L81:
 841:D:/iot/felix2/targets/Cloud_STM32L431_BearPi/Drivers/STM32L4xx_HAL_Driver/Src\stm32l4xx_hal_rcc.c ****         {
 842:D:/iot/felix2/targets/Cloud_STM32L431_BearPi/Drivers/STM32L4xx_HAL_Driver/Src\stm32l4xx_hal_rcc.c ****           if((HAL_GetTick() - tickstart) > PLL_TIMEOUT_VALUE)
 1182              		.loc 1 842 0
 1183 06b6 FFF7FEFF 		bl	HAL_GetTick
 1184 06ba 0246     		mov	r2, r0
 1185 06bc 3B69     		ldr	r3, [r7, #16]
 1186 06be D31A     		subs	r3, r2, r3
 1187 06c0 022B     		cmp	r3, #2
 1188 06c2 01D9     		bls	.L80
 843:D:/iot/felix2/targets/Cloud_STM32L431_BearPi/Drivers/STM32L4xx_HAL_Driver/Src\stm32l4xx_hal_rcc.c ****           {
 844:D:/iot/felix2/targets/Cloud_STM32L431_BearPi/Drivers/STM32L4xx_HAL_Driver/Src\stm32l4xx_hal_rcc.c ****             return HAL_TIMEOUT;
 1189              		.loc 1 844 0
 1190 06c4 0323     		movs	r3, #3
ARM GAS  C:\Users\91458\AppData\Local\Temp\ccHvSglx.s 			page 37


 1191 06c6 37E0     		b	.L14
 1192              	.L80:
 840:D:/iot/felix2/targets/Cloud_STM32L431_BearPi/Drivers/STM32L4xx_HAL_Driver/Src\stm32l4xx_hal_rcc.c ****         {
 1193              		.loc 1 840 0
 1194 06c8 1D4B     		ldr	r3, .L90
 1195 06ca 1B68     		ldr	r3, [r3]
 1196 06cc 03F00073 		and	r3, r3, #33554432
 1197 06d0 002B     		cmp	r3, #0
 1198 06d2 F0D0     		beq	.L81
 1199 06d4 2FE0     		b	.L75
 1200              	.L77:
 845:D:/iot/felix2/targets/Cloud_STM32L431_BearPi/Drivers/STM32L4xx_HAL_Driver/Src\stm32l4xx_hal_rcc.c ****           }
 846:D:/iot/felix2/targets/Cloud_STM32L431_BearPi/Drivers/STM32L4xx_HAL_Driver/Src\stm32l4xx_hal_rcc.c ****         }
 847:D:/iot/felix2/targets/Cloud_STM32L431_BearPi/Drivers/STM32L4xx_HAL_Driver/Src\stm32l4xx_hal_rcc.c ****       }
 848:D:/iot/felix2/targets/Cloud_STM32L431_BearPi/Drivers/STM32L4xx_HAL_Driver/Src\stm32l4xx_hal_rcc.c ****       else
 849:D:/iot/felix2/targets/Cloud_STM32L431_BearPi/Drivers/STM32L4xx_HAL_Driver/Src\stm32l4xx_hal_rcc.c ****       {
 850:D:/iot/felix2/targets/Cloud_STM32L431_BearPi/Drivers/STM32L4xx_HAL_Driver/Src\stm32l4xx_hal_rcc.c ****         /* Disable the main PLL. */
 851:D:/iot/felix2/targets/Cloud_STM32L431_BearPi/Drivers/STM32L4xx_HAL_Driver/Src\stm32l4xx_hal_rcc.c ****         __HAL_RCC_PLL_DISABLE();
 1201              		.loc 1 851 0
 1202 06d6 1A4B     		ldr	r3, .L90
 1203 06d8 1B68     		ldr	r3, [r3]
 1204 06da 194A     		ldr	r2, .L90
 1205 06dc 23F08073 		bic	r3, r3, #16777216
 1206 06e0 1360     		str	r3, [r2]
 852:D:/iot/felix2/targets/Cloud_STM32L431_BearPi/Drivers/STM32L4xx_HAL_Driver/Src\stm32l4xx_hal_rcc.c **** 
 853:D:/iot/felix2/targets/Cloud_STM32L431_BearPi/Drivers/STM32L4xx_HAL_Driver/Src\stm32l4xx_hal_rcc.c ****         /* Disable all PLL outputs to save power if no PLLs on */
 854:D:/iot/felix2/targets/Cloud_STM32L431_BearPi/Drivers/STM32L4xx_HAL_Driver/Src\stm32l4xx_hal_rcc.c ****         if((READ_BIT(RCC->CR, RCC_CR_PLLSAI1RDY) == RESET)
 1207              		.loc 1 854 0
 1208 06e2 174B     		ldr	r3, .L90
 1209 06e4 1B68     		ldr	r3, [r3]
 1210 06e6 03F00063 		and	r3, r3, #134217728
 1211 06ea 002B     		cmp	r3, #0
 1212 06ec 05D1     		bne	.L82
 855:D:/iot/felix2/targets/Cloud_STM32L431_BearPi/Drivers/STM32L4xx_HAL_Driver/Src\stm32l4xx_hal_rcc.c **** #if defined(RCC_PLLSAI2_SUPPORT)
 856:D:/iot/felix2/targets/Cloud_STM32L431_BearPi/Drivers/STM32L4xx_HAL_Driver/Src\stm32l4xx_hal_rcc.c ****            &&
 857:D:/iot/felix2/targets/Cloud_STM32L431_BearPi/Drivers/STM32L4xx_HAL_Driver/Src\stm32l4xx_hal_rcc.c ****            (READ_BIT(RCC->CR, RCC_CR_PLLSAI2RDY) == RESET)
 858:D:/iot/felix2/targets/Cloud_STM32L431_BearPi/Drivers/STM32L4xx_HAL_Driver/Src\stm32l4xx_hal_rcc.c **** #endif /* RCC_PLLSAI2_SUPPORT */
 859:D:/iot/felix2/targets/Cloud_STM32L431_BearPi/Drivers/STM32L4xx_HAL_Driver/Src\stm32l4xx_hal_rcc.c ****           )
 860:D:/iot/felix2/targets/Cloud_STM32L431_BearPi/Drivers/STM32L4xx_HAL_Driver/Src\stm32l4xx_hal_rcc.c ****         {
 861:D:/iot/felix2/targets/Cloud_STM32L431_BearPi/Drivers/STM32L4xx_HAL_Driver/Src\stm32l4xx_hal_rcc.c ****           MODIFY_REG(RCC->PLLCFGR, RCC_PLLCFGR_PLLSRC, RCC_PLLSOURCE_NONE);
 1213              		.loc 1 861 0
 1214 06ee 144B     		ldr	r3, .L90
 1215 06f0 DB68     		ldr	r3, [r3, #12]
 1216 06f2 134A     		ldr	r2, .L90
 1217 06f4 23F00303 		bic	r3, r3, #3
 1218 06f8 D360     		str	r3, [r2, #12]
 1219              	.L82:
 862:D:/iot/felix2/targets/Cloud_STM32L431_BearPi/Drivers/STM32L4xx_HAL_Driver/Src\stm32l4xx_hal_rcc.c ****         }
 863:D:/iot/felix2/targets/Cloud_STM32L431_BearPi/Drivers/STM32L4xx_HAL_Driver/Src\stm32l4xx_hal_rcc.c **** 
 864:D:/iot/felix2/targets/Cloud_STM32L431_BearPi/Drivers/STM32L4xx_HAL_Driver/Src\stm32l4xx_hal_rcc.c **** #if defined(RCC_PLLSAI2_SUPPORT)
 865:D:/iot/felix2/targets/Cloud_STM32L431_BearPi/Drivers/STM32L4xx_HAL_Driver/Src\stm32l4xx_hal_rcc.c ****         __HAL_RCC_PLLCLKOUT_DISABLE(RCC_PLL_SYSCLK | RCC_PLL_48M1CLK | RCC_PLL_SAI3CLK);
 866:D:/iot/felix2/targets/Cloud_STM32L431_BearPi/Drivers/STM32L4xx_HAL_Driver/Src\stm32l4xx_hal_rcc.c **** #else
 867:D:/iot/felix2/targets/Cloud_STM32L431_BearPi/Drivers/STM32L4xx_HAL_Driver/Src\stm32l4xx_hal_rcc.c ****         __HAL_RCC_PLLCLKOUT_DISABLE(RCC_PLL_SYSCLK | RCC_PLL_48M1CLK | RCC_PLL_SAI2CLK);
 1220              		.loc 1 867 0
 1221 06fa 114B     		ldr	r3, .L90
 1222 06fc DB68     		ldr	r3, [r3, #12]
 1223 06fe 104A     		ldr	r2, .L90
ARM GAS  C:\Users\91458\AppData\Local\Temp\ccHvSglx.s 			page 38


 1224 0700 23F08873 		bic	r3, r3, #17825792
 1225 0704 23F48033 		bic	r3, r3, #65536
 1226 0708 D360     		str	r3, [r2, #12]
 868:D:/iot/felix2/targets/Cloud_STM32L431_BearPi/Drivers/STM32L4xx_HAL_Driver/Src\stm32l4xx_hal_rcc.c **** #endif /* RCC_PLLSAI2_SUPPORT */
 869:D:/iot/felix2/targets/Cloud_STM32L431_BearPi/Drivers/STM32L4xx_HAL_Driver/Src\stm32l4xx_hal_rcc.c **** 
 870:D:/iot/felix2/targets/Cloud_STM32L431_BearPi/Drivers/STM32L4xx_HAL_Driver/Src\stm32l4xx_hal_rcc.c ****         /* Get Start Tick*/
 871:D:/iot/felix2/targets/Cloud_STM32L431_BearPi/Drivers/STM32L4xx_HAL_Driver/Src\stm32l4xx_hal_rcc.c ****         tickstart = HAL_GetTick();
 1227              		.loc 1 871 0
 1228 070a FFF7FEFF 		bl	HAL_GetTick
 1229 070e 3861     		str	r0, [r7, #16]
 872:D:/iot/felix2/targets/Cloud_STM32L431_BearPi/Drivers/STM32L4xx_HAL_Driver/Src\stm32l4xx_hal_rcc.c **** 
 873:D:/iot/felix2/targets/Cloud_STM32L431_BearPi/Drivers/STM32L4xx_HAL_Driver/Src\stm32l4xx_hal_rcc.c ****         /* Wait till PLL is disabled */
 874:D:/iot/felix2/targets/Cloud_STM32L431_BearPi/Drivers/STM32L4xx_HAL_Driver/Src\stm32l4xx_hal_rcc.c ****         while(READ_BIT(RCC->CR, RCC_CR_PLLRDY) != RESET)
 1230              		.loc 1 874 0
 1231 0710 08E0     		b	.L83
 1232              	.L84:
 875:D:/iot/felix2/targets/Cloud_STM32L431_BearPi/Drivers/STM32L4xx_HAL_Driver/Src\stm32l4xx_hal_rcc.c ****         {
 876:D:/iot/felix2/targets/Cloud_STM32L431_BearPi/Drivers/STM32L4xx_HAL_Driver/Src\stm32l4xx_hal_rcc.c ****           if((HAL_GetTick() - tickstart) > PLL_TIMEOUT_VALUE)
 1233              		.loc 1 876 0
 1234 0712 FFF7FEFF 		bl	HAL_GetTick
 1235 0716 0246     		mov	r2, r0
 1236 0718 3B69     		ldr	r3, [r7, #16]
 1237 071a D31A     		subs	r3, r2, r3
 1238 071c 022B     		cmp	r3, #2
 1239 071e 01D9     		bls	.L83
 877:D:/iot/felix2/targets/Cloud_STM32L431_BearPi/Drivers/STM32L4xx_HAL_Driver/Src\stm32l4xx_hal_rcc.c ****           {
 878:D:/iot/felix2/targets/Cloud_STM32L431_BearPi/Drivers/STM32L4xx_HAL_Driver/Src\stm32l4xx_hal_rcc.c ****             return HAL_TIMEOUT;
 1240              		.loc 1 878 0
 1241 0720 0323     		movs	r3, #3
 1242 0722 09E0     		b	.L14
 1243              	.L83:
 874:D:/iot/felix2/targets/Cloud_STM32L431_BearPi/Drivers/STM32L4xx_HAL_Driver/Src\stm32l4xx_hal_rcc.c ****         {
 1244              		.loc 1 874 0
 1245 0724 064B     		ldr	r3, .L90
 1246 0726 1B68     		ldr	r3, [r3]
 1247 0728 03F00073 		and	r3, r3, #33554432
 1248 072c 002B     		cmp	r3, #0
 1249 072e F0D1     		bne	.L84
 1250 0730 01E0     		b	.L75
 1251              	.L76:
 879:D:/iot/felix2/targets/Cloud_STM32L431_BearPi/Drivers/STM32L4xx_HAL_Driver/Src\stm32l4xx_hal_rcc.c ****           }
 880:D:/iot/felix2/targets/Cloud_STM32L431_BearPi/Drivers/STM32L4xx_HAL_Driver/Src\stm32l4xx_hal_rcc.c ****         }
 881:D:/iot/felix2/targets/Cloud_STM32L431_BearPi/Drivers/STM32L4xx_HAL_Driver/Src\stm32l4xx_hal_rcc.c ****       }
 882:D:/iot/felix2/targets/Cloud_STM32L431_BearPi/Drivers/STM32L4xx_HAL_Driver/Src\stm32l4xx_hal_rcc.c ****     }
 883:D:/iot/felix2/targets/Cloud_STM32L431_BearPi/Drivers/STM32L4xx_HAL_Driver/Src\stm32l4xx_hal_rcc.c ****     else
 884:D:/iot/felix2/targets/Cloud_STM32L431_BearPi/Drivers/STM32L4xx_HAL_Driver/Src\stm32l4xx_hal_rcc.c ****     {
 885:D:/iot/felix2/targets/Cloud_STM32L431_BearPi/Drivers/STM32L4xx_HAL_Driver/Src\stm32l4xx_hal_rcc.c ****       return HAL_ERROR;
 1252              		.loc 1 885 0
 1253 0732 0123     		movs	r3, #1
 1254 0734 00E0     		b	.L14
 1255              	.L75:
 886:D:/iot/felix2/targets/Cloud_STM32L431_BearPi/Drivers/STM32L4xx_HAL_Driver/Src\stm32l4xx_hal_rcc.c ****     }
 887:D:/iot/felix2/targets/Cloud_STM32L431_BearPi/Drivers/STM32L4xx_HAL_Driver/Src\stm32l4xx_hal_rcc.c ****   }
 888:D:/iot/felix2/targets/Cloud_STM32L431_BearPi/Drivers/STM32L4xx_HAL_Driver/Src\stm32l4xx_hal_rcc.c ****   return HAL_OK;
 1256              		.loc 1 888 0
 1257 0736 0023     		movs	r3, #0
 1258              	.L14:
ARM GAS  C:\Users\91458\AppData\Local\Temp\ccHvSglx.s 			page 39


 889:D:/iot/felix2/targets/Cloud_STM32L431_BearPi/Drivers/STM32L4xx_HAL_Driver/Src\stm32l4xx_hal_rcc.c **** }
 1259              		.loc 1 889 0
 1260 0738 1846     		mov	r0, r3
 1261 073a 1837     		adds	r7, r7, #24
 1262              	.LCFI8:
 1263              		.cfi_def_cfa_offset 8
 1264 073c BD46     		mov	sp, r7
 1265              	.LCFI9:
 1266              		.cfi_def_cfa_register 13
 1267              		@ sp needed
 1268 073e 80BD     		pop	{r7, pc}
 1269              	.L91:
 1270              		.align	2
 1271              	.L90:
 1272 0740 00100240 		.word	1073876992
 1273              		.cfi_endproc
 1274              	.LFE134:
 1276              		.section	.text.HAL_RCC_ClockConfig,"ax",%progbits
 1277              		.align	1
 1278              		.global	HAL_RCC_ClockConfig
 1279              		.syntax unified
 1280              		.thumb
 1281              		.thumb_func
 1282              		.fpu fpv4-sp-d16
 1284              	HAL_RCC_ClockConfig:
 1285              	.LFB135:
 890:D:/iot/felix2/targets/Cloud_STM32L431_BearPi/Drivers/STM32L4xx_HAL_Driver/Src\stm32l4xx_hal_rcc.c **** 
 891:D:/iot/felix2/targets/Cloud_STM32L431_BearPi/Drivers/STM32L4xx_HAL_Driver/Src\stm32l4xx_hal_rcc.c **** /**
 892:D:/iot/felix2/targets/Cloud_STM32L431_BearPi/Drivers/STM32L4xx_HAL_Driver/Src\stm32l4xx_hal_rcc.c ****   * @brief  Initialize the CPU, AHB and APB busses clocks according to the specified
 893:D:/iot/felix2/targets/Cloud_STM32L431_BearPi/Drivers/STM32L4xx_HAL_Driver/Src\stm32l4xx_hal_rcc.c ****   *         parameters in the RCC_ClkInitStruct.
 894:D:/iot/felix2/targets/Cloud_STM32L431_BearPi/Drivers/STM32L4xx_HAL_Driver/Src\stm32l4xx_hal_rcc.c ****   * @param  RCC_ClkInitStruct  pointer to an RCC_OscInitTypeDef structure that
 895:D:/iot/felix2/targets/Cloud_STM32L431_BearPi/Drivers/STM32L4xx_HAL_Driver/Src\stm32l4xx_hal_rcc.c ****   *         contains the configuration information for the RCC peripheral.
 896:D:/iot/felix2/targets/Cloud_STM32L431_BearPi/Drivers/STM32L4xx_HAL_Driver/Src\stm32l4xx_hal_rcc.c ****   * @param  FLatency  FLASH Latency
 897:D:/iot/felix2/targets/Cloud_STM32L431_BearPi/Drivers/STM32L4xx_HAL_Driver/Src\stm32l4xx_hal_rcc.c ****   *          This parameter can be one of the following values:
 898:D:/iot/felix2/targets/Cloud_STM32L431_BearPi/Drivers/STM32L4xx_HAL_Driver/Src\stm32l4xx_hal_rcc.c ****   *            @arg FLASH_LATENCY_0   FLASH 0 Latency cycle
 899:D:/iot/felix2/targets/Cloud_STM32L431_BearPi/Drivers/STM32L4xx_HAL_Driver/Src\stm32l4xx_hal_rcc.c ****   *            @arg FLASH_LATENCY_1   FLASH 1 Latency cycle
 900:D:/iot/felix2/targets/Cloud_STM32L431_BearPi/Drivers/STM32L4xx_HAL_Driver/Src\stm32l4xx_hal_rcc.c ****   *            @arg FLASH_LATENCY_2   FLASH 2 Latency cycles
 901:D:/iot/felix2/targets/Cloud_STM32L431_BearPi/Drivers/STM32L4xx_HAL_Driver/Src\stm32l4xx_hal_rcc.c ****   *            @arg FLASH_LATENCY_3   FLASH 3 Latency cycles
 902:D:/iot/felix2/targets/Cloud_STM32L431_BearPi/Drivers/STM32L4xx_HAL_Driver/Src\stm32l4xx_hal_rcc.c ****   *            @arg FLASH_LATENCY_4   FLASH 4 Latency cycles
 903:D:/iot/felix2/targets/Cloud_STM32L431_BearPi/Drivers/STM32L4xx_HAL_Driver/Src\stm32l4xx_hal_rcc.c ****   @if STM32L4S9xx
 904:D:/iot/felix2/targets/Cloud_STM32L431_BearPi/Drivers/STM32L4xx_HAL_Driver/Src\stm32l4xx_hal_rcc.c ****   *            @arg FLASH_LATENCY_5   FLASH 5 Latency cycles
 905:D:/iot/felix2/targets/Cloud_STM32L431_BearPi/Drivers/STM32L4xx_HAL_Driver/Src\stm32l4xx_hal_rcc.c ****   *            @arg FLASH_LATENCY_6   FLASH 6 Latency cycles
 906:D:/iot/felix2/targets/Cloud_STM32L431_BearPi/Drivers/STM32L4xx_HAL_Driver/Src\stm32l4xx_hal_rcc.c ****   *            @arg FLASH_LATENCY_7   FLASH 7 Latency cycles
 907:D:/iot/felix2/targets/Cloud_STM32L431_BearPi/Drivers/STM32L4xx_HAL_Driver/Src\stm32l4xx_hal_rcc.c ****   *            @arg FLASH_LATENCY_8   FLASH 8 Latency cycles
 908:D:/iot/felix2/targets/Cloud_STM32L431_BearPi/Drivers/STM32L4xx_HAL_Driver/Src\stm32l4xx_hal_rcc.c ****   *            @arg FLASH_LATENCY_9   FLASH 9 Latency cycles
 909:D:/iot/felix2/targets/Cloud_STM32L431_BearPi/Drivers/STM32L4xx_HAL_Driver/Src\stm32l4xx_hal_rcc.c ****   *            @arg FLASH_LATENCY_10  FLASH 10 Latency cycles
 910:D:/iot/felix2/targets/Cloud_STM32L431_BearPi/Drivers/STM32L4xx_HAL_Driver/Src\stm32l4xx_hal_rcc.c ****   *            @arg FLASH_LATENCY_11  FLASH 11 Latency cycles
 911:D:/iot/felix2/targets/Cloud_STM32L431_BearPi/Drivers/STM32L4xx_HAL_Driver/Src\stm32l4xx_hal_rcc.c ****   *            @arg FLASH_LATENCY_12  FLASH 12 Latency cycles
 912:D:/iot/felix2/targets/Cloud_STM32L431_BearPi/Drivers/STM32L4xx_HAL_Driver/Src\stm32l4xx_hal_rcc.c ****   *            @arg FLASH_LATENCY_13  FLASH 13 Latency cycles
 913:D:/iot/felix2/targets/Cloud_STM32L431_BearPi/Drivers/STM32L4xx_HAL_Driver/Src\stm32l4xx_hal_rcc.c ****   *            @arg FLASH_LATENCY_14  FLASH 14 Latency cycles
 914:D:/iot/felix2/targets/Cloud_STM32L431_BearPi/Drivers/STM32L4xx_HAL_Driver/Src\stm32l4xx_hal_rcc.c ****   *            @arg FLASH_LATENCY_15  FLASH 15 Latency cycles
 915:D:/iot/felix2/targets/Cloud_STM32L431_BearPi/Drivers/STM32L4xx_HAL_Driver/Src\stm32l4xx_hal_rcc.c ****   @endif
 916:D:/iot/felix2/targets/Cloud_STM32L431_BearPi/Drivers/STM32L4xx_HAL_Driver/Src\stm32l4xx_hal_rcc.c ****   *
 917:D:/iot/felix2/targets/Cloud_STM32L431_BearPi/Drivers/STM32L4xx_HAL_Driver/Src\stm32l4xx_hal_rcc.c ****   * @note   The SystemCoreClock CMSIS variable is used to store System Clock Frequency
 918:D:/iot/felix2/targets/Cloud_STM32L431_BearPi/Drivers/STM32L4xx_HAL_Driver/Src\stm32l4xx_hal_rcc.c ****   *         and updated by HAL_RCC_GetHCLKFreq() function called within this function
 919:D:/iot/felix2/targets/Cloud_STM32L431_BearPi/Drivers/STM32L4xx_HAL_Driver/Src\stm32l4xx_hal_rcc.c ****   *
 920:D:/iot/felix2/targets/Cloud_STM32L431_BearPi/Drivers/STM32L4xx_HAL_Driver/Src\stm32l4xx_hal_rcc.c ****   * @note   The MSI is used by default as system clock source after
ARM GAS  C:\Users\91458\AppData\Local\Temp\ccHvSglx.s 			page 40


 921:D:/iot/felix2/targets/Cloud_STM32L431_BearPi/Drivers/STM32L4xx_HAL_Driver/Src\stm32l4xx_hal_rcc.c ****   *         startup from Reset, wake-up from STANDBY mode. After restart from Reset,
 922:D:/iot/felix2/targets/Cloud_STM32L431_BearPi/Drivers/STM32L4xx_HAL_Driver/Src\stm32l4xx_hal_rcc.c ****   *         the MSI frequency is set to its default value 4 MHz.
 923:D:/iot/felix2/targets/Cloud_STM32L431_BearPi/Drivers/STM32L4xx_HAL_Driver/Src\stm32l4xx_hal_rcc.c ****   *
 924:D:/iot/felix2/targets/Cloud_STM32L431_BearPi/Drivers/STM32L4xx_HAL_Driver/Src\stm32l4xx_hal_rcc.c ****   * @note   The HSI can be selected as system clock source after
 925:D:/iot/felix2/targets/Cloud_STM32L431_BearPi/Drivers/STM32L4xx_HAL_Driver/Src\stm32l4xx_hal_rcc.c ****   *         from STOP modes or in case of failure of the HSE used directly or indirectly
 926:D:/iot/felix2/targets/Cloud_STM32L431_BearPi/Drivers/STM32L4xx_HAL_Driver/Src\stm32l4xx_hal_rcc.c ****   *         as system clock (if the Clock Security System CSS is enabled).
 927:D:/iot/felix2/targets/Cloud_STM32L431_BearPi/Drivers/STM32L4xx_HAL_Driver/Src\stm32l4xx_hal_rcc.c ****   *
 928:D:/iot/felix2/targets/Cloud_STM32L431_BearPi/Drivers/STM32L4xx_HAL_Driver/Src\stm32l4xx_hal_rcc.c ****   * @note   A switch from one clock source to another occurs only if the target
 929:D:/iot/felix2/targets/Cloud_STM32L431_BearPi/Drivers/STM32L4xx_HAL_Driver/Src\stm32l4xx_hal_rcc.c ****   *         clock source is ready (clock stable after startup delay or PLL locked).
 930:D:/iot/felix2/targets/Cloud_STM32L431_BearPi/Drivers/STM32L4xx_HAL_Driver/Src\stm32l4xx_hal_rcc.c ****   *         If a clock source which is not yet ready is selected, the switch will
 931:D:/iot/felix2/targets/Cloud_STM32L431_BearPi/Drivers/STM32L4xx_HAL_Driver/Src\stm32l4xx_hal_rcc.c ****   *         occur when the clock source is ready.
 932:D:/iot/felix2/targets/Cloud_STM32L431_BearPi/Drivers/STM32L4xx_HAL_Driver/Src\stm32l4xx_hal_rcc.c ****   *
 933:D:/iot/felix2/targets/Cloud_STM32L431_BearPi/Drivers/STM32L4xx_HAL_Driver/Src\stm32l4xx_hal_rcc.c ****   * @note   You can use HAL_RCC_GetClockConfig() function to know which clock is
 934:D:/iot/felix2/targets/Cloud_STM32L431_BearPi/Drivers/STM32L4xx_HAL_Driver/Src\stm32l4xx_hal_rcc.c ****   *         currently used as system clock source.
 935:D:/iot/felix2/targets/Cloud_STM32L431_BearPi/Drivers/STM32L4xx_HAL_Driver/Src\stm32l4xx_hal_rcc.c ****   *
 936:D:/iot/felix2/targets/Cloud_STM32L431_BearPi/Drivers/STM32L4xx_HAL_Driver/Src\stm32l4xx_hal_rcc.c ****   * @note   Depending on the device voltage range, the software has to set correctly
 937:D:/iot/felix2/targets/Cloud_STM32L431_BearPi/Drivers/STM32L4xx_HAL_Driver/Src\stm32l4xx_hal_rcc.c ****   *         HPRE[3:0] bits to ensure that HCLK not exceed the maximum allowed frequency
 938:D:/iot/felix2/targets/Cloud_STM32L431_BearPi/Drivers/STM32L4xx_HAL_Driver/Src\stm32l4xx_hal_rcc.c ****   *         (for more details refer to section above "Initialization/de-initialization functions")
 939:D:/iot/felix2/targets/Cloud_STM32L431_BearPi/Drivers/STM32L4xx_HAL_Driver/Src\stm32l4xx_hal_rcc.c ****   * @retval None
 940:D:/iot/felix2/targets/Cloud_STM32L431_BearPi/Drivers/STM32L4xx_HAL_Driver/Src\stm32l4xx_hal_rcc.c ****   */
 941:D:/iot/felix2/targets/Cloud_STM32L431_BearPi/Drivers/STM32L4xx_HAL_Driver/Src\stm32l4xx_hal_rcc.c **** HAL_StatusTypeDef HAL_RCC_ClockConfig(RCC_ClkInitTypeDef  *RCC_ClkInitStruct, uint32_t FLatency)
 942:D:/iot/felix2/targets/Cloud_STM32L431_BearPi/Drivers/STM32L4xx_HAL_Driver/Src\stm32l4xx_hal_rcc.c **** {
 1286              		.loc 1 942 0
 1287              		.cfi_startproc
 1288              		@ args = 0, pretend = 0, frame = 16
 1289              		@ frame_needed = 1, uses_anonymous_args = 0
 1290 0000 80B5     		push	{r7, lr}
 1291              	.LCFI10:
 1292              		.cfi_def_cfa_offset 8
 1293              		.cfi_offset 7, -8
 1294              		.cfi_offset 14, -4
 1295 0002 84B0     		sub	sp, sp, #16
 1296              	.LCFI11:
 1297              		.cfi_def_cfa_offset 24
 1298 0004 00AF     		add	r7, sp, #0
 1299              	.LCFI12:
 1300              		.cfi_def_cfa_register 7
 1301 0006 7860     		str	r0, [r7, #4]
 1302 0008 3960     		str	r1, [r7]
 943:D:/iot/felix2/targets/Cloud_STM32L431_BearPi/Drivers/STM32L4xx_HAL_Driver/Src\stm32l4xx_hal_rcc.c ****   uint32_t tickstart;
 944:D:/iot/felix2/targets/Cloud_STM32L431_BearPi/Drivers/STM32L4xx_HAL_Driver/Src\stm32l4xx_hal_rcc.c **** #if defined(STM32L4R5xx) || defined(STM32L4R7xx) || defined(STM32L4R9xx) || defined(STM32L4S5xx) ||
 945:D:/iot/felix2/targets/Cloud_STM32L431_BearPi/Drivers/STM32L4xx_HAL_Driver/Src\stm32l4xx_hal_rcc.c ****   uint32_t pllfreq = 0;
 946:D:/iot/felix2/targets/Cloud_STM32L431_BearPi/Drivers/STM32L4xx_HAL_Driver/Src\stm32l4xx_hal_rcc.c ****   uint32_t hpre = RCC_SYSCLK_DIV1;
 947:D:/iot/felix2/targets/Cloud_STM32L431_BearPi/Drivers/STM32L4xx_HAL_Driver/Src\stm32l4xx_hal_rcc.c **** #endif
 948:D:/iot/felix2/targets/Cloud_STM32L431_BearPi/Drivers/STM32L4xx_HAL_Driver/Src\stm32l4xx_hal_rcc.c **** 
 949:D:/iot/felix2/targets/Cloud_STM32L431_BearPi/Drivers/STM32L4xx_HAL_Driver/Src\stm32l4xx_hal_rcc.c ****   /* Check Null pointer */
 950:D:/iot/felix2/targets/Cloud_STM32L431_BearPi/Drivers/STM32L4xx_HAL_Driver/Src\stm32l4xx_hal_rcc.c ****   if(RCC_ClkInitStruct == NULL)
 1303              		.loc 1 950 0
 1304 000a 7B68     		ldr	r3, [r7, #4]
 1305 000c 002B     		cmp	r3, #0
 1306 000e 01D1     		bne	.L93
 951:D:/iot/felix2/targets/Cloud_STM32L431_BearPi/Drivers/STM32L4xx_HAL_Driver/Src\stm32l4xx_hal_rcc.c ****   {
 952:D:/iot/felix2/targets/Cloud_STM32L431_BearPi/Drivers/STM32L4xx_HAL_Driver/Src\stm32l4xx_hal_rcc.c ****     return HAL_ERROR;
 1307              		.loc 1 952 0
 1308 0010 0123     		movs	r3, #1
 1309 0012 C2E0     		b	.L94
 1310              	.L93:
ARM GAS  C:\Users\91458\AppData\Local\Temp\ccHvSglx.s 			page 41


 953:D:/iot/felix2/targets/Cloud_STM32L431_BearPi/Drivers/STM32L4xx_HAL_Driver/Src\stm32l4xx_hal_rcc.c ****   }
 954:D:/iot/felix2/targets/Cloud_STM32L431_BearPi/Drivers/STM32L4xx_HAL_Driver/Src\stm32l4xx_hal_rcc.c **** 
 955:D:/iot/felix2/targets/Cloud_STM32L431_BearPi/Drivers/STM32L4xx_HAL_Driver/Src\stm32l4xx_hal_rcc.c ****   /* Check the parameters */
 956:D:/iot/felix2/targets/Cloud_STM32L431_BearPi/Drivers/STM32L4xx_HAL_Driver/Src\stm32l4xx_hal_rcc.c ****   assert_param(IS_RCC_CLOCKTYPE(RCC_ClkInitStruct->ClockType));
 957:D:/iot/felix2/targets/Cloud_STM32L431_BearPi/Drivers/STM32L4xx_HAL_Driver/Src\stm32l4xx_hal_rcc.c ****   assert_param(IS_FLASH_LATENCY(FLatency));
 958:D:/iot/felix2/targets/Cloud_STM32L431_BearPi/Drivers/STM32L4xx_HAL_Driver/Src\stm32l4xx_hal_rcc.c **** 
 959:D:/iot/felix2/targets/Cloud_STM32L431_BearPi/Drivers/STM32L4xx_HAL_Driver/Src\stm32l4xx_hal_rcc.c ****   /* To correctly read data from FLASH memory, the number of wait states (LATENCY)
 960:D:/iot/felix2/targets/Cloud_STM32L431_BearPi/Drivers/STM32L4xx_HAL_Driver/Src\stm32l4xx_hal_rcc.c ****     must be correctly programmed according to the frequency of the CPU clock
 961:D:/iot/felix2/targets/Cloud_STM32L431_BearPi/Drivers/STM32L4xx_HAL_Driver/Src\stm32l4xx_hal_rcc.c ****     (HCLK) and the supply voltage of the device. */
 962:D:/iot/felix2/targets/Cloud_STM32L431_BearPi/Drivers/STM32L4xx_HAL_Driver/Src\stm32l4xx_hal_rcc.c **** 
 963:D:/iot/felix2/targets/Cloud_STM32L431_BearPi/Drivers/STM32L4xx_HAL_Driver/Src\stm32l4xx_hal_rcc.c ****   /* Increasing the number of wait states because of higher CPU frequency */
 964:D:/iot/felix2/targets/Cloud_STM32L431_BearPi/Drivers/STM32L4xx_HAL_Driver/Src\stm32l4xx_hal_rcc.c ****   if(FLatency > __HAL_FLASH_GET_LATENCY())
 1311              		.loc 1 964 0
 1312 0014 634B     		ldr	r3, .L107
 1313 0016 1B68     		ldr	r3, [r3]
 1314 0018 03F00703 		and	r3, r3, #7
 1315 001c 3A68     		ldr	r2, [r7]
 1316 001e 9A42     		cmp	r2, r3
 1317 0020 10D9     		bls	.L95
 965:D:/iot/felix2/targets/Cloud_STM32L431_BearPi/Drivers/STM32L4xx_HAL_Driver/Src\stm32l4xx_hal_rcc.c ****   {
 966:D:/iot/felix2/targets/Cloud_STM32L431_BearPi/Drivers/STM32L4xx_HAL_Driver/Src\stm32l4xx_hal_rcc.c ****     /* Program the new number of wait states to the LATENCY bits in the FLASH_ACR register */
 967:D:/iot/felix2/targets/Cloud_STM32L431_BearPi/Drivers/STM32L4xx_HAL_Driver/Src\stm32l4xx_hal_rcc.c ****     __HAL_FLASH_SET_LATENCY(FLatency);
 1318              		.loc 1 967 0
 1319 0022 604B     		ldr	r3, .L107
 1320 0024 1B68     		ldr	r3, [r3]
 1321 0026 23F00702 		bic	r2, r3, #7
 1322 002a 5E49     		ldr	r1, .L107
 1323 002c 3B68     		ldr	r3, [r7]
 1324 002e 1343     		orrs	r3, r3, r2
 1325 0030 0B60     		str	r3, [r1]
 968:D:/iot/felix2/targets/Cloud_STM32L431_BearPi/Drivers/STM32L4xx_HAL_Driver/Src\stm32l4xx_hal_rcc.c **** 
 969:D:/iot/felix2/targets/Cloud_STM32L431_BearPi/Drivers/STM32L4xx_HAL_Driver/Src\stm32l4xx_hal_rcc.c ****     /* Check that the new number of wait states is taken into account to access the Flash
 970:D:/iot/felix2/targets/Cloud_STM32L431_BearPi/Drivers/STM32L4xx_HAL_Driver/Src\stm32l4xx_hal_rcc.c ****     memory by reading the FLASH_ACR register */
 971:D:/iot/felix2/targets/Cloud_STM32L431_BearPi/Drivers/STM32L4xx_HAL_Driver/Src\stm32l4xx_hal_rcc.c ****     if(__HAL_FLASH_GET_LATENCY() != FLatency)
 1326              		.loc 1 971 0
 1327 0032 5C4B     		ldr	r3, .L107
 1328 0034 1B68     		ldr	r3, [r3]
 1329 0036 03F00703 		and	r3, r3, #7
 1330 003a 3A68     		ldr	r2, [r7]
 1331 003c 9A42     		cmp	r2, r3
 1332 003e 01D0     		beq	.L95
 972:D:/iot/felix2/targets/Cloud_STM32L431_BearPi/Drivers/STM32L4xx_HAL_Driver/Src\stm32l4xx_hal_rcc.c ****     {
 973:D:/iot/felix2/targets/Cloud_STM32L431_BearPi/Drivers/STM32L4xx_HAL_Driver/Src\stm32l4xx_hal_rcc.c ****       return HAL_ERROR;
 1333              		.loc 1 973 0
 1334 0040 0123     		movs	r3, #1
 1335 0042 AAE0     		b	.L94
 1336              	.L95:
 974:D:/iot/felix2/targets/Cloud_STM32L431_BearPi/Drivers/STM32L4xx_HAL_Driver/Src\stm32l4xx_hal_rcc.c ****     }
 975:D:/iot/felix2/targets/Cloud_STM32L431_BearPi/Drivers/STM32L4xx_HAL_Driver/Src\stm32l4xx_hal_rcc.c ****   }
 976:D:/iot/felix2/targets/Cloud_STM32L431_BearPi/Drivers/STM32L4xx_HAL_Driver/Src\stm32l4xx_hal_rcc.c **** 
 977:D:/iot/felix2/targets/Cloud_STM32L431_BearPi/Drivers/STM32L4xx_HAL_Driver/Src\stm32l4xx_hal_rcc.c ****   /*------------------------- SYSCLK Configuration ---------------------------*/
 978:D:/iot/felix2/targets/Cloud_STM32L431_BearPi/Drivers/STM32L4xx_HAL_Driver/Src\stm32l4xx_hal_rcc.c ****   if(((RCC_ClkInitStruct->ClockType) & RCC_CLOCKTYPE_SYSCLK) == RCC_CLOCKTYPE_SYSCLK)
 1337              		.loc 1 978 0
 1338 0044 7B68     		ldr	r3, [r7, #4]
 1339 0046 1B68     		ldr	r3, [r3]
 1340 0048 03F00103 		and	r3, r3, #1
 1341 004c 002B     		cmp	r3, #0
ARM GAS  C:\Users\91458\AppData\Local\Temp\ccHvSglx.s 			page 42


 1342 004e 4CD0     		beq	.L96
 979:D:/iot/felix2/targets/Cloud_STM32L431_BearPi/Drivers/STM32L4xx_HAL_Driver/Src\stm32l4xx_hal_rcc.c ****   {
 980:D:/iot/felix2/targets/Cloud_STM32L431_BearPi/Drivers/STM32L4xx_HAL_Driver/Src\stm32l4xx_hal_rcc.c ****     assert_param(IS_RCC_SYSCLKSOURCE(RCC_ClkInitStruct->SYSCLKSource));
 981:D:/iot/felix2/targets/Cloud_STM32L431_BearPi/Drivers/STM32L4xx_HAL_Driver/Src\stm32l4xx_hal_rcc.c **** 
 982:D:/iot/felix2/targets/Cloud_STM32L431_BearPi/Drivers/STM32L4xx_HAL_Driver/Src\stm32l4xx_hal_rcc.c ****     /* PLL is selected as System Clock Source */
 983:D:/iot/felix2/targets/Cloud_STM32L431_BearPi/Drivers/STM32L4xx_HAL_Driver/Src\stm32l4xx_hal_rcc.c ****     if(RCC_ClkInitStruct->SYSCLKSource == RCC_SYSCLKSOURCE_PLLCLK)
 1343              		.loc 1 983 0
 1344 0050 7B68     		ldr	r3, [r7, #4]
 1345 0052 5B68     		ldr	r3, [r3, #4]
 1346 0054 032B     		cmp	r3, #3
 1347 0056 07D1     		bne	.L97
 984:D:/iot/felix2/targets/Cloud_STM32L431_BearPi/Drivers/STM32L4xx_HAL_Driver/Src\stm32l4xx_hal_rcc.c ****     {
 985:D:/iot/felix2/targets/Cloud_STM32L431_BearPi/Drivers/STM32L4xx_HAL_Driver/Src\stm32l4xx_hal_rcc.c ****       /* Check the PLL ready flag */
 986:D:/iot/felix2/targets/Cloud_STM32L431_BearPi/Drivers/STM32L4xx_HAL_Driver/Src\stm32l4xx_hal_rcc.c ****       if(READ_BIT(RCC->CR, RCC_CR_PLLRDY) == RESET)
 1348              		.loc 1 986 0
 1349 0058 534B     		ldr	r3, .L107+4
 1350 005a 1B68     		ldr	r3, [r3]
 1351 005c 03F00073 		and	r3, r3, #33554432
 1352 0060 002B     		cmp	r3, #0
 1353 0062 21D1     		bne	.L98
 987:D:/iot/felix2/targets/Cloud_STM32L431_BearPi/Drivers/STM32L4xx_HAL_Driver/Src\stm32l4xx_hal_rcc.c ****       {
 988:D:/iot/felix2/targets/Cloud_STM32L431_BearPi/Drivers/STM32L4xx_HAL_Driver/Src\stm32l4xx_hal_rcc.c ****         return HAL_ERROR;
 1354              		.loc 1 988 0
 1355 0064 0123     		movs	r3, #1
 1356 0066 98E0     		b	.L94
 1357              	.L97:
 989:D:/iot/felix2/targets/Cloud_STM32L431_BearPi/Drivers/STM32L4xx_HAL_Driver/Src\stm32l4xx_hal_rcc.c ****       }
 990:D:/iot/felix2/targets/Cloud_STM32L431_BearPi/Drivers/STM32L4xx_HAL_Driver/Src\stm32l4xx_hal_rcc.c **** #if defined(STM32L4R5xx) || defined(STM32L4R7xx) || defined(STM32L4R9xx) || defined(STM32L4S5xx) ||
 991:D:/iot/felix2/targets/Cloud_STM32L431_BearPi/Drivers/STM32L4xx_HAL_Driver/Src\stm32l4xx_hal_rcc.c ****       /* Undershoot management when selection PLL as SYSCLK source and frequency above 80Mhz */
 992:D:/iot/felix2/targets/Cloud_STM32L431_BearPi/Drivers/STM32L4xx_HAL_Driver/Src\stm32l4xx_hal_rcc.c ****       /* Compute target PLL output frequency */
 993:D:/iot/felix2/targets/Cloud_STM32L431_BearPi/Drivers/STM32L4xx_HAL_Driver/Src\stm32l4xx_hal_rcc.c ****       pllfreq = RCC_GetSysClockFreqFromPLLSource();
 994:D:/iot/felix2/targets/Cloud_STM32L431_BearPi/Drivers/STM32L4xx_HAL_Driver/Src\stm32l4xx_hal_rcc.c **** 
 995:D:/iot/felix2/targets/Cloud_STM32L431_BearPi/Drivers/STM32L4xx_HAL_Driver/Src\stm32l4xx_hal_rcc.c ****       /* Intermediate step with HCLK prescaler 2 necessary before to go over 80Mhz */
 996:D:/iot/felix2/targets/Cloud_STM32L431_BearPi/Drivers/STM32L4xx_HAL_Driver/Src\stm32l4xx_hal_rcc.c ****       if((pllfreq > 80000000U) &&
 997:D:/iot/felix2/targets/Cloud_STM32L431_BearPi/Drivers/STM32L4xx_HAL_Driver/Src\stm32l4xx_hal_rcc.c ****          (((((RCC_ClkInitStruct->ClockType) & RCC_CLOCKTYPE_HCLK) == RCC_CLOCKTYPE_HCLK) && (RCC_Cl
 998:D:/iot/felix2/targets/Cloud_STM32L431_BearPi/Drivers/STM32L4xx_HAL_Driver/Src\stm32l4xx_hal_rcc.c ****           ||
 999:D:/iot/felix2/targets/Cloud_STM32L431_BearPi/Drivers/STM32L4xx_HAL_Driver/Src\stm32l4xx_hal_rcc.c ****           ((READ_BIT(RCC->CFGR, RCC_CFGR_HPRE) == RCC_SYSCLK_DIV1))))
1000:D:/iot/felix2/targets/Cloud_STM32L431_BearPi/Drivers/STM32L4xx_HAL_Driver/Src\stm32l4xx_hal_rcc.c ****       {
1001:D:/iot/felix2/targets/Cloud_STM32L431_BearPi/Drivers/STM32L4xx_HAL_Driver/Src\stm32l4xx_hal_rcc.c ****         MODIFY_REG(RCC->CFGR, RCC_CFGR_HPRE, RCC_SYSCLK_DIV2);
1002:D:/iot/felix2/targets/Cloud_STM32L431_BearPi/Drivers/STM32L4xx_HAL_Driver/Src\stm32l4xx_hal_rcc.c ****         hpre = RCC_SYSCLK_DIV2;
1003:D:/iot/felix2/targets/Cloud_STM32L431_BearPi/Drivers/STM32L4xx_HAL_Driver/Src\stm32l4xx_hal_rcc.c ****       }
1004:D:/iot/felix2/targets/Cloud_STM32L431_BearPi/Drivers/STM32L4xx_HAL_Driver/Src\stm32l4xx_hal_rcc.c **** #endif
1005:D:/iot/felix2/targets/Cloud_STM32L431_BearPi/Drivers/STM32L4xx_HAL_Driver/Src\stm32l4xx_hal_rcc.c ****     }
1006:D:/iot/felix2/targets/Cloud_STM32L431_BearPi/Drivers/STM32L4xx_HAL_Driver/Src\stm32l4xx_hal_rcc.c ****     else
1007:D:/iot/felix2/targets/Cloud_STM32L431_BearPi/Drivers/STM32L4xx_HAL_Driver/Src\stm32l4xx_hal_rcc.c ****     {
1008:D:/iot/felix2/targets/Cloud_STM32L431_BearPi/Drivers/STM32L4xx_HAL_Driver/Src\stm32l4xx_hal_rcc.c ****       /* HSE is selected as System Clock Source */
1009:D:/iot/felix2/targets/Cloud_STM32L431_BearPi/Drivers/STM32L4xx_HAL_Driver/Src\stm32l4xx_hal_rcc.c ****       if(RCC_ClkInitStruct->SYSCLKSource == RCC_SYSCLKSOURCE_HSE)
 1358              		.loc 1 1009 0
 1359 0068 7B68     		ldr	r3, [r7, #4]
 1360 006a 5B68     		ldr	r3, [r3, #4]
 1361 006c 022B     		cmp	r3, #2
 1362 006e 07D1     		bne	.L99
1010:D:/iot/felix2/targets/Cloud_STM32L431_BearPi/Drivers/STM32L4xx_HAL_Driver/Src\stm32l4xx_hal_rcc.c ****       {
1011:D:/iot/felix2/targets/Cloud_STM32L431_BearPi/Drivers/STM32L4xx_HAL_Driver/Src\stm32l4xx_hal_rcc.c ****         /* Check the HSE ready flag */
1012:D:/iot/felix2/targets/Cloud_STM32L431_BearPi/Drivers/STM32L4xx_HAL_Driver/Src\stm32l4xx_hal_rcc.c ****         if(READ_BIT(RCC->CR, RCC_CR_HSERDY) == RESET)
 1363              		.loc 1 1012 0
 1364 0070 4D4B     		ldr	r3, .L107+4
ARM GAS  C:\Users\91458\AppData\Local\Temp\ccHvSglx.s 			page 43


 1365 0072 1B68     		ldr	r3, [r3]
 1366 0074 03F40033 		and	r3, r3, #131072
 1367 0078 002B     		cmp	r3, #0
 1368 007a 15D1     		bne	.L98
1013:D:/iot/felix2/targets/Cloud_STM32L431_BearPi/Drivers/STM32L4xx_HAL_Driver/Src\stm32l4xx_hal_rcc.c ****         {
1014:D:/iot/felix2/targets/Cloud_STM32L431_BearPi/Drivers/STM32L4xx_HAL_Driver/Src\stm32l4xx_hal_rcc.c ****           return HAL_ERROR;
 1369              		.loc 1 1014 0
 1370 007c 0123     		movs	r3, #1
 1371 007e 8CE0     		b	.L94
 1372              	.L99:
1015:D:/iot/felix2/targets/Cloud_STM32L431_BearPi/Drivers/STM32L4xx_HAL_Driver/Src\stm32l4xx_hal_rcc.c ****         }
1016:D:/iot/felix2/targets/Cloud_STM32L431_BearPi/Drivers/STM32L4xx_HAL_Driver/Src\stm32l4xx_hal_rcc.c ****       }
1017:D:/iot/felix2/targets/Cloud_STM32L431_BearPi/Drivers/STM32L4xx_HAL_Driver/Src\stm32l4xx_hal_rcc.c ****       /* MSI is selected as System Clock Source */
1018:D:/iot/felix2/targets/Cloud_STM32L431_BearPi/Drivers/STM32L4xx_HAL_Driver/Src\stm32l4xx_hal_rcc.c ****       else if(RCC_ClkInitStruct->SYSCLKSource == RCC_SYSCLKSOURCE_MSI)
 1373              		.loc 1 1018 0
 1374 0080 7B68     		ldr	r3, [r7, #4]
 1375 0082 5B68     		ldr	r3, [r3, #4]
 1376 0084 002B     		cmp	r3, #0
 1377 0086 07D1     		bne	.L100
1019:D:/iot/felix2/targets/Cloud_STM32L431_BearPi/Drivers/STM32L4xx_HAL_Driver/Src\stm32l4xx_hal_rcc.c ****       {
1020:D:/iot/felix2/targets/Cloud_STM32L431_BearPi/Drivers/STM32L4xx_HAL_Driver/Src\stm32l4xx_hal_rcc.c ****         /* Check the MSI ready flag */
1021:D:/iot/felix2/targets/Cloud_STM32L431_BearPi/Drivers/STM32L4xx_HAL_Driver/Src\stm32l4xx_hal_rcc.c ****         if(READ_BIT(RCC->CR, RCC_CR_MSIRDY) == RESET)
 1378              		.loc 1 1021 0
 1379 0088 474B     		ldr	r3, .L107+4
 1380 008a 1B68     		ldr	r3, [r3]
 1381 008c 03F00203 		and	r3, r3, #2
 1382 0090 002B     		cmp	r3, #0
 1383 0092 09D1     		bne	.L98
1022:D:/iot/felix2/targets/Cloud_STM32L431_BearPi/Drivers/STM32L4xx_HAL_Driver/Src\stm32l4xx_hal_rcc.c ****         {
1023:D:/iot/felix2/targets/Cloud_STM32L431_BearPi/Drivers/STM32L4xx_HAL_Driver/Src\stm32l4xx_hal_rcc.c ****           return HAL_ERROR;
 1384              		.loc 1 1023 0
 1385 0094 0123     		movs	r3, #1
 1386 0096 80E0     		b	.L94
 1387              	.L100:
1024:D:/iot/felix2/targets/Cloud_STM32L431_BearPi/Drivers/STM32L4xx_HAL_Driver/Src\stm32l4xx_hal_rcc.c ****         }
1025:D:/iot/felix2/targets/Cloud_STM32L431_BearPi/Drivers/STM32L4xx_HAL_Driver/Src\stm32l4xx_hal_rcc.c ****       }
1026:D:/iot/felix2/targets/Cloud_STM32L431_BearPi/Drivers/STM32L4xx_HAL_Driver/Src\stm32l4xx_hal_rcc.c ****       /* HSI is selected as System Clock Source */
1027:D:/iot/felix2/targets/Cloud_STM32L431_BearPi/Drivers/STM32L4xx_HAL_Driver/Src\stm32l4xx_hal_rcc.c ****       else
1028:D:/iot/felix2/targets/Cloud_STM32L431_BearPi/Drivers/STM32L4xx_HAL_Driver/Src\stm32l4xx_hal_rcc.c ****       {
1029:D:/iot/felix2/targets/Cloud_STM32L431_BearPi/Drivers/STM32L4xx_HAL_Driver/Src\stm32l4xx_hal_rcc.c ****         /* Check the HSI ready flag */
1030:D:/iot/felix2/targets/Cloud_STM32L431_BearPi/Drivers/STM32L4xx_HAL_Driver/Src\stm32l4xx_hal_rcc.c ****         if(READ_BIT(RCC->CR, RCC_CR_HSIRDY) == RESET)
 1388              		.loc 1 1030 0
 1389 0098 434B     		ldr	r3, .L107+4
 1390 009a 1B68     		ldr	r3, [r3]
 1391 009c 03F48063 		and	r3, r3, #1024
 1392 00a0 002B     		cmp	r3, #0
 1393 00a2 01D1     		bne	.L98
1031:D:/iot/felix2/targets/Cloud_STM32L431_BearPi/Drivers/STM32L4xx_HAL_Driver/Src\stm32l4xx_hal_rcc.c ****         {
1032:D:/iot/felix2/targets/Cloud_STM32L431_BearPi/Drivers/STM32L4xx_HAL_Driver/Src\stm32l4xx_hal_rcc.c ****           return HAL_ERROR;
 1394              		.loc 1 1032 0
 1395 00a4 0123     		movs	r3, #1
 1396 00a6 78E0     		b	.L94
 1397              	.L98:
1033:D:/iot/felix2/targets/Cloud_STM32L431_BearPi/Drivers/STM32L4xx_HAL_Driver/Src\stm32l4xx_hal_rcc.c ****         }
1034:D:/iot/felix2/targets/Cloud_STM32L431_BearPi/Drivers/STM32L4xx_HAL_Driver/Src\stm32l4xx_hal_rcc.c ****       }
1035:D:/iot/felix2/targets/Cloud_STM32L431_BearPi/Drivers/STM32L4xx_HAL_Driver/Src\stm32l4xx_hal_rcc.c **** #if defined(STM32L4R5xx) || defined(STM32L4R7xx) || defined(STM32L4R9xx) || defined(STM32L4S5xx) ||
1036:D:/iot/felix2/targets/Cloud_STM32L431_BearPi/Drivers/STM32L4xx_HAL_Driver/Src\stm32l4xx_hal_rcc.c ****       /* Overshoot management when going down from PLL as SYSCLK source and frequency above 80Mhz *
ARM GAS  C:\Users\91458\AppData\Local\Temp\ccHvSglx.s 			page 44


1037:D:/iot/felix2/targets/Cloud_STM32L431_BearPi/Drivers/STM32L4xx_HAL_Driver/Src\stm32l4xx_hal_rcc.c ****       pllfreq = HAL_RCC_GetSysClockFreq();
1038:D:/iot/felix2/targets/Cloud_STM32L431_BearPi/Drivers/STM32L4xx_HAL_Driver/Src\stm32l4xx_hal_rcc.c **** 
1039:D:/iot/felix2/targets/Cloud_STM32L431_BearPi/Drivers/STM32L4xx_HAL_Driver/Src\stm32l4xx_hal_rcc.c ****       /* Intermediate step with HCLK prescaler 2 necessary before to go under 80Mhz */
1040:D:/iot/felix2/targets/Cloud_STM32L431_BearPi/Drivers/STM32L4xx_HAL_Driver/Src\stm32l4xx_hal_rcc.c ****       if(pllfreq > 80000000U)
1041:D:/iot/felix2/targets/Cloud_STM32L431_BearPi/Drivers/STM32L4xx_HAL_Driver/Src\stm32l4xx_hal_rcc.c ****       {
1042:D:/iot/felix2/targets/Cloud_STM32L431_BearPi/Drivers/STM32L4xx_HAL_Driver/Src\stm32l4xx_hal_rcc.c ****         MODIFY_REG(RCC->CFGR, RCC_CFGR_HPRE, RCC_SYSCLK_DIV2);
1043:D:/iot/felix2/targets/Cloud_STM32L431_BearPi/Drivers/STM32L4xx_HAL_Driver/Src\stm32l4xx_hal_rcc.c ****         hpre = RCC_SYSCLK_DIV2;
1044:D:/iot/felix2/targets/Cloud_STM32L431_BearPi/Drivers/STM32L4xx_HAL_Driver/Src\stm32l4xx_hal_rcc.c ****       }
1045:D:/iot/felix2/targets/Cloud_STM32L431_BearPi/Drivers/STM32L4xx_HAL_Driver/Src\stm32l4xx_hal_rcc.c **** #endif
1046:D:/iot/felix2/targets/Cloud_STM32L431_BearPi/Drivers/STM32L4xx_HAL_Driver/Src\stm32l4xx_hal_rcc.c **** 
1047:D:/iot/felix2/targets/Cloud_STM32L431_BearPi/Drivers/STM32L4xx_HAL_Driver/Src\stm32l4xx_hal_rcc.c ****     }
1048:D:/iot/felix2/targets/Cloud_STM32L431_BearPi/Drivers/STM32L4xx_HAL_Driver/Src\stm32l4xx_hal_rcc.c **** 
1049:D:/iot/felix2/targets/Cloud_STM32L431_BearPi/Drivers/STM32L4xx_HAL_Driver/Src\stm32l4xx_hal_rcc.c ****     MODIFY_REG(RCC->CFGR, RCC_CFGR_SW, RCC_ClkInitStruct->SYSCLKSource);
 1398              		.loc 1 1049 0
 1399 00a8 3F4B     		ldr	r3, .L107+4
 1400 00aa 9B68     		ldr	r3, [r3, #8]
 1401 00ac 23F00302 		bic	r2, r3, #3
 1402 00b0 7B68     		ldr	r3, [r7, #4]
 1403 00b2 5B68     		ldr	r3, [r3, #4]
 1404 00b4 3C49     		ldr	r1, .L107+4
 1405 00b6 1343     		orrs	r3, r3, r2
 1406 00b8 8B60     		str	r3, [r1, #8]
1050:D:/iot/felix2/targets/Cloud_STM32L431_BearPi/Drivers/STM32L4xx_HAL_Driver/Src\stm32l4xx_hal_rcc.c **** 
1051:D:/iot/felix2/targets/Cloud_STM32L431_BearPi/Drivers/STM32L4xx_HAL_Driver/Src\stm32l4xx_hal_rcc.c ****     /* Get Start Tick*/
1052:D:/iot/felix2/targets/Cloud_STM32L431_BearPi/Drivers/STM32L4xx_HAL_Driver/Src\stm32l4xx_hal_rcc.c ****     tickstart = HAL_GetTick();
 1407              		.loc 1 1052 0
 1408 00ba FFF7FEFF 		bl	HAL_GetTick
 1409 00be F860     		str	r0, [r7, #12]
1053:D:/iot/felix2/targets/Cloud_STM32L431_BearPi/Drivers/STM32L4xx_HAL_Driver/Src\stm32l4xx_hal_rcc.c **** 
1054:D:/iot/felix2/targets/Cloud_STM32L431_BearPi/Drivers/STM32L4xx_HAL_Driver/Src\stm32l4xx_hal_rcc.c ****     while(__HAL_RCC_GET_SYSCLK_SOURCE() != (RCC_ClkInitStruct->SYSCLKSource << RCC_CFGR_SWS_Pos))
 1410              		.loc 1 1054 0
 1411 00c0 0AE0     		b	.L101
 1412              	.L102:
1055:D:/iot/felix2/targets/Cloud_STM32L431_BearPi/Drivers/STM32L4xx_HAL_Driver/Src\stm32l4xx_hal_rcc.c ****     {
1056:D:/iot/felix2/targets/Cloud_STM32L431_BearPi/Drivers/STM32L4xx_HAL_Driver/Src\stm32l4xx_hal_rcc.c ****       if((HAL_GetTick() - tickstart) > CLOCKSWITCH_TIMEOUT_VALUE)
 1413              		.loc 1 1056 0
 1414 00c2 FFF7FEFF 		bl	HAL_GetTick
 1415 00c6 0246     		mov	r2, r0
 1416 00c8 FB68     		ldr	r3, [r7, #12]
 1417 00ca D31A     		subs	r3, r2, r3
 1418 00cc 41F28832 		movw	r2, #5000
 1419 00d0 9342     		cmp	r3, r2
 1420 00d2 01D9     		bls	.L101
1057:D:/iot/felix2/targets/Cloud_STM32L431_BearPi/Drivers/STM32L4xx_HAL_Driver/Src\stm32l4xx_hal_rcc.c ****       {
1058:D:/iot/felix2/targets/Cloud_STM32L431_BearPi/Drivers/STM32L4xx_HAL_Driver/Src\stm32l4xx_hal_rcc.c ****         return HAL_TIMEOUT;
 1421              		.loc 1 1058 0
 1422 00d4 0323     		movs	r3, #3
 1423 00d6 60E0     		b	.L94
 1424              	.L101:
1054:D:/iot/felix2/targets/Cloud_STM32L431_BearPi/Drivers/STM32L4xx_HAL_Driver/Src\stm32l4xx_hal_rcc.c ****     {
 1425              		.loc 1 1054 0
 1426 00d8 334B     		ldr	r3, .L107+4
 1427 00da 9B68     		ldr	r3, [r3, #8]
 1428 00dc 03F00C02 		and	r2, r3, #12
 1429 00e0 7B68     		ldr	r3, [r7, #4]
 1430 00e2 5B68     		ldr	r3, [r3, #4]
 1431 00e4 9B00     		lsls	r3, r3, #2
ARM GAS  C:\Users\91458\AppData\Local\Temp\ccHvSglx.s 			page 45


 1432 00e6 9A42     		cmp	r2, r3
 1433 00e8 EBD1     		bne	.L102
 1434              	.L96:
1059:D:/iot/felix2/targets/Cloud_STM32L431_BearPi/Drivers/STM32L4xx_HAL_Driver/Src\stm32l4xx_hal_rcc.c ****       }
1060:D:/iot/felix2/targets/Cloud_STM32L431_BearPi/Drivers/STM32L4xx_HAL_Driver/Src\stm32l4xx_hal_rcc.c ****     }
1061:D:/iot/felix2/targets/Cloud_STM32L431_BearPi/Drivers/STM32L4xx_HAL_Driver/Src\stm32l4xx_hal_rcc.c ****   }
1062:D:/iot/felix2/targets/Cloud_STM32L431_BearPi/Drivers/STM32L4xx_HAL_Driver/Src\stm32l4xx_hal_rcc.c **** 
1063:D:/iot/felix2/targets/Cloud_STM32L431_BearPi/Drivers/STM32L4xx_HAL_Driver/Src\stm32l4xx_hal_rcc.c ****   /*-------------------------- HCLK Configuration --------------------------*/
1064:D:/iot/felix2/targets/Cloud_STM32L431_BearPi/Drivers/STM32L4xx_HAL_Driver/Src\stm32l4xx_hal_rcc.c ****   if(((RCC_ClkInitStruct->ClockType) & RCC_CLOCKTYPE_HCLK) == RCC_CLOCKTYPE_HCLK)
 1435              		.loc 1 1064 0
 1436 00ea 7B68     		ldr	r3, [r7, #4]
 1437 00ec 1B68     		ldr	r3, [r3]
 1438 00ee 03F00203 		and	r3, r3, #2
 1439 00f2 002B     		cmp	r3, #0
 1440 00f4 08D0     		beq	.L103
1065:D:/iot/felix2/targets/Cloud_STM32L431_BearPi/Drivers/STM32L4xx_HAL_Driver/Src\stm32l4xx_hal_rcc.c ****   {
1066:D:/iot/felix2/targets/Cloud_STM32L431_BearPi/Drivers/STM32L4xx_HAL_Driver/Src\stm32l4xx_hal_rcc.c ****     assert_param(IS_RCC_HCLK(RCC_ClkInitStruct->AHBCLKDivider));
1067:D:/iot/felix2/targets/Cloud_STM32L431_BearPi/Drivers/STM32L4xx_HAL_Driver/Src\stm32l4xx_hal_rcc.c ****     MODIFY_REG(RCC->CFGR, RCC_CFGR_HPRE, RCC_ClkInitStruct->AHBCLKDivider);
 1441              		.loc 1 1067 0
 1442 00f6 2C4B     		ldr	r3, .L107+4
 1443 00f8 9B68     		ldr	r3, [r3, #8]
 1444 00fa 23F0F002 		bic	r2, r3, #240
 1445 00fe 7B68     		ldr	r3, [r7, #4]
 1446 0100 9B68     		ldr	r3, [r3, #8]
 1447 0102 2949     		ldr	r1, .L107+4
 1448 0104 1343     		orrs	r3, r3, r2
 1449 0106 8B60     		str	r3, [r1, #8]
 1450              	.L103:
1068:D:/iot/felix2/targets/Cloud_STM32L431_BearPi/Drivers/STM32L4xx_HAL_Driver/Src\stm32l4xx_hal_rcc.c ****   }
1069:D:/iot/felix2/targets/Cloud_STM32L431_BearPi/Drivers/STM32L4xx_HAL_Driver/Src\stm32l4xx_hal_rcc.c **** #if defined(STM32L4R5xx) || defined(STM32L4R7xx) || defined(STM32L4R9xx) || defined(STM32L4S5xx) ||
1070:D:/iot/felix2/targets/Cloud_STM32L431_BearPi/Drivers/STM32L4xx_HAL_Driver/Src\stm32l4xx_hal_rcc.c ****   else
1071:D:/iot/felix2/targets/Cloud_STM32L431_BearPi/Drivers/STM32L4xx_HAL_Driver/Src\stm32l4xx_hal_rcc.c ****   {
1072:D:/iot/felix2/targets/Cloud_STM32L431_BearPi/Drivers/STM32L4xx_HAL_Driver/Src\stm32l4xx_hal_rcc.c ****     /* Is intermediate HCLK prescaler 2 applied internally, complete with HCLK prescaler 1 */
1073:D:/iot/felix2/targets/Cloud_STM32L431_BearPi/Drivers/STM32L4xx_HAL_Driver/Src\stm32l4xx_hal_rcc.c ****     if(hpre == RCC_SYSCLK_DIV2)
1074:D:/iot/felix2/targets/Cloud_STM32L431_BearPi/Drivers/STM32L4xx_HAL_Driver/Src\stm32l4xx_hal_rcc.c ****     {
1075:D:/iot/felix2/targets/Cloud_STM32L431_BearPi/Drivers/STM32L4xx_HAL_Driver/Src\stm32l4xx_hal_rcc.c ****       MODIFY_REG(RCC->CFGR, RCC_CFGR_HPRE, RCC_SYSCLK_DIV1);
1076:D:/iot/felix2/targets/Cloud_STM32L431_BearPi/Drivers/STM32L4xx_HAL_Driver/Src\stm32l4xx_hal_rcc.c ****     }
1077:D:/iot/felix2/targets/Cloud_STM32L431_BearPi/Drivers/STM32L4xx_HAL_Driver/Src\stm32l4xx_hal_rcc.c ****   }
1078:D:/iot/felix2/targets/Cloud_STM32L431_BearPi/Drivers/STM32L4xx_HAL_Driver/Src\stm32l4xx_hal_rcc.c **** #endif
1079:D:/iot/felix2/targets/Cloud_STM32L431_BearPi/Drivers/STM32L4xx_HAL_Driver/Src\stm32l4xx_hal_rcc.c **** 
1080:D:/iot/felix2/targets/Cloud_STM32L431_BearPi/Drivers/STM32L4xx_HAL_Driver/Src\stm32l4xx_hal_rcc.c ****   /* Decreasing the number of wait states because of lower CPU frequency */
1081:D:/iot/felix2/targets/Cloud_STM32L431_BearPi/Drivers/STM32L4xx_HAL_Driver/Src\stm32l4xx_hal_rcc.c ****   if(FLatency < __HAL_FLASH_GET_LATENCY())
 1451              		.loc 1 1081 0
 1452 0108 264B     		ldr	r3, .L107
 1453 010a 1B68     		ldr	r3, [r3]
 1454 010c 03F00703 		and	r3, r3, #7
 1455 0110 3A68     		ldr	r2, [r7]
 1456 0112 9A42     		cmp	r2, r3
 1457 0114 10D2     		bcs	.L104
1082:D:/iot/felix2/targets/Cloud_STM32L431_BearPi/Drivers/STM32L4xx_HAL_Driver/Src\stm32l4xx_hal_rcc.c ****   {
1083:D:/iot/felix2/targets/Cloud_STM32L431_BearPi/Drivers/STM32L4xx_HAL_Driver/Src\stm32l4xx_hal_rcc.c ****     /* Program the new number of wait states to the LATENCY bits in the FLASH_ACR register */
1084:D:/iot/felix2/targets/Cloud_STM32L431_BearPi/Drivers/STM32L4xx_HAL_Driver/Src\stm32l4xx_hal_rcc.c ****     __HAL_FLASH_SET_LATENCY(FLatency);
 1458              		.loc 1 1084 0
 1459 0116 234B     		ldr	r3, .L107
 1460 0118 1B68     		ldr	r3, [r3]
 1461 011a 23F00702 		bic	r2, r3, #7
 1462 011e 2149     		ldr	r1, .L107
ARM GAS  C:\Users\91458\AppData\Local\Temp\ccHvSglx.s 			page 46


 1463 0120 3B68     		ldr	r3, [r7]
 1464 0122 1343     		orrs	r3, r3, r2
 1465 0124 0B60     		str	r3, [r1]
1085:D:/iot/felix2/targets/Cloud_STM32L431_BearPi/Drivers/STM32L4xx_HAL_Driver/Src\stm32l4xx_hal_rcc.c **** 
1086:D:/iot/felix2/targets/Cloud_STM32L431_BearPi/Drivers/STM32L4xx_HAL_Driver/Src\stm32l4xx_hal_rcc.c ****     /* Check that the new number of wait states is taken into account to access the Flash
1087:D:/iot/felix2/targets/Cloud_STM32L431_BearPi/Drivers/STM32L4xx_HAL_Driver/Src\stm32l4xx_hal_rcc.c ****     memory by reading the FLASH_ACR register */
1088:D:/iot/felix2/targets/Cloud_STM32L431_BearPi/Drivers/STM32L4xx_HAL_Driver/Src\stm32l4xx_hal_rcc.c ****     if(__HAL_FLASH_GET_LATENCY() != FLatency)
 1466              		.loc 1 1088 0
 1467 0126 1F4B     		ldr	r3, .L107
 1468 0128 1B68     		ldr	r3, [r3]
 1469 012a 03F00703 		and	r3, r3, #7
 1470 012e 3A68     		ldr	r2, [r7]
 1471 0130 9A42     		cmp	r2, r3
 1472 0132 01D0     		beq	.L104
1089:D:/iot/felix2/targets/Cloud_STM32L431_BearPi/Drivers/STM32L4xx_HAL_Driver/Src\stm32l4xx_hal_rcc.c ****     {
1090:D:/iot/felix2/targets/Cloud_STM32L431_BearPi/Drivers/STM32L4xx_HAL_Driver/Src\stm32l4xx_hal_rcc.c ****       return HAL_ERROR;
 1473              		.loc 1 1090 0
 1474 0134 0123     		movs	r3, #1
 1475 0136 30E0     		b	.L94
 1476              	.L104:
1091:D:/iot/felix2/targets/Cloud_STM32L431_BearPi/Drivers/STM32L4xx_HAL_Driver/Src\stm32l4xx_hal_rcc.c ****     }
1092:D:/iot/felix2/targets/Cloud_STM32L431_BearPi/Drivers/STM32L4xx_HAL_Driver/Src\stm32l4xx_hal_rcc.c ****   }
1093:D:/iot/felix2/targets/Cloud_STM32L431_BearPi/Drivers/STM32L4xx_HAL_Driver/Src\stm32l4xx_hal_rcc.c **** 
1094:D:/iot/felix2/targets/Cloud_STM32L431_BearPi/Drivers/STM32L4xx_HAL_Driver/Src\stm32l4xx_hal_rcc.c ****   /*-------------------------- PCLK1 Configuration ---------------------------*/
1095:D:/iot/felix2/targets/Cloud_STM32L431_BearPi/Drivers/STM32L4xx_HAL_Driver/Src\stm32l4xx_hal_rcc.c ****   if(((RCC_ClkInitStruct->ClockType) & RCC_CLOCKTYPE_PCLK1) == RCC_CLOCKTYPE_PCLK1)
 1477              		.loc 1 1095 0
 1478 0138 7B68     		ldr	r3, [r7, #4]
 1479 013a 1B68     		ldr	r3, [r3]
 1480 013c 03F00403 		and	r3, r3, #4
 1481 0140 002B     		cmp	r3, #0
 1482 0142 08D0     		beq	.L105
1096:D:/iot/felix2/targets/Cloud_STM32L431_BearPi/Drivers/STM32L4xx_HAL_Driver/Src\stm32l4xx_hal_rcc.c ****   {
1097:D:/iot/felix2/targets/Cloud_STM32L431_BearPi/Drivers/STM32L4xx_HAL_Driver/Src\stm32l4xx_hal_rcc.c ****     assert_param(IS_RCC_PCLK(RCC_ClkInitStruct->APB1CLKDivider));
1098:D:/iot/felix2/targets/Cloud_STM32L431_BearPi/Drivers/STM32L4xx_HAL_Driver/Src\stm32l4xx_hal_rcc.c ****     MODIFY_REG(RCC->CFGR, RCC_CFGR_PPRE1, RCC_ClkInitStruct->APB1CLKDivider);
 1483              		.loc 1 1098 0
 1484 0144 184B     		ldr	r3, .L107+4
 1485 0146 9B68     		ldr	r3, [r3, #8]
 1486 0148 23F4E062 		bic	r2, r3, #1792
 1487 014c 7B68     		ldr	r3, [r7, #4]
 1488 014e DB68     		ldr	r3, [r3, #12]
 1489 0150 1549     		ldr	r1, .L107+4
 1490 0152 1343     		orrs	r3, r3, r2
 1491 0154 8B60     		str	r3, [r1, #8]
 1492              	.L105:
1099:D:/iot/felix2/targets/Cloud_STM32L431_BearPi/Drivers/STM32L4xx_HAL_Driver/Src\stm32l4xx_hal_rcc.c ****   }
1100:D:/iot/felix2/targets/Cloud_STM32L431_BearPi/Drivers/STM32L4xx_HAL_Driver/Src\stm32l4xx_hal_rcc.c **** 
1101:D:/iot/felix2/targets/Cloud_STM32L431_BearPi/Drivers/STM32L4xx_HAL_Driver/Src\stm32l4xx_hal_rcc.c ****   /*-------------------------- PCLK2 Configuration ---------------------------*/
1102:D:/iot/felix2/targets/Cloud_STM32L431_BearPi/Drivers/STM32L4xx_HAL_Driver/Src\stm32l4xx_hal_rcc.c ****   if(((RCC_ClkInitStruct->ClockType) & RCC_CLOCKTYPE_PCLK2) == RCC_CLOCKTYPE_PCLK2)
 1493              		.loc 1 1102 0
 1494 0156 7B68     		ldr	r3, [r7, #4]
 1495 0158 1B68     		ldr	r3, [r3]
 1496 015a 03F00803 		and	r3, r3, #8
 1497 015e 002B     		cmp	r3, #0
 1498 0160 09D0     		beq	.L106
1103:D:/iot/felix2/targets/Cloud_STM32L431_BearPi/Drivers/STM32L4xx_HAL_Driver/Src\stm32l4xx_hal_rcc.c ****   {
1104:D:/iot/felix2/targets/Cloud_STM32L431_BearPi/Drivers/STM32L4xx_HAL_Driver/Src\stm32l4xx_hal_rcc.c ****     assert_param(IS_RCC_PCLK(RCC_ClkInitStruct->APB2CLKDivider));
1105:D:/iot/felix2/targets/Cloud_STM32L431_BearPi/Drivers/STM32L4xx_HAL_Driver/Src\stm32l4xx_hal_rcc.c ****     MODIFY_REG(RCC->CFGR, RCC_CFGR_PPRE2, ((RCC_ClkInitStruct->APB2CLKDivider) << 3U));
ARM GAS  C:\Users\91458\AppData\Local\Temp\ccHvSglx.s 			page 47


 1499              		.loc 1 1105 0
 1500 0162 114B     		ldr	r3, .L107+4
 1501 0164 9B68     		ldr	r3, [r3, #8]
 1502 0166 23F46052 		bic	r2, r3, #14336
 1503 016a 7B68     		ldr	r3, [r7, #4]
 1504 016c 1B69     		ldr	r3, [r3, #16]
 1505 016e DB00     		lsls	r3, r3, #3
 1506 0170 0D49     		ldr	r1, .L107+4
 1507 0172 1343     		orrs	r3, r3, r2
 1508 0174 8B60     		str	r3, [r1, #8]
 1509              	.L106:
1106:D:/iot/felix2/targets/Cloud_STM32L431_BearPi/Drivers/STM32L4xx_HAL_Driver/Src\stm32l4xx_hal_rcc.c ****   }
1107:D:/iot/felix2/targets/Cloud_STM32L431_BearPi/Drivers/STM32L4xx_HAL_Driver/Src\stm32l4xx_hal_rcc.c **** 
1108:D:/iot/felix2/targets/Cloud_STM32L431_BearPi/Drivers/STM32L4xx_HAL_Driver/Src\stm32l4xx_hal_rcc.c ****   /* Update the SystemCoreClock global variable */
1109:D:/iot/felix2/targets/Cloud_STM32L431_BearPi/Drivers/STM32L4xx_HAL_Driver/Src\stm32l4xx_hal_rcc.c ****   SystemCoreClock = HAL_RCC_GetSysClockFreq() >> AHBPrescTable[READ_BIT(RCC->CFGR, RCC_CFGR_HPRE) >
 1510              		.loc 1 1109 0
 1511 0176 FFF7FEFF 		bl	HAL_RCC_GetSysClockFreq
 1512 017a 0146     		mov	r1, r0
 1513 017c 0A4B     		ldr	r3, .L107+4
 1514 017e 9B68     		ldr	r3, [r3, #8]
 1515 0180 1B09     		lsrs	r3, r3, #4
 1516 0182 03F00F03 		and	r3, r3, #15
 1517 0186 094A     		ldr	r2, .L107+8
 1518 0188 D35C     		ldrb	r3, [r2, r3]	@ zero_extendqisi2
 1519 018a 21FA03F3 		lsr	r3, r1, r3
 1520 018e 084A     		ldr	r2, .L107+12
 1521 0190 1360     		str	r3, [r2]
1110:D:/iot/felix2/targets/Cloud_STM32L431_BearPi/Drivers/STM32L4xx_HAL_Driver/Src\stm32l4xx_hal_rcc.c **** 
1111:D:/iot/felix2/targets/Cloud_STM32L431_BearPi/Drivers/STM32L4xx_HAL_Driver/Src\stm32l4xx_hal_rcc.c ****   /* Configure the source of time base considering new system clocks settings*/
1112:D:/iot/felix2/targets/Cloud_STM32L431_BearPi/Drivers/STM32L4xx_HAL_Driver/Src\stm32l4xx_hal_rcc.c ****   HAL_InitTick (TICK_INT_PRIORITY);
 1522              		.loc 1 1112 0
 1523 0192 0020     		movs	r0, #0
 1524 0194 FFF7FEFF 		bl	HAL_InitTick
1113:D:/iot/felix2/targets/Cloud_STM32L431_BearPi/Drivers/STM32L4xx_HAL_Driver/Src\stm32l4xx_hal_rcc.c **** 
1114:D:/iot/felix2/targets/Cloud_STM32L431_BearPi/Drivers/STM32L4xx_HAL_Driver/Src\stm32l4xx_hal_rcc.c ****   return HAL_OK;
 1525              		.loc 1 1114 0
 1526 0198 0023     		movs	r3, #0
 1527              	.L94:
1115:D:/iot/felix2/targets/Cloud_STM32L431_BearPi/Drivers/STM32L4xx_HAL_Driver/Src\stm32l4xx_hal_rcc.c **** }
 1528              		.loc 1 1115 0
 1529 019a 1846     		mov	r0, r3
 1530 019c 1037     		adds	r7, r7, #16
 1531              	.LCFI13:
 1532              		.cfi_def_cfa_offset 8
 1533 019e BD46     		mov	sp, r7
 1534              	.LCFI14:
 1535              		.cfi_def_cfa_register 13
 1536              		@ sp needed
 1537 01a0 80BD     		pop	{r7, pc}
 1538              	.L108:
 1539 01a2 00BF     		.align	2
 1540              	.L107:
 1541 01a4 00200240 		.word	1073881088
 1542 01a8 00100240 		.word	1073876992
 1543 01ac 00000000 		.word	AHBPrescTable
 1544 01b0 00000000 		.word	SystemCoreClock
 1545              		.cfi_endproc
ARM GAS  C:\Users\91458\AppData\Local\Temp\ccHvSglx.s 			page 48


 1546              	.LFE135:
 1548              		.section	.text.HAL_RCC_MCOConfig,"ax",%progbits
 1549              		.align	1
 1550              		.global	HAL_RCC_MCOConfig
 1551              		.syntax unified
 1552              		.thumb
 1553              		.thumb_func
 1554              		.fpu fpv4-sp-d16
 1556              	HAL_RCC_MCOConfig:
 1557              	.LFB136:
1116:D:/iot/felix2/targets/Cloud_STM32L431_BearPi/Drivers/STM32L4xx_HAL_Driver/Src\stm32l4xx_hal_rcc.c **** 
1117:D:/iot/felix2/targets/Cloud_STM32L431_BearPi/Drivers/STM32L4xx_HAL_Driver/Src\stm32l4xx_hal_rcc.c **** /**
1118:D:/iot/felix2/targets/Cloud_STM32L431_BearPi/Drivers/STM32L4xx_HAL_Driver/Src\stm32l4xx_hal_rcc.c ****   * @}
1119:D:/iot/felix2/targets/Cloud_STM32L431_BearPi/Drivers/STM32L4xx_HAL_Driver/Src\stm32l4xx_hal_rcc.c ****   */
1120:D:/iot/felix2/targets/Cloud_STM32L431_BearPi/Drivers/STM32L4xx_HAL_Driver/Src\stm32l4xx_hal_rcc.c **** 
1121:D:/iot/felix2/targets/Cloud_STM32L431_BearPi/Drivers/STM32L4xx_HAL_Driver/Src\stm32l4xx_hal_rcc.c **** /** @defgroup RCC_Exported_Functions_Group2 Peripheral Control functions
1122:D:/iot/felix2/targets/Cloud_STM32L431_BearPi/Drivers/STM32L4xx_HAL_Driver/Src\stm32l4xx_hal_rcc.c ****  *  @brief   RCC clocks control functions
1123:D:/iot/felix2/targets/Cloud_STM32L431_BearPi/Drivers/STM32L4xx_HAL_Driver/Src\stm32l4xx_hal_rcc.c ****  *
1124:D:/iot/felix2/targets/Cloud_STM32L431_BearPi/Drivers/STM32L4xx_HAL_Driver/Src\stm32l4xx_hal_rcc.c **** @verbatim
1125:D:/iot/felix2/targets/Cloud_STM32L431_BearPi/Drivers/STM32L4xx_HAL_Driver/Src\stm32l4xx_hal_rcc.c ****  ===============================================================================
1126:D:/iot/felix2/targets/Cloud_STM32L431_BearPi/Drivers/STM32L4xx_HAL_Driver/Src\stm32l4xx_hal_rcc.c ****                       ##### Peripheral Control functions #####
1127:D:/iot/felix2/targets/Cloud_STM32L431_BearPi/Drivers/STM32L4xx_HAL_Driver/Src\stm32l4xx_hal_rcc.c ****  ===============================================================================
1128:D:/iot/felix2/targets/Cloud_STM32L431_BearPi/Drivers/STM32L4xx_HAL_Driver/Src\stm32l4xx_hal_rcc.c ****     [..]
1129:D:/iot/felix2/targets/Cloud_STM32L431_BearPi/Drivers/STM32L4xx_HAL_Driver/Src\stm32l4xx_hal_rcc.c ****     This subsection provides a set of functions allowing to:
1130:D:/iot/felix2/targets/Cloud_STM32L431_BearPi/Drivers/STM32L4xx_HAL_Driver/Src\stm32l4xx_hal_rcc.c **** 
1131:D:/iot/felix2/targets/Cloud_STM32L431_BearPi/Drivers/STM32L4xx_HAL_Driver/Src\stm32l4xx_hal_rcc.c ****     (+) Ouput clock to MCO pin.
1132:D:/iot/felix2/targets/Cloud_STM32L431_BearPi/Drivers/STM32L4xx_HAL_Driver/Src\stm32l4xx_hal_rcc.c ****     (+) Retrieve current clock frequencies.
1133:D:/iot/felix2/targets/Cloud_STM32L431_BearPi/Drivers/STM32L4xx_HAL_Driver/Src\stm32l4xx_hal_rcc.c ****     (+) Enable the Clock Security System.
1134:D:/iot/felix2/targets/Cloud_STM32L431_BearPi/Drivers/STM32L4xx_HAL_Driver/Src\stm32l4xx_hal_rcc.c **** 
1135:D:/iot/felix2/targets/Cloud_STM32L431_BearPi/Drivers/STM32L4xx_HAL_Driver/Src\stm32l4xx_hal_rcc.c **** @endverbatim
1136:D:/iot/felix2/targets/Cloud_STM32L431_BearPi/Drivers/STM32L4xx_HAL_Driver/Src\stm32l4xx_hal_rcc.c ****   * @{
1137:D:/iot/felix2/targets/Cloud_STM32L431_BearPi/Drivers/STM32L4xx_HAL_Driver/Src\stm32l4xx_hal_rcc.c ****   */
1138:D:/iot/felix2/targets/Cloud_STM32L431_BearPi/Drivers/STM32L4xx_HAL_Driver/Src\stm32l4xx_hal_rcc.c **** 
1139:D:/iot/felix2/targets/Cloud_STM32L431_BearPi/Drivers/STM32L4xx_HAL_Driver/Src\stm32l4xx_hal_rcc.c **** /**
1140:D:/iot/felix2/targets/Cloud_STM32L431_BearPi/Drivers/STM32L4xx_HAL_Driver/Src\stm32l4xx_hal_rcc.c ****   * @brief  Select the clock source to output on MCO pin(PA8).
1141:D:/iot/felix2/targets/Cloud_STM32L431_BearPi/Drivers/STM32L4xx_HAL_Driver/Src\stm32l4xx_hal_rcc.c ****   * @note   PA8 should be configured in alternate function mode.
1142:D:/iot/felix2/targets/Cloud_STM32L431_BearPi/Drivers/STM32L4xx_HAL_Driver/Src\stm32l4xx_hal_rcc.c ****   * @param  RCC_MCOx  specifies the output direction for the clock source.
1143:D:/iot/felix2/targets/Cloud_STM32L431_BearPi/Drivers/STM32L4xx_HAL_Driver/Src\stm32l4xx_hal_rcc.c ****   *          For STM32L4xx family this parameter can have only one value:
1144:D:/iot/felix2/targets/Cloud_STM32L431_BearPi/Drivers/STM32L4xx_HAL_Driver/Src\stm32l4xx_hal_rcc.c ****   *            @arg @ref RCC_MCO1  Clock source to output on MCO1 pin(PA8).
1145:D:/iot/felix2/targets/Cloud_STM32L431_BearPi/Drivers/STM32L4xx_HAL_Driver/Src\stm32l4xx_hal_rcc.c ****   * @param  RCC_MCOSource  specifies the clock source to output.
1146:D:/iot/felix2/targets/Cloud_STM32L431_BearPi/Drivers/STM32L4xx_HAL_Driver/Src\stm32l4xx_hal_rcc.c ****   *          This parameter can be one of the following values:
1147:D:/iot/felix2/targets/Cloud_STM32L431_BearPi/Drivers/STM32L4xx_HAL_Driver/Src\stm32l4xx_hal_rcc.c ****   *            @arg @ref RCC_MCO1SOURCE_NOCLOCK  MCO output disabled, no clock on MCO
1148:D:/iot/felix2/targets/Cloud_STM32L431_BearPi/Drivers/STM32L4xx_HAL_Driver/Src\stm32l4xx_hal_rcc.c ****   *            @arg @ref RCC_MCO1SOURCE_SYSCLK  system  clock selected as MCO source
1149:D:/iot/felix2/targets/Cloud_STM32L431_BearPi/Drivers/STM32L4xx_HAL_Driver/Src\stm32l4xx_hal_rcc.c ****   *            @arg @ref RCC_MCO1SOURCE_MSI  MSI clock selected as MCO source
1150:D:/iot/felix2/targets/Cloud_STM32L431_BearPi/Drivers/STM32L4xx_HAL_Driver/Src\stm32l4xx_hal_rcc.c ****   *            @arg @ref RCC_MCO1SOURCE_HSI  HSI clock selected as MCO source
1151:D:/iot/felix2/targets/Cloud_STM32L431_BearPi/Drivers/STM32L4xx_HAL_Driver/Src\stm32l4xx_hal_rcc.c ****   *            @arg @ref RCC_MCO1SOURCE_HSE  HSE clock selected as MCO sourcee
1152:D:/iot/felix2/targets/Cloud_STM32L431_BearPi/Drivers/STM32L4xx_HAL_Driver/Src\stm32l4xx_hal_rcc.c ****   *            @arg @ref RCC_MCO1SOURCE_PLLCLK  main PLL clock selected as MCO source
1153:D:/iot/felix2/targets/Cloud_STM32L431_BearPi/Drivers/STM32L4xx_HAL_Driver/Src\stm32l4xx_hal_rcc.c ****   *            @arg @ref RCC_MCO1SOURCE_LSI  LSI clock selected as MCO source
1154:D:/iot/felix2/targets/Cloud_STM32L431_BearPi/Drivers/STM32L4xx_HAL_Driver/Src\stm32l4xx_hal_rcc.c ****   *            @arg @ref RCC_MCO1SOURCE_LSE  LSE clock selected as MCO source
1155:D:/iot/felix2/targets/Cloud_STM32L431_BearPi/Drivers/STM32L4xx_HAL_Driver/Src\stm32l4xx_hal_rcc.c ****   @if STM32L443xx
1156:D:/iot/felix2/targets/Cloud_STM32L431_BearPi/Drivers/STM32L4xx_HAL_Driver/Src\stm32l4xx_hal_rcc.c ****   *            @arg @ref RCC_MCO1SOURCE_HSI48  HSI48 clock selected as MCO source for devices with 
1157:D:/iot/felix2/targets/Cloud_STM32L431_BearPi/Drivers/STM32L4xx_HAL_Driver/Src\stm32l4xx_hal_rcc.c ****   @endif
1158:D:/iot/felix2/targets/Cloud_STM32L431_BearPi/Drivers/STM32L4xx_HAL_Driver/Src\stm32l4xx_hal_rcc.c ****   * @param  RCC_MCODiv  specifies the MCO prescaler.
1159:D:/iot/felix2/targets/Cloud_STM32L431_BearPi/Drivers/STM32L4xx_HAL_Driver/Src\stm32l4xx_hal_rcc.c ****   *          This parameter can be one of the following values:
1160:D:/iot/felix2/targets/Cloud_STM32L431_BearPi/Drivers/STM32L4xx_HAL_Driver/Src\stm32l4xx_hal_rcc.c ****   *            @arg @ref RCC_MCODIV_1  no division applied to MCO clock
1161:D:/iot/felix2/targets/Cloud_STM32L431_BearPi/Drivers/STM32L4xx_HAL_Driver/Src\stm32l4xx_hal_rcc.c ****   *            @arg @ref RCC_MCODIV_2  division by 2 applied to MCO clock
1162:D:/iot/felix2/targets/Cloud_STM32L431_BearPi/Drivers/STM32L4xx_HAL_Driver/Src\stm32l4xx_hal_rcc.c ****   *            @arg @ref RCC_MCODIV_4  division by 4 applied to MCO clock
ARM GAS  C:\Users\91458\AppData\Local\Temp\ccHvSglx.s 			page 49


1163:D:/iot/felix2/targets/Cloud_STM32L431_BearPi/Drivers/STM32L4xx_HAL_Driver/Src\stm32l4xx_hal_rcc.c ****   *            @arg @ref RCC_MCODIV_8  division by 8 applied to MCO clock
1164:D:/iot/felix2/targets/Cloud_STM32L431_BearPi/Drivers/STM32L4xx_HAL_Driver/Src\stm32l4xx_hal_rcc.c ****   *            @arg @ref RCC_MCODIV_16  division by 16 applied to MCO clock
1165:D:/iot/felix2/targets/Cloud_STM32L431_BearPi/Drivers/STM32L4xx_HAL_Driver/Src\stm32l4xx_hal_rcc.c ****   * @retval None
1166:D:/iot/felix2/targets/Cloud_STM32L431_BearPi/Drivers/STM32L4xx_HAL_Driver/Src\stm32l4xx_hal_rcc.c ****   */
1167:D:/iot/felix2/targets/Cloud_STM32L431_BearPi/Drivers/STM32L4xx_HAL_Driver/Src\stm32l4xx_hal_rcc.c **** void HAL_RCC_MCOConfig( uint32_t RCC_MCOx, uint32_t RCC_MCOSource, uint32_t RCC_MCODiv)
1168:D:/iot/felix2/targets/Cloud_STM32L431_BearPi/Drivers/STM32L4xx_HAL_Driver/Src\stm32l4xx_hal_rcc.c **** {
 1558              		.loc 1 1168 0
 1559              		.cfi_startproc
 1560              		@ args = 0, pretend = 0, frame = 40
 1561              		@ frame_needed = 1, uses_anonymous_args = 0
 1562 0000 80B5     		push	{r7, lr}
 1563              	.LCFI15:
 1564              		.cfi_def_cfa_offset 8
 1565              		.cfi_offset 7, -8
 1566              		.cfi_offset 14, -4
 1567 0002 8AB0     		sub	sp, sp, #40
 1568              	.LCFI16:
 1569              		.cfi_def_cfa_offset 48
 1570 0004 00AF     		add	r7, sp, #0
 1571              	.LCFI17:
 1572              		.cfi_def_cfa_register 7
 1573 0006 F860     		str	r0, [r7, #12]
 1574 0008 B960     		str	r1, [r7, #8]
 1575 000a 7A60     		str	r2, [r7, #4]
 1576              	.LBB4:
1169:D:/iot/felix2/targets/Cloud_STM32L431_BearPi/Drivers/STM32L4xx_HAL_Driver/Src\stm32l4xx_hal_rcc.c ****   GPIO_InitTypeDef GPIO_InitStruct;
1170:D:/iot/felix2/targets/Cloud_STM32L431_BearPi/Drivers/STM32L4xx_HAL_Driver/Src\stm32l4xx_hal_rcc.c **** 
1171:D:/iot/felix2/targets/Cloud_STM32L431_BearPi/Drivers/STM32L4xx_HAL_Driver/Src\stm32l4xx_hal_rcc.c ****   /* Check the parameters */
1172:D:/iot/felix2/targets/Cloud_STM32L431_BearPi/Drivers/STM32L4xx_HAL_Driver/Src\stm32l4xx_hal_rcc.c ****   assert_param(IS_RCC_MCO(RCC_MCOx));
1173:D:/iot/felix2/targets/Cloud_STM32L431_BearPi/Drivers/STM32L4xx_HAL_Driver/Src\stm32l4xx_hal_rcc.c ****   assert_param(IS_RCC_MCODIV(RCC_MCODiv));
1174:D:/iot/felix2/targets/Cloud_STM32L431_BearPi/Drivers/STM32L4xx_HAL_Driver/Src\stm32l4xx_hal_rcc.c ****   assert_param(IS_RCC_MCO1SOURCE(RCC_MCOSource));
1175:D:/iot/felix2/targets/Cloud_STM32L431_BearPi/Drivers/STM32L4xx_HAL_Driver/Src\stm32l4xx_hal_rcc.c **** 
1176:D:/iot/felix2/targets/Cloud_STM32L431_BearPi/Drivers/STM32L4xx_HAL_Driver/Src\stm32l4xx_hal_rcc.c ****   /* Prevent unused argument(s) compilation warning if no assert_param check */
1177:D:/iot/felix2/targets/Cloud_STM32L431_BearPi/Drivers/STM32L4xx_HAL_Driver/Src\stm32l4xx_hal_rcc.c ****   UNUSED(RCC_MCOx);
1178:D:/iot/felix2/targets/Cloud_STM32L431_BearPi/Drivers/STM32L4xx_HAL_Driver/Src\stm32l4xx_hal_rcc.c **** 
1179:D:/iot/felix2/targets/Cloud_STM32L431_BearPi/Drivers/STM32L4xx_HAL_Driver/Src\stm32l4xx_hal_rcc.c ****   /* MCO Clock Enable */
1180:D:/iot/felix2/targets/Cloud_STM32L431_BearPi/Drivers/STM32L4xx_HAL_Driver/Src\stm32l4xx_hal_rcc.c ****   __MCO1_CLK_ENABLE();
 1577              		.loc 1 1180 0
 1578 000c 154B     		ldr	r3, .L110
 1579 000e DB6C     		ldr	r3, [r3, #76]
 1580 0010 144A     		ldr	r2, .L110
 1581 0012 43F00103 		orr	r3, r3, #1
 1582 0016 D364     		str	r3, [r2, #76]
 1583 0018 124B     		ldr	r3, .L110
 1584 001a DB6C     		ldr	r3, [r3, #76]
 1585 001c 03F00103 		and	r3, r3, #1
 1586 0020 3B61     		str	r3, [r7, #16]
 1587 0022 3B69     		ldr	r3, [r7, #16]
 1588              	.LBE4:
1181:D:/iot/felix2/targets/Cloud_STM32L431_BearPi/Drivers/STM32L4xx_HAL_Driver/Src\stm32l4xx_hal_rcc.c **** 
1182:D:/iot/felix2/targets/Cloud_STM32L431_BearPi/Drivers/STM32L4xx_HAL_Driver/Src\stm32l4xx_hal_rcc.c ****   /* Configue the MCO1 pin in alternate function mode */
1183:D:/iot/felix2/targets/Cloud_STM32L431_BearPi/Drivers/STM32L4xx_HAL_Driver/Src\stm32l4xx_hal_rcc.c ****   GPIO_InitStruct.Pin = MCO1_PIN;
 1589              		.loc 1 1183 0
 1590 0024 4FF48073 		mov	r3, #256
 1591 0028 7B61     		str	r3, [r7, #20]
1184:D:/iot/felix2/targets/Cloud_STM32L431_BearPi/Drivers/STM32L4xx_HAL_Driver/Src\stm32l4xx_hal_rcc.c ****   GPIO_InitStruct.Mode = GPIO_MODE_AF_PP;
 1592              		.loc 1 1184 0
ARM GAS  C:\Users\91458\AppData\Local\Temp\ccHvSglx.s 			page 50


 1593 002a 0223     		movs	r3, #2
 1594 002c BB61     		str	r3, [r7, #24]
1185:D:/iot/felix2/targets/Cloud_STM32L431_BearPi/Drivers/STM32L4xx_HAL_Driver/Src\stm32l4xx_hal_rcc.c ****   GPIO_InitStruct.Speed = GPIO_SPEED_FREQ_HIGH;
 1595              		.loc 1 1185 0
 1596 002e 0223     		movs	r3, #2
 1597 0030 3B62     		str	r3, [r7, #32]
1186:D:/iot/felix2/targets/Cloud_STM32L431_BearPi/Drivers/STM32L4xx_HAL_Driver/Src\stm32l4xx_hal_rcc.c ****   GPIO_InitStruct.Pull = GPIO_NOPULL;
 1598              		.loc 1 1186 0
 1599 0032 0023     		movs	r3, #0
 1600 0034 FB61     		str	r3, [r7, #28]
1187:D:/iot/felix2/targets/Cloud_STM32L431_BearPi/Drivers/STM32L4xx_HAL_Driver/Src\stm32l4xx_hal_rcc.c ****   GPIO_InitStruct.Alternate = GPIO_AF0_MCO;
 1601              		.loc 1 1187 0
 1602 0036 0023     		movs	r3, #0
 1603 0038 7B62     		str	r3, [r7, #36]
1188:D:/iot/felix2/targets/Cloud_STM32L431_BearPi/Drivers/STM32L4xx_HAL_Driver/Src\stm32l4xx_hal_rcc.c ****   HAL_GPIO_Init(MCO1_GPIO_PORT, &GPIO_InitStruct);
 1604              		.loc 1 1188 0
 1605 003a 07F11403 		add	r3, r7, #20
 1606 003e 1946     		mov	r1, r3
 1607 0040 4FF09040 		mov	r0, #1207959552
 1608 0044 FFF7FEFF 		bl	HAL_GPIO_Init
1189:D:/iot/felix2/targets/Cloud_STM32L431_BearPi/Drivers/STM32L4xx_HAL_Driver/Src\stm32l4xx_hal_rcc.c **** 
1190:D:/iot/felix2/targets/Cloud_STM32L431_BearPi/Drivers/STM32L4xx_HAL_Driver/Src\stm32l4xx_hal_rcc.c ****   /* Mask MCOSEL[] and MCOPRE[] bits then set MCO1 clock source and prescaler */
1191:D:/iot/felix2/targets/Cloud_STM32L431_BearPi/Drivers/STM32L4xx_HAL_Driver/Src\stm32l4xx_hal_rcc.c ****   MODIFY_REG(RCC->CFGR, (RCC_CFGR_MCOSEL | RCC_CFGR_MCOPRE), (RCC_MCOSource | RCC_MCODiv ));
 1609              		.loc 1 1191 0
 1610 0048 064B     		ldr	r3, .L110
 1611 004a 9B68     		ldr	r3, [r3, #8]
 1612 004c 23F0FE42 		bic	r2, r3, #2130706432
 1613 0050 B968     		ldr	r1, [r7, #8]
 1614 0052 7B68     		ldr	r3, [r7, #4]
 1615 0054 0B43     		orrs	r3, r3, r1
 1616 0056 0349     		ldr	r1, .L110
 1617 0058 1343     		orrs	r3, r3, r2
 1618 005a 8B60     		str	r3, [r1, #8]
1192:D:/iot/felix2/targets/Cloud_STM32L431_BearPi/Drivers/STM32L4xx_HAL_Driver/Src\stm32l4xx_hal_rcc.c **** }
 1619              		.loc 1 1192 0
 1620 005c 00BF     		nop
 1621 005e 2837     		adds	r7, r7, #40
 1622              	.LCFI18:
 1623              		.cfi_def_cfa_offset 8
 1624 0060 BD46     		mov	sp, r7
 1625              	.LCFI19:
 1626              		.cfi_def_cfa_register 13
 1627              		@ sp needed
 1628 0062 80BD     		pop	{r7, pc}
 1629              	.L111:
 1630              		.align	2
 1631              	.L110:
 1632 0064 00100240 		.word	1073876992
 1633              		.cfi_endproc
 1634              	.LFE136:
 1636              		.section	.text.HAL_RCC_GetSysClockFreq,"ax",%progbits
 1637              		.align	1
 1638              		.global	HAL_RCC_GetSysClockFreq
 1639              		.syntax unified
 1640              		.thumb
 1641              		.thumb_func
 1642              		.fpu fpv4-sp-d16
ARM GAS  C:\Users\91458\AppData\Local\Temp\ccHvSglx.s 			page 51


 1644              	HAL_RCC_GetSysClockFreq:
 1645              	.LFB137:
1193:D:/iot/felix2/targets/Cloud_STM32L431_BearPi/Drivers/STM32L4xx_HAL_Driver/Src\stm32l4xx_hal_rcc.c **** 
1194:D:/iot/felix2/targets/Cloud_STM32L431_BearPi/Drivers/STM32L4xx_HAL_Driver/Src\stm32l4xx_hal_rcc.c **** /**
1195:D:/iot/felix2/targets/Cloud_STM32L431_BearPi/Drivers/STM32L4xx_HAL_Driver/Src\stm32l4xx_hal_rcc.c ****   * @brief  Return the SYSCLK frequency.
1196:D:/iot/felix2/targets/Cloud_STM32L431_BearPi/Drivers/STM32L4xx_HAL_Driver/Src\stm32l4xx_hal_rcc.c ****   *
1197:D:/iot/felix2/targets/Cloud_STM32L431_BearPi/Drivers/STM32L4xx_HAL_Driver/Src\stm32l4xx_hal_rcc.c ****   * @note   The system frequency computed by this function is not the real
1198:D:/iot/felix2/targets/Cloud_STM32L431_BearPi/Drivers/STM32L4xx_HAL_Driver/Src\stm32l4xx_hal_rcc.c ****   *         frequency in the chip. It is calculated based on the predefined
1199:D:/iot/felix2/targets/Cloud_STM32L431_BearPi/Drivers/STM32L4xx_HAL_Driver/Src\stm32l4xx_hal_rcc.c ****   *         constant and the selected clock source:
1200:D:/iot/felix2/targets/Cloud_STM32L431_BearPi/Drivers/STM32L4xx_HAL_Driver/Src\stm32l4xx_hal_rcc.c ****   * @note     If SYSCLK source is MSI, function returns values based on MSI
1201:D:/iot/felix2/targets/Cloud_STM32L431_BearPi/Drivers/STM32L4xx_HAL_Driver/Src\stm32l4xx_hal_rcc.c ****   *             Value as defined by the MSI range.
1202:D:/iot/felix2/targets/Cloud_STM32L431_BearPi/Drivers/STM32L4xx_HAL_Driver/Src\stm32l4xx_hal_rcc.c ****   * @note     If SYSCLK source is HSI, function returns values based on HSI_VALUE(*)
1203:D:/iot/felix2/targets/Cloud_STM32L431_BearPi/Drivers/STM32L4xx_HAL_Driver/Src\stm32l4xx_hal_rcc.c ****   * @note     If SYSCLK source is HSE, function returns values based on HSE_VALUE(**)
1204:D:/iot/felix2/targets/Cloud_STM32L431_BearPi/Drivers/STM32L4xx_HAL_Driver/Src\stm32l4xx_hal_rcc.c ****   * @note     If SYSCLK source is PLL, function returns values based on HSE_VALUE(**),
1205:D:/iot/felix2/targets/Cloud_STM32L431_BearPi/Drivers/STM32L4xx_HAL_Driver/Src\stm32l4xx_hal_rcc.c ****   *           HSI_VALUE(*) or MSI Value multiplied/divided by the PLL factors.
1206:D:/iot/felix2/targets/Cloud_STM32L431_BearPi/Drivers/STM32L4xx_HAL_Driver/Src\stm32l4xx_hal_rcc.c ****   * @note     (*) HSI_VALUE is a constant defined in stm32l4xx_hal_conf.h file (default value
1207:D:/iot/felix2/targets/Cloud_STM32L431_BearPi/Drivers/STM32L4xx_HAL_Driver/Src\stm32l4xx_hal_rcc.c ****   *               16 MHz) but the real value may vary depending on the variations
1208:D:/iot/felix2/targets/Cloud_STM32L431_BearPi/Drivers/STM32L4xx_HAL_Driver/Src\stm32l4xx_hal_rcc.c ****   *               in voltage and temperature.
1209:D:/iot/felix2/targets/Cloud_STM32L431_BearPi/Drivers/STM32L4xx_HAL_Driver/Src\stm32l4xx_hal_rcc.c ****   * @note     (**) HSE_VALUE is a constant defined in stm32l4xx_hal_conf.h file (default value
1210:D:/iot/felix2/targets/Cloud_STM32L431_BearPi/Drivers/STM32L4xx_HAL_Driver/Src\stm32l4xx_hal_rcc.c ****   *                8 MHz), user has to ensure that HSE_VALUE is same as the real
1211:D:/iot/felix2/targets/Cloud_STM32L431_BearPi/Drivers/STM32L4xx_HAL_Driver/Src\stm32l4xx_hal_rcc.c ****   *                frequency of the crystal used. Otherwise, this function may
1212:D:/iot/felix2/targets/Cloud_STM32L431_BearPi/Drivers/STM32L4xx_HAL_Driver/Src\stm32l4xx_hal_rcc.c ****   *                have wrong result.
1213:D:/iot/felix2/targets/Cloud_STM32L431_BearPi/Drivers/STM32L4xx_HAL_Driver/Src\stm32l4xx_hal_rcc.c ****   *
1214:D:/iot/felix2/targets/Cloud_STM32L431_BearPi/Drivers/STM32L4xx_HAL_Driver/Src\stm32l4xx_hal_rcc.c ****   * @note   The result of this function could be not correct when using fractional
1215:D:/iot/felix2/targets/Cloud_STM32L431_BearPi/Drivers/STM32L4xx_HAL_Driver/Src\stm32l4xx_hal_rcc.c ****   *         value for HSE crystal.
1216:D:/iot/felix2/targets/Cloud_STM32L431_BearPi/Drivers/STM32L4xx_HAL_Driver/Src\stm32l4xx_hal_rcc.c ****   *
1217:D:/iot/felix2/targets/Cloud_STM32L431_BearPi/Drivers/STM32L4xx_HAL_Driver/Src\stm32l4xx_hal_rcc.c ****   * @note   This function can be used by the user application to compute the
1218:D:/iot/felix2/targets/Cloud_STM32L431_BearPi/Drivers/STM32L4xx_HAL_Driver/Src\stm32l4xx_hal_rcc.c ****   *         baudrate for the communication peripherals or configure other parameters.
1219:D:/iot/felix2/targets/Cloud_STM32L431_BearPi/Drivers/STM32L4xx_HAL_Driver/Src\stm32l4xx_hal_rcc.c ****   *
1220:D:/iot/felix2/targets/Cloud_STM32L431_BearPi/Drivers/STM32L4xx_HAL_Driver/Src\stm32l4xx_hal_rcc.c ****   * @note   Each time SYSCLK changes, this function must be called to update the
1221:D:/iot/felix2/targets/Cloud_STM32L431_BearPi/Drivers/STM32L4xx_HAL_Driver/Src\stm32l4xx_hal_rcc.c ****   *         right SYSCLK value. Otherwise, any configuration based on this function will be incorre
1222:D:/iot/felix2/targets/Cloud_STM32L431_BearPi/Drivers/STM32L4xx_HAL_Driver/Src\stm32l4xx_hal_rcc.c ****   *
1223:D:/iot/felix2/targets/Cloud_STM32L431_BearPi/Drivers/STM32L4xx_HAL_Driver/Src\stm32l4xx_hal_rcc.c ****   *
1224:D:/iot/felix2/targets/Cloud_STM32L431_BearPi/Drivers/STM32L4xx_HAL_Driver/Src\stm32l4xx_hal_rcc.c ****   * @retval SYSCLK frequency
1225:D:/iot/felix2/targets/Cloud_STM32L431_BearPi/Drivers/STM32L4xx_HAL_Driver/Src\stm32l4xx_hal_rcc.c ****   */
1226:D:/iot/felix2/targets/Cloud_STM32L431_BearPi/Drivers/STM32L4xx_HAL_Driver/Src\stm32l4xx_hal_rcc.c **** uint32_t HAL_RCC_GetSysClockFreq(void)
1227:D:/iot/felix2/targets/Cloud_STM32L431_BearPi/Drivers/STM32L4xx_HAL_Driver/Src\stm32l4xx_hal_rcc.c **** {
 1646              		.loc 1 1227 0
 1647              		.cfi_startproc
 1648              		@ args = 0, pretend = 0, frame = 24
 1649              		@ frame_needed = 1, uses_anonymous_args = 0
 1650              		@ link register save eliminated.
 1651 0000 80B4     		push	{r7}
 1652              	.LCFI20:
 1653              		.cfi_def_cfa_offset 4
 1654              		.cfi_offset 7, -4
 1655 0002 87B0     		sub	sp, sp, #28
 1656              	.LCFI21:
 1657              		.cfi_def_cfa_offset 32
 1658 0004 00AF     		add	r7, sp, #0
 1659              	.LCFI22:
 1660              		.cfi_def_cfa_register 7
1228:D:/iot/felix2/targets/Cloud_STM32L431_BearPi/Drivers/STM32L4xx_HAL_Driver/Src\stm32l4xx_hal_rcc.c ****   uint32_t msirange = 0U, pllvco = 0U, pllsource = 0U, pllr = 2U, pllm = 2U;
 1661              		.loc 1 1228 0
 1662 0006 0023     		movs	r3, #0
 1663 0008 7B61     		str	r3, [r7, #20]
 1664 000a 0023     		movs	r3, #0
ARM GAS  C:\Users\91458\AppData\Local\Temp\ccHvSglx.s 			page 52


 1665 000c 3B61     		str	r3, [r7, #16]
 1666 000e 0023     		movs	r3, #0
 1667 0010 BB60     		str	r3, [r7, #8]
 1668 0012 0223     		movs	r3, #2
 1669 0014 7B60     		str	r3, [r7, #4]
 1670 0016 0223     		movs	r3, #2
 1671 0018 3B60     		str	r3, [r7]
1229:D:/iot/felix2/targets/Cloud_STM32L431_BearPi/Drivers/STM32L4xx_HAL_Driver/Src\stm32l4xx_hal_rcc.c ****   uint32_t sysclockfreq = 0U;
 1672              		.loc 1 1229 0
 1673 001a 0023     		movs	r3, #0
 1674 001c FB60     		str	r3, [r7, #12]
1230:D:/iot/felix2/targets/Cloud_STM32L431_BearPi/Drivers/STM32L4xx_HAL_Driver/Src\stm32l4xx_hal_rcc.c **** 
1231:D:/iot/felix2/targets/Cloud_STM32L431_BearPi/Drivers/STM32L4xx_HAL_Driver/Src\stm32l4xx_hal_rcc.c ****   if((__HAL_RCC_GET_SYSCLK_SOURCE() == RCC_CFGR_SWS_MSI) ||
 1675              		.loc 1 1231 0
 1676 001e 4C4B     		ldr	r3, .L127
 1677 0020 9B68     		ldr	r3, [r3, #8]
 1678 0022 03F00C03 		and	r3, r3, #12
 1679 0026 002B     		cmp	r3, #0
 1680 0028 0BD0     		beq	.L113
1232:D:/iot/felix2/targets/Cloud_STM32L431_BearPi/Drivers/STM32L4xx_HAL_Driver/Src\stm32l4xx_hal_rcc.c ****      ((__HAL_RCC_GET_SYSCLK_SOURCE() == RCC_CFGR_SWS_PLL) && (__HAL_RCC_GET_PLL_OSCSOURCE() == RCC_
 1681              		.loc 1 1232 0 discriminator 1
 1682 002a 494B     		ldr	r3, .L127
 1683 002c 9B68     		ldr	r3, [r3, #8]
 1684 002e 03F00C03 		and	r3, r3, #12
1231:D:/iot/felix2/targets/Cloud_STM32L431_BearPi/Drivers/STM32L4xx_HAL_Driver/Src\stm32l4xx_hal_rcc.c ****      ((__HAL_RCC_GET_SYSCLK_SOURCE() == RCC_CFGR_SWS_PLL) && (__HAL_RCC_GET_PLL_OSCSOURCE() == RCC_
 1685              		.loc 1 1231 0 discriminator 1
 1686 0032 0C2B     		cmp	r3, #12
 1687 0034 27D1     		bne	.L114
 1688              		.loc 1 1232 0
 1689 0036 464B     		ldr	r3, .L127
 1690 0038 DB68     		ldr	r3, [r3, #12]
 1691 003a 03F00303 		and	r3, r3, #3
 1692 003e 012B     		cmp	r3, #1
 1693 0040 21D1     		bne	.L114
 1694              	.L113:
1233:D:/iot/felix2/targets/Cloud_STM32L431_BearPi/Drivers/STM32L4xx_HAL_Driver/Src\stm32l4xx_hal_rcc.c ****   {
1234:D:/iot/felix2/targets/Cloud_STM32L431_BearPi/Drivers/STM32L4xx_HAL_Driver/Src\stm32l4xx_hal_rcc.c ****     /* MSI or PLL with MSI source used as system clock source */
1235:D:/iot/felix2/targets/Cloud_STM32L431_BearPi/Drivers/STM32L4xx_HAL_Driver/Src\stm32l4xx_hal_rcc.c **** 
