ARM GAS  C:\Users\91458\AppData\Local\Temp\ccdbzqVS.s 			page 1


   1              		.cpu cortex-m4
   2              		.eabi_attribute 27, 1
   3              		.eabi_attribute 28, 1
   4              		.eabi_attribute 20, 1
   5              		.eabi_attribute 21, 1
   6              		.eabi_attribute 23, 3
   7              		.eabi_attribute 24, 1
   8              		.eabi_attribute 25, 1
   9              		.eabi_attribute 26, 1
  10              		.eabi_attribute 30, 6
  11              		.eabi_attribute 34, 1
  12              		.eabi_attribute 18, 4
  13              		.file	"stm32l4xx_hal_dma.c"
  14              		.text
  15              	.Ltext0:
  16              		.cfi_sections	.debug_frame
  17              		.section	.text.HAL_DMA_Init,"ax",%progbits
  18              		.align	1
  19              		.global	HAL_DMA_Init
  20              		.syntax unified
  21              		.thumb
  22              		.thumb_func
  23              		.fpu fpv4-sp-d16
  25              	HAL_DMA_Init:
  26              	.LFB133:
  27              		.file 1 "D:/iot/felix2/targets/Cloud_STM32L431_BearPi/Drivers/STM32L4xx_HAL_Driver/Src/stm32l4xx_h
   1:D:/iot/felix2/targets/Cloud_STM32L431_BearPi/Drivers/STM32L4xx_HAL_Driver/Src\stm32l4xx_hal_dma.c **** /**
   2:D:/iot/felix2/targets/Cloud_STM32L431_BearPi/Drivers/STM32L4xx_HAL_Driver/Src\stm32l4xx_hal_dma.c ****   ******************************************************************************
   3:D:/iot/felix2/targets/Cloud_STM32L431_BearPi/Drivers/STM32L4xx_HAL_Driver/Src\stm32l4xx_hal_dma.c ****   * @file    stm32l4xx_hal_dma.c
   4:D:/iot/felix2/targets/Cloud_STM32L431_BearPi/Drivers/STM32L4xx_HAL_Driver/Src\stm32l4xx_hal_dma.c ****   * @author  MCD Application Team
   5:D:/iot/felix2/targets/Cloud_STM32L431_BearPi/Drivers/STM32L4xx_HAL_Driver/Src\stm32l4xx_hal_dma.c ****   * @brief   DMA HAL module driver.
   6:D:/iot/felix2/targets/Cloud_STM32L431_BearPi/Drivers/STM32L4xx_HAL_Driver/Src\stm32l4xx_hal_dma.c ****   *         This file provides firmware functions to manage the following
   7:D:/iot/felix2/targets/Cloud_STM32L431_BearPi/Drivers/STM32L4xx_HAL_Driver/Src\stm32l4xx_hal_dma.c ****   *         functionalities of the Direct Memory Access (DMA) peripheral:
   8:D:/iot/felix2/targets/Cloud_STM32L431_BearPi/Drivers/STM32L4xx_HAL_Driver/Src\stm32l4xx_hal_dma.c ****   *           + Initialization and de-initialization functions
   9:D:/iot/felix2/targets/Cloud_STM32L431_BearPi/Drivers/STM32L4xx_HAL_Driver/Src\stm32l4xx_hal_dma.c ****   *           + IO operation functions
  10:D:/iot/felix2/targets/Cloud_STM32L431_BearPi/Drivers/STM32L4xx_HAL_Driver/Src\stm32l4xx_hal_dma.c ****   *           + Peripheral State and errors functions
  11:D:/iot/felix2/targets/Cloud_STM32L431_BearPi/Drivers/STM32L4xx_HAL_Driver/Src\stm32l4xx_hal_dma.c ****   @verbatim
  12:D:/iot/felix2/targets/Cloud_STM32L431_BearPi/Drivers/STM32L4xx_HAL_Driver/Src\stm32l4xx_hal_dma.c ****   ==============================================================================
  13:D:/iot/felix2/targets/Cloud_STM32L431_BearPi/Drivers/STM32L4xx_HAL_Driver/Src\stm32l4xx_hal_dma.c ****                         ##### How to use this driver #####
  14:D:/iot/felix2/targets/Cloud_STM32L431_BearPi/Drivers/STM32L4xx_HAL_Driver/Src\stm32l4xx_hal_dma.c ****   ==============================================================================
  15:D:/iot/felix2/targets/Cloud_STM32L431_BearPi/Drivers/STM32L4xx_HAL_Driver/Src\stm32l4xx_hal_dma.c ****   [..]
  16:D:/iot/felix2/targets/Cloud_STM32L431_BearPi/Drivers/STM32L4xx_HAL_Driver/Src\stm32l4xx_hal_dma.c ****    (#) Enable and configure the peripheral to be connected to the DMA Channel
  17:D:/iot/felix2/targets/Cloud_STM32L431_BearPi/Drivers/STM32L4xx_HAL_Driver/Src\stm32l4xx_hal_dma.c ****        (except for internal SRAM / FLASH memories: no initialization is
  18:D:/iot/felix2/targets/Cloud_STM32L431_BearPi/Drivers/STM32L4xx_HAL_Driver/Src\stm32l4xx_hal_dma.c ****        necessary). Please refer to the Reference manual for connection between peripherals
  19:D:/iot/felix2/targets/Cloud_STM32L431_BearPi/Drivers/STM32L4xx_HAL_Driver/Src\stm32l4xx_hal_dma.c ****        and DMA requests.
  20:D:/iot/felix2/targets/Cloud_STM32L431_BearPi/Drivers/STM32L4xx_HAL_Driver/Src\stm32l4xx_hal_dma.c **** 
  21:D:/iot/felix2/targets/Cloud_STM32L431_BearPi/Drivers/STM32L4xx_HAL_Driver/Src\stm32l4xx_hal_dma.c ****    (#) For a given Channel, program the required configuration through the following parameters:
  22:D:/iot/felix2/targets/Cloud_STM32L431_BearPi/Drivers/STM32L4xx_HAL_Driver/Src\stm32l4xx_hal_dma.c ****        Channel request, Transfer Direction, Source and Destination data formats,
  23:D:/iot/felix2/targets/Cloud_STM32L431_BearPi/Drivers/STM32L4xx_HAL_Driver/Src\stm32l4xx_hal_dma.c ****        Circular or Normal mode, Channel Priority level, Source and Destination Increment mode
  24:D:/iot/felix2/targets/Cloud_STM32L431_BearPi/Drivers/STM32L4xx_HAL_Driver/Src\stm32l4xx_hal_dma.c ****        using HAL_DMA_Init() function.
  25:D:/iot/felix2/targets/Cloud_STM32L431_BearPi/Drivers/STM32L4xx_HAL_Driver/Src\stm32l4xx_hal_dma.c **** 
  26:D:/iot/felix2/targets/Cloud_STM32L431_BearPi/Drivers/STM32L4xx_HAL_Driver/Src\stm32l4xx_hal_dma.c ****        Prior to HAL_DMA_Init the peripheral clock shall be enabled for both DMA & DMAMUX
  27:D:/iot/felix2/targets/Cloud_STM32L431_BearPi/Drivers/STM32L4xx_HAL_Driver/Src\stm32l4xx_hal_dma.c ****        thanks to:
  28:D:/iot/felix2/targets/Cloud_STM32L431_BearPi/Drivers/STM32L4xx_HAL_Driver/Src\stm32l4xx_hal_dma.c ****       (##) DMA1 or DMA2: __HAL_RCC_DMA1_CLK_ENABLE() or  __HAL_RCC_DMA2_CLK_ENABLE() ;
  29:D:/iot/felix2/targets/Cloud_STM32L431_BearPi/Drivers/STM32L4xx_HAL_Driver/Src\stm32l4xx_hal_dma.c ****       (##) DMAMUX1:      __HAL_RCC_DMAMUX1_CLK_ENABLE();
  30:D:/iot/felix2/targets/Cloud_STM32L431_BearPi/Drivers/STM32L4xx_HAL_Driver/Src\stm32l4xx_hal_dma.c **** 
  31:D:/iot/felix2/targets/Cloud_STM32L431_BearPi/Drivers/STM32L4xx_HAL_Driver/Src\stm32l4xx_hal_dma.c ****    (#) Use HAL_DMA_GetState() function to return the DMA state and HAL_DMA_GetError() in case of er
ARM GAS  C:\Users\91458\AppData\Local\Temp\ccdbzqVS.s 			page 2


  32:D:/iot/felix2/targets/Cloud_STM32L431_BearPi/Drivers/STM32L4xx_HAL_Driver/Src\stm32l4xx_hal_dma.c ****        detection.
  33:D:/iot/felix2/targets/Cloud_STM32L431_BearPi/Drivers/STM32L4xx_HAL_Driver/Src\stm32l4xx_hal_dma.c **** 
  34:D:/iot/felix2/targets/Cloud_STM32L431_BearPi/Drivers/STM32L4xx_HAL_Driver/Src\stm32l4xx_hal_dma.c ****    (#) Use HAL_DMA_Abort() function to abort the current transfer
  35:D:/iot/felix2/targets/Cloud_STM32L431_BearPi/Drivers/STM32L4xx_HAL_Driver/Src\stm32l4xx_hal_dma.c **** 
  36:D:/iot/felix2/targets/Cloud_STM32L431_BearPi/Drivers/STM32L4xx_HAL_Driver/Src\stm32l4xx_hal_dma.c ****      -@-   In Memory-to-Memory transfer mode, Circular mode is not allowed.
  37:D:/iot/felix2/targets/Cloud_STM32L431_BearPi/Drivers/STM32L4xx_HAL_Driver/Src\stm32l4xx_hal_dma.c **** 
  38:D:/iot/felix2/targets/Cloud_STM32L431_BearPi/Drivers/STM32L4xx_HAL_Driver/Src\stm32l4xx_hal_dma.c ****      *** Polling mode IO operation ***
  39:D:/iot/felix2/targets/Cloud_STM32L431_BearPi/Drivers/STM32L4xx_HAL_Driver/Src\stm32l4xx_hal_dma.c ****      =================================
  40:D:/iot/felix2/targets/Cloud_STM32L431_BearPi/Drivers/STM32L4xx_HAL_Driver/Src\stm32l4xx_hal_dma.c ****     [..]
  41:D:/iot/felix2/targets/Cloud_STM32L431_BearPi/Drivers/STM32L4xx_HAL_Driver/Src\stm32l4xx_hal_dma.c ****           (+) Use HAL_DMA_Start() to start DMA transfer after the configuration of Source
  42:D:/iot/felix2/targets/Cloud_STM32L431_BearPi/Drivers/STM32L4xx_HAL_Driver/Src\stm32l4xx_hal_dma.c ****               address and destination address and the Length of data to be transferred
  43:D:/iot/felix2/targets/Cloud_STM32L431_BearPi/Drivers/STM32L4xx_HAL_Driver/Src\stm32l4xx_hal_dma.c ****           (+) Use HAL_DMA_PollForTransfer() to poll for the end of current transfer, in this
  44:D:/iot/felix2/targets/Cloud_STM32L431_BearPi/Drivers/STM32L4xx_HAL_Driver/Src\stm32l4xx_hal_dma.c ****               case a fixed Timeout can be configured by User depending from his application.
  45:D:/iot/felix2/targets/Cloud_STM32L431_BearPi/Drivers/STM32L4xx_HAL_Driver/Src\stm32l4xx_hal_dma.c **** 
  46:D:/iot/felix2/targets/Cloud_STM32L431_BearPi/Drivers/STM32L4xx_HAL_Driver/Src\stm32l4xx_hal_dma.c ****      *** Interrupt mode IO operation ***
  47:D:/iot/felix2/targets/Cloud_STM32L431_BearPi/Drivers/STM32L4xx_HAL_Driver/Src\stm32l4xx_hal_dma.c ****      ===================================
  48:D:/iot/felix2/targets/Cloud_STM32L431_BearPi/Drivers/STM32L4xx_HAL_Driver/Src\stm32l4xx_hal_dma.c ****     [..]
  49:D:/iot/felix2/targets/Cloud_STM32L431_BearPi/Drivers/STM32L4xx_HAL_Driver/Src\stm32l4xx_hal_dma.c ****           (+) Configure the DMA interrupt priority using HAL_NVIC_SetPriority()
  50:D:/iot/felix2/targets/Cloud_STM32L431_BearPi/Drivers/STM32L4xx_HAL_Driver/Src\stm32l4xx_hal_dma.c ****           (+) Enable the DMA IRQ handler using HAL_NVIC_EnableIRQ()
  51:D:/iot/felix2/targets/Cloud_STM32L431_BearPi/Drivers/STM32L4xx_HAL_Driver/Src\stm32l4xx_hal_dma.c ****           (+) Use HAL_DMA_Start_IT() to start DMA transfer after the configuration of
  52:D:/iot/felix2/targets/Cloud_STM32L431_BearPi/Drivers/STM32L4xx_HAL_Driver/Src\stm32l4xx_hal_dma.c ****               Source address and destination address and the Length of data to be transferred.
  53:D:/iot/felix2/targets/Cloud_STM32L431_BearPi/Drivers/STM32L4xx_HAL_Driver/Src\stm32l4xx_hal_dma.c ****               In this case the DMA interrupt is configured
  54:D:/iot/felix2/targets/Cloud_STM32L431_BearPi/Drivers/STM32L4xx_HAL_Driver/Src\stm32l4xx_hal_dma.c ****           (+) Use HAL_DMA_IRQHandler() called under DMA_IRQHandler() Interrupt subroutine
  55:D:/iot/felix2/targets/Cloud_STM32L431_BearPi/Drivers/STM32L4xx_HAL_Driver/Src\stm32l4xx_hal_dma.c ****           (+) At the end of data transfer HAL_DMA_IRQHandler() function is executed and user can
  56:D:/iot/felix2/targets/Cloud_STM32L431_BearPi/Drivers/STM32L4xx_HAL_Driver/Src\stm32l4xx_hal_dma.c ****               add his own function to register callbacks with HAL_DMA_RegisterCallback().
  57:D:/iot/felix2/targets/Cloud_STM32L431_BearPi/Drivers/STM32L4xx_HAL_Driver/Src\stm32l4xx_hal_dma.c **** 
  58:D:/iot/felix2/targets/Cloud_STM32L431_BearPi/Drivers/STM32L4xx_HAL_Driver/Src\stm32l4xx_hal_dma.c ****      *** DMA HAL driver macros list ***
  59:D:/iot/felix2/targets/Cloud_STM32L431_BearPi/Drivers/STM32L4xx_HAL_Driver/Src\stm32l4xx_hal_dma.c ****      =============================================
  60:D:/iot/felix2/targets/Cloud_STM32L431_BearPi/Drivers/STM32L4xx_HAL_Driver/Src\stm32l4xx_hal_dma.c ****       [..]
  61:D:/iot/felix2/targets/Cloud_STM32L431_BearPi/Drivers/STM32L4xx_HAL_Driver/Src\stm32l4xx_hal_dma.c ****        Below the list of macros in DMA HAL driver.
  62:D:/iot/felix2/targets/Cloud_STM32L431_BearPi/Drivers/STM32L4xx_HAL_Driver/Src\stm32l4xx_hal_dma.c **** 
  63:D:/iot/felix2/targets/Cloud_STM32L431_BearPi/Drivers/STM32L4xx_HAL_Driver/Src\stm32l4xx_hal_dma.c ****        (+) __HAL_DMA_ENABLE: Enable the specified DMA Channel.
  64:D:/iot/felix2/targets/Cloud_STM32L431_BearPi/Drivers/STM32L4xx_HAL_Driver/Src\stm32l4xx_hal_dma.c ****        (+) __HAL_DMA_DISABLE: Disable the specified DMA Channel.
  65:D:/iot/felix2/targets/Cloud_STM32L431_BearPi/Drivers/STM32L4xx_HAL_Driver/Src\stm32l4xx_hal_dma.c ****        (+) __HAL_DMA_GET_FLAG: Get the DMA Channel pending flags.
  66:D:/iot/felix2/targets/Cloud_STM32L431_BearPi/Drivers/STM32L4xx_HAL_Driver/Src\stm32l4xx_hal_dma.c ****        (+) __HAL_DMA_CLEAR_FLAG: Clear the DMA Channel pending flags.
  67:D:/iot/felix2/targets/Cloud_STM32L431_BearPi/Drivers/STM32L4xx_HAL_Driver/Src\stm32l4xx_hal_dma.c ****        (+) __HAL_DMA_ENABLE_IT: Enable the specified DMA Channel interrupts.
  68:D:/iot/felix2/targets/Cloud_STM32L431_BearPi/Drivers/STM32L4xx_HAL_Driver/Src\stm32l4xx_hal_dma.c ****        (+) __HAL_DMA_DISABLE_IT: Disable the specified DMA Channel interrupts.
  69:D:/iot/felix2/targets/Cloud_STM32L431_BearPi/Drivers/STM32L4xx_HAL_Driver/Src\stm32l4xx_hal_dma.c ****        (+) __HAL_DMA_GET_IT_SOURCE: Check whether the specified DMA Channel interrupt has occurred 
  70:D:/iot/felix2/targets/Cloud_STM32L431_BearPi/Drivers/STM32L4xx_HAL_Driver/Src\stm32l4xx_hal_dma.c **** 
  71:D:/iot/felix2/targets/Cloud_STM32L431_BearPi/Drivers/STM32L4xx_HAL_Driver/Src\stm32l4xx_hal_dma.c ****      [..]
  72:D:/iot/felix2/targets/Cloud_STM32L431_BearPi/Drivers/STM32L4xx_HAL_Driver/Src\stm32l4xx_hal_dma.c ****       (@) You can refer to the DMA HAL driver header file for more useful macros
  73:D:/iot/felix2/targets/Cloud_STM32L431_BearPi/Drivers/STM32L4xx_HAL_Driver/Src\stm32l4xx_hal_dma.c **** 
  74:D:/iot/felix2/targets/Cloud_STM32L431_BearPi/Drivers/STM32L4xx_HAL_Driver/Src\stm32l4xx_hal_dma.c ****   @endverbatim
  75:D:/iot/felix2/targets/Cloud_STM32L431_BearPi/Drivers/STM32L4xx_HAL_Driver/Src\stm32l4xx_hal_dma.c ****   ******************************************************************************
  76:D:/iot/felix2/targets/Cloud_STM32L431_BearPi/Drivers/STM32L4xx_HAL_Driver/Src\stm32l4xx_hal_dma.c ****   * @attention
  77:D:/iot/felix2/targets/Cloud_STM32L431_BearPi/Drivers/STM32L4xx_HAL_Driver/Src\stm32l4xx_hal_dma.c ****   *
  78:D:/iot/felix2/targets/Cloud_STM32L431_BearPi/Drivers/STM32L4xx_HAL_Driver/Src\stm32l4xx_hal_dma.c ****   * <h2><center>&copy; COPYRIGHT(c) 2017 STMicroelectronics</center></h2>
  79:D:/iot/felix2/targets/Cloud_STM32L431_BearPi/Drivers/STM32L4xx_HAL_Driver/Src\stm32l4xx_hal_dma.c ****   *
  80:D:/iot/felix2/targets/Cloud_STM32L431_BearPi/Drivers/STM32L4xx_HAL_Driver/Src\stm32l4xx_hal_dma.c ****   * Redistribution and use in source and binary forms, with or without modification,
  81:D:/iot/felix2/targets/Cloud_STM32L431_BearPi/Drivers/STM32L4xx_HAL_Driver/Src\stm32l4xx_hal_dma.c ****   * are permitted provided that the following conditions are met:
  82:D:/iot/felix2/targets/Cloud_STM32L431_BearPi/Drivers/STM32L4xx_HAL_Driver/Src\stm32l4xx_hal_dma.c ****   *   1. Redistributions of source code must retain the above copyright notice,
  83:D:/iot/felix2/targets/Cloud_STM32L431_BearPi/Drivers/STM32L4xx_HAL_Driver/Src\stm32l4xx_hal_dma.c ****   *      this list of conditions and the following disclaimer.
  84:D:/iot/felix2/targets/Cloud_STM32L431_BearPi/Drivers/STM32L4xx_HAL_Driver/Src\stm32l4xx_hal_dma.c ****   *   2. Redistributions in binary form must reproduce the above copyright notice,
  85:D:/iot/felix2/targets/Cloud_STM32L431_BearPi/Drivers/STM32L4xx_HAL_Driver/Src\stm32l4xx_hal_dma.c ****   *      this list of conditions and the following disclaimer in the documentation
  86:D:/iot/felix2/targets/Cloud_STM32L431_BearPi/Drivers/STM32L4xx_HAL_Driver/Src\stm32l4xx_hal_dma.c ****   *      and/or other materials provided with the distribution.
  87:D:/iot/felix2/targets/Cloud_STM32L431_BearPi/Drivers/STM32L4xx_HAL_Driver/Src\stm32l4xx_hal_dma.c ****   *   3. Neither the name of STMicroelectronics nor the names of its contributors
  88:D:/iot/felix2/targets/Cloud_STM32L431_BearPi/Drivers/STM32L4xx_HAL_Driver/Src\stm32l4xx_hal_dma.c ****   *      may be used to endorse or promote products derived from this software
ARM GAS  C:\Users\91458\AppData\Local\Temp\ccdbzqVS.s 			page 3


  89:D:/iot/felix2/targets/Cloud_STM32L431_BearPi/Drivers/STM32L4xx_HAL_Driver/Src\stm32l4xx_hal_dma.c ****   *      without specific prior written permission.
  90:D:/iot/felix2/targets/Cloud_STM32L431_BearPi/Drivers/STM32L4xx_HAL_Driver/Src\stm32l4xx_hal_dma.c ****   *
  91:D:/iot/felix2/targets/Cloud_STM32L431_BearPi/Drivers/STM32L4xx_HAL_Driver/Src\stm32l4xx_hal_dma.c ****   * THIS SOFTWARE IS PROVIDED BY THE COPYRIGHT HOLDERS AND CONTRIBUTORS "AS IS"
  92:D:/iot/felix2/targets/Cloud_STM32L431_BearPi/Drivers/STM32L4xx_HAL_Driver/Src\stm32l4xx_hal_dma.c ****   * AND ANY EXPRESS OR IMPLIED WARRANTIES, INCLUDING, BUT NOT LIMITED TO, THE
  93:D:/iot/felix2/targets/Cloud_STM32L431_BearPi/Drivers/STM32L4xx_HAL_Driver/Src\stm32l4xx_hal_dma.c ****   * IMPLIED WARRANTIES OF MERCHANTABILITY AND FITNESS FOR A PARTICULAR PURPOSE ARE
  94:D:/iot/felix2/targets/Cloud_STM32L431_BearPi/Drivers/STM32L4xx_HAL_Driver/Src\stm32l4xx_hal_dma.c ****   * DISCLAIMED. IN NO EVENT SHALL THE COPYRIGHT HOLDER OR CONTRIBUTORS BE LIABLE
  95:D:/iot/felix2/targets/Cloud_STM32L431_BearPi/Drivers/STM32L4xx_HAL_Driver/Src\stm32l4xx_hal_dma.c ****   * FOR ANY DIRECT, INDIRECT, INCIDENTAL, SPECIAL, EXEMPLARY, OR CONSEQUENTIAL
  96:D:/iot/felix2/targets/Cloud_STM32L431_BearPi/Drivers/STM32L4xx_HAL_Driver/Src\stm32l4xx_hal_dma.c ****   * DAMAGES (INCLUDING, BUT NOT LIMITED TO, PROCUREMENT OF SUBSTITUTE GOODS OR
  97:D:/iot/felix2/targets/Cloud_STM32L431_BearPi/Drivers/STM32L4xx_HAL_Driver/Src\stm32l4xx_hal_dma.c ****   * SERVICES; LOSS OF USE, DATA, OR PROFITS; OR BUSINESS INTERRUPTION) HOWEVER
  98:D:/iot/felix2/targets/Cloud_STM32L431_BearPi/Drivers/STM32L4xx_HAL_Driver/Src\stm32l4xx_hal_dma.c ****   * CAUSED AND ON ANY THEORY OF LIABILITY, WHETHER IN CONTRACT, STRICT LIABILITY,
  99:D:/iot/felix2/targets/Cloud_STM32L431_BearPi/Drivers/STM32L4xx_HAL_Driver/Src\stm32l4xx_hal_dma.c ****   * OR TORT (INCLUDING NEGLIGENCE OR OTHERWISE) ARISING IN ANY WAY OUT OF THE USE
 100:D:/iot/felix2/targets/Cloud_STM32L431_BearPi/Drivers/STM32L4xx_HAL_Driver/Src\stm32l4xx_hal_dma.c ****   * OF THIS SOFTWARE, EVEN IF ADVISED OF THE POSSIBILITY OF SUCH DAMAGE.
 101:D:/iot/felix2/targets/Cloud_STM32L431_BearPi/Drivers/STM32L4xx_HAL_Driver/Src\stm32l4xx_hal_dma.c ****   *
 102:D:/iot/felix2/targets/Cloud_STM32L431_BearPi/Drivers/STM32L4xx_HAL_Driver/Src\stm32l4xx_hal_dma.c ****   ******************************************************************************
 103:D:/iot/felix2/targets/Cloud_STM32L431_BearPi/Drivers/STM32L4xx_HAL_Driver/Src\stm32l4xx_hal_dma.c ****   */
 104:D:/iot/felix2/targets/Cloud_STM32L431_BearPi/Drivers/STM32L4xx_HAL_Driver/Src\stm32l4xx_hal_dma.c **** 
 105:D:/iot/felix2/targets/Cloud_STM32L431_BearPi/Drivers/STM32L4xx_HAL_Driver/Src\stm32l4xx_hal_dma.c **** /* Includes ------------------------------------------------------------------*/
 106:D:/iot/felix2/targets/Cloud_STM32L431_BearPi/Drivers/STM32L4xx_HAL_Driver/Src\stm32l4xx_hal_dma.c **** #include "stm32l4xx_hal.h"
 107:D:/iot/felix2/targets/Cloud_STM32L431_BearPi/Drivers/STM32L4xx_HAL_Driver/Src\stm32l4xx_hal_dma.c **** 
 108:D:/iot/felix2/targets/Cloud_STM32L431_BearPi/Drivers/STM32L4xx_HAL_Driver/Src\stm32l4xx_hal_dma.c **** /** @addtogroup STM32L4xx_HAL_Driver
 109:D:/iot/felix2/targets/Cloud_STM32L431_BearPi/Drivers/STM32L4xx_HAL_Driver/Src\stm32l4xx_hal_dma.c ****   * @{
 110:D:/iot/felix2/targets/Cloud_STM32L431_BearPi/Drivers/STM32L4xx_HAL_Driver/Src\stm32l4xx_hal_dma.c ****   */
 111:D:/iot/felix2/targets/Cloud_STM32L431_BearPi/Drivers/STM32L4xx_HAL_Driver/Src\stm32l4xx_hal_dma.c **** 
 112:D:/iot/felix2/targets/Cloud_STM32L431_BearPi/Drivers/STM32L4xx_HAL_Driver/Src\stm32l4xx_hal_dma.c **** /** @defgroup DMA DMA
 113:D:/iot/felix2/targets/Cloud_STM32L431_BearPi/Drivers/STM32L4xx_HAL_Driver/Src\stm32l4xx_hal_dma.c ****   * @brief DMA HAL module driver
 114:D:/iot/felix2/targets/Cloud_STM32L431_BearPi/Drivers/STM32L4xx_HAL_Driver/Src\stm32l4xx_hal_dma.c ****   * @{
 115:D:/iot/felix2/targets/Cloud_STM32L431_BearPi/Drivers/STM32L4xx_HAL_Driver/Src\stm32l4xx_hal_dma.c ****   */
 116:D:/iot/felix2/targets/Cloud_STM32L431_BearPi/Drivers/STM32L4xx_HAL_Driver/Src\stm32l4xx_hal_dma.c **** 
 117:D:/iot/felix2/targets/Cloud_STM32L431_BearPi/Drivers/STM32L4xx_HAL_Driver/Src\stm32l4xx_hal_dma.c **** #ifdef HAL_DMA_MODULE_ENABLED
 118:D:/iot/felix2/targets/Cloud_STM32L431_BearPi/Drivers/STM32L4xx_HAL_Driver/Src\stm32l4xx_hal_dma.c **** 
 119:D:/iot/felix2/targets/Cloud_STM32L431_BearPi/Drivers/STM32L4xx_HAL_Driver/Src\stm32l4xx_hal_dma.c **** /* Private typedef -----------------------------------------------------------*/
 120:D:/iot/felix2/targets/Cloud_STM32L431_BearPi/Drivers/STM32L4xx_HAL_Driver/Src\stm32l4xx_hal_dma.c **** /* Private define ------------------------------------------------------------*/
 121:D:/iot/felix2/targets/Cloud_STM32L431_BearPi/Drivers/STM32L4xx_HAL_Driver/Src\stm32l4xx_hal_dma.c **** /* Private macro -------------------------------------------------------------*/
 122:D:/iot/felix2/targets/Cloud_STM32L431_BearPi/Drivers/STM32L4xx_HAL_Driver/Src\stm32l4xx_hal_dma.c **** /* Private variables ---------------------------------------------------------*/
 123:D:/iot/felix2/targets/Cloud_STM32L431_BearPi/Drivers/STM32L4xx_HAL_Driver/Src\stm32l4xx_hal_dma.c **** /* Private function prototypes -----------------------------------------------*/
 124:D:/iot/felix2/targets/Cloud_STM32L431_BearPi/Drivers/STM32L4xx_HAL_Driver/Src\stm32l4xx_hal_dma.c **** /** @defgroup DMA_Private_Functions DMA Private Functions
 125:D:/iot/felix2/targets/Cloud_STM32L431_BearPi/Drivers/STM32L4xx_HAL_Driver/Src\stm32l4xx_hal_dma.c ****   * @{
 126:D:/iot/felix2/targets/Cloud_STM32L431_BearPi/Drivers/STM32L4xx_HAL_Driver/Src\stm32l4xx_hal_dma.c ****   */
 127:D:/iot/felix2/targets/Cloud_STM32L431_BearPi/Drivers/STM32L4xx_HAL_Driver/Src\stm32l4xx_hal_dma.c **** static void DMA_SetConfig(DMA_HandleTypeDef *hdma, uint32_t SrcAddress, uint32_t DstAddress, uint32
 128:D:/iot/felix2/targets/Cloud_STM32L431_BearPi/Drivers/STM32L4xx_HAL_Driver/Src\stm32l4xx_hal_dma.c **** #if defined(DMAMUX1)
 129:D:/iot/felix2/targets/Cloud_STM32L431_BearPi/Drivers/STM32L4xx_HAL_Driver/Src\stm32l4xx_hal_dma.c **** static void DMA_CalcDMAMUXChannelBaseAndMask(DMA_HandleTypeDef *hdma);
 130:D:/iot/felix2/targets/Cloud_STM32L431_BearPi/Drivers/STM32L4xx_HAL_Driver/Src\stm32l4xx_hal_dma.c **** static void DMA_CalcDMAMUXRequestGenBaseAndMask(DMA_HandleTypeDef *hdma);
 131:D:/iot/felix2/targets/Cloud_STM32L431_BearPi/Drivers/STM32L4xx_HAL_Driver/Src\stm32l4xx_hal_dma.c **** #endif /* DMAMUX1 */
 132:D:/iot/felix2/targets/Cloud_STM32L431_BearPi/Drivers/STM32L4xx_HAL_Driver/Src\stm32l4xx_hal_dma.c **** 
 133:D:/iot/felix2/targets/Cloud_STM32L431_BearPi/Drivers/STM32L4xx_HAL_Driver/Src\stm32l4xx_hal_dma.c **** /**
 134:D:/iot/felix2/targets/Cloud_STM32L431_BearPi/Drivers/STM32L4xx_HAL_Driver/Src\stm32l4xx_hal_dma.c ****   * @}
 135:D:/iot/felix2/targets/Cloud_STM32L431_BearPi/Drivers/STM32L4xx_HAL_Driver/Src\stm32l4xx_hal_dma.c ****   */
 136:D:/iot/felix2/targets/Cloud_STM32L431_BearPi/Drivers/STM32L4xx_HAL_Driver/Src\stm32l4xx_hal_dma.c **** 
 137:D:/iot/felix2/targets/Cloud_STM32L431_BearPi/Drivers/STM32L4xx_HAL_Driver/Src\stm32l4xx_hal_dma.c **** /* Exported functions ---------------------------------------------------------*/
 138:D:/iot/felix2/targets/Cloud_STM32L431_BearPi/Drivers/STM32L4xx_HAL_Driver/Src\stm32l4xx_hal_dma.c **** 
 139:D:/iot/felix2/targets/Cloud_STM32L431_BearPi/Drivers/STM32L4xx_HAL_Driver/Src\stm32l4xx_hal_dma.c **** /** @defgroup DMA_Exported_Functions DMA Exported Functions
 140:D:/iot/felix2/targets/Cloud_STM32L431_BearPi/Drivers/STM32L4xx_HAL_Driver/Src\stm32l4xx_hal_dma.c ****   * @{
 141:D:/iot/felix2/targets/Cloud_STM32L431_BearPi/Drivers/STM32L4xx_HAL_Driver/Src\stm32l4xx_hal_dma.c ****   */
 142:D:/iot/felix2/targets/Cloud_STM32L431_BearPi/Drivers/STM32L4xx_HAL_Driver/Src\stm32l4xx_hal_dma.c **** 
 143:D:/iot/felix2/targets/Cloud_STM32L431_BearPi/Drivers/STM32L4xx_HAL_Driver/Src\stm32l4xx_hal_dma.c **** /** @defgroup DMA_Exported_Functions_Group1 Initialization and de-initialization functions
 144:D:/iot/felix2/targets/Cloud_STM32L431_BearPi/Drivers/STM32L4xx_HAL_Driver/Src\stm32l4xx_hal_dma.c ****  *  @brief   Initialization and de-initialization functions
 145:D:/iot/felix2/targets/Cloud_STM32L431_BearPi/Drivers/STM32L4xx_HAL_Driver/Src\stm32l4xx_hal_dma.c ****  *
ARM GAS  C:\Users\91458\AppData\Local\Temp\ccdbzqVS.s 			page 4


 146:D:/iot/felix2/targets/Cloud_STM32L431_BearPi/Drivers/STM32L4xx_HAL_Driver/Src\stm32l4xx_hal_dma.c **** @verbatim
 147:D:/iot/felix2/targets/Cloud_STM32L431_BearPi/Drivers/STM32L4xx_HAL_Driver/Src\stm32l4xx_hal_dma.c ****  ===============================================================================
 148:D:/iot/felix2/targets/Cloud_STM32L431_BearPi/Drivers/STM32L4xx_HAL_Driver/Src\stm32l4xx_hal_dma.c ****              ##### Initialization and de-initialization functions  #####
 149:D:/iot/felix2/targets/Cloud_STM32L431_BearPi/Drivers/STM32L4xx_HAL_Driver/Src\stm32l4xx_hal_dma.c ****  ===============================================================================
 150:D:/iot/felix2/targets/Cloud_STM32L431_BearPi/Drivers/STM32L4xx_HAL_Driver/Src\stm32l4xx_hal_dma.c ****     [..]
 151:D:/iot/felix2/targets/Cloud_STM32L431_BearPi/Drivers/STM32L4xx_HAL_Driver/Src\stm32l4xx_hal_dma.c ****     This section provides functions allowing to initialize the DMA Channel source
 152:D:/iot/felix2/targets/Cloud_STM32L431_BearPi/Drivers/STM32L4xx_HAL_Driver/Src\stm32l4xx_hal_dma.c ****     and destination addresses, incrementation and data sizes, transfer direction,
 153:D:/iot/felix2/targets/Cloud_STM32L431_BearPi/Drivers/STM32L4xx_HAL_Driver/Src\stm32l4xx_hal_dma.c ****     circular/normal mode selection, memory-to-memory mode selection and Channel priority value.
 154:D:/iot/felix2/targets/Cloud_STM32L431_BearPi/Drivers/STM32L4xx_HAL_Driver/Src\stm32l4xx_hal_dma.c ****     [..]
 155:D:/iot/felix2/targets/Cloud_STM32L431_BearPi/Drivers/STM32L4xx_HAL_Driver/Src\stm32l4xx_hal_dma.c ****     The HAL_DMA_Init() function follows the DMA configuration procedures as described in
 156:D:/iot/felix2/targets/Cloud_STM32L431_BearPi/Drivers/STM32L4xx_HAL_Driver/Src\stm32l4xx_hal_dma.c ****     reference manual.
 157:D:/iot/felix2/targets/Cloud_STM32L431_BearPi/Drivers/STM32L4xx_HAL_Driver/Src\stm32l4xx_hal_dma.c **** 
 158:D:/iot/felix2/targets/Cloud_STM32L431_BearPi/Drivers/STM32L4xx_HAL_Driver/Src\stm32l4xx_hal_dma.c **** @endverbatim
 159:D:/iot/felix2/targets/Cloud_STM32L431_BearPi/Drivers/STM32L4xx_HAL_Driver/Src\stm32l4xx_hal_dma.c ****   * @{
 160:D:/iot/felix2/targets/Cloud_STM32L431_BearPi/Drivers/STM32L4xx_HAL_Driver/Src\stm32l4xx_hal_dma.c ****   */
 161:D:/iot/felix2/targets/Cloud_STM32L431_BearPi/Drivers/STM32L4xx_HAL_Driver/Src\stm32l4xx_hal_dma.c **** 
 162:D:/iot/felix2/targets/Cloud_STM32L431_BearPi/Drivers/STM32L4xx_HAL_Driver/Src\stm32l4xx_hal_dma.c **** /**
 163:D:/iot/felix2/targets/Cloud_STM32L431_BearPi/Drivers/STM32L4xx_HAL_Driver/Src\stm32l4xx_hal_dma.c ****   * @brief  Initialize the DMA according to the specified
 164:D:/iot/felix2/targets/Cloud_STM32L431_BearPi/Drivers/STM32L4xx_HAL_Driver/Src\stm32l4xx_hal_dma.c ****   *         parameters in the DMA_InitTypeDef and initialize the associated handle.
 165:D:/iot/felix2/targets/Cloud_STM32L431_BearPi/Drivers/STM32L4xx_HAL_Driver/Src\stm32l4xx_hal_dma.c ****   * @param  hdma Pointer to a DMA_HandleTypeDef structure that contains
 166:D:/iot/felix2/targets/Cloud_STM32L431_BearPi/Drivers/STM32L4xx_HAL_Driver/Src\stm32l4xx_hal_dma.c ****   *               the configuration information for the specified DMA Channel.
 167:D:/iot/felix2/targets/Cloud_STM32L431_BearPi/Drivers/STM32L4xx_HAL_Driver/Src\stm32l4xx_hal_dma.c ****   * @retval HAL status
 168:D:/iot/felix2/targets/Cloud_STM32L431_BearPi/Drivers/STM32L4xx_HAL_Driver/Src\stm32l4xx_hal_dma.c ****   */
 169:D:/iot/felix2/targets/Cloud_STM32L431_BearPi/Drivers/STM32L4xx_HAL_Driver/Src\stm32l4xx_hal_dma.c **** HAL_StatusTypeDef HAL_DMA_Init(DMA_HandleTypeDef *hdma)
 170:D:/iot/felix2/targets/Cloud_STM32L431_BearPi/Drivers/STM32L4xx_HAL_Driver/Src\stm32l4xx_hal_dma.c **** {
  28              		.loc 1 170 0
  29              		.cfi_startproc
  30              		@ args = 0, pretend = 0, frame = 16
  31              		@ frame_needed = 1, uses_anonymous_args = 0
  32              		@ link register save eliminated.
  33 0000 80B4     		push	{r7}
  34              	.LCFI0:
  35              		.cfi_def_cfa_offset 4
  36              		.cfi_offset 7, -4
  37 0002 85B0     		sub	sp, sp, #20
  38              	.LCFI1:
  39              		.cfi_def_cfa_offset 24
  40 0004 00AF     		add	r7, sp, #0
  41              	.LCFI2:
  42              		.cfi_def_cfa_register 7
  43 0006 7860     		str	r0, [r7, #4]
 171:D:/iot/felix2/targets/Cloud_STM32L431_BearPi/Drivers/STM32L4xx_HAL_Driver/Src\stm32l4xx_hal_dma.c ****   uint32_t tmp;
 172:D:/iot/felix2/targets/Cloud_STM32L431_BearPi/Drivers/STM32L4xx_HAL_Driver/Src\stm32l4xx_hal_dma.c **** 
 173:D:/iot/felix2/targets/Cloud_STM32L431_BearPi/Drivers/STM32L4xx_HAL_Driver/Src\stm32l4xx_hal_dma.c ****   /* Check the DMA handle allocation */
 174:D:/iot/felix2/targets/Cloud_STM32L431_BearPi/Drivers/STM32L4xx_HAL_Driver/Src\stm32l4xx_hal_dma.c ****   if(hdma == NULL)
  44              		.loc 1 174 0
  45 0008 7B68     		ldr	r3, [r7, #4]
  46 000a 002B     		cmp	r3, #0
  47 000c 01D1     		bne	.L2
 175:D:/iot/felix2/targets/Cloud_STM32L431_BearPi/Drivers/STM32L4xx_HAL_Driver/Src\stm32l4xx_hal_dma.c ****   {
 176:D:/iot/felix2/targets/Cloud_STM32L431_BearPi/Drivers/STM32L4xx_HAL_Driver/Src\stm32l4xx_hal_dma.c ****     return HAL_ERROR;
  48              		.loc 1 176 0
  49 000e 0123     		movs	r3, #1
  50 0010 98E0     		b	.L3
  51              	.L2:
 177:D:/iot/felix2/targets/Cloud_STM32L431_BearPi/Drivers/STM32L4xx_HAL_Driver/Src\stm32l4xx_hal_dma.c ****   }
 178:D:/iot/felix2/targets/Cloud_STM32L431_BearPi/Drivers/STM32L4xx_HAL_Driver/Src\stm32l4xx_hal_dma.c **** 
ARM GAS  C:\Users\91458\AppData\Local\Temp\ccdbzqVS.s 			page 5


 179:D:/iot/felix2/targets/Cloud_STM32L431_BearPi/Drivers/STM32L4xx_HAL_Driver/Src\stm32l4xx_hal_dma.c ****   /* Check the parameters */
 180:D:/iot/felix2/targets/Cloud_STM32L431_BearPi/Drivers/STM32L4xx_HAL_Driver/Src\stm32l4xx_hal_dma.c ****   assert_param(IS_DMA_ALL_INSTANCE(hdma->Instance));
 181:D:/iot/felix2/targets/Cloud_STM32L431_BearPi/Drivers/STM32L4xx_HAL_Driver/Src\stm32l4xx_hal_dma.c ****   assert_param(IS_DMA_DIRECTION(hdma->Init.Direction));
 182:D:/iot/felix2/targets/Cloud_STM32L431_BearPi/Drivers/STM32L4xx_HAL_Driver/Src\stm32l4xx_hal_dma.c ****   assert_param(IS_DMA_PERIPHERAL_INC_STATE(hdma->Init.PeriphInc));
 183:D:/iot/felix2/targets/Cloud_STM32L431_BearPi/Drivers/STM32L4xx_HAL_Driver/Src\stm32l4xx_hal_dma.c ****   assert_param(IS_DMA_MEMORY_INC_STATE(hdma->Init.MemInc));
 184:D:/iot/felix2/targets/Cloud_STM32L431_BearPi/Drivers/STM32L4xx_HAL_Driver/Src\stm32l4xx_hal_dma.c ****   assert_param(IS_DMA_PERIPHERAL_DATA_SIZE(hdma->Init.PeriphDataAlignment));
 185:D:/iot/felix2/targets/Cloud_STM32L431_BearPi/Drivers/STM32L4xx_HAL_Driver/Src\stm32l4xx_hal_dma.c ****   assert_param(IS_DMA_MEMORY_DATA_SIZE(hdma->Init.MemDataAlignment));
 186:D:/iot/felix2/targets/Cloud_STM32L431_BearPi/Drivers/STM32L4xx_HAL_Driver/Src\stm32l4xx_hal_dma.c ****   assert_param(IS_DMA_MODE(hdma->Init.Mode));
 187:D:/iot/felix2/targets/Cloud_STM32L431_BearPi/Drivers/STM32L4xx_HAL_Driver/Src\stm32l4xx_hal_dma.c ****   assert_param(IS_DMA_PRIORITY(hdma->Init.Priority));
 188:D:/iot/felix2/targets/Cloud_STM32L431_BearPi/Drivers/STM32L4xx_HAL_Driver/Src\stm32l4xx_hal_dma.c **** 
 189:D:/iot/felix2/targets/Cloud_STM32L431_BearPi/Drivers/STM32L4xx_HAL_Driver/Src\stm32l4xx_hal_dma.c ****   assert_param(IS_DMA_ALL_REQUEST(hdma->Init.Request));
 190:D:/iot/felix2/targets/Cloud_STM32L431_BearPi/Drivers/STM32L4xx_HAL_Driver/Src\stm32l4xx_hal_dma.c **** 
 191:D:/iot/felix2/targets/Cloud_STM32L431_BearPi/Drivers/STM32L4xx_HAL_Driver/Src\stm32l4xx_hal_dma.c ****   /* Compute the channel index */
 192:D:/iot/felix2/targets/Cloud_STM32L431_BearPi/Drivers/STM32L4xx_HAL_Driver/Src\stm32l4xx_hal_dma.c ****   if ((uint32_t)(hdma->Instance) < (uint32_t)(DMA2_Channel1))
  52              		.loc 1 192 0
  53 0012 7B68     		ldr	r3, [r7, #4]
  54 0014 1B68     		ldr	r3, [r3]
  55 0016 1A46     		mov	r2, r3
  56 0018 4D4B     		ldr	r3, .L8
  57 001a 9A42     		cmp	r2, r3
  58 001c 0FD8     		bhi	.L4
 193:D:/iot/felix2/targets/Cloud_STM32L431_BearPi/Drivers/STM32L4xx_HAL_Driver/Src\stm32l4xx_hal_dma.c ****   {
 194:D:/iot/felix2/targets/Cloud_STM32L431_BearPi/Drivers/STM32L4xx_HAL_Driver/Src\stm32l4xx_hal_dma.c ****     /* DMA1 */
 195:D:/iot/felix2/targets/Cloud_STM32L431_BearPi/Drivers/STM32L4xx_HAL_Driver/Src\stm32l4xx_hal_dma.c ****     hdma->ChannelIndex = (((uint32_t)hdma->Instance - (uint32_t)DMA1_Channel1) / ((uint32_t)DMA1_Ch
  59              		.loc 1 195 0
  60 001e 7B68     		ldr	r3, [r7, #4]
  61 0020 1B68     		ldr	r3, [r3]
  62 0022 1A46     		mov	r2, r3
  63 0024 4B4B     		ldr	r3, .L8+4
  64 0026 1344     		add	r3, r3, r2
  65 0028 4B4A     		ldr	r2, .L8+8
  66 002a A2FB0323 		umull	r2, r3, r2, r3
  67 002e 1B09     		lsrs	r3, r3, #4
  68 0030 9A00     		lsls	r2, r3, #2
  69 0032 7B68     		ldr	r3, [r7, #4]
  70 0034 5A64     		str	r2, [r3, #68]
 196:D:/iot/felix2/targets/Cloud_STM32L431_BearPi/Drivers/STM32L4xx_HAL_Driver/Src\stm32l4xx_hal_dma.c ****     hdma->DmaBaseAddress = DMA1;
  71              		.loc 1 196 0
  72 0036 7B68     		ldr	r3, [r7, #4]
  73 0038 484A     		ldr	r2, .L8+12
  74 003a 1A64     		str	r2, [r3, #64]
  75 003c 0EE0     		b	.L5
  76              	.L4:
 197:D:/iot/felix2/targets/Cloud_STM32L431_BearPi/Drivers/STM32L4xx_HAL_Driver/Src\stm32l4xx_hal_dma.c ****   }
 198:D:/iot/felix2/targets/Cloud_STM32L431_BearPi/Drivers/STM32L4xx_HAL_Driver/Src\stm32l4xx_hal_dma.c ****   else
 199:D:/iot/felix2/targets/Cloud_STM32L431_BearPi/Drivers/STM32L4xx_HAL_Driver/Src\stm32l4xx_hal_dma.c ****   {
 200:D:/iot/felix2/targets/Cloud_STM32L431_BearPi/Drivers/STM32L4xx_HAL_Driver/Src\stm32l4xx_hal_dma.c ****     /* DMA2 */
 201:D:/iot/felix2/targets/Cloud_STM32L431_BearPi/Drivers/STM32L4xx_HAL_Driver/Src\stm32l4xx_hal_dma.c ****     hdma->ChannelIndex = (((uint32_t)hdma->Instance - (uint32_t)DMA2_Channel1) / ((uint32_t)DMA2_Ch
  77              		.loc 1 201 0
  78 003e 7B68     		ldr	r3, [r7, #4]
  79 0040 1B68     		ldr	r3, [r3]
  80 0042 1A46     		mov	r2, r3
  81 0044 464B     		ldr	r3, .L8+16
  82 0046 1344     		add	r3, r3, r2
  83 0048 434A     		ldr	r2, .L8+8
  84 004a A2FB0323 		umull	r2, r3, r2, r3
  85 004e 1B09     		lsrs	r3, r3, #4
ARM GAS  C:\Users\91458\AppData\Local\Temp\ccdbzqVS.s 			page 6


  86 0050 9A00     		lsls	r2, r3, #2
  87 0052 7B68     		ldr	r3, [r7, #4]
  88 0054 5A64     		str	r2, [r3, #68]
 202:D:/iot/felix2/targets/Cloud_STM32L431_BearPi/Drivers/STM32L4xx_HAL_Driver/Src\stm32l4xx_hal_dma.c ****     hdma->DmaBaseAddress = DMA2;
  89              		.loc 1 202 0
  90 0056 7B68     		ldr	r3, [r7, #4]
  91 0058 424A     		ldr	r2, .L8+20
  92 005a 1A64     		str	r2, [r3, #64]
  93              	.L5:
 203:D:/iot/felix2/targets/Cloud_STM32L431_BearPi/Drivers/STM32L4xx_HAL_Driver/Src\stm32l4xx_hal_dma.c ****   }
 204:D:/iot/felix2/targets/Cloud_STM32L431_BearPi/Drivers/STM32L4xx_HAL_Driver/Src\stm32l4xx_hal_dma.c **** 
 205:D:/iot/felix2/targets/Cloud_STM32L431_BearPi/Drivers/STM32L4xx_HAL_Driver/Src\stm32l4xx_hal_dma.c ****   /* Change DMA peripheral state */
 206:D:/iot/felix2/targets/Cloud_STM32L431_BearPi/Drivers/STM32L4xx_HAL_Driver/Src\stm32l4xx_hal_dma.c ****   hdma->State = HAL_DMA_STATE_BUSY;
  94              		.loc 1 206 0
  95 005c 7B68     		ldr	r3, [r7, #4]
  96 005e 0222     		movs	r2, #2
  97 0060 83F82520 		strb	r2, [r3, #37]
 207:D:/iot/felix2/targets/Cloud_STM32L431_BearPi/Drivers/STM32L4xx_HAL_Driver/Src\stm32l4xx_hal_dma.c **** 
 208:D:/iot/felix2/targets/Cloud_STM32L431_BearPi/Drivers/STM32L4xx_HAL_Driver/Src\stm32l4xx_hal_dma.c ****   /* Get the CR register value */
 209:D:/iot/felix2/targets/Cloud_STM32L431_BearPi/Drivers/STM32L4xx_HAL_Driver/Src\stm32l4xx_hal_dma.c ****   tmp = hdma->Instance->CCR;
  98              		.loc 1 209 0
  99 0064 7B68     		ldr	r3, [r7, #4]
 100 0066 1B68     		ldr	r3, [r3]
 101 0068 1B68     		ldr	r3, [r3]
 102 006a FB60     		str	r3, [r7, #12]
 210:D:/iot/felix2/targets/Cloud_STM32L431_BearPi/Drivers/STM32L4xx_HAL_Driver/Src\stm32l4xx_hal_dma.c **** 
 211:D:/iot/felix2/targets/Cloud_STM32L431_BearPi/Drivers/STM32L4xx_HAL_Driver/Src\stm32l4xx_hal_dma.c ****   /* Clear PL, MSIZE, PSIZE, MINC, PINC, CIRC, DIR and MEM2MEM bits */
 212:D:/iot/felix2/targets/Cloud_STM32L431_BearPi/Drivers/STM32L4xx_HAL_Driver/Src\stm32l4xx_hal_dma.c ****   tmp &= ((uint32_t)~(DMA_CCR_PL    | DMA_CCR_MSIZE  | DMA_CCR_PSIZE  |
 103              		.loc 1 212 0
 104 006c FB68     		ldr	r3, [r7, #12]
 105 006e 23F4FF43 		bic	r3, r3, #32640
 106 0072 23F07003 		bic	r3, r3, #112
 107 0076 FB60     		str	r3, [r7, #12]
 213:D:/iot/felix2/targets/Cloud_STM32L431_BearPi/Drivers/STM32L4xx_HAL_Driver/Src\stm32l4xx_hal_dma.c ****                       DMA_CCR_MINC  | DMA_CCR_PINC   | DMA_CCR_CIRC   |
 214:D:/iot/felix2/targets/Cloud_STM32L431_BearPi/Drivers/STM32L4xx_HAL_Driver/Src\stm32l4xx_hal_dma.c ****                       DMA_CCR_DIR   | DMA_CCR_MEM2MEM));
 215:D:/iot/felix2/targets/Cloud_STM32L431_BearPi/Drivers/STM32L4xx_HAL_Driver/Src\stm32l4xx_hal_dma.c **** 
 216:D:/iot/felix2/targets/Cloud_STM32L431_BearPi/Drivers/STM32L4xx_HAL_Driver/Src\stm32l4xx_hal_dma.c ****   /* Prepare the DMA Channel configuration */
 217:D:/iot/felix2/targets/Cloud_STM32L431_BearPi/Drivers/STM32L4xx_HAL_Driver/Src\stm32l4xx_hal_dma.c ****   tmp |=  hdma->Init.Direction        |
 108              		.loc 1 217 0
 109 0078 7B68     		ldr	r3, [r7, #4]
 110 007a 9A68     		ldr	r2, [r3, #8]
 218:D:/iot/felix2/targets/Cloud_STM32L431_BearPi/Drivers/STM32L4xx_HAL_Driver/Src\stm32l4xx_hal_dma.c ****           hdma->Init.PeriphInc           | hdma->Init.MemInc           |
 111              		.loc 1 218 0
 112 007c 7B68     		ldr	r3, [r7, #4]
 113 007e DB68     		ldr	r3, [r3, #12]
 217:D:/iot/felix2/targets/Cloud_STM32L431_BearPi/Drivers/STM32L4xx_HAL_Driver/Src\stm32l4xx_hal_dma.c ****           hdma->Init.PeriphInc           | hdma->Init.MemInc           |
 114              		.loc 1 217 0
 115 0080 1A43     		orrs	r2, r2, r3
 116              		.loc 1 218 0
 117 0082 7B68     		ldr	r3, [r7, #4]
 118 0084 1B69     		ldr	r3, [r3, #16]
 119 0086 1A43     		orrs	r2, r2, r3
 219:D:/iot/felix2/targets/Cloud_STM32L431_BearPi/Drivers/STM32L4xx_HAL_Driver/Src\stm32l4xx_hal_dma.c ****           hdma->Init.PeriphDataAlignment | hdma->Init.MemDataAlignment |
 120              		.loc 1 219 0
 121 0088 7B68     		ldr	r3, [r7, #4]
 122 008a 5B69     		ldr	r3, [r3, #20]
 218:D:/iot/felix2/targets/Cloud_STM32L431_BearPi/Drivers/STM32L4xx_HAL_Driver/Src\stm32l4xx_hal_dma.c ****           hdma->Init.PeriphInc           | hdma->Init.MemInc           |
ARM GAS  C:\Users\91458\AppData\Local\Temp\ccdbzqVS.s 			page 7


 123              		.loc 1 218 0
 124 008c 1A43     		orrs	r2, r2, r3
 125              		.loc 1 219 0
 126 008e 7B68     		ldr	r3, [r7, #4]
 127 0090 9B69     		ldr	r3, [r3, #24]
 128 0092 1A43     		orrs	r2, r2, r3
 220:D:/iot/felix2/targets/Cloud_STM32L431_BearPi/Drivers/STM32L4xx_HAL_Driver/Src\stm32l4xx_hal_dma.c ****           hdma->Init.Mode                | hdma->Init.Priority;
 129              		.loc 1 220 0
 130 0094 7B68     		ldr	r3, [r7, #4]
 131 0096 DB69     		ldr	r3, [r3, #28]
 219:D:/iot/felix2/targets/Cloud_STM32L431_BearPi/Drivers/STM32L4xx_HAL_Driver/Src\stm32l4xx_hal_dma.c ****           hdma->Init.PeriphDataAlignment | hdma->Init.MemDataAlignment |
 132              		.loc 1 219 0
 133 0098 1A43     		orrs	r2, r2, r3
 134              		.loc 1 220 0
 135 009a 7B68     		ldr	r3, [r7, #4]
 136 009c 1B6A     		ldr	r3, [r3, #32]
 137 009e 1343     		orrs	r3, r3, r2
 217:D:/iot/felix2/targets/Cloud_STM32L431_BearPi/Drivers/STM32L4xx_HAL_Driver/Src\stm32l4xx_hal_dma.c ****           hdma->Init.PeriphInc           | hdma->Init.MemInc           |
 138              		.loc 1 217 0
 139 00a0 FA68     		ldr	r2, [r7, #12]
 140 00a2 1343     		orrs	r3, r3, r2
 141 00a4 FB60     		str	r3, [r7, #12]
 221:D:/iot/felix2/targets/Cloud_STM32L431_BearPi/Drivers/STM32L4xx_HAL_Driver/Src\stm32l4xx_hal_dma.c **** 
 222:D:/iot/felix2/targets/Cloud_STM32L431_BearPi/Drivers/STM32L4xx_HAL_Driver/Src\stm32l4xx_hal_dma.c ****   /* Write to DMA Channel CR register */
 223:D:/iot/felix2/targets/Cloud_STM32L431_BearPi/Drivers/STM32L4xx_HAL_Driver/Src\stm32l4xx_hal_dma.c ****   hdma->Instance->CCR = tmp;
 142              		.loc 1 223 0
 143 00a6 7B68     		ldr	r3, [r7, #4]
 144 00a8 1B68     		ldr	r3, [r3]
 145 00aa FA68     		ldr	r2, [r7, #12]
 146 00ac 1A60     		str	r2, [r3]
 224:D:/iot/felix2/targets/Cloud_STM32L431_BearPi/Drivers/STM32L4xx_HAL_Driver/Src\stm32l4xx_hal_dma.c **** 
 225:D:/iot/felix2/targets/Cloud_STM32L431_BearPi/Drivers/STM32L4xx_HAL_Driver/Src\stm32l4xx_hal_dma.c **** 
 226:D:/iot/felix2/targets/Cloud_STM32L431_BearPi/Drivers/STM32L4xx_HAL_Driver/Src\stm32l4xx_hal_dma.c **** #if defined(DMAMUX1)
 227:D:/iot/felix2/targets/Cloud_STM32L431_BearPi/Drivers/STM32L4xx_HAL_Driver/Src\stm32l4xx_hal_dma.c ****   /* Initialize parameters for DMAMUX channel :
 228:D:/iot/felix2/targets/Cloud_STM32L431_BearPi/Drivers/STM32L4xx_HAL_Driver/Src\stm32l4xx_hal_dma.c ****      DMAmuxChannel, DMAmuxChannelStatus and DMAmuxChannelStatusMask
 229:D:/iot/felix2/targets/Cloud_STM32L431_BearPi/Drivers/STM32L4xx_HAL_Driver/Src\stm32l4xx_hal_dma.c ****   */
 230:D:/iot/felix2/targets/Cloud_STM32L431_BearPi/Drivers/STM32L4xx_HAL_Driver/Src\stm32l4xx_hal_dma.c ****   DMA_CalcDMAMUXChannelBaseAndMask(hdma);
 231:D:/iot/felix2/targets/Cloud_STM32L431_BearPi/Drivers/STM32L4xx_HAL_Driver/Src\stm32l4xx_hal_dma.c **** 
 232:D:/iot/felix2/targets/Cloud_STM32L431_BearPi/Drivers/STM32L4xx_HAL_Driver/Src\stm32l4xx_hal_dma.c ****   if(hdma->Init.Direction == DMA_MEMORY_TO_MEMORY)
 233:D:/iot/felix2/targets/Cloud_STM32L431_BearPi/Drivers/STM32L4xx_HAL_Driver/Src\stm32l4xx_hal_dma.c ****   {
 234:D:/iot/felix2/targets/Cloud_STM32L431_BearPi/Drivers/STM32L4xx_HAL_Driver/Src\stm32l4xx_hal_dma.c ****     /* if memory to memory force the request to 0*/
 235:D:/iot/felix2/targets/Cloud_STM32L431_BearPi/Drivers/STM32L4xx_HAL_Driver/Src\stm32l4xx_hal_dma.c ****     hdma->Init.Request = DMA_REQUEST_MEM2MEM;
 236:D:/iot/felix2/targets/Cloud_STM32L431_BearPi/Drivers/STM32L4xx_HAL_Driver/Src\stm32l4xx_hal_dma.c ****   }
 237:D:/iot/felix2/targets/Cloud_STM32L431_BearPi/Drivers/STM32L4xx_HAL_Driver/Src\stm32l4xx_hal_dma.c **** 
 238:D:/iot/felix2/targets/Cloud_STM32L431_BearPi/Drivers/STM32L4xx_HAL_Driver/Src\stm32l4xx_hal_dma.c ****   /* Set peripheral request  to DMAMUX channel */
 239:D:/iot/felix2/targets/Cloud_STM32L431_BearPi/Drivers/STM32L4xx_HAL_Driver/Src\stm32l4xx_hal_dma.c ****   hdma->DMAmuxChannel->CCR = (hdma->Init.Request & DMAMUX_CxCR_DMAREQ_ID);
 240:D:/iot/felix2/targets/Cloud_STM32L431_BearPi/Drivers/STM32L4xx_HAL_Driver/Src\stm32l4xx_hal_dma.c **** 
 241:D:/iot/felix2/targets/Cloud_STM32L431_BearPi/Drivers/STM32L4xx_HAL_Driver/Src\stm32l4xx_hal_dma.c ****   /* Clear the DMAMUX synchro overrun flag */
 242:D:/iot/felix2/targets/Cloud_STM32L431_BearPi/Drivers/STM32L4xx_HAL_Driver/Src\stm32l4xx_hal_dma.c ****   hdma->DMAmuxChannelStatus->CFR = hdma->DMAmuxChannelStatusMask;
 243:D:/iot/felix2/targets/Cloud_STM32L431_BearPi/Drivers/STM32L4xx_HAL_Driver/Src\stm32l4xx_hal_dma.c **** 
 244:D:/iot/felix2/targets/Cloud_STM32L431_BearPi/Drivers/STM32L4xx_HAL_Driver/Src\stm32l4xx_hal_dma.c ****   if(((hdma->Init.Request > 0UL) && (hdma->Init.Request <= DMA_REQUEST_GENERATOR3)))
 245:D:/iot/felix2/targets/Cloud_STM32L431_BearPi/Drivers/STM32L4xx_HAL_Driver/Src\stm32l4xx_hal_dma.c ****   {
 246:D:/iot/felix2/targets/Cloud_STM32L431_BearPi/Drivers/STM32L4xx_HAL_Driver/Src\stm32l4xx_hal_dma.c ****     /* Initialize parameters for DMAMUX request generator :
 247:D:/iot/felix2/targets/Cloud_STM32L431_BearPi/Drivers/STM32L4xx_HAL_Driver/Src\stm32l4xx_hal_dma.c ****        DMAmuxRequestGen, DMAmuxRequestGenStatus and DMAmuxRequestGenStatusMask
 248:D:/iot/felix2/targets/Cloud_STM32L431_BearPi/Drivers/STM32L4xx_HAL_Driver/Src\stm32l4xx_hal_dma.c ****     */
 249:D:/iot/felix2/targets/Cloud_STM32L431_BearPi/Drivers/STM32L4xx_HAL_Driver/Src\stm32l4xx_hal_dma.c ****     DMA_CalcDMAMUXRequestGenBaseAndMask(hdma);
 250:D:/iot/felix2/targets/Cloud_STM32L431_BearPi/Drivers/STM32L4xx_HAL_Driver/Src\stm32l4xx_hal_dma.c **** 
ARM GAS  C:\Users\91458\AppData\Local\Temp\ccdbzqVS.s 			page 8


 251:D:/iot/felix2/targets/Cloud_STM32L431_BearPi/Drivers/STM32L4xx_HAL_Driver/Src\stm32l4xx_hal_dma.c ****     /* Reset the DMAMUX request generator register*/
 252:D:/iot/felix2/targets/Cloud_STM32L431_BearPi/Drivers/STM32L4xx_HAL_Driver/Src\stm32l4xx_hal_dma.c ****     hdma->DMAmuxRequestGen->RGCR = 0U;
 253:D:/iot/felix2/targets/Cloud_STM32L431_BearPi/Drivers/STM32L4xx_HAL_Driver/Src\stm32l4xx_hal_dma.c **** 
 254:D:/iot/felix2/targets/Cloud_STM32L431_BearPi/Drivers/STM32L4xx_HAL_Driver/Src\stm32l4xx_hal_dma.c ****     /* Clear the DMAMUX request generator overrun flag */
 255:D:/iot/felix2/targets/Cloud_STM32L431_BearPi/Drivers/STM32L4xx_HAL_Driver/Src\stm32l4xx_hal_dma.c ****     hdma->DMAmuxRequestGenStatus->RGCFR = hdma->DMAmuxRequestGenStatusMask;
 256:D:/iot/felix2/targets/Cloud_STM32L431_BearPi/Drivers/STM32L4xx_HAL_Driver/Src\stm32l4xx_hal_dma.c ****   }
 257:D:/iot/felix2/targets/Cloud_STM32L431_BearPi/Drivers/STM32L4xx_HAL_Driver/Src\stm32l4xx_hal_dma.c ****   else
 258:D:/iot/felix2/targets/Cloud_STM32L431_BearPi/Drivers/STM32L4xx_HAL_Driver/Src\stm32l4xx_hal_dma.c ****   {
 259:D:/iot/felix2/targets/Cloud_STM32L431_BearPi/Drivers/STM32L4xx_HAL_Driver/Src\stm32l4xx_hal_dma.c ****     hdma->DMAmuxRequestGen = 0U;
 260:D:/iot/felix2/targets/Cloud_STM32L431_BearPi/Drivers/STM32L4xx_HAL_Driver/Src\stm32l4xx_hal_dma.c ****     hdma->DMAmuxRequestGenStatus = 0U;
 261:D:/iot/felix2/targets/Cloud_STM32L431_BearPi/Drivers/STM32L4xx_HAL_Driver/Src\stm32l4xx_hal_dma.c ****     hdma->DMAmuxRequestGenStatusMask = 0U;
 262:D:/iot/felix2/targets/Cloud_STM32L431_BearPi/Drivers/STM32L4xx_HAL_Driver/Src\stm32l4xx_hal_dma.c ****   }
 263:D:/iot/felix2/targets/Cloud_STM32L431_BearPi/Drivers/STM32L4xx_HAL_Driver/Src\stm32l4xx_hal_dma.c **** #endif /* DMAMUX1 */
 264:D:/iot/felix2/targets/Cloud_STM32L431_BearPi/Drivers/STM32L4xx_HAL_Driver/Src\stm32l4xx_hal_dma.c **** 
 265:D:/iot/felix2/targets/Cloud_STM32L431_BearPi/Drivers/STM32L4xx_HAL_Driver/Src\stm32l4xx_hal_dma.c **** #if !defined (DMAMUX1)
 266:D:/iot/felix2/targets/Cloud_STM32L431_BearPi/Drivers/STM32L4xx_HAL_Driver/Src\stm32l4xx_hal_dma.c **** 
 267:D:/iot/felix2/targets/Cloud_STM32L431_BearPi/Drivers/STM32L4xx_HAL_Driver/Src\stm32l4xx_hal_dma.c ****   /* Set request selection */
 268:D:/iot/felix2/targets/Cloud_STM32L431_BearPi/Drivers/STM32L4xx_HAL_Driver/Src\stm32l4xx_hal_dma.c ****   if(hdma->Init.Direction != DMA_MEMORY_TO_MEMORY)
 147              		.loc 1 268 0
 148 00ae 7B68     		ldr	r3, [r7, #4]
 149 00b0 9B68     		ldr	r3, [r3, #8]
 150 00b2 B3F5804F 		cmp	r3, #16384
 151 00b6 39D0     		beq	.L6
 269:D:/iot/felix2/targets/Cloud_STM32L431_BearPi/Drivers/STM32L4xx_HAL_Driver/Src\stm32l4xx_hal_dma.c ****   {
 270:D:/iot/felix2/targets/Cloud_STM32L431_BearPi/Drivers/STM32L4xx_HAL_Driver/Src\stm32l4xx_hal_dma.c ****     /* Write to DMA channel selection register */
 271:D:/iot/felix2/targets/Cloud_STM32L431_BearPi/Drivers/STM32L4xx_HAL_Driver/Src\stm32l4xx_hal_dma.c ****     if (DMA1 == hdma->DmaBaseAddress)
 152              		.loc 1 271 0
 153 00b8 7B68     		ldr	r3, [r7, #4]
 154 00ba 1B6C     		ldr	r3, [r3, #64]
 155 00bc 274A     		ldr	r2, .L8+12
 156 00be 9342     		cmp	r3, r2
 157 00c0 1AD1     		bne	.L7
 272:D:/iot/felix2/targets/Cloud_STM32L431_BearPi/Drivers/STM32L4xx_HAL_Driver/Src\stm32l4xx_hal_dma.c ****     {
 273:D:/iot/felix2/targets/Cloud_STM32L431_BearPi/Drivers/STM32L4xx_HAL_Driver/Src\stm32l4xx_hal_dma.c ****       /* Reset request selection for DMA1 Channelx */
 274:D:/iot/felix2/targets/Cloud_STM32L431_BearPi/Drivers/STM32L4xx_HAL_Driver/Src\stm32l4xx_hal_dma.c ****       DMA1_CSELR->CSELR &= ~(DMA_CSELR_C1S << (hdma->ChannelIndex & 0x1cU));
 158              		.loc 1 274 0
 159 00c2 294B     		ldr	r3, .L8+24
 160 00c4 1A68     		ldr	r2, [r3]
 161 00c6 7B68     		ldr	r3, [r7, #4]
 162 00c8 5B6C     		ldr	r3, [r3, #68]
 163 00ca 03F01C03 		and	r3, r3, #28
 164 00ce 0F21     		movs	r1, #15
 165 00d0 01FA03F3 		lsl	r3, r1, r3
 166 00d4 DB43     		mvns	r3, r3
 167 00d6 2449     		ldr	r1, .L8+24
 168 00d8 1340     		ands	r3, r3, r2
 169 00da 0B60     		str	r3, [r1]
 275:D:/iot/felix2/targets/Cloud_STM32L431_BearPi/Drivers/STM32L4xx_HAL_Driver/Src\stm32l4xx_hal_dma.c **** 
 276:D:/iot/felix2/targets/Cloud_STM32L431_BearPi/Drivers/STM32L4xx_HAL_Driver/Src\stm32l4xx_hal_dma.c ****       /* Configure request selection for DMA1 Channelx */
 277:D:/iot/felix2/targets/Cloud_STM32L431_BearPi/Drivers/STM32L4xx_HAL_Driver/Src\stm32l4xx_hal_dma.c ****       DMA1_CSELR->CSELR |= (uint32_t) (hdma->Init.Request << (hdma->ChannelIndex & 0x1cU));
 170              		.loc 1 277 0
 171 00dc 224B     		ldr	r3, .L8+24
 172 00de 1A68     		ldr	r2, [r3]
 173 00e0 7B68     		ldr	r3, [r7, #4]
 174 00e2 5968     		ldr	r1, [r3, #4]
 175 00e4 7B68     		ldr	r3, [r7, #4]
 176 00e6 5B6C     		ldr	r3, [r3, #68]
ARM GAS  C:\Users\91458\AppData\Local\Temp\ccdbzqVS.s 			page 9


 177 00e8 03F01C03 		and	r3, r3, #28
 178 00ec 01FA03F3 		lsl	r3, r1, r3
 179 00f0 1D49     		ldr	r1, .L8+24
 180 00f2 1343     		orrs	r3, r3, r2
 181 00f4 0B60     		str	r3, [r1]
 182 00f6 19E0     		b	.L6
 183              	.L7:
 278:D:/iot/felix2/targets/Cloud_STM32L431_BearPi/Drivers/STM32L4xx_HAL_Driver/Src\stm32l4xx_hal_dma.c ****     }
 279:D:/iot/felix2/targets/Cloud_STM32L431_BearPi/Drivers/STM32L4xx_HAL_Driver/Src\stm32l4xx_hal_dma.c ****     else /* DMA2 */
 280:D:/iot/felix2/targets/Cloud_STM32L431_BearPi/Drivers/STM32L4xx_HAL_Driver/Src\stm32l4xx_hal_dma.c ****     {
 281:D:/iot/felix2/targets/Cloud_STM32L431_BearPi/Drivers/STM32L4xx_HAL_Driver/Src\stm32l4xx_hal_dma.c ****       /* Reset request selection for DMA2 Channelx */
 282:D:/iot/felix2/targets/Cloud_STM32L431_BearPi/Drivers/STM32L4xx_HAL_Driver/Src\stm32l4xx_hal_dma.c ****       DMA2_CSELR->CSELR &= ~(DMA_CSELR_C1S << (hdma->ChannelIndex & 0x1cU));
 184              		.loc 1 282 0
 185 00f8 1C4B     		ldr	r3, .L8+28
 186 00fa 1A68     		ldr	r2, [r3]
 187 00fc 7B68     		ldr	r3, [r7, #4]
 188 00fe 5B6C     		ldr	r3, [r3, #68]
 189 0100 03F01C03 		and	r3, r3, #28
 190 0104 0F21     		movs	r1, #15
 191 0106 01FA03F3 		lsl	r3, r1, r3
 192 010a DB43     		mvns	r3, r3
 193 010c 1749     		ldr	r1, .L8+28
 194 010e 1340     		ands	r3, r3, r2
 195 0110 0B60     		str	r3, [r1]
 283:D:/iot/felix2/targets/Cloud_STM32L431_BearPi/Drivers/STM32L4xx_HAL_Driver/Src\stm32l4xx_hal_dma.c **** 
 284:D:/iot/felix2/targets/Cloud_STM32L431_BearPi/Drivers/STM32L4xx_HAL_Driver/Src\stm32l4xx_hal_dma.c ****       /* Configure request selection for DMA2 Channelx */
 285:D:/iot/felix2/targets/Cloud_STM32L431_BearPi/Drivers/STM32L4xx_HAL_Driver/Src\stm32l4xx_hal_dma.c ****       DMA2_CSELR->CSELR |= (uint32_t) (hdma->Init.Request << (hdma->ChannelIndex & 0x1cU));
 196              		.loc 1 285 0
 197 0112 164B     		ldr	r3, .L8+28
 198 0114 1A68     		ldr	r2, [r3]
 199 0116 7B68     		ldr	r3, [r7, #4]
 200 0118 5968     		ldr	r1, [r3, #4]
 201 011a 7B68     		ldr	r3, [r7, #4]
 202 011c 5B6C     		ldr	r3, [r3, #68]
 203 011e 03F01C03 		and	r3, r3, #28
 204 0122 01FA03F3 		lsl	r3, r1, r3
 205 0126 1149     		ldr	r1, .L8+28
 206 0128 1343     		orrs	r3, r3, r2
 207 012a 0B60     		str	r3, [r1]
 208              	.L6:
 286:D:/iot/felix2/targets/Cloud_STM32L431_BearPi/Drivers/STM32L4xx_HAL_Driver/Src\stm32l4xx_hal_dma.c ****     }
 287:D:/iot/felix2/targets/Cloud_STM32L431_BearPi/Drivers/STM32L4xx_HAL_Driver/Src\stm32l4xx_hal_dma.c ****   }
 288:D:/iot/felix2/targets/Cloud_STM32L431_BearPi/Drivers/STM32L4xx_HAL_Driver/Src\stm32l4xx_hal_dma.c **** 
 289:D:/iot/felix2/targets/Cloud_STM32L431_BearPi/Drivers/STM32L4xx_HAL_Driver/Src\stm32l4xx_hal_dma.c **** #endif /* STM32L431xx || STM32L432xx || STM32L433xx || STM32L442xx || STM32L443xx */
 290:D:/iot/felix2/targets/Cloud_STM32L431_BearPi/Drivers/STM32L4xx_HAL_Driver/Src\stm32l4xx_hal_dma.c ****        /* STM32L471xx || STM32L475xx || STM32L476xx || STM32L442xx || STM32L486xx */
 291:D:/iot/felix2/targets/Cloud_STM32L431_BearPi/Drivers/STM32L4xx_HAL_Driver/Src\stm32l4xx_hal_dma.c ****        /* STM32L496xx || STM32L4A6xx                                              */
 292:D:/iot/felix2/targets/Cloud_STM32L431_BearPi/Drivers/STM32L4xx_HAL_Driver/Src\stm32l4xx_hal_dma.c **** 
 293:D:/iot/felix2/targets/Cloud_STM32L431_BearPi/Drivers/STM32L4xx_HAL_Driver/Src\stm32l4xx_hal_dma.c ****   /* Initialise the error code */
 294:D:/iot/felix2/targets/Cloud_STM32L431_BearPi/Drivers/STM32L4xx_HAL_Driver/Src\stm32l4xx_hal_dma.c ****   hdma->ErrorCode = HAL_DMA_ERROR_NONE;
 209              		.loc 1 294 0
 210 012c 7B68     		ldr	r3, [r7, #4]
 211 012e 0022     		movs	r2, #0
 212 0130 DA63     		str	r2, [r3, #60]
 295:D:/iot/felix2/targets/Cloud_STM32L431_BearPi/Drivers/STM32L4xx_HAL_Driver/Src\stm32l4xx_hal_dma.c **** 
 296:D:/iot/felix2/targets/Cloud_STM32L431_BearPi/Drivers/STM32L4xx_HAL_Driver/Src\stm32l4xx_hal_dma.c ****   /* Initialize the DMA state*/
 297:D:/iot/felix2/targets/Cloud_STM32L431_BearPi/Drivers/STM32L4xx_HAL_Driver/Src\stm32l4xx_hal_dma.c ****   hdma->State  = HAL_DMA_STATE_READY;
 213              		.loc 1 297 0
ARM GAS  C:\Users\91458\AppData\Local\Temp\ccdbzqVS.s 			page 10


 214 0132 7B68     		ldr	r3, [r7, #4]
 215 0134 0122     		movs	r2, #1
 216 0136 83F82520 		strb	r2, [r3, #37]
 298:D:/iot/felix2/targets/Cloud_STM32L431_BearPi/Drivers/STM32L4xx_HAL_Driver/Src\stm32l4xx_hal_dma.c **** 
 299:D:/iot/felix2/targets/Cloud_STM32L431_BearPi/Drivers/STM32L4xx_HAL_Driver/Src\stm32l4xx_hal_dma.c ****   /* Allocate lock resource and initialize it */
 300:D:/iot/felix2/targets/Cloud_STM32L431_BearPi/Drivers/STM32L4xx_HAL_Driver/Src\stm32l4xx_hal_dma.c ****   hdma->Lock = HAL_UNLOCKED;
 217              		.loc 1 300 0
 218 013a 7B68     		ldr	r3, [r7, #4]
 219 013c 0022     		movs	r2, #0
 220 013e 83F82420 		strb	r2, [r3, #36]
 301:D:/iot/felix2/targets/Cloud_STM32L431_BearPi/Drivers/STM32L4xx_HAL_Driver/Src\stm32l4xx_hal_dma.c **** 
 302:D:/iot/felix2/targets/Cloud_STM32L431_BearPi/Drivers/STM32L4xx_HAL_Driver/Src\stm32l4xx_hal_dma.c ****   return HAL_OK;
 221              		.loc 1 302 0
 222 0142 0023     		movs	r3, #0
 223              	.L3:
 303:D:/iot/felix2/targets/Cloud_STM32L431_BearPi/Drivers/STM32L4xx_HAL_Driver/Src\stm32l4xx_hal_dma.c **** }
 224              		.loc 1 303 0
 225 0144 1846     		mov	r0, r3
 226 0146 1437     		adds	r7, r7, #20
 227              	.LCFI3:
 228              		.cfi_def_cfa_offset 4
 229 0148 BD46     		mov	sp, r7
 230              	.LCFI4:
 231              		.cfi_def_cfa_register 13
 232              		@ sp needed
 233 014a 5DF8047B 		ldr	r7, [sp], #4
 234              	.LCFI5:
 235              		.cfi_restore 7
 236              		.cfi_def_cfa_offset 0
 237 014e 7047     		bx	lr
 238              	.L9:
 239              		.align	2
 240              	.L8:
 241 0150 07040240 		.word	1073873927
 242 0154 F8FFFDBF 		.word	-1073872904
 243 0158 CDCCCCCC 		.word	-858993459
 244 015c 00000240 		.word	1073872896
 245 0160 F8FBFDBF 		.word	-1073873928
 246 0164 00040240 		.word	1073873920
 247 0168 A8000240 		.word	1073873064
 248 016c A8040240 		.word	1073874088
 249              		.cfi_endproc
 250              	.LFE133:
 252              		.section	.text.HAL_DMA_DeInit,"ax",%progbits
 253              		.align	1
 254              		.global	HAL_DMA_DeInit
 255              		.syntax unified
 256              		.thumb
 257              		.thumb_func
 258              		.fpu fpv4-sp-d16
 260              	HAL_DMA_DeInit:
 261              	.LFB134:
 304:D:/iot/felix2/targets/Cloud_STM32L431_BearPi/Drivers/STM32L4xx_HAL_Driver/Src\stm32l4xx_hal_dma.c **** 
 305:D:/iot/felix2/targets/Cloud_STM32L431_BearPi/Drivers/STM32L4xx_HAL_Driver/Src\stm32l4xx_hal_dma.c **** /**
 306:D:/iot/felix2/targets/Cloud_STM32L431_BearPi/Drivers/STM32L4xx_HAL_Driver/Src\stm32l4xx_hal_dma.c ****   * @brief  DeInitialize the DMA peripheral.
 307:D:/iot/felix2/targets/Cloud_STM32L431_BearPi/Drivers/STM32L4xx_HAL_Driver/Src\stm32l4xx_hal_dma.c ****   * @param  hdma pointer to a DMA_HandleTypeDef structure that contains
 308:D:/iot/felix2/targets/Cloud_STM32L431_BearPi/Drivers/STM32L4xx_HAL_Driver/Src\stm32l4xx_hal_dma.c ****   *               the configuration information for the specified DMA Channel.
ARM GAS  C:\Users\91458\AppData\Local\Temp\ccdbzqVS.s 			page 11


 309:D:/iot/felix2/targets/Cloud_STM32L431_BearPi/Drivers/STM32L4xx_HAL_Driver/Src\stm32l4xx_hal_dma.c ****   * @retval HAL status
 310:D:/iot/felix2/targets/Cloud_STM32L431_BearPi/Drivers/STM32L4xx_HAL_Driver/Src\stm32l4xx_hal_dma.c ****   */
 311:D:/iot/felix2/targets/Cloud_STM32L431_BearPi/Drivers/STM32L4xx_HAL_Driver/Src\stm32l4xx_hal_dma.c **** HAL_StatusTypeDef HAL_DMA_DeInit(DMA_HandleTypeDef *hdma)
 312:D:/iot/felix2/targets/Cloud_STM32L431_BearPi/Drivers/STM32L4xx_HAL_Driver/Src\stm32l4xx_hal_dma.c **** {
 262              		.loc 1 312 0
 263              		.cfi_startproc
 264              		@ args = 0, pretend = 0, frame = 8
 265              		@ frame_needed = 1, uses_anonymous_args = 0
 266              		@ link register save eliminated.
 267 0000 80B4     		push	{r7}
 268              	.LCFI6:
 269              		.cfi_def_cfa_offset 4
 270              		.cfi_offset 7, -4
 271 0002 83B0     		sub	sp, sp, #12
 272              	.LCFI7:
 273              		.cfi_def_cfa_offset 16
 274 0004 00AF     		add	r7, sp, #0
 275              	.LCFI8:
 276              		.cfi_def_cfa_register 7
 277 0006 7860     		str	r0, [r7, #4]
 313:D:/iot/felix2/targets/Cloud_STM32L431_BearPi/Drivers/STM32L4xx_HAL_Driver/Src\stm32l4xx_hal_dma.c **** 
 314:D:/iot/felix2/targets/Cloud_STM32L431_BearPi/Drivers/STM32L4xx_HAL_Driver/Src\stm32l4xx_hal_dma.c ****   /* Check the DMA handle allocation */
 315:D:/iot/felix2/targets/Cloud_STM32L431_BearPi/Drivers/STM32L4xx_HAL_Driver/Src\stm32l4xx_hal_dma.c ****   if (NULL == hdma )
 278              		.loc 1 315 0
 279 0008 7B68     		ldr	r3, [r7, #4]
 280 000a 002B     		cmp	r3, #0
 281 000c 01D1     		bne	.L11
 316:D:/iot/felix2/targets/Cloud_STM32L431_BearPi/Drivers/STM32L4xx_HAL_Driver/Src\stm32l4xx_hal_dma.c ****   {
 317:D:/iot/felix2/targets/Cloud_STM32L431_BearPi/Drivers/STM32L4xx_HAL_Driver/Src\stm32l4xx_hal_dma.c ****     return HAL_ERROR;
 282              		.loc 1 317 0
 283 000e 0123     		movs	r3, #1
 284 0010 72E0     		b	.L12
 285              	.L11:
 318:D:/iot/felix2/targets/Cloud_STM32L431_BearPi/Drivers/STM32L4xx_HAL_Driver/Src\stm32l4xx_hal_dma.c ****   }
 319:D:/iot/felix2/targets/Cloud_STM32L431_BearPi/Drivers/STM32L4xx_HAL_Driver/Src\stm32l4xx_hal_dma.c **** 
 320:D:/iot/felix2/targets/Cloud_STM32L431_BearPi/Drivers/STM32L4xx_HAL_Driver/Src\stm32l4xx_hal_dma.c ****   /* Check the parameters */
 321:D:/iot/felix2/targets/Cloud_STM32L431_BearPi/Drivers/STM32L4xx_HAL_Driver/Src\stm32l4xx_hal_dma.c ****   assert_param(IS_DMA_ALL_INSTANCE(hdma->Instance));
 322:D:/iot/felix2/targets/Cloud_STM32L431_BearPi/Drivers/STM32L4xx_HAL_Driver/Src\stm32l4xx_hal_dma.c **** 
 323:D:/iot/felix2/targets/Cloud_STM32L431_BearPi/Drivers/STM32L4xx_HAL_Driver/Src\stm32l4xx_hal_dma.c ****   /* Disable the selected DMA Channelx */
 324:D:/iot/felix2/targets/Cloud_STM32L431_BearPi/Drivers/STM32L4xx_HAL_Driver/Src\stm32l4xx_hal_dma.c ****   __HAL_DMA_DISABLE(hdma);
 286              		.loc 1 324 0
 287 0012 7B68     		ldr	r3, [r7, #4]
 288 0014 1B68     		ldr	r3, [r3]
 289 0016 1A68     		ldr	r2, [r3]
 290 0018 7B68     		ldr	r3, [r7, #4]
 291 001a 1B68     		ldr	r3, [r3]
 292 001c 22F00102 		bic	r2, r2, #1
 293 0020 1A60     		str	r2, [r3]
 325:D:/iot/felix2/targets/Cloud_STM32L431_BearPi/Drivers/STM32L4xx_HAL_Driver/Src\stm32l4xx_hal_dma.c **** 
 326:D:/iot/felix2/targets/Cloud_STM32L431_BearPi/Drivers/STM32L4xx_HAL_Driver/Src\stm32l4xx_hal_dma.c ****   /* Compute the channel index */
 327:D:/iot/felix2/targets/Cloud_STM32L431_BearPi/Drivers/STM32L4xx_HAL_Driver/Src\stm32l4xx_hal_dma.c ****   if ((uint32_t)(hdma->Instance) < (uint32_t)(DMA2_Channel1))
 294              		.loc 1 327 0
 295 0022 7B68     		ldr	r3, [r7, #4]
 296 0024 1B68     		ldr	r3, [r3]
 297 0026 1A46     		mov	r2, r3
 298 0028 364B     		ldr	r3, .L17
 299 002a 9A42     		cmp	r2, r3
ARM GAS  C:\Users\91458\AppData\Local\Temp\ccdbzqVS.s 			page 12


 300 002c 0FD8     		bhi	.L13
 328:D:/iot/felix2/targets/Cloud_STM32L431_BearPi/Drivers/STM32L4xx_HAL_Driver/Src\stm32l4xx_hal_dma.c ****   {
 329:D:/iot/felix2/targets/Cloud_STM32L431_BearPi/Drivers/STM32L4xx_HAL_Driver/Src\stm32l4xx_hal_dma.c ****     /* DMA1 */
 330:D:/iot/felix2/targets/Cloud_STM32L431_BearPi/Drivers/STM32L4xx_HAL_Driver/Src\stm32l4xx_hal_dma.c ****     hdma->ChannelIndex = (((uint32_t)hdma->Instance - (uint32_t)DMA1_Channel1) / ((uint32_t)DMA1_Ch
 301              		.loc 1 330 0
 302 002e 7B68     		ldr	r3, [r7, #4]
 303 0030 1B68     		ldr	r3, [r3]
 304 0032 1A46     		mov	r2, r3
 305 0034 344B     		ldr	r3, .L17+4
 306 0036 1344     		add	r3, r3, r2
 307 0038 344A     		ldr	r2, .L17+8
 308 003a A2FB0323 		umull	r2, r3, r2, r3
 309 003e 1B09     		lsrs	r3, r3, #4
 310 0040 9A00     		lsls	r2, r3, #2
 311 0042 7B68     		ldr	r3, [r7, #4]
 312 0044 5A64     		str	r2, [r3, #68]
 331:D:/iot/felix2/targets/Cloud_STM32L431_BearPi/Drivers/STM32L4xx_HAL_Driver/Src\stm32l4xx_hal_dma.c ****     hdma->DmaBaseAddress = DMA1;
 313              		.loc 1 331 0
 314 0046 7B68     		ldr	r3, [r7, #4]
 315 0048 314A     		ldr	r2, .L17+12
 316 004a 1A64     		str	r2, [r3, #64]
 317 004c 0EE0     		b	.L14
 318              	.L13:
 332:D:/iot/felix2/targets/Cloud_STM32L431_BearPi/Drivers/STM32L4xx_HAL_Driver/Src\stm32l4xx_hal_dma.c ****   }
 333:D:/iot/felix2/targets/Cloud_STM32L431_BearPi/Drivers/STM32L4xx_HAL_Driver/Src\stm32l4xx_hal_dma.c ****   else
 334:D:/iot/felix2/targets/Cloud_STM32L431_BearPi/Drivers/STM32L4xx_HAL_Driver/Src\stm32l4xx_hal_dma.c ****   {
 335:D:/iot/felix2/targets/Cloud_STM32L431_BearPi/Drivers/STM32L4xx_HAL_Driver/Src\stm32l4xx_hal_dma.c ****     /* DMA2 */
 336:D:/iot/felix2/targets/Cloud_STM32L431_BearPi/Drivers/STM32L4xx_HAL_Driver/Src\stm32l4xx_hal_dma.c ****     hdma->ChannelIndex = (((uint32_t)hdma->Instance - (uint32_t)DMA2_Channel1) / ((uint32_t)DMA2_Ch
 319              		.loc 1 336 0
 320 004e 7B68     		ldr	r3, [r7, #4]
 321 0050 1B68     		ldr	r3, [r3]
 322 0052 1A46     		mov	r2, r3
 323 0054 2F4B     		ldr	r3, .L17+16
 324 0056 1344     		add	r3, r3, r2
 325 0058 2C4A     		ldr	r2, .L17+8
 326 005a A2FB0323 		umull	r2, r3, r2, r3
 327 005e 1B09     		lsrs	r3, r3, #4
 328 0060 9A00     		lsls	r2, r3, #2
 329 0062 7B68     		ldr	r3, [r7, #4]
 330 0064 5A64     		str	r2, [r3, #68]
 337:D:/iot/felix2/targets/Cloud_STM32L431_BearPi/Drivers/STM32L4xx_HAL_Driver/Src\stm32l4xx_hal_dma.c ****     hdma->DmaBaseAddress = DMA2;
 331              		.loc 1 337 0
 332 0066 7B68     		ldr	r3, [r7, #4]
 333 0068 2B4A     		ldr	r2, .L17+20
 334 006a 1A64     		str	r2, [r3, #64]
 335              	.L14:
 338:D:/iot/felix2/targets/Cloud_STM32L431_BearPi/Drivers/STM32L4xx_HAL_Driver/Src\stm32l4xx_hal_dma.c ****   }
 339:D:/iot/felix2/targets/Cloud_STM32L431_BearPi/Drivers/STM32L4xx_HAL_Driver/Src\stm32l4xx_hal_dma.c **** 
 340:D:/iot/felix2/targets/Cloud_STM32L431_BearPi/Drivers/STM32L4xx_HAL_Driver/Src\stm32l4xx_hal_dma.c ****   /* Reset DMA Channel control register */
 341:D:/iot/felix2/targets/Cloud_STM32L431_BearPi/Drivers/STM32L4xx_HAL_Driver/Src\stm32l4xx_hal_dma.c ****   hdma->Instance->CCR  = 0;
 336              		.loc 1 341 0
 337 006c 7B68     		ldr	r3, [r7, #4]
 338 006e 1B68     		ldr	r3, [r3]
 339 0070 0022     		movs	r2, #0
 340 0072 1A60     		str	r2, [r3]
 342:D:/iot/felix2/targets/Cloud_STM32L431_BearPi/Drivers/STM32L4xx_HAL_Driver/Src\stm32l4xx_hal_dma.c **** 
 343:D:/iot/felix2/targets/Cloud_STM32L431_BearPi/Drivers/STM32L4xx_HAL_Driver/Src\stm32l4xx_hal_dma.c ****   /* Clear all flags */
ARM GAS  C:\Users\91458\AppData\Local\Temp\ccdbzqVS.s 			page 13


 344:D:/iot/felix2/targets/Cloud_STM32L431_BearPi/Drivers/STM32L4xx_HAL_Driver/Src\stm32l4xx_hal_dma.c ****   hdma->DmaBaseAddress->IFCR = (DMA_ISR_GIF1 << (hdma->ChannelIndex & 0x1cU));
 341              		.loc 1 344 0
 342 0074 7B68     		ldr	r3, [r7, #4]
 343 0076 5B6C     		ldr	r3, [r3, #68]
 344 0078 03F01C02 		and	r2, r3, #28
 345 007c 7B68     		ldr	r3, [r7, #4]
 346 007e 1B6C     		ldr	r3, [r3, #64]
 347 0080 0121     		movs	r1, #1
 348 0082 01FA02F2 		lsl	r2, r1, r2
 349 0086 5A60     		str	r2, [r3, #4]
 345:D:/iot/felix2/targets/Cloud_STM32L431_BearPi/Drivers/STM32L4xx_HAL_Driver/Src\stm32l4xx_hal_dma.c **** 
 346:D:/iot/felix2/targets/Cloud_STM32L431_BearPi/Drivers/STM32L4xx_HAL_Driver/Src\stm32l4xx_hal_dma.c **** #if !defined (DMAMUX1)
 347:D:/iot/felix2/targets/Cloud_STM32L431_BearPi/Drivers/STM32L4xx_HAL_Driver/Src\stm32l4xx_hal_dma.c **** 
 348:D:/iot/felix2/targets/Cloud_STM32L431_BearPi/Drivers/STM32L4xx_HAL_Driver/Src\stm32l4xx_hal_dma.c ****   /* Reset DMA channel selection register */
 349:D:/iot/felix2/targets/Cloud_STM32L431_BearPi/Drivers/STM32L4xx_HAL_Driver/Src\stm32l4xx_hal_dma.c ****   if (DMA1 == hdma->DmaBaseAddress)
 350              		.loc 1 349 0
 351 0088 7B68     		ldr	r3, [r7, #4]
 352 008a 1B6C     		ldr	r3, [r3, #64]
 353 008c 204A     		ldr	r2, .L17+12
 354 008e 9342     		cmp	r3, r2
 355 0090 0DD1     		bne	.L15
 350:D:/iot/felix2/targets/Cloud_STM32L431_BearPi/Drivers/STM32L4xx_HAL_Driver/Src\stm32l4xx_hal_dma.c ****   {
 351:D:/iot/felix2/targets/Cloud_STM32L431_BearPi/Drivers/STM32L4xx_HAL_Driver/Src\stm32l4xx_hal_dma.c ****     /* DMA1 */
 352:D:/iot/felix2/targets/Cloud_STM32L431_BearPi/Drivers/STM32L4xx_HAL_Driver/Src\stm32l4xx_hal_dma.c ****     DMA1_CSELR->CSELR &= ~(DMA_CSELR_C1S << (hdma->ChannelIndex & 0x1cU));
 356              		.loc 1 352 0
 357 0092 224B     		ldr	r3, .L17+24
 358 0094 1A68     		ldr	r2, [r3]
 359 0096 7B68     		ldr	r3, [r7, #4]
 360 0098 5B6C     		ldr	r3, [r3, #68]
 361 009a 03F01C03 		and	r3, r3, #28
 362 009e 0F21     		movs	r1, #15
 363 00a0 01FA03F3 		lsl	r3, r1, r3
 364 00a4 DB43     		mvns	r3, r3
 365 00a6 1D49     		ldr	r1, .L17+24
 366 00a8 1340     		ands	r3, r3, r2
 367 00aa 0B60     		str	r3, [r1]
 368 00ac 0CE0     		b	.L16
 369              	.L15:
 353:D:/iot/felix2/targets/Cloud_STM32L431_BearPi/Drivers/STM32L4xx_HAL_Driver/Src\stm32l4xx_hal_dma.c ****   }
 354:D:/iot/felix2/targets/Cloud_STM32L431_BearPi/Drivers/STM32L4xx_HAL_Driver/Src\stm32l4xx_hal_dma.c ****   else
 355:D:/iot/felix2/targets/Cloud_STM32L431_BearPi/Drivers/STM32L4xx_HAL_Driver/Src\stm32l4xx_hal_dma.c ****   {
 356:D:/iot/felix2/targets/Cloud_STM32L431_BearPi/Drivers/STM32L4xx_HAL_Driver/Src\stm32l4xx_hal_dma.c ****     /* DMA2 */
 357:D:/iot/felix2/targets/Cloud_STM32L431_BearPi/Drivers/STM32L4xx_HAL_Driver/Src\stm32l4xx_hal_dma.c ****     DMA2_CSELR->CSELR &= ~(DMA_CSELR_C1S << (hdma->ChannelIndex & 0x1cU));
 370              		.loc 1 357 0
 371 00ae 1C4B     		ldr	r3, .L17+28
 372 00b0 1A68     		ldr	r2, [r3]
 373 00b2 7B68     		ldr	r3, [r7, #4]
 374 00b4 5B6C     		ldr	r3, [r3, #68]
 375 00b6 03F01C03 		and	r3, r3, #28
 376 00ba 0F21     		movs	r1, #15
 377 00bc 01FA03F3 		lsl	r3, r1, r3
 378 00c0 DB43     		mvns	r3, r3
 379 00c2 1749     		ldr	r1, .L17+28
 380 00c4 1340     		ands	r3, r3, r2
 381 00c6 0B60     		str	r3, [r1]
 382              	.L16:
 358:D:/iot/felix2/targets/Cloud_STM32L431_BearPi/Drivers/STM32L4xx_HAL_Driver/Src\stm32l4xx_hal_dma.c ****   }
ARM GAS  C:\Users\91458\AppData\Local\Temp\ccdbzqVS.s 			page 14


 359:D:/iot/felix2/targets/Cloud_STM32L431_BearPi/Drivers/STM32L4xx_HAL_Driver/Src\stm32l4xx_hal_dma.c **** #endif /* STM32L431xx || STM32L432xx || STM32L433xx || STM32L442xx || STM32L443xx */
 360:D:/iot/felix2/targets/Cloud_STM32L431_BearPi/Drivers/STM32L4xx_HAL_Driver/Src\stm32l4xx_hal_dma.c ****        /* STM32L471xx || STM32L475xx || STM32L476xx || STM32L442xx || STM32L486xx */
 361:D:/iot/felix2/targets/Cloud_STM32L431_BearPi/Drivers/STM32L4xx_HAL_Driver/Src\stm32l4xx_hal_dma.c ****        /* STM32L496xx || STM32L4A6xx                                              */
 362:D:/iot/felix2/targets/Cloud_STM32L431_BearPi/Drivers/STM32L4xx_HAL_Driver/Src\stm32l4xx_hal_dma.c **** 
 363:D:/iot/felix2/targets/Cloud_STM32L431_BearPi/Drivers/STM32L4xx_HAL_Driver/Src\stm32l4xx_hal_dma.c **** #if defined(DMAMUX1)
 364:D:/iot/felix2/targets/Cloud_STM32L431_BearPi/Drivers/STM32L4xx_HAL_Driver/Src\stm32l4xx_hal_dma.c **** 
 365:D:/iot/felix2/targets/Cloud_STM32L431_BearPi/Drivers/STM32L4xx_HAL_Driver/Src\stm32l4xx_hal_dma.c ****   /* Initialize parameters for DMAMUX channel :
 366:D:/iot/felix2/targets/Cloud_STM32L431_BearPi/Drivers/STM32L4xx_HAL_Driver/Src\stm32l4xx_hal_dma.c ****      DMAmuxChannel, DMAmuxChannelStatus and DMAmuxChannelStatusMask */
 367:D:/iot/felix2/targets/Cloud_STM32L431_BearPi/Drivers/STM32L4xx_HAL_Driver/Src\stm32l4xx_hal_dma.c **** 
 368:D:/iot/felix2/targets/Cloud_STM32L431_BearPi/Drivers/STM32L4xx_HAL_Driver/Src\stm32l4xx_hal_dma.c ****   DMA_CalcDMAMUXChannelBaseAndMask(hdma);
 369:D:/iot/felix2/targets/Cloud_STM32L431_BearPi/Drivers/STM32L4xx_HAL_Driver/Src\stm32l4xx_hal_dma.c **** 
 370:D:/iot/felix2/targets/Cloud_STM32L431_BearPi/Drivers/STM32L4xx_HAL_Driver/Src\stm32l4xx_hal_dma.c ****   /* Reset the DMAMUX channel that corresponds to the DMA channel */
 371:D:/iot/felix2/targets/Cloud_STM32L431_BearPi/Drivers/STM32L4xx_HAL_Driver/Src\stm32l4xx_hal_dma.c ****   hdma->DMAmuxChannel->CCR = 0;
 372:D:/iot/felix2/targets/Cloud_STM32L431_BearPi/Drivers/STM32L4xx_HAL_Driver/Src\stm32l4xx_hal_dma.c **** 
 373:D:/iot/felix2/targets/Cloud_STM32L431_BearPi/Drivers/STM32L4xx_HAL_Driver/Src\stm32l4xx_hal_dma.c ****   /* Clear the DMAMUX synchro overrun flag */
 374:D:/iot/felix2/targets/Cloud_STM32L431_BearPi/Drivers/STM32L4xx_HAL_Driver/Src\stm32l4xx_hal_dma.c ****   hdma->DMAmuxChannelStatus->CFR = hdma->DMAmuxChannelStatusMask;
 375:D:/iot/felix2/targets/Cloud_STM32L431_BearPi/Drivers/STM32L4xx_HAL_Driver/Src\stm32l4xx_hal_dma.c **** 
 376:D:/iot/felix2/targets/Cloud_STM32L431_BearPi/Drivers/STM32L4xx_HAL_Driver/Src\stm32l4xx_hal_dma.c ****   /* Reset Request generator parameters if any */
 377:D:/iot/felix2/targets/Cloud_STM32L431_BearPi/Drivers/STM32L4xx_HAL_Driver/Src\stm32l4xx_hal_dma.c ****   if(((hdma->Init.Request >  0UL) && (hdma->Init.Request <= DMA_REQUEST_GENERATOR3)))
 378:D:/iot/felix2/targets/Cloud_STM32L431_BearPi/Drivers/STM32L4xx_HAL_Driver/Src\stm32l4xx_hal_dma.c ****   {
 379:D:/iot/felix2/targets/Cloud_STM32L431_BearPi/Drivers/STM32L4xx_HAL_Driver/Src\stm32l4xx_hal_dma.c ****     /* Initialize parameters for DMAMUX request generator :
 380:D:/iot/felix2/targets/Cloud_STM32L431_BearPi/Drivers/STM32L4xx_HAL_Driver/Src\stm32l4xx_hal_dma.c ****        DMAmuxRequestGen, DMAmuxRequestGenStatus and DMAmuxRequestGenStatusMask
 381:D:/iot/felix2/targets/Cloud_STM32L431_BearPi/Drivers/STM32L4xx_HAL_Driver/Src\stm32l4xx_hal_dma.c ****     */
 382:D:/iot/felix2/targets/Cloud_STM32L431_BearPi/Drivers/STM32L4xx_HAL_Driver/Src\stm32l4xx_hal_dma.c ****     DMA_CalcDMAMUXRequestGenBaseAndMask(hdma);
 383:D:/iot/felix2/targets/Cloud_STM32L431_BearPi/Drivers/STM32L4xx_HAL_Driver/Src\stm32l4xx_hal_dma.c **** 
 384:D:/iot/felix2/targets/Cloud_STM32L431_BearPi/Drivers/STM32L4xx_HAL_Driver/Src\stm32l4xx_hal_dma.c ****     /* Reset the DMAMUX request generator register*/
 385:D:/iot/felix2/targets/Cloud_STM32L431_BearPi/Drivers/STM32L4xx_HAL_Driver/Src\stm32l4xx_hal_dma.c ****     hdma->DMAmuxRequestGen->RGCR = 0U;
 386:D:/iot/felix2/targets/Cloud_STM32L431_BearPi/Drivers/STM32L4xx_HAL_Driver/Src\stm32l4xx_hal_dma.c **** 
 387:D:/iot/felix2/targets/Cloud_STM32L431_BearPi/Drivers/STM32L4xx_HAL_Driver/Src\stm32l4xx_hal_dma.c ****     /* Clear the DMAMUX request generator overrun flag */
 388:D:/iot/felix2/targets/Cloud_STM32L431_BearPi/Drivers/STM32L4xx_HAL_Driver/Src\stm32l4xx_hal_dma.c ****     hdma->DMAmuxRequestGenStatus->RGCFR = hdma->DMAmuxRequestGenStatusMask;
 389:D:/iot/felix2/targets/Cloud_STM32L431_BearPi/Drivers/STM32L4xx_HAL_Driver/Src\stm32l4xx_hal_dma.c ****   }
 390:D:/iot/felix2/targets/Cloud_STM32L431_BearPi/Drivers/STM32L4xx_HAL_Driver/Src\stm32l4xx_hal_dma.c ****   
 391:D:/iot/felix2/targets/Cloud_STM32L431_BearPi/Drivers/STM32L4xx_HAL_Driver/Src\stm32l4xx_hal_dma.c ****   hdma->DMAmuxRequestGen = 0U;
 392:D:/iot/felix2/targets/Cloud_STM32L431_BearPi/Drivers/STM32L4xx_HAL_Driver/Src\stm32l4xx_hal_dma.c ****   hdma->DMAmuxRequestGenStatus = 0U;
 393:D:/iot/felix2/targets/Cloud_STM32L431_BearPi/Drivers/STM32L4xx_HAL_Driver/Src\stm32l4xx_hal_dma.c ****   hdma->DMAmuxRequestGenStatusMask = 0U;
 394:D:/iot/felix2/targets/Cloud_STM32L431_BearPi/Drivers/STM32L4xx_HAL_Driver/Src\stm32l4xx_hal_dma.c **** 
 395:D:/iot/felix2/targets/Cloud_STM32L431_BearPi/Drivers/STM32L4xx_HAL_Driver/Src\stm32l4xx_hal_dma.c **** #endif /* DMAMUX1 */
 396:D:/iot/felix2/targets/Cloud_STM32L431_BearPi/Drivers/STM32L4xx_HAL_Driver/Src\stm32l4xx_hal_dma.c **** 
 397:D:/iot/felix2/targets/Cloud_STM32L431_BearPi/Drivers/STM32L4xx_HAL_Driver/Src\stm32l4xx_hal_dma.c ****   /* Clean callbacks */
 398:D:/iot/felix2/targets/Cloud_STM32L431_BearPi/Drivers/STM32L4xx_HAL_Driver/Src\stm32l4xx_hal_dma.c ****   hdma->XferCpltCallback = NULL;
 383              		.loc 1 398 0
 384 00c8 7B68     		ldr	r3, [r7, #4]
 385 00ca 0022     		movs	r2, #0
 386 00cc DA62     		str	r2, [r3, #44]
 399:D:/iot/felix2/targets/Cloud_STM32L431_BearPi/Drivers/STM32L4xx_HAL_Driver/Src\stm32l4xx_hal_dma.c ****   hdma->XferHalfCpltCallback = NULL;
 387              		.loc 1 399 0
 388 00ce 7B68     		ldr	r3, [r7, #4]
 389 00d0 0022     		movs	r2, #0
 390 00d2 1A63     		str	r2, [r3, #48]
 400:D:/iot/felix2/targets/Cloud_STM32L431_BearPi/Drivers/STM32L4xx_HAL_Driver/Src\stm32l4xx_hal_dma.c ****   hdma->XferErrorCallback = NULL;
 391              		.loc 1 400 0
 392 00d4 7B68     		ldr	r3, [r7, #4]
 393 00d6 0022     		movs	r2, #0
 394 00d8 5A63     		str	r2, [r3, #52]
 401:D:/iot/felix2/targets/Cloud_STM32L431_BearPi/Drivers/STM32L4xx_HAL_Driver/Src\stm32l4xx_hal_dma.c ****   hdma->XferAbortCallback = NULL;
 395              		.loc 1 401 0
 396 00da 7B68     		ldr	r3, [r7, #4]
ARM GAS  C:\Users\91458\AppData\Local\Temp\ccdbzqVS.s 			page 15


 397 00dc 0022     		movs	r2, #0
 398 00de 9A63     		str	r2, [r3, #56]
 402:D:/iot/felix2/targets/Cloud_STM32L431_BearPi/Drivers/STM32L4xx_HAL_Driver/Src\stm32l4xx_hal_dma.c **** 
 403:D:/iot/felix2/targets/Cloud_STM32L431_BearPi/Drivers/STM32L4xx_HAL_Driver/Src\stm32l4xx_hal_dma.c ****   /* Initialise the error code */
 404:D:/iot/felix2/targets/Cloud_STM32L431_BearPi/Drivers/STM32L4xx_HAL_Driver/Src\stm32l4xx_hal_dma.c ****   hdma->ErrorCode = HAL_DMA_ERROR_NONE;
 399              		.loc 1 404 0
 400 00e0 7B68     		ldr	r3, [r7, #4]
 401 00e2 0022     		movs	r2, #0
 402 00e4 DA63     		str	r2, [r3, #60]
 405:D:/iot/felix2/targets/Cloud_STM32L431_BearPi/Drivers/STM32L4xx_HAL_Driver/Src\stm32l4xx_hal_dma.c **** 
 406:D:/iot/felix2/targets/Cloud_STM32L431_BearPi/Drivers/STM32L4xx_HAL_Driver/Src\stm32l4xx_hal_dma.c ****   /* Initialize the DMA state */
 407:D:/iot/felix2/targets/Cloud_STM32L431_BearPi/Drivers/STM32L4xx_HAL_Driver/Src\stm32l4xx_hal_dma.c ****   hdma->State = HAL_DMA_STATE_RESET;
 403              		.loc 1 407 0
 404 00e6 7B68     		ldr	r3, [r7, #4]
 405 00e8 0022     		movs	r2, #0
 406 00ea 83F82520 		strb	r2, [r3, #37]
 408:D:/iot/felix2/targets/Cloud_STM32L431_BearPi/Drivers/STM32L4xx_HAL_Driver/Src\stm32l4xx_hal_dma.c **** 
 409:D:/iot/felix2/targets/Cloud_STM32L431_BearPi/Drivers/STM32L4xx_HAL_Driver/Src\stm32l4xx_hal_dma.c ****   /* Release Lock */
 410:D:/iot/felix2/targets/Cloud_STM32L431_BearPi/Drivers/STM32L4xx_HAL_Driver/Src\stm32l4xx_hal_dma.c ****   __HAL_UNLOCK(hdma);
 407              		.loc 1 410 0
 408 00ee 7B68     		ldr	r3, [r7, #4]
 409 00f0 0022     		movs	r2, #0
 410 00f2 83F82420 		strb	r2, [r3, #36]
 411:D:/iot/felix2/targets/Cloud_STM32L431_BearPi/Drivers/STM32L4xx_HAL_Driver/Src\stm32l4xx_hal_dma.c **** 
 412:D:/iot/felix2/targets/Cloud_STM32L431_BearPi/Drivers/STM32L4xx_HAL_Driver/Src\stm32l4xx_hal_dma.c ****   return HAL_OK;
 411              		.loc 1 412 0
 412 00f6 0023     		movs	r3, #0
 413              	.L12:
 413:D:/iot/felix2/targets/Cloud_STM32L431_BearPi/Drivers/STM32L4xx_HAL_Driver/Src\stm32l4xx_hal_dma.c **** }
 414              		.loc 1 413 0
 415 00f8 1846     		mov	r0, r3
 416 00fa 0C37     		adds	r7, r7, #12
 417              	.LCFI9:
 418              		.cfi_def_cfa_offset 4
 419 00fc BD46     		mov	sp, r7
 420              	.LCFI10:
 421              		.cfi_def_cfa_register 13
 422              		@ sp needed
 423 00fe 5DF8047B 		ldr	r7, [sp], #4
 424              	.LCFI11:
 425              		.cfi_restore 7
 426              		.cfi_def_cfa_offset 0
 427 0102 7047     		bx	lr
 428              	.L18:
 429              		.align	2
 430              	.L17:
 431 0104 07040240 		.word	1073873927
 432 0108 F8FFFDBF 		.word	-1073872904
 433 010c CDCCCCCC 		.word	-858993459
 434 0110 00000240 		.word	1073872896
 435 0114 F8FBFDBF 		.word	-1073873928
 436 0118 00040240 		.word	1073873920
 437 011c A8000240 		.word	1073873064
 438 0120 A8040240 		.word	1073874088
 439              		.cfi_endproc
 440              	.LFE134:
 442              		.section	.text.HAL_DMA_Start,"ax",%progbits
ARM GAS  C:\Users\91458\AppData\Local\Temp\ccdbzqVS.s 			page 16


 443              		.align	1
 444              		.global	HAL_DMA_Start
 445              		.syntax unified
 446              		.thumb
 447              		.thumb_func
 448              		.fpu fpv4-sp-d16
 450              	HAL_DMA_Start:
 451              	.LFB135:
 414:D:/iot/felix2/targets/Cloud_STM32L431_BearPi/Drivers/STM32L4xx_HAL_Driver/Src\stm32l4xx_hal_dma.c **** 
 415:D:/iot/felix2/targets/Cloud_STM32L431_BearPi/Drivers/STM32L4xx_HAL_Driver/Src\stm32l4xx_hal_dma.c **** /**
 416:D:/iot/felix2/targets/Cloud_STM32L431_BearPi/Drivers/STM32L4xx_HAL_Driver/Src\stm32l4xx_hal_dma.c ****   * @}
 417:D:/iot/felix2/targets/Cloud_STM32L431_BearPi/Drivers/STM32L4xx_HAL_Driver/Src\stm32l4xx_hal_dma.c ****   */
 418:D:/iot/felix2/targets/Cloud_STM32L431_BearPi/Drivers/STM32L4xx_HAL_Driver/Src\stm32l4xx_hal_dma.c **** 
 419:D:/iot/felix2/targets/Cloud_STM32L431_BearPi/Drivers/STM32L4xx_HAL_Driver/Src\stm32l4xx_hal_dma.c **** /** @defgroup DMA_Exported_Functions_Group2 Input and Output operation functions
 420:D:/iot/felix2/targets/Cloud_STM32L431_BearPi/Drivers/STM32L4xx_HAL_Driver/Src\stm32l4xx_hal_dma.c ****  *  @brief   Input and Output operation functions
 421:D:/iot/felix2/targets/Cloud_STM32L431_BearPi/Drivers/STM32L4xx_HAL_Driver/Src\stm32l4xx_hal_dma.c ****  *
 422:D:/iot/felix2/targets/Cloud_STM32L431_BearPi/Drivers/STM32L4xx_HAL_Driver/Src\stm32l4xx_hal_dma.c **** @verbatim
 423:D:/iot/felix2/targets/Cloud_STM32L431_BearPi/Drivers/STM32L4xx_HAL_Driver/Src\stm32l4xx_hal_dma.c ****  ===============================================================================
 424:D:/iot/felix2/targets/Cloud_STM32L431_BearPi/Drivers/STM32L4xx_HAL_Driver/Src\stm32l4xx_hal_dma.c ****                       #####  IO operation functions  #####
 425:D:/iot/felix2/targets/Cloud_STM32L431_BearPi/Drivers/STM32L4xx_HAL_Driver/Src\stm32l4xx_hal_dma.c ****  ===============================================================================
 426:D:/iot/felix2/targets/Cloud_STM32L431_BearPi/Drivers/STM32L4xx_HAL_Driver/Src\stm32l4xx_hal_dma.c ****     [..]  This section provides functions allowing to:
 427:D:/iot/felix2/targets/Cloud_STM32L431_BearPi/Drivers/STM32L4xx_HAL_Driver/Src\stm32l4xx_hal_dma.c ****       (+) Configure the source, destination address and data length and Start DMA transfer
 428:D:/iot/felix2/targets/Cloud_STM32L431_BearPi/Drivers/STM32L4xx_HAL_Driver/Src\stm32l4xx_hal_dma.c ****       (+) Configure the source, destination address and data length and
 429:D:/iot/felix2/targets/Cloud_STM32L431_BearPi/Drivers/STM32L4xx_HAL_Driver/Src\stm32l4xx_hal_dma.c ****           Start DMA transfer with interrupt
 430:D:/iot/felix2/targets/Cloud_STM32L431_BearPi/Drivers/STM32L4xx_HAL_Driver/Src\stm32l4xx_hal_dma.c ****       (+) Abort DMA transfer
 431:D:/iot/felix2/targets/Cloud_STM32L431_BearPi/Drivers/STM32L4xx_HAL_Driver/Src\stm32l4xx_hal_dma.c ****       (+) Poll for transfer complete
 432:D:/iot/felix2/targets/Cloud_STM32L431_BearPi/Drivers/STM32L4xx_HAL_Driver/Src\stm32l4xx_hal_dma.c ****       (+) Handle DMA interrupt request
 433:D:/iot/felix2/targets/Cloud_STM32L431_BearPi/Drivers/STM32L4xx_HAL_Driver/Src\stm32l4xx_hal_dma.c **** 
 434:D:/iot/felix2/targets/Cloud_STM32L431_BearPi/Drivers/STM32L4xx_HAL_Driver/Src\stm32l4xx_hal_dma.c **** @endverbatim
 435:D:/iot/felix2/targets/Cloud_STM32L431_BearPi/Drivers/STM32L4xx_HAL_Driver/Src\stm32l4xx_hal_dma.c ****   * @{
 436:D:/iot/felix2/targets/Cloud_STM32L431_BearPi/Drivers/STM32L4xx_HAL_Driver/Src\stm32l4xx_hal_dma.c ****   */
 437:D:/iot/felix2/targets/Cloud_STM32L431_BearPi/Drivers/STM32L4xx_HAL_Driver/Src\stm32l4xx_hal_dma.c **** 
 438:D:/iot/felix2/targets/Cloud_STM32L431_BearPi/Drivers/STM32L4xx_HAL_Driver/Src\stm32l4xx_hal_dma.c **** /**
 439:D:/iot/felix2/targets/Cloud_STM32L431_BearPi/Drivers/STM32L4xx_HAL_Driver/Src\stm32l4xx_hal_dma.c ****   * @brief  Start the DMA Transfer.
 440:D:/iot/felix2/targets/Cloud_STM32L431_BearPi/Drivers/STM32L4xx_HAL_Driver/Src\stm32l4xx_hal_dma.c ****   * @param  hdma pointer to a DMA_HandleTypeDef structure that contains
 441:D:/iot/felix2/targets/Cloud_STM32L431_BearPi/Drivers/STM32L4xx_HAL_Driver/Src\stm32l4xx_hal_dma.c ****   *               the configuration information for the specified DMA Channel.
 442:D:/iot/felix2/targets/Cloud_STM32L431_BearPi/Drivers/STM32L4xx_HAL_Driver/Src\stm32l4xx_hal_dma.c ****   * @param  SrcAddress The source memory Buffer address
 443:D:/iot/felix2/targets/Cloud_STM32L431_BearPi/Drivers/STM32L4xx_HAL_Driver/Src\stm32l4xx_hal_dma.c ****   * @param  DstAddress The destination memory Buffer address
 444:D:/iot/felix2/targets/Cloud_STM32L431_BearPi/Drivers/STM32L4xx_HAL_Driver/Src\stm32l4xx_hal_dma.c ****   * @param  DataLength The length of data to be transferred from source to destination
 445:D:/iot/felix2/targets/Cloud_STM32L431_BearPi/Drivers/STM32L4xx_HAL_Driver/Src\stm32l4xx_hal_dma.c ****   * @retval HAL status
 446:D:/iot/felix2/targets/Cloud_STM32L431_BearPi/Drivers/STM32L4xx_HAL_Driver/Src\stm32l4xx_hal_dma.c ****   */
 447:D:/iot/felix2/targets/Cloud_STM32L431_BearPi/Drivers/STM32L4xx_HAL_Driver/Src\stm32l4xx_hal_dma.c **** HAL_StatusTypeDef HAL_DMA_Start(DMA_HandleTypeDef *hdma, uint32_t SrcAddress, uint32_t DstAddress, 
 448:D:/iot/felix2/targets/Cloud_STM32L431_BearPi/Drivers/STM32L4xx_HAL_Driver/Src\stm32l4xx_hal_dma.c **** {
 452              		.loc 1 448 0
 453              		.cfi_startproc
 454              		@ args = 0, pretend = 0, frame = 24
 455              		@ frame_needed = 1, uses_anonymous_args = 0
 456 0000 80B5     		push	{r7, lr}
 457              	.LCFI12:
 458              		.cfi_def_cfa_offset 8
 459              		.cfi_offset 7, -8
 460              		.cfi_offset 14, -4
 461 0002 86B0     		sub	sp, sp, #24
 462              	.LCFI13:
 463              		.cfi_def_cfa_offset 32
 464 0004 00AF     		add	r7, sp, #0
 465              	.LCFI14:
ARM GAS  C:\Users\91458\AppData\Local\Temp\ccdbzqVS.s 			page 17


 466              		.cfi_def_cfa_register 7
 467 0006 F860     		str	r0, [r7, #12]
 468 0008 B960     		str	r1, [r7, #8]
 469 000a 7A60     		str	r2, [r7, #4]
 470 000c 3B60     		str	r3, [r7]
 449:D:/iot/felix2/targets/Cloud_STM32L431_BearPi/Drivers/STM32L4xx_HAL_Driver/Src\stm32l4xx_hal_dma.c ****   HAL_StatusTypeDef status = HAL_OK;
 471              		.loc 1 449 0
 472 000e 0023     		movs	r3, #0
 473 0010 FB75     		strb	r3, [r7, #23]
 450:D:/iot/felix2/targets/Cloud_STM32L431_BearPi/Drivers/STM32L4xx_HAL_Driver/Src\stm32l4xx_hal_dma.c **** 
 451:D:/iot/felix2/targets/Cloud_STM32L431_BearPi/Drivers/STM32L4xx_HAL_Driver/Src\stm32l4xx_hal_dma.c ****   /* Check the parameters */
 452:D:/iot/felix2/targets/Cloud_STM32L431_BearPi/Drivers/STM32L4xx_HAL_Driver/Src\stm32l4xx_hal_dma.c ****   assert_param(IS_DMA_BUFFER_SIZE(DataLength));
 453:D:/iot/felix2/targets/Cloud_STM32L431_BearPi/Drivers/STM32L4xx_HAL_Driver/Src\stm32l4xx_hal_dma.c **** 
 454:D:/iot/felix2/targets/Cloud_STM32L431_BearPi/Drivers/STM32L4xx_HAL_Driver/Src\stm32l4xx_hal_dma.c ****   /* Process locked */
 455:D:/iot/felix2/targets/Cloud_STM32L431_BearPi/Drivers/STM32L4xx_HAL_Driver/Src\stm32l4xx_hal_dma.c ****   __HAL_LOCK(hdma);
 474              		.loc 1 455 0
 475 0012 FB68     		ldr	r3, [r7, #12]
 476 0014 93F82430 		ldrb	r3, [r3, #36]	@ zero_extendqisi2
 477 0018 012B     		cmp	r3, #1
 478 001a 01D1     		bne	.L20
 479              		.loc 1 455 0 is_stmt 0 discriminator 1
 480 001c 0223     		movs	r3, #2
 481 001e 2EE0     		b	.L21
 482              	.L20:
 483              		.loc 1 455 0 discriminator 2
 484 0020 FB68     		ldr	r3, [r7, #12]
 485 0022 0122     		movs	r2, #1
 486 0024 83F82420 		strb	r2, [r3, #36]
 456:D:/iot/felix2/targets/Cloud_STM32L431_BearPi/Drivers/STM32L4xx_HAL_Driver/Src\stm32l4xx_hal_dma.c **** 
 457:D:/iot/felix2/targets/Cloud_STM32L431_BearPi/Drivers/STM32L4xx_HAL_Driver/Src\stm32l4xx_hal_dma.c ****   if(HAL_DMA_STATE_READY == hdma->State)
 487              		.loc 1 457 0 is_stmt 1 discriminator 2
 488 0028 FB68     		ldr	r3, [r7, #12]
 489 002a 93F82530 		ldrb	r3, [r3, #37]
 490 002e DBB2     		uxtb	r3, r3
 491 0030 012B     		cmp	r3, #1
 492 0032 1DD1     		bne	.L22
 458:D:/iot/felix2/targets/Cloud_STM32L431_BearPi/Drivers/STM32L4xx_HAL_Driver/Src\stm32l4xx_hal_dma.c ****   {
 459:D:/iot/felix2/targets/Cloud_STM32L431_BearPi/Drivers/STM32L4xx_HAL_Driver/Src\stm32l4xx_hal_dma.c ****     /* Change DMA peripheral state */
 460:D:/iot/felix2/targets/Cloud_STM32L431_BearPi/Drivers/STM32L4xx_HAL_Driver/Src\stm32l4xx_hal_dma.c ****     hdma->State = HAL_DMA_STATE_BUSY;
 493              		.loc 1 460 0
 494 0034 FB68     		ldr	r3, [r7, #12]
 495 0036 0222     		movs	r2, #2
 496 0038 83F82520 		strb	r2, [r3, #37]
 461:D:/iot/felix2/targets/Cloud_STM32L431_BearPi/Drivers/STM32L4xx_HAL_Driver/Src\stm32l4xx_hal_dma.c ****     hdma->ErrorCode = HAL_DMA_ERROR_NONE;
 497              		.loc 1 461 0
 498 003c FB68     		ldr	r3, [r7, #12]
 499 003e 0022     		movs	r2, #0
 500 0040 DA63     		str	r2, [r3, #60]
 462:D:/iot/felix2/targets/Cloud_STM32L431_BearPi/Drivers/STM32L4xx_HAL_Driver/Src\stm32l4xx_hal_dma.c **** 
 463:D:/iot/felix2/targets/Cloud_STM32L431_BearPi/Drivers/STM32L4xx_HAL_Driver/Src\stm32l4xx_hal_dma.c ****     /* Disable the peripheral */
 464:D:/iot/felix2/targets/Cloud_STM32L431_BearPi/Drivers/STM32L4xx_HAL_Driver/Src\stm32l4xx_hal_dma.c ****     __HAL_DMA_DISABLE(hdma);
 501              		.loc 1 464 0
 502 0042 FB68     		ldr	r3, [r7, #12]
 503 0044 1B68     		ldr	r3, [r3]
 504 0046 1A68     		ldr	r2, [r3]
 505 0048 FB68     		ldr	r3, [r7, #12]
 506 004a 1B68     		ldr	r3, [r3]
ARM GAS  C:\Users\91458\AppData\Local\Temp\ccdbzqVS.s 			page 18


 507 004c 22F00102 		bic	r2, r2, #1
 508 0050 1A60     		str	r2, [r3]
 465:D:/iot/felix2/targets/Cloud_STM32L431_BearPi/Drivers/STM32L4xx_HAL_Driver/Src\stm32l4xx_hal_dma.c **** 
 466:D:/iot/felix2/targets/Cloud_STM32L431_BearPi/Drivers/STM32L4xx_HAL_Driver/Src\stm32l4xx_hal_dma.c ****     /* Configure the source, destination address and the data length & clear flags*/
 467:D:/iot/felix2/targets/Cloud_STM32L431_BearPi/Drivers/STM32L4xx_HAL_Driver/Src\stm32l4xx_hal_dma.c ****     DMA_SetConfig(hdma, SrcAddress, DstAddress, DataLength);
 509              		.loc 1 467 0
 510 0052 3B68     		ldr	r3, [r7]
 511 0054 7A68     		ldr	r2, [r7, #4]
 512 0056 B968     		ldr	r1, [r7, #8]
 513 0058 F868     		ldr	r0, [r7, #12]
 514 005a FFF7FEFF 		bl	DMA_SetConfig
 468:D:/iot/felix2/targets/Cloud_STM32L431_BearPi/Drivers/STM32L4xx_HAL_Driver/Src\stm32l4xx_hal_dma.c **** 
 469:D:/iot/felix2/targets/Cloud_STM32L431_BearPi/Drivers/STM32L4xx_HAL_Driver/Src\stm32l4xx_hal_dma.c ****     /* Enable the Peripheral */
 470:D:/iot/felix2/targets/Cloud_STM32L431_BearPi/Drivers/STM32L4xx_HAL_Driver/Src\stm32l4xx_hal_dma.c ****     __HAL_DMA_ENABLE(hdma);
 515              		.loc 1 470 0
 516 005e FB68     		ldr	r3, [r7, #12]
 517 0060 1B68     		ldr	r3, [r3]
 518 0062 1A68     		ldr	r2, [r3]
 519 0064 FB68     		ldr	r3, [r7, #12]
 520 0066 1B68     		ldr	r3, [r3]
 521 0068 42F00102 		orr	r2, r2, #1
 522 006c 1A60     		str	r2, [r3]
 523 006e 05E0     		b	.L23
 524              	.L22:
 471:D:/iot/felix2/targets/Cloud_STM32L431_BearPi/Drivers/STM32L4xx_HAL_Driver/Src\stm32l4xx_hal_dma.c ****   }
 472:D:/iot/felix2/targets/Cloud_STM32L431_BearPi/Drivers/STM32L4xx_HAL_Driver/Src\stm32l4xx_hal_dma.c ****   else
 473:D:/iot/felix2/targets/Cloud_STM32L431_BearPi/Drivers/STM32L4xx_HAL_Driver/Src\stm32l4xx_hal_dma.c ****   {
 474:D:/iot/felix2/targets/Cloud_STM32L431_BearPi/Drivers/STM32L4xx_HAL_Driver/Src\stm32l4xx_hal_dma.c ****     /* Process Unlocked */
 475:D:/iot/felix2/targets/Cloud_STM32L431_BearPi/Drivers/STM32L4xx_HAL_Driver/Src\stm32l4xx_hal_dma.c ****     __HAL_UNLOCK(hdma);
 525              		.loc 1 475 0
 526 0070 FB68     		ldr	r3, [r7, #12]
 527 0072 0022     		movs	r2, #0
 528 0074 83F82420 		strb	r2, [r3, #36]
 476:D:/iot/felix2/targets/Cloud_STM32L431_BearPi/Drivers/STM32L4xx_HAL_Driver/Src\stm32l4xx_hal_dma.c ****     status = HAL_BUSY;
 529              		.loc 1 476 0
 530 0078 0223     		movs	r3, #2
 531 007a FB75     		strb	r3, [r7, #23]
 532              	.L23:
 477:D:/iot/felix2/targets/Cloud_STM32L431_BearPi/Drivers/STM32L4xx_HAL_Driver/Src\stm32l4xx_hal_dma.c ****   }
 478:D:/iot/felix2/targets/Cloud_STM32L431_BearPi/Drivers/STM32L4xx_HAL_Driver/Src\stm32l4xx_hal_dma.c ****   return status;
 533              		.loc 1 478 0
 534 007c FB7D     		ldrb	r3, [r7, #23]	@ zero_extendqisi2
 535              	.L21:
 479:D:/iot/felix2/targets/Cloud_STM32L431_BearPi/Drivers/STM32L4xx_HAL_Driver/Src\stm32l4xx_hal_dma.c **** }
 536              		.loc 1 479 0
 537 007e 1846     		mov	r0, r3
 538 0080 1837     		adds	r7, r7, #24
 539              	.LCFI15:
 540              		.cfi_def_cfa_offset 8
 541 0082 BD46     		mov	sp, r7
 542              	.LCFI16:
 543              		.cfi_def_cfa_register 13
 544              		@ sp needed
 545 0084 80BD     		pop	{r7, pc}
 546              		.cfi_endproc
 547              	.LFE135:
 549              		.section	.text.HAL_DMA_Start_IT,"ax",%progbits
ARM GAS  C:\Users\91458\AppData\Local\Temp\ccdbzqVS.s 			page 19


 550              		.align	1
 551              		.global	HAL_DMA_Start_IT
 552              		.syntax unified
 553              		.thumb
 554              		.thumb_func
 555              		.fpu fpv4-sp-d16
 557              	HAL_DMA_Start_IT:
 558              	.LFB136:
 480:D:/iot/felix2/targets/Cloud_STM32L431_BearPi/Drivers/STM32L4xx_HAL_Driver/Src\stm32l4xx_hal_dma.c **** 
 481:D:/iot/felix2/targets/Cloud_STM32L431_BearPi/Drivers/STM32L4xx_HAL_Driver/Src\stm32l4xx_hal_dma.c **** /**
 482:D:/iot/felix2/targets/Cloud_STM32L431_BearPi/Drivers/STM32L4xx_HAL_Driver/Src\stm32l4xx_hal_dma.c ****   * @brief  Start the DMA Transfer with interrupt enabled.
 483:D:/iot/felix2/targets/Cloud_STM32L431_BearPi/Drivers/STM32L4xx_HAL_Driver/Src\stm32l4xx_hal_dma.c ****   * @param  hdma pointer to a DMA_HandleTypeDef structure that contains
 484:D:/iot/felix2/targets/Cloud_STM32L431_BearPi/Drivers/STM32L4xx_HAL_Driver/Src\stm32l4xx_hal_dma.c ****   *               the configuration information for the specified DMA Channel.
 485:D:/iot/felix2/targets/Cloud_STM32L431_BearPi/Drivers/STM32L4xx_HAL_Driver/Src\stm32l4xx_hal_dma.c ****   * @param  SrcAddress The source memory Buffer address
 486:D:/iot/felix2/targets/Cloud_STM32L431_BearPi/Drivers/STM32L4xx_HAL_Driver/Src\stm32l4xx_hal_dma.c ****   * @param  DstAddress The destination memory Buffer address
 487:D:/iot/felix2/targets/Cloud_STM32L431_BearPi/Drivers/STM32L4xx_HAL_Driver/Src\stm32l4xx_hal_dma.c ****   * @param  DataLength The length of data to be transferred from source to destination
 488:D:/iot/felix2/targets/Cloud_STM32L431_BearPi/Drivers/STM32L4xx_HAL_Driver/Src\stm32l4xx_hal_dma.c ****   * @retval HAL status
 489:D:/iot/felix2/targets/Cloud_STM32L431_BearPi/Drivers/STM32L4xx_HAL_Driver/Src\stm32l4xx_hal_dma.c ****   */
 490:D:/iot/felix2/targets/Cloud_STM32L431_BearPi/Drivers/STM32L4xx_HAL_Driver/Src\stm32l4xx_hal_dma.c **** HAL_StatusTypeDef HAL_DMA_Start_IT(DMA_HandleTypeDef *hdma, uint32_t SrcAddress, uint32_t DstAddres
 491:D:/iot/felix2/targets/Cloud_STM32L431_BearPi/Drivers/STM32L4xx_HAL_Driver/Src\stm32l4xx_hal_dma.c **** {
 559              		.loc 1 491 0
 560              		.cfi_startproc
 561              		@ args = 0, pretend = 0, frame = 24
 562              		@ frame_needed = 1, uses_anonymous_args = 0
 563 0000 80B5     		push	{r7, lr}
 564              	.LCFI17:
 565              		.cfi_def_cfa_offset 8
 566              		.cfi_offset 7, -8
 567              		.cfi_offset 14, -4
 568 0002 86B0     		sub	sp, sp, #24
 569              	.LCFI18:
 570              		.cfi_def_cfa_offset 32
 571 0004 00AF     		add	r7, sp, #0
 572              	.LCFI19:
 573              		.cfi_def_cfa_register 7
 574 0006 F860     		str	r0, [r7, #12]
 575 0008 B960     		str	r1, [r7, #8]
 576 000a 7A60     		str	r2, [r7, #4]
 577 000c 3B60     		str	r3, [r7]
 492:D:/iot/felix2/targets/Cloud_STM32L431_BearPi/Drivers/STM32L4xx_HAL_Driver/Src\stm32l4xx_hal_dma.c ****   HAL_StatusTypeDef status = HAL_OK;
 578              		.loc 1 492 0
 579 000e 0023     		movs	r3, #0
 580 0010 FB75     		strb	r3, [r7, #23]
 493:D:/iot/felix2/targets/Cloud_STM32L431_BearPi/Drivers/STM32L4xx_HAL_Driver/Src\stm32l4xx_hal_dma.c **** 
 494:D:/iot/felix2/targets/Cloud_STM32L431_BearPi/Drivers/STM32L4xx_HAL_Driver/Src\stm32l4xx_hal_dma.c ****   /* Check the parameters */
 495:D:/iot/felix2/targets/Cloud_STM32L431_BearPi/Drivers/STM32L4xx_HAL_Driver/Src\stm32l4xx_hal_dma.c ****   assert_param(IS_DMA_BUFFER_SIZE(DataLength));
 496:D:/iot/felix2/targets/Cloud_STM32L431_BearPi/Drivers/STM32L4xx_HAL_Driver/Src\stm32l4xx_hal_dma.c **** 
 497:D:/iot/felix2/targets/Cloud_STM32L431_BearPi/Drivers/STM32L4xx_HAL_Driver/Src\stm32l4xx_hal_dma.c ****   /* Process locked */
 498:D:/iot/felix2/targets/Cloud_STM32L431_BearPi/Drivers/STM32L4xx_HAL_Driver/Src\stm32l4xx_hal_dma.c ****   __HAL_LOCK(hdma);
 581              		.loc 1 498 0
 582 0012 FB68     		ldr	r3, [r7, #12]
 583 0014 93F82430 		ldrb	r3, [r3, #36]	@ zero_extendqisi2
 584 0018 012B     		cmp	r3, #1
 585 001a 01D1     		bne	.L25
 586              		.loc 1 498 0 is_stmt 0 discriminator 1
 587 001c 0223     		movs	r3, #2
 588 001e 4BE0     		b	.L26
ARM GAS  C:\Users\91458\AppData\Local\Temp\ccdbzqVS.s 			page 20


 589              	.L25:
 590              		.loc 1 498 0 discriminator 2
 591 0020 FB68     		ldr	r3, [r7, #12]
 592 0022 0122     		movs	r2, #1
 593 0024 83F82420 		strb	r2, [r3, #36]
 499:D:/iot/felix2/targets/Cloud_STM32L431_BearPi/Drivers/STM32L4xx_HAL_Driver/Src\stm32l4xx_hal_dma.c **** 
 500:D:/iot/felix2/targets/Cloud_STM32L431_BearPi/Drivers/STM32L4xx_HAL_Driver/Src\stm32l4xx_hal_dma.c ****   if(HAL_DMA_STATE_READY == hdma->State)
 594              		.loc 1 500 0 is_stmt 1 discriminator 2
 595 0028 FB68     		ldr	r3, [r7, #12]
 596 002a 93F82530 		ldrb	r3, [r3, #37]
 597 002e DBB2     		uxtb	r3, r3
 598 0030 012B     		cmp	r3, #1
 599 0032 3AD1     		bne	.L27
 501:D:/iot/felix2/targets/Cloud_STM32L431_BearPi/Drivers/STM32L4xx_HAL_Driver/Src\stm32l4xx_hal_dma.c ****   {
 502:D:/iot/felix2/targets/Cloud_STM32L431_BearPi/Drivers/STM32L4xx_HAL_Driver/Src\stm32l4xx_hal_dma.c ****     /* Change DMA peripheral state */
 503:D:/iot/felix2/targets/Cloud_STM32L431_BearPi/Drivers/STM32L4xx_HAL_Driver/Src\stm32l4xx_hal_dma.c ****     hdma->State = HAL_DMA_STATE_BUSY;
 600              		.loc 1 503 0
 601 0034 FB68     		ldr	r3, [r7, #12]
 602 0036 0222     		movs	r2, #2
 603 0038 83F82520 		strb	r2, [r3, #37]
 504:D:/iot/felix2/targets/Cloud_STM32L431_BearPi/Drivers/STM32L4xx_HAL_Driver/Src\stm32l4xx_hal_dma.c ****     hdma->ErrorCode = HAL_DMA_ERROR_NONE;
 604              		.loc 1 504 0
 605 003c FB68     		ldr	r3, [r7, #12]
 606 003e 0022     		movs	r2, #0
 607 0040 DA63     		str	r2, [r3, #60]
 505:D:/iot/felix2/targets/Cloud_STM32L431_BearPi/Drivers/STM32L4xx_HAL_Driver/Src\stm32l4xx_hal_dma.c **** 
 506:D:/iot/felix2/targets/Cloud_STM32L431_BearPi/Drivers/STM32L4xx_HAL_Driver/Src\stm32l4xx_hal_dma.c ****     /* Disable the peripheral */
 507:D:/iot/felix2/targets/Cloud_STM32L431_BearPi/Drivers/STM32L4xx_HAL_Driver/Src\stm32l4xx_hal_dma.c ****     __HAL_DMA_DISABLE(hdma);
 608              		.loc 1 507 0
 609 0042 FB68     		ldr	r3, [r7, #12]
 610 0044 1B68     		ldr	r3, [r3]
 611 0046 1A68     		ldr	r2, [r3]
 612 0048 FB68     		ldr	r3, [r7, #12]
 613 004a 1B68     		ldr	r3, [r3]
 614 004c 22F00102 		bic	r2, r2, #1
 615 0050 1A60     		str	r2, [r3]
 508:D:/iot/felix2/targets/Cloud_STM32L431_BearPi/Drivers/STM32L4xx_HAL_Driver/Src\stm32l4xx_hal_dma.c **** 
 509:D:/iot/felix2/targets/Cloud_STM32L431_BearPi/Drivers/STM32L4xx_HAL_Driver/Src\stm32l4xx_hal_dma.c ****     /* Configure the source, destination address and the data length & clear flags*/
 510:D:/iot/felix2/targets/Cloud_STM32L431_BearPi/Drivers/STM32L4xx_HAL_Driver/Src\stm32l4xx_hal_dma.c ****     DMA_SetConfig(hdma, SrcAddress, DstAddress, DataLength);
 616              		.loc 1 510 0
 617 0052 3B68     		ldr	r3, [r7]
 618 0054 7A68     		ldr	r2, [r7, #4]
 619 0056 B968     		ldr	r1, [r7, #8]
 620 0058 F868     		ldr	r0, [r7, #12]
 621 005a FFF7FEFF 		bl	DMA_SetConfig
 511:D:/iot/felix2/targets/Cloud_STM32L431_BearPi/Drivers/STM32L4xx_HAL_Driver/Src\stm32l4xx_hal_dma.c **** 
 512:D:/iot/felix2/targets/Cloud_STM32L431_BearPi/Drivers/STM32L4xx_HAL_Driver/Src\stm32l4xx_hal_dma.c ****     /* Enable the transfer complete interrupt */
 513:D:/iot/felix2/targets/Cloud_STM32L431_BearPi/Drivers/STM32L4xx_HAL_Driver/Src\stm32l4xx_hal_dma.c ****     /* Enable the transfer Error interrupt */
 514:D:/iot/felix2/targets/Cloud_STM32L431_BearPi/Drivers/STM32L4xx_HAL_Driver/Src\stm32l4xx_hal_dma.c ****     if(NULL != hdma->XferHalfCpltCallback )
 622              		.loc 1 514 0
 623 005e FB68     		ldr	r3, [r7, #12]
 624 0060 1B6B     		ldr	r3, [r3, #48]
 625 0062 002B     		cmp	r3, #0
 626 0064 08D0     		beq	.L28
 515:D:/iot/felix2/targets/Cloud_STM32L431_BearPi/Drivers/STM32L4xx_HAL_Driver/Src\stm32l4xx_hal_dma.c ****     {
 516:D:/iot/felix2/targets/Cloud_STM32L431_BearPi/Drivers/STM32L4xx_HAL_Driver/Src\stm32l4xx_hal_dma.c ****       /* Enable the Half transfer complete interrupt as well */
 517:D:/iot/felix2/targets/Cloud_STM32L431_BearPi/Drivers/STM32L4xx_HAL_Driver/Src\stm32l4xx_hal_dma.c ****       __HAL_DMA_ENABLE_IT(hdma, (DMA_IT_TC | DMA_IT_HT | DMA_IT_TE));
ARM GAS  C:\Users\91458\AppData\Local\Temp\ccdbzqVS.s 			page 21


 627              		.loc 1 517 0
 628 0066 FB68     		ldr	r3, [r7, #12]
 629 0068 1B68     		ldr	r3, [r3]
 630 006a 1A68     		ldr	r2, [r3]
 631 006c FB68     		ldr	r3, [r7, #12]
 632 006e 1B68     		ldr	r3, [r3]
 633 0070 42F00E02 		orr	r2, r2, #14
 634 0074 1A60     		str	r2, [r3]
 635 0076 0FE0     		b	.L29
 636              	.L28:
 518:D:/iot/felix2/targets/Cloud_STM32L431_BearPi/Drivers/STM32L4xx_HAL_Driver/Src\stm32l4xx_hal_dma.c ****     }
 519:D:/iot/felix2/targets/Cloud_STM32L431_BearPi/Drivers/STM32L4xx_HAL_Driver/Src\stm32l4xx_hal_dma.c ****     else
 520:D:/iot/felix2/targets/Cloud_STM32L431_BearPi/Drivers/STM32L4xx_HAL_Driver/Src\stm32l4xx_hal_dma.c ****     {
 521:D:/iot/felix2/targets/Cloud_STM32L431_BearPi/Drivers/STM32L4xx_HAL_Driver/Src\stm32l4xx_hal_dma.c ****       __HAL_DMA_DISABLE_IT(hdma, DMA_IT_HT);
 637              		.loc 1 521 0
 638 0078 FB68     		ldr	r3, [r7, #12]
 639 007a 1B68     		ldr	r3, [r3]
 640 007c 1A68     		ldr	r2, [r3]
 641 007e FB68     		ldr	r3, [r7, #12]
 642 0080 1B68     		ldr	r3, [r3]
 643 0082 22F00402 		bic	r2, r2, #4
 644 0086 1A60     		str	r2, [r3]
 522:D:/iot/felix2/targets/Cloud_STM32L431_BearPi/Drivers/STM32L4xx_HAL_Driver/Src\stm32l4xx_hal_dma.c ****       __HAL_DMA_ENABLE_IT(hdma, (DMA_IT_TC | DMA_IT_TE));
 645              		.loc 1 522 0
 646 0088 FB68     		ldr	r3, [r7, #12]
 647 008a 1B68     		ldr	r3, [r3]
 648 008c 1A68     		ldr	r2, [r3]
 649 008e FB68     		ldr	r3, [r7, #12]
 650 0090 1B68     		ldr	r3, [r3]
 651 0092 42F00A02 		orr	r2, r2, #10
 652 0096 1A60     		str	r2, [r3]
 653              	.L29:
 523:D:/iot/felix2/targets/Cloud_STM32L431_BearPi/Drivers/STM32L4xx_HAL_Driver/Src\stm32l4xx_hal_dma.c ****     }
 524:D:/iot/felix2/targets/Cloud_STM32L431_BearPi/Drivers/STM32L4xx_HAL_Driver/Src\stm32l4xx_hal_dma.c **** 
 525:D:/iot/felix2/targets/Cloud_STM32L431_BearPi/Drivers/STM32L4xx_HAL_Driver/Src\stm32l4xx_hal_dma.c **** #ifdef DMAMUX1
 526:D:/iot/felix2/targets/Cloud_STM32L431_BearPi/Drivers/STM32L4xx_HAL_Driver/Src\stm32l4xx_hal_dma.c **** 
 527:D:/iot/felix2/targets/Cloud_STM32L431_BearPi/Drivers/STM32L4xx_HAL_Driver/Src\stm32l4xx_hal_dma.c ****     /* Check if DMAMUX Synchronization is enabled*/
 528:D:/iot/felix2/targets/Cloud_STM32L431_BearPi/Drivers/STM32L4xx_HAL_Driver/Src\stm32l4xx_hal_dma.c ****     if((hdma->DMAmuxChannel->CCR & DMAMUX_CxCR_SE) != 0U)
 529:D:/iot/felix2/targets/Cloud_STM32L431_BearPi/Drivers/STM32L4xx_HAL_Driver/Src\stm32l4xx_hal_dma.c ****     {
 530:D:/iot/felix2/targets/Cloud_STM32L431_BearPi/Drivers/STM32L4xx_HAL_Driver/Src\stm32l4xx_hal_dma.c ****       /* Enable DMAMUX sync overrun IT*/
 531:D:/iot/felix2/targets/Cloud_STM32L431_BearPi/Drivers/STM32L4xx_HAL_Driver/Src\stm32l4xx_hal_dma.c ****       hdma->DMAmuxChannel->CCR |= DMAMUX_CxCR_SOIE;
 532:D:/iot/felix2/targets/Cloud_STM32L431_BearPi/Drivers/STM32L4xx_HAL_Driver/Src\stm32l4xx_hal_dma.c ****     }
 533:D:/iot/felix2/targets/Cloud_STM32L431_BearPi/Drivers/STM32L4xx_HAL_Driver/Src\stm32l4xx_hal_dma.c **** 
 534:D:/iot/felix2/targets/Cloud_STM32L431_BearPi/Drivers/STM32L4xx_HAL_Driver/Src\stm32l4xx_hal_dma.c ****     if(hdma->DMAmuxRequestGen != 0U)
 535:D:/iot/felix2/targets/Cloud_STM32L431_BearPi/Drivers/STM32L4xx_HAL_Driver/Src\stm32l4xx_hal_dma.c ****     {
 536:D:/iot/felix2/targets/Cloud_STM32L431_BearPi/Drivers/STM32L4xx_HAL_Driver/Src\stm32l4xx_hal_dma.c ****       /* if using DMAMUX request generator, enable the DMAMUX request generator overrun IT*/
 537:D:/iot/felix2/targets/Cloud_STM32L431_BearPi/Drivers/STM32L4xx_HAL_Driver/Src\stm32l4xx_hal_dma.c ****       /* enable the request gen overrun IT*/
 538:D:/iot/felix2/targets/Cloud_STM32L431_BearPi/Drivers/STM32L4xx_HAL_Driver/Src\stm32l4xx_hal_dma.c ****       hdma->DMAmuxRequestGen->RGCR |= DMAMUX_RGxCR_OIE;
 539:D:/iot/felix2/targets/Cloud_STM32L431_BearPi/Drivers/STM32L4xx_HAL_Driver/Src\stm32l4xx_hal_dma.c ****     }
 540:D:/iot/felix2/targets/Cloud_STM32L431_BearPi/Drivers/STM32L4xx_HAL_Driver/Src\stm32l4xx_hal_dma.c **** 
 541:D:/iot/felix2/targets/Cloud_STM32L431_BearPi/Drivers/STM32L4xx_HAL_Driver/Src\stm32l4xx_hal_dma.c **** #endif /* DMAMUX1 */
 542:D:/iot/felix2/targets/Cloud_STM32L431_BearPi/Drivers/STM32L4xx_HAL_Driver/Src\stm32l4xx_hal_dma.c **** 
 543:D:/iot/felix2/targets/Cloud_STM32L431_BearPi/Drivers/STM32L4xx_HAL_Driver/Src\stm32l4xx_hal_dma.c ****     /* Enable the Peripheral */
 544:D:/iot/felix2/targets/Cloud_STM32L431_BearPi/Drivers/STM32L4xx_HAL_Driver/Src\stm32l4xx_hal_dma.c ****     __HAL_DMA_ENABLE(hdma);
 654              		.loc 1 544 0
 655 0098 FB68     		ldr	r3, [r7, #12]
 656 009a 1B68     		ldr	r3, [r3]
ARM GAS  C:\Users\91458\AppData\Local\Temp\ccdbzqVS.s 			page 22


 657 009c 1A68     		ldr	r2, [r3]
 658 009e FB68     		ldr	r3, [r7, #12]
 659 00a0 1B68     		ldr	r3, [r3]
 660 00a2 42F00102 		orr	r2, r2, #1
 661 00a6 1A60     		str	r2, [r3]
 662 00a8 05E0     		b	.L30
 663              	.L27:
 545:D:/iot/felix2/targets/Cloud_STM32L431_BearPi/Drivers/STM32L4xx_HAL_Driver/Src\stm32l4xx_hal_dma.c ****   }
 546:D:/iot/felix2/targets/Cloud_STM32L431_BearPi/Drivers/STM32L4xx_HAL_Driver/Src\stm32l4xx_hal_dma.c ****   else
 547:D:/iot/felix2/targets/Cloud_STM32L431_BearPi/Drivers/STM32L4xx_HAL_Driver/Src\stm32l4xx_hal_dma.c ****   {
 548:D:/iot/felix2/targets/Cloud_STM32L431_BearPi/Drivers/STM32L4xx_HAL_Driver/Src\stm32l4xx_hal_dma.c ****     /* Process Unlocked */
 549:D:/iot/felix2/targets/Cloud_STM32L431_BearPi/Drivers/STM32L4xx_HAL_Driver/Src\stm32l4xx_hal_dma.c ****     __HAL_UNLOCK(hdma);
 664              		.loc 1 549 0
 665 00aa FB68     		ldr	r3, [r7, #12]
 666 00ac 0022     		movs	r2, #0
 667 00ae 83F82420 		strb	r2, [r3, #36]
 550:D:/iot/felix2/targets/Cloud_STM32L431_BearPi/Drivers/STM32L4xx_HAL_Driver/Src\stm32l4xx_hal_dma.c **** 
 551:D:/iot/felix2/targets/Cloud_STM32L431_BearPi/Drivers/STM32L4xx_HAL_Driver/Src\stm32l4xx_hal_dma.c ****     /* Remain BUSY */
 552:D:/iot/felix2/targets/Cloud_STM32L431_BearPi/Drivers/STM32L4xx_HAL_Driver/Src\stm32l4xx_hal_dma.c ****     status = HAL_BUSY;
 668              		.loc 1 552 0
 669 00b2 0223     		movs	r3, #2
 670 00b4 FB75     		strb	r3, [r7, #23]
 671              	.L30:
 553:D:/iot/felix2/targets/Cloud_STM32L431_BearPi/Drivers/STM32L4xx_HAL_Driver/Src\stm32l4xx_hal_dma.c ****   }
 554:D:/iot/felix2/targets/Cloud_STM32L431_BearPi/Drivers/STM32L4xx_HAL_Driver/Src\stm32l4xx_hal_dma.c ****   return status;
 672              		.loc 1 554 0
 673 00b6 FB7D     		ldrb	r3, [r7, #23]	@ zero_extendqisi2
 674              	.L26:
 555:D:/iot/felix2/targets/Cloud_STM32L431_BearPi/Drivers/STM32L4xx_HAL_Driver/Src\stm32l4xx_hal_dma.c **** }
 675              		.loc 1 555 0
 676 00b8 1846     		mov	r0, r3
 677 00ba 1837     		adds	r7, r7, #24
 678              	.LCFI20:
 679              		.cfi_def_cfa_offset 8
 680 00bc BD46     		mov	sp, r7
 681              	.LCFI21:
 682              		.cfi_def_cfa_register 13
 683              		@ sp needed
 684 00be 80BD     		pop	{r7, pc}
 685              		.cfi_endproc
 686              	.LFE136:
 688              		.section	.text.HAL_DMA_Abort,"ax",%progbits
 689              		.align	1
 690              		.global	HAL_DMA_Abort
 691              		.syntax unified
 692              		.thumb
 693              		.thumb_func
 694              		.fpu fpv4-sp-d16
 696              	HAL_DMA_Abort:
 697              	.LFB137:
 556:D:/iot/felix2/targets/Cloud_STM32L431_BearPi/Drivers/STM32L4xx_HAL_Driver/Src\stm32l4xx_hal_dma.c **** 
 557:D:/iot/felix2/targets/Cloud_STM32L431_BearPi/Drivers/STM32L4xx_HAL_Driver/Src\stm32l4xx_hal_dma.c **** /**
 558:D:/iot/felix2/targets/Cloud_STM32L431_BearPi/Drivers/STM32L4xx_HAL_Driver/Src\stm32l4xx_hal_dma.c ****   * @brief  Abort the DMA Transfer.
 559:D:/iot/felix2/targets/Cloud_STM32L431_BearPi/Drivers/STM32L4xx_HAL_Driver/Src\stm32l4xx_hal_dma.c ****   * @param  hdma pointer to a DMA_HandleTypeDef structure that contains
 560:D:/iot/felix2/targets/Cloud_STM32L431_BearPi/Drivers/STM32L4xx_HAL_Driver/Src\stm32l4xx_hal_dma.c ****   *               the configuration information for the specified DMA Channel.
 561:D:/iot/felix2/targets/Cloud_STM32L431_BearPi/Drivers/STM32L4xx_HAL_Driver/Src\stm32l4xx_hal_dma.c ****     * @retval HAL status
 562:D:/iot/felix2/targets/Cloud_STM32L431_BearPi/Drivers/STM32L4xx_HAL_Driver/Src\stm32l4xx_hal_dma.c ****   */
ARM GAS  C:\Users\91458\AppData\Local\Temp\ccdbzqVS.s 			page 23


 563:D:/iot/felix2/targets/Cloud_STM32L431_BearPi/Drivers/STM32L4xx_HAL_Driver/Src\stm32l4xx_hal_dma.c **** HAL_StatusTypeDef HAL_DMA_Abort(DMA_HandleTypeDef *hdma)
 564:D:/iot/felix2/targets/Cloud_STM32L431_BearPi/Drivers/STM32L4xx_HAL_Driver/Src\stm32l4xx_hal_dma.c **** {
 698              		.loc 1 564 0
 699              		.cfi_startproc
 700              		@ args = 0, pretend = 0, frame = 16
 701              		@ frame_needed = 1, uses_anonymous_args = 0
 702              		@ link register save eliminated.
 703 0000 80B4     		push	{r7}
 704              	.LCFI22:
 705              		.cfi_def_cfa_offset 4
 706              		.cfi_offset 7, -4
 707 0002 85B0     		sub	sp, sp, #20
 708              	.LCFI23:
 709              		.cfi_def_cfa_offset 24
 710 0004 00AF     		add	r7, sp, #0
 711              	.LCFI24:
 712              		.cfi_def_cfa_register 7
 713 0006 7860     		str	r0, [r7, #4]
 565:D:/iot/felix2/targets/Cloud_STM32L431_BearPi/Drivers/STM32L4xx_HAL_Driver/Src\stm32l4xx_hal_dma.c ****   HAL_StatusTypeDef status = HAL_OK;
 714              		.loc 1 565 0
 715 0008 0023     		movs	r3, #0
 716 000a FB73     		strb	r3, [r7, #15]
 566:D:/iot/felix2/targets/Cloud_STM32L431_BearPi/Drivers/STM32L4xx_HAL_Driver/Src\stm32l4xx_hal_dma.c **** 
 567:D:/iot/felix2/targets/Cloud_STM32L431_BearPi/Drivers/STM32L4xx_HAL_Driver/Src\stm32l4xx_hal_dma.c ****   /* Check the DMA peripheral handle */
 568:D:/iot/felix2/targets/Cloud_STM32L431_BearPi/Drivers/STM32L4xx_HAL_Driver/Src\stm32l4xx_hal_dma.c ****   if(NULL == hdma)
 717              		.loc 1 568 0
 718 000c 7B68     		ldr	r3, [r7, #4]
 719 000e 002B     		cmp	r3, #0
 720 0010 01D1     		bne	.L32
 569:D:/iot/felix2/targets/Cloud_STM32L431_BearPi/Drivers/STM32L4xx_HAL_Driver/Src\stm32l4xx_hal_dma.c ****   {
 570:D:/iot/felix2/targets/Cloud_STM32L431_BearPi/Drivers/STM32L4xx_HAL_Driver/Src\stm32l4xx_hal_dma.c ****     return HAL_ERROR;
 721              		.loc 1 570 0
 722 0012 0123     		movs	r3, #1
 723 0014 22E0     		b	.L33
 724              	.L32:
 571:D:/iot/felix2/targets/Cloud_STM32L431_BearPi/Drivers/STM32L4xx_HAL_Driver/Src\stm32l4xx_hal_dma.c ****   }
 572:D:/iot/felix2/targets/Cloud_STM32L431_BearPi/Drivers/STM32L4xx_HAL_Driver/Src\stm32l4xx_hal_dma.c **** 
 573:D:/iot/felix2/targets/Cloud_STM32L431_BearPi/Drivers/STM32L4xx_HAL_Driver/Src\stm32l4xx_hal_dma.c ****   /* Disable DMA IT */
 574:D:/iot/felix2/targets/Cloud_STM32L431_BearPi/Drivers/STM32L4xx_HAL_Driver/Src\stm32l4xx_hal_dma.c ****   __HAL_DMA_DISABLE_IT(hdma, (DMA_IT_TC | DMA_IT_HT | DMA_IT_TE));
 725              		.loc 1 574 0
 726 0016 7B68     		ldr	r3, [r7, #4]
 727 0018 1B68     		ldr	r3, [r3]
 728 001a 1A68     		ldr	r2, [r3]
 729 001c 7B68     		ldr	r3, [r7, #4]
 730 001e 1B68     		ldr	r3, [r3]
 731 0020 22F00E02 		bic	r2, r2, #14
 732 0024 1A60     		str	r2, [r3]
 575:D:/iot/felix2/targets/Cloud_STM32L431_BearPi/Drivers/STM32L4xx_HAL_Driver/Src\stm32l4xx_hal_dma.c **** 
 576:D:/iot/felix2/targets/Cloud_STM32L431_BearPi/Drivers/STM32L4xx_HAL_Driver/Src\stm32l4xx_hal_dma.c **** #if defined(DMAMUX1)
 577:D:/iot/felix2/targets/Cloud_STM32L431_BearPi/Drivers/STM32L4xx_HAL_Driver/Src\stm32l4xx_hal_dma.c ****   /* disable the DMAMUX sync overrun IT*/
 578:D:/iot/felix2/targets/Cloud_STM32L431_BearPi/Drivers/STM32L4xx_HAL_Driver/Src\stm32l4xx_hal_dma.c ****   hdma->DMAmuxChannel->CCR &= ~DMAMUX_CxCR_SOIE;
 579:D:/iot/felix2/targets/Cloud_STM32L431_BearPi/Drivers/STM32L4xx_HAL_Driver/Src\stm32l4xx_hal_dma.c **** #endif /* DMAMUX1 */
 580:D:/iot/felix2/targets/Cloud_STM32L431_BearPi/Drivers/STM32L4xx_HAL_Driver/Src\stm32l4xx_hal_dma.c **** 
 581:D:/iot/felix2/targets/Cloud_STM32L431_BearPi/Drivers/STM32L4xx_HAL_Driver/Src\stm32l4xx_hal_dma.c ****   /* Disable the channel */
 582:D:/iot/felix2/targets/Cloud_STM32L431_BearPi/Drivers/STM32L4xx_HAL_Driver/Src\stm32l4xx_hal_dma.c ****   __HAL_DMA_DISABLE(hdma);
 733              		.loc 1 582 0
 734 0026 7B68     		ldr	r3, [r7, #4]
ARM GAS  C:\Users\91458\AppData\Local\Temp\ccdbzqVS.s 			page 24


 735 0028 1B68     		ldr	r3, [r3]
 736 002a 1A68     		ldr	r2, [r3]
 737 002c 7B68     		ldr	r3, [r7, #4]
 738 002e 1B68     		ldr	r3, [r3]
 739 0030 22F00102 		bic	r2, r2, #1
 740 0034 1A60     		str	r2, [r3]
 583:D:/iot/felix2/targets/Cloud_STM32L431_BearPi/Drivers/STM32L4xx_HAL_Driver/Src\stm32l4xx_hal_dma.c **** 
 584:D:/iot/felix2/targets/Cloud_STM32L431_BearPi/Drivers/STM32L4xx_HAL_Driver/Src\stm32l4xx_hal_dma.c ****   /* Clear all flags */
 585:D:/iot/felix2/targets/Cloud_STM32L431_BearPi/Drivers/STM32L4xx_HAL_Driver/Src\stm32l4xx_hal_dma.c ****   hdma->DmaBaseAddress->IFCR = (DMA_ISR_GIF1 << (hdma->ChannelIndex & 0x1cU));
 741              		.loc 1 585 0
 742 0036 7B68     		ldr	r3, [r7, #4]
 743 0038 5B6C     		ldr	r3, [r3, #68]
 744 003a 03F01C02 		and	r2, r3, #28
 745 003e 7B68     		ldr	r3, [r7, #4]
 746 0040 1B6C     		ldr	r3, [r3, #64]
 747 0042 0121     		movs	r1, #1
 748 0044 01FA02F2 		lsl	r2, r1, r2
 749 0048 5A60     		str	r2, [r3, #4]
 586:D:/iot/felix2/targets/Cloud_STM32L431_BearPi/Drivers/STM32L4xx_HAL_Driver/Src\stm32l4xx_hal_dma.c **** 
 587:D:/iot/felix2/targets/Cloud_STM32L431_BearPi/Drivers/STM32L4xx_HAL_Driver/Src\stm32l4xx_hal_dma.c **** #if defined(DMAMUX1)
 588:D:/iot/felix2/targets/Cloud_STM32L431_BearPi/Drivers/STM32L4xx_HAL_Driver/Src\stm32l4xx_hal_dma.c ****   /* Clear the DMAMUX synchro overrun flag */
 589:D:/iot/felix2/targets/Cloud_STM32L431_BearPi/Drivers/STM32L4xx_HAL_Driver/Src\stm32l4xx_hal_dma.c ****   hdma->DMAmuxChannelStatus->CFR = hdma->DMAmuxChannelStatusMask;
 590:D:/iot/felix2/targets/Cloud_STM32L431_BearPi/Drivers/STM32L4xx_HAL_Driver/Src\stm32l4xx_hal_dma.c **** 
 591:D:/iot/felix2/targets/Cloud_STM32L431_BearPi/Drivers/STM32L4xx_HAL_Driver/Src\stm32l4xx_hal_dma.c ****   if(hdma->DMAmuxRequestGen != 0U)
 592:D:/iot/felix2/targets/Cloud_STM32L431_BearPi/Drivers/STM32L4xx_HAL_Driver/Src\stm32l4xx_hal_dma.c ****   {
 593:D:/iot/felix2/targets/Cloud_STM32L431_BearPi/Drivers/STM32L4xx_HAL_Driver/Src\stm32l4xx_hal_dma.c ****     /* if using DMAMUX request generator, disable the DMAMUX request generator overrun IT*/
 594:D:/iot/felix2/targets/Cloud_STM32L431_BearPi/Drivers/STM32L4xx_HAL_Driver/Src\stm32l4xx_hal_dma.c ****     /* disable the request gen overrun IT*/
 595:D:/iot/felix2/targets/Cloud_STM32L431_BearPi/Drivers/STM32L4xx_HAL_Driver/Src\stm32l4xx_hal_dma.c ****     hdma->DMAmuxRequestGen->RGCR &= ~DMAMUX_RGxCR_OIE;
 596:D:/iot/felix2/targets/Cloud_STM32L431_BearPi/Drivers/STM32L4xx_HAL_Driver/Src\stm32l4xx_hal_dma.c **** 
 597:D:/iot/felix2/targets/Cloud_STM32L431_BearPi/Drivers/STM32L4xx_HAL_Driver/Src\stm32l4xx_hal_dma.c ****     /* Clear the DMAMUX request generator overrun flag */
 598:D:/iot/felix2/targets/Cloud_STM32L431_BearPi/Drivers/STM32L4xx_HAL_Driver/Src\stm32l4xx_hal_dma.c ****     hdma->DMAmuxRequestGenStatus->RGCFR = hdma->DMAmuxRequestGenStatusMask;
 599:D:/iot/felix2/targets/Cloud_STM32L431_BearPi/Drivers/STM32L4xx_HAL_Driver/Src\stm32l4xx_hal_dma.c ****   }
 600:D:/iot/felix2/targets/Cloud_STM32L431_BearPi/Drivers/STM32L4xx_HAL_Driver/Src\stm32l4xx_hal_dma.c **** 
 601:D:/iot/felix2/targets/Cloud_STM32L431_BearPi/Drivers/STM32L4xx_HAL_Driver/Src\stm32l4xx_hal_dma.c **** #endif /* DMAMUX1 */
 602:D:/iot/felix2/targets/Cloud_STM32L431_BearPi/Drivers/STM32L4xx_HAL_Driver/Src\stm32l4xx_hal_dma.c **** 
 603:D:/iot/felix2/targets/Cloud_STM32L431_BearPi/Drivers/STM32L4xx_HAL_Driver/Src\stm32l4xx_hal_dma.c ****   /* Change the DMA state */
 604:D:/iot/felix2/targets/Cloud_STM32L431_BearPi/Drivers/STM32L4xx_HAL_Driver/Src\stm32l4xx_hal_dma.c ****   hdma->State = HAL_DMA_STATE_READY;
 750              		.loc 1 604 0
 751 004a 7B68     		ldr	r3, [r7, #4]
 752 004c 0122     		movs	r2, #1
 753 004e 83F82520 		strb	r2, [r3, #37]
 605:D:/iot/felix2/targets/Cloud_STM32L431_BearPi/Drivers/STM32L4xx_HAL_Driver/Src\stm32l4xx_hal_dma.c **** 
 606:D:/iot/felix2/targets/Cloud_STM32L431_BearPi/Drivers/STM32L4xx_HAL_Driver/Src\stm32l4xx_hal_dma.c ****   /* Process Unlocked */
 607:D:/iot/felix2/targets/Cloud_STM32L431_BearPi/Drivers/STM32L4xx_HAL_Driver/Src\stm32l4xx_hal_dma.c ****   __HAL_UNLOCK(hdma);
 754              		.loc 1 607 0
 755 0052 7B68     		ldr	r3, [r7, #4]
 756 0054 0022     		movs	r2, #0
 757 0056 83F82420 		strb	r2, [r3, #36]
 608:D:/iot/felix2/targets/Cloud_STM32L431_BearPi/Drivers/STM32L4xx_HAL_Driver/Src\stm32l4xx_hal_dma.c **** 
 609:D:/iot/felix2/targets/Cloud_STM32L431_BearPi/Drivers/STM32L4xx_HAL_Driver/Src\stm32l4xx_hal_dma.c ****   return status;
 758              		.loc 1 609 0
 759 005a FB7B     		ldrb	r3, [r7, #15]	@ zero_extendqisi2
 760              	.L33:
 610:D:/iot/felix2/targets/Cloud_STM32L431_BearPi/Drivers/STM32L4xx_HAL_Driver/Src\stm32l4xx_hal_dma.c **** }
 761              		.loc 1 610 0
 762 005c 1846     		mov	r0, r3
 763 005e 1437     		adds	r7, r7, #20
ARM GAS  C:\Users\91458\AppData\Local\Temp\ccdbzqVS.s 			page 25


 764              	.LCFI25:
 765              		.cfi_def_cfa_offset 4
 766 0060 BD46     		mov	sp, r7
 767              	.LCFI26:
 768              		.cfi_def_cfa_register 13
 769              		@ sp needed
 770 0062 5DF8047B 		ldr	r7, [sp], #4
 771              	.LCFI27:
 772              		.cfi_restore 7
 773              		.cfi_def_cfa_offset 0
 774 0066 7047     		bx	lr
 775              		.cfi_endproc
 776              	.LFE137:
 778              		.section	.text.HAL_DMA_Abort_IT,"ax",%progbits
 779              		.align	1
 780              		.global	HAL_DMA_Abort_IT
 781              		.syntax unified
 782              		.thumb
 783              		.thumb_func
 784              		.fpu fpv4-sp-d16
 786              	HAL_DMA_Abort_IT:
 787              	.LFB138:
 611:D:/iot/felix2/targets/Cloud_STM32L431_BearPi/Drivers/STM32L4xx_HAL_Driver/Src\stm32l4xx_hal_dma.c **** 
 612:D:/iot/felix2/targets/Cloud_STM32L431_BearPi/Drivers/STM32L4xx_HAL_Driver/Src\stm32l4xx_hal_dma.c **** /**
 613:D:/iot/felix2/targets/Cloud_STM32L431_BearPi/Drivers/STM32L4xx_HAL_Driver/Src\stm32l4xx_hal_dma.c ****   * @brief  Aborts the DMA Transfer in Interrupt mode.
 614:D:/iot/felix2/targets/Cloud_STM32L431_BearPi/Drivers/STM32L4xx_HAL_Driver/Src\stm32l4xx_hal_dma.c ****   * @param  hdma pointer to a DMA_HandleTypeDef structure that contains
 615:D:/iot/felix2/targets/Cloud_STM32L431_BearPi/Drivers/STM32L4xx_HAL_Driver/Src\stm32l4xx_hal_dma.c ****   *                 the configuration information for the specified DMA Channel.
 616:D:/iot/felix2/targets/Cloud_STM32L431_BearPi/Drivers/STM32L4xx_HAL_Driver/Src\stm32l4xx_hal_dma.c ****   * @retval HAL status
 617:D:/iot/felix2/targets/Cloud_STM32L431_BearPi/Drivers/STM32L4xx_HAL_Driver/Src\stm32l4xx_hal_dma.c ****   */
 618:D:/iot/felix2/targets/Cloud_STM32L431_BearPi/Drivers/STM32L4xx_HAL_Driver/Src\stm32l4xx_hal_dma.c **** HAL_StatusTypeDef HAL_DMA_Abort_IT(DMA_HandleTypeDef *hdma)
 619:D:/iot/felix2/targets/Cloud_STM32L431_BearPi/Drivers/STM32L4xx_HAL_Driver/Src\stm32l4xx_hal_dma.c **** {
 788              		.loc 1 619 0
 789              		.cfi_startproc
 790              		@ args = 0, pretend = 0, frame = 16
 791              		@ frame_needed = 1, uses_anonymous_args = 0
 792 0000 80B5     		push	{r7, lr}
 793              	.LCFI28:
 794              		.cfi_def_cfa_offset 8
 795              		.cfi_offset 7, -8
 796              		.cfi_offset 14, -4
 797 0002 84B0     		sub	sp, sp, #16
 798              	.LCFI29:
 799              		.cfi_def_cfa_offset 24
 800 0004 00AF     		add	r7, sp, #0
 801              	.LCFI30:
 802              		.cfi_def_cfa_register 7
 803 0006 7860     		str	r0, [r7, #4]
 620:D:/iot/felix2/targets/Cloud_STM32L431_BearPi/Drivers/STM32L4xx_HAL_Driver/Src\stm32l4xx_hal_dma.c ****   HAL_StatusTypeDef status = HAL_OK;
 804              		.loc 1 620 0
 805 0008 0023     		movs	r3, #0
 806 000a FB73     		strb	r3, [r7, #15]
 621:D:/iot/felix2/targets/Cloud_STM32L431_BearPi/Drivers/STM32L4xx_HAL_Driver/Src\stm32l4xx_hal_dma.c **** 
 622:D:/iot/felix2/targets/Cloud_STM32L431_BearPi/Drivers/STM32L4xx_HAL_Driver/Src\stm32l4xx_hal_dma.c ****   if(HAL_DMA_STATE_BUSY != hdma->State)
 807              		.loc 1 622 0
 808 000c 7B68     		ldr	r3, [r7, #4]
 809 000e 93F82530 		ldrb	r3, [r3, #37]
 810 0012 DBB2     		uxtb	r3, r3
ARM GAS  C:\Users\91458\AppData\Local\Temp\ccdbzqVS.s 			page 26


 811 0014 022B     		cmp	r3, #2
 812 0016 05D0     		beq	.L35
 623:D:/iot/felix2/targets/Cloud_STM32L431_BearPi/Drivers/STM32L4xx_HAL_Driver/Src\stm32l4xx_hal_dma.c ****   {
 624:D:/iot/felix2/targets/Cloud_STM32L431_BearPi/Drivers/STM32L4xx_HAL_Driver/Src\stm32l4xx_hal_dma.c ****     /* no transfer ongoing */
 625:D:/iot/felix2/targets/Cloud_STM32L431_BearPi/Drivers/STM32L4xx_HAL_Driver/Src\stm32l4xx_hal_dma.c ****     hdma->ErrorCode = HAL_DMA_ERROR_NO_XFER;
 813              		.loc 1 625 0
 814 0018 7B68     		ldr	r3, [r7, #4]
 815 001a 0422     		movs	r2, #4
 816 001c DA63     		str	r2, [r3, #60]
 626:D:/iot/felix2/targets/Cloud_STM32L431_BearPi/Drivers/STM32L4xx_HAL_Driver/Src\stm32l4xx_hal_dma.c **** 
 627:D:/iot/felix2/targets/Cloud_STM32L431_BearPi/Drivers/STM32L4xx_HAL_Driver/Src\stm32l4xx_hal_dma.c ****     status = HAL_ERROR;
 817              		.loc 1 627 0
 818 001e 0123     		movs	r3, #1
 819 0020 FB73     		strb	r3, [r7, #15]
 820 0022 29E0     		b	.L36
 821              	.L35:
 628:D:/iot/felix2/targets/Cloud_STM32L431_BearPi/Drivers/STM32L4xx_HAL_Driver/Src\stm32l4xx_hal_dma.c ****   }
 629:D:/iot/felix2/targets/Cloud_STM32L431_BearPi/Drivers/STM32L4xx_HAL_Driver/Src\stm32l4xx_hal_dma.c ****   else
 630:D:/iot/felix2/targets/Cloud_STM32L431_BearPi/Drivers/STM32L4xx_HAL_Driver/Src\stm32l4xx_hal_dma.c ****   {
 631:D:/iot/felix2/targets/Cloud_STM32L431_BearPi/Drivers/STM32L4xx_HAL_Driver/Src\stm32l4xx_hal_dma.c ****     /* Disable DMA IT */
 632:D:/iot/felix2/targets/Cloud_STM32L431_BearPi/Drivers/STM32L4xx_HAL_Driver/Src\stm32l4xx_hal_dma.c ****     __HAL_DMA_DISABLE_IT(hdma, (DMA_IT_TC | DMA_IT_HT | DMA_IT_TE));
 822              		.loc 1 632 0
 823 0024 7B68     		ldr	r3, [r7, #4]
 824 0026 1B68     		ldr	r3, [r3]
 825 0028 1A68     		ldr	r2, [r3]
 826 002a 7B68     		ldr	r3, [r7, #4]
 827 002c 1B68     		ldr	r3, [r3]
 828 002e 22F00E02 		bic	r2, r2, #14
 829 0032 1A60     		str	r2, [r3]
 633:D:/iot/felix2/targets/Cloud_STM32L431_BearPi/Drivers/STM32L4xx_HAL_Driver/Src\stm32l4xx_hal_dma.c **** 
 634:D:/iot/felix2/targets/Cloud_STM32L431_BearPi/Drivers/STM32L4xx_HAL_Driver/Src\stm32l4xx_hal_dma.c ****     /* Disable the channel */
 635:D:/iot/felix2/targets/Cloud_STM32L431_BearPi/Drivers/STM32L4xx_HAL_Driver/Src\stm32l4xx_hal_dma.c ****     __HAL_DMA_DISABLE(hdma);
 830              		.loc 1 635 0
 831 0034 7B68     		ldr	r3, [r7, #4]
 832 0036 1B68     		ldr	r3, [r3]
 833 0038 1A68     		ldr	r2, [r3]
 834 003a 7B68     		ldr	r3, [r7, #4]
 835 003c 1B68     		ldr	r3, [r3]
 836 003e 22F00102 		bic	r2, r2, #1
 837 0042 1A60     		str	r2, [r3]
 636:D:/iot/felix2/targets/Cloud_STM32L431_BearPi/Drivers/STM32L4xx_HAL_Driver/Src\stm32l4xx_hal_dma.c **** 
 637:D:/iot/felix2/targets/Cloud_STM32L431_BearPi/Drivers/STM32L4xx_HAL_Driver/Src\stm32l4xx_hal_dma.c **** #if defined(DMAMUX1)
 638:D:/iot/felix2/targets/Cloud_STM32L431_BearPi/Drivers/STM32L4xx_HAL_Driver/Src\stm32l4xx_hal_dma.c ****     /* disable the DMAMUX sync overrun IT*/
 639:D:/iot/felix2/targets/Cloud_STM32L431_BearPi/Drivers/STM32L4xx_HAL_Driver/Src\stm32l4xx_hal_dma.c ****     hdma->DMAmuxChannel->CCR &= ~DMAMUX_CxCR_SOIE;
 640:D:/iot/felix2/targets/Cloud_STM32L431_BearPi/Drivers/STM32L4xx_HAL_Driver/Src\stm32l4xx_hal_dma.c **** 
 641:D:/iot/felix2/targets/Cloud_STM32L431_BearPi/Drivers/STM32L4xx_HAL_Driver/Src\stm32l4xx_hal_dma.c ****     /* Clear all flags */
 642:D:/iot/felix2/targets/Cloud_STM32L431_BearPi/Drivers/STM32L4xx_HAL_Driver/Src\stm32l4xx_hal_dma.c ****     hdma->DmaBaseAddress->IFCR = (DMA_ISR_GIF1 << (hdma->ChannelIndex & 0x1cU));
 643:D:/iot/felix2/targets/Cloud_STM32L431_BearPi/Drivers/STM32L4xx_HAL_Driver/Src\stm32l4xx_hal_dma.c **** 
 644:D:/iot/felix2/targets/Cloud_STM32L431_BearPi/Drivers/STM32L4xx_HAL_Driver/Src\stm32l4xx_hal_dma.c ****     /* Clear the DMAMUX synchro overrun flag */
 645:D:/iot/felix2/targets/Cloud_STM32L431_BearPi/Drivers/STM32L4xx_HAL_Driver/Src\stm32l4xx_hal_dma.c ****     hdma->DMAmuxChannelStatus->CFR = hdma->DMAmuxChannelStatusMask;
 646:D:/iot/felix2/targets/Cloud_STM32L431_BearPi/Drivers/STM32L4xx_HAL_Driver/Src\stm32l4xx_hal_dma.c **** 
 647:D:/iot/felix2/targets/Cloud_STM32L431_BearPi/Drivers/STM32L4xx_HAL_Driver/Src\stm32l4xx_hal_dma.c ****     if(hdma->DMAmuxRequestGen != 0U)
 648:D:/iot/felix2/targets/Cloud_STM32L431_BearPi/Drivers/STM32L4xx_HAL_Driver/Src\stm32l4xx_hal_dma.c ****     {
 649:D:/iot/felix2/targets/Cloud_STM32L431_BearPi/Drivers/STM32L4xx_HAL_Driver/Src\stm32l4xx_hal_dma.c ****       /* if using DMAMUX request generator, disable the DMAMUX request generator overrun IT*/
 650:D:/iot/felix2/targets/Cloud_STM32L431_BearPi/Drivers/STM32L4xx_HAL_Driver/Src\stm32l4xx_hal_dma.c ****       /* disable the request gen overrun IT*/
 651:D:/iot/felix2/targets/Cloud_STM32L431_BearPi/Drivers/STM32L4xx_HAL_Driver/Src\stm32l4xx_hal_dma.c ****       hdma->DMAmuxRequestGen->RGCR &= ~DMAMUX_RGxCR_OIE;
 652:D:/iot/felix2/targets/Cloud_STM32L431_BearPi/Drivers/STM32L4xx_HAL_Driver/Src\stm32l4xx_hal_dma.c **** 
ARM GAS  C:\Users\91458\AppData\Local\Temp\ccdbzqVS.s 			page 27


 653:D:/iot/felix2/targets/Cloud_STM32L431_BearPi/Drivers/STM32L4xx_HAL_Driver/Src\stm32l4xx_hal_dma.c ****       /* Clear the DMAMUX request generator overrun flag */
 654:D:/iot/felix2/targets/Cloud_STM32L431_BearPi/Drivers/STM32L4xx_HAL_Driver/Src\stm32l4xx_hal_dma.c ****       hdma->DMAmuxRequestGenStatus->RGCFR = hdma->DMAmuxRequestGenStatusMask;
 655:D:/iot/felix2/targets/Cloud_STM32L431_BearPi/Drivers/STM32L4xx_HAL_Driver/Src\stm32l4xx_hal_dma.c ****     }
 656:D:/iot/felix2/targets/Cloud_STM32L431_BearPi/Drivers/STM32L4xx_HAL_Driver/Src\stm32l4xx_hal_dma.c **** 
 657:D:/iot/felix2/targets/Cloud_STM32L431_BearPi/Drivers/STM32L4xx_HAL_Driver/Src\stm32l4xx_hal_dma.c **** #else
 658:D:/iot/felix2/targets/Cloud_STM32L431_BearPi/Drivers/STM32L4xx_HAL_Driver/Src\stm32l4xx_hal_dma.c ****     /* Clear all flags */
 659:D:/iot/felix2/targets/Cloud_STM32L431_BearPi/Drivers/STM32L4xx_HAL_Driver/Src\stm32l4xx_hal_dma.c ****     hdma->DmaBaseAddress->IFCR = (DMA_ISR_GIF1 << (hdma->ChannelIndex & 0x1cU));
 838              		.loc 1 659 0
 839 0044 7B68     		ldr	r3, [r7, #4]
 840 0046 5B6C     		ldr	r3, [r3, #68]
 841 0048 03F01C02 		and	r2, r3, #28
 842 004c 7B68     		ldr	r3, [r7, #4]
 843 004e 1B6C     		ldr	r3, [r3, #64]
 844 0050 0121     		movs	r1, #1
 845 0052 01FA02F2 		lsl	r2, r1, r2
 846 0056 5A60     		str	r2, [r3, #4]
 660:D:/iot/felix2/targets/Cloud_STM32L431_BearPi/Drivers/STM32L4xx_HAL_Driver/Src\stm32l4xx_hal_dma.c **** #endif /* DMAMUX1 */
 661:D:/iot/felix2/targets/Cloud_STM32L431_BearPi/Drivers/STM32L4xx_HAL_Driver/Src\stm32l4xx_hal_dma.c **** 
 662:D:/iot/felix2/targets/Cloud_STM32L431_BearPi/Drivers/STM32L4xx_HAL_Driver/Src\stm32l4xx_hal_dma.c ****     /* Change the DMA state */
 663:D:/iot/felix2/targets/Cloud_STM32L431_BearPi/Drivers/STM32L4xx_HAL_Driver/Src\stm32l4xx_hal_dma.c ****     hdma->State = HAL_DMA_STATE_READY;
 847              		.loc 1 663 0
 848 0058 7B68     		ldr	r3, [r7, #4]
 849 005a 0122     		movs	r2, #1
 850 005c 83F82520 		strb	r2, [r3, #37]
 664:D:/iot/felix2/targets/Cloud_STM32L431_BearPi/Drivers/STM32L4xx_HAL_Driver/Src\stm32l4xx_hal_dma.c **** 
 665:D:/iot/felix2/targets/Cloud_STM32L431_BearPi/Drivers/STM32L4xx_HAL_Driver/Src\stm32l4xx_hal_dma.c ****     /* Process Unlocked */
 666:D:/iot/felix2/targets/Cloud_STM32L431_BearPi/Drivers/STM32L4xx_HAL_Driver/Src\stm32l4xx_hal_dma.c ****     __HAL_UNLOCK(hdma);
 851              		.loc 1 666 0
 852 0060 7B68     		ldr	r3, [r7, #4]
 853 0062 0022     		movs	r2, #0
 854 0064 83F82420 		strb	r2, [r3, #36]
 667:D:/iot/felix2/targets/Cloud_STM32L431_BearPi/Drivers/STM32L4xx_HAL_Driver/Src\stm32l4xx_hal_dma.c **** 
 668:D:/iot/felix2/targets/Cloud_STM32L431_BearPi/Drivers/STM32L4xx_HAL_Driver/Src\stm32l4xx_hal_dma.c ****     /* Call User Abort callback */
 669:D:/iot/felix2/targets/Cloud_STM32L431_BearPi/Drivers/STM32L4xx_HAL_Driver/Src\stm32l4xx_hal_dma.c ****     if(hdma->XferAbortCallback != NULL)
 855              		.loc 1 669 0
 856 0068 7B68     		ldr	r3, [r7, #4]
 857 006a 9B6B     		ldr	r3, [r3, #56]
 858 006c 002B     		cmp	r3, #0
 859 006e 03D0     		beq	.L36
 670:D:/iot/felix2/targets/Cloud_STM32L431_BearPi/Drivers/STM32L4xx_HAL_Driver/Src\stm32l4xx_hal_dma.c ****     {
 671:D:/iot/felix2/targets/Cloud_STM32L431_BearPi/Drivers/STM32L4xx_HAL_Driver/Src\stm32l4xx_hal_dma.c ****       hdma->XferAbortCallback(hdma);
 860              		.loc 1 671 0
 861 0070 7B68     		ldr	r3, [r7, #4]
 862 0072 9B6B     		ldr	r3, [r3, #56]
 863 0074 7868     		ldr	r0, [r7, #4]
 864 0076 9847     		blx	r3
 865              	.LVL0:
 866              	.L36:
 672:D:/iot/felix2/targets/Cloud_STM32L431_BearPi/Drivers/STM32L4xx_HAL_Driver/Src\stm32l4xx_hal_dma.c ****     }
 673:D:/iot/felix2/targets/Cloud_STM32L431_BearPi/Drivers/STM32L4xx_HAL_Driver/Src\stm32l4xx_hal_dma.c ****   }
 674:D:/iot/felix2/targets/Cloud_STM32L431_BearPi/Drivers/STM32L4xx_HAL_Driver/Src\stm32l4xx_hal_dma.c ****   return status;
 867              		.loc 1 674 0
 868 0078 FB7B     		ldrb	r3, [r7, #15]	@ zero_extendqisi2
 675:D:/iot/felix2/targets/Cloud_STM32L431_BearPi/Drivers/STM32L4xx_HAL_Driver/Src\stm32l4xx_hal_dma.c **** }
 869              		.loc 1 675 0
 870 007a 1846     		mov	r0, r3
 871 007c 1037     		adds	r7, r7, #16
ARM GAS  C:\Users\91458\AppData\Local\Temp\ccdbzqVS.s 			page 28


 872              	.LCFI31:
 873              		.cfi_def_cfa_offset 8
 874 007e BD46     		mov	sp, r7
 875              	.LCFI32:
 876              		.cfi_def_cfa_register 13
 877              		@ sp needed
 878 0080 80BD     		pop	{r7, pc}
 879              		.cfi_endproc
 880              	.LFE138:
 882              		.section	.text.HAL_DMA_PollForTransfer,"ax",%progbits
 883              		.align	1
 884              		.global	HAL_DMA_PollForTransfer
 885              		.syntax unified
 886              		.thumb
 887              		.thumb_func
 888              		.fpu fpv4-sp-d16
 890              	HAL_DMA_PollForTransfer:
 891              	.LFB139:
 676:D:/iot/felix2/targets/Cloud_STM32L431_BearPi/Drivers/STM32L4xx_HAL_Driver/Src\stm32l4xx_hal_dma.c **** 
 677:D:/iot/felix2/targets/Cloud_STM32L431_BearPi/Drivers/STM32L4xx_HAL_Driver/Src\stm32l4xx_hal_dma.c **** /**
 678:D:/iot/felix2/targets/Cloud_STM32L431_BearPi/Drivers/STM32L4xx_HAL_Driver/Src\stm32l4xx_hal_dma.c ****   * @brief  Polling for transfer complete.
 679:D:/iot/felix2/targets/Cloud_STM32L431_BearPi/Drivers/STM32L4xx_HAL_Driver/Src\stm32l4xx_hal_dma.c ****   * @param  hdma pointer to a DMA_HandleTypeDef structure that contains
 680:D:/iot/felix2/targets/Cloud_STM32L431_BearPi/Drivers/STM32L4xx_HAL_Driver/Src\stm32l4xx_hal_dma.c ****   *                  the configuration information for the specified DMA Channel.
 681:D:/iot/felix2/targets/Cloud_STM32L431_BearPi/Drivers/STM32L4xx_HAL_Driver/Src\stm32l4xx_hal_dma.c ****   * @param  CompleteLevel Specifies the DMA level complete.
 682:D:/iot/felix2/targets/Cloud_STM32L431_BearPi/Drivers/STM32L4xx_HAL_Driver/Src\stm32l4xx_hal_dma.c ****   * @param  Timeout       Timeout duration.
 683:D:/iot/felix2/targets/Cloud_STM32L431_BearPi/Drivers/STM32L4xx_HAL_Driver/Src\stm32l4xx_hal_dma.c ****   * @retval HAL status
 684:D:/iot/felix2/targets/Cloud_STM32L431_BearPi/Drivers/STM32L4xx_HAL_Driver/Src\stm32l4xx_hal_dma.c ****   */
 685:D:/iot/felix2/targets/Cloud_STM32L431_BearPi/Drivers/STM32L4xx_HAL_Driver/Src\stm32l4xx_hal_dma.c **** HAL_StatusTypeDef HAL_DMA_PollForTransfer(DMA_HandleTypeDef *hdma, HAL_DMA_LevelCompleteTypeDef Com
 686:D:/iot/felix2/targets/Cloud_STM32L431_BearPi/Drivers/STM32L4xx_HAL_Driver/Src\stm32l4xx_hal_dma.c **** {
 892              		.loc 1 686 0
 893              		.cfi_startproc
 894              		@ args = 0, pretend = 0, frame = 24
 895              		@ frame_needed = 1, uses_anonymous_args = 0
 896 0000 80B5     		push	{r7, lr}
 897              	.LCFI33:
 898              		.cfi_def_cfa_offset 8
 899              		.cfi_offset 7, -8
 900              		.cfi_offset 14, -4
 901 0002 86B0     		sub	sp, sp, #24
 902              	.LCFI34:
 903              		.cfi_def_cfa_offset 32
 904 0004 00AF     		add	r7, sp, #0
 905              	.LCFI35:
 906              		.cfi_def_cfa_register 7
 907 0006 F860     		str	r0, [r7, #12]
 908 0008 0B46     		mov	r3, r1
 909 000a 7A60     		str	r2, [r7, #4]
 910 000c FB72     		strb	r3, [r7, #11]
 687:D:/iot/felix2/targets/Cloud_STM32L431_BearPi/Drivers/STM32L4xx_HAL_Driver/Src\stm32l4xx_hal_dma.c ****   uint32_t temp;
 688:D:/iot/felix2/targets/Cloud_STM32L431_BearPi/Drivers/STM32L4xx_HAL_Driver/Src\stm32l4xx_hal_dma.c ****   uint32_t tickstart;
 689:D:/iot/felix2/targets/Cloud_STM32L431_BearPi/Drivers/STM32L4xx_HAL_Driver/Src\stm32l4xx_hal_dma.c **** 
 690:D:/iot/felix2/targets/Cloud_STM32L431_BearPi/Drivers/STM32L4xx_HAL_Driver/Src\stm32l4xx_hal_dma.c ****   if(HAL_DMA_STATE_BUSY != hdma->State)
 911              		.loc 1 690 0
 912 000e FB68     		ldr	r3, [r7, #12]
 913 0010 93F82530 		ldrb	r3, [r3, #37]
 914 0014 DBB2     		uxtb	r3, r3
 915 0016 022B     		cmp	r3, #2
ARM GAS  C:\Users\91458\AppData\Local\Temp\ccdbzqVS.s 			page 29


 916 0018 08D0     		beq	.L39
 691:D:/iot/felix2/targets/Cloud_STM32L431_BearPi/Drivers/STM32L4xx_HAL_Driver/Src\stm32l4xx_hal_dma.c ****   {
 692:D:/iot/felix2/targets/Cloud_STM32L431_BearPi/Drivers/STM32L4xx_HAL_Driver/Src\stm32l4xx_hal_dma.c ****     /* no transfer ongoing */
 693:D:/iot/felix2/targets/Cloud_STM32L431_BearPi/Drivers/STM32L4xx_HAL_Driver/Src\stm32l4xx_hal_dma.c ****     hdma->ErrorCode = HAL_DMA_ERROR_NO_XFER;
 917              		.loc 1 693 0
 918 001a FB68     		ldr	r3, [r7, #12]
 919 001c 0422     		movs	r2, #4
 920 001e DA63     		str	r2, [r3, #60]
 694:D:/iot/felix2/targets/Cloud_STM32L431_BearPi/Drivers/STM32L4xx_HAL_Driver/Src\stm32l4xx_hal_dma.c ****     __HAL_UNLOCK(hdma);
 921              		.loc 1 694 0
 922 0020 FB68     		ldr	r3, [r7, #12]
 923 0022 0022     		movs	r2, #0
 924 0024 83F82420 		strb	r2, [r3, #36]
 695:D:/iot/felix2/targets/Cloud_STM32L431_BearPi/Drivers/STM32L4xx_HAL_Driver/Src\stm32l4xx_hal_dma.c ****     return HAL_ERROR;
 925              		.loc 1 695 0
 926 0028 0123     		movs	r3, #1
 927 002a 8CE0     		b	.L40
 928              	.L39:
 696:D:/iot/felix2/targets/Cloud_STM32L431_BearPi/Drivers/STM32L4xx_HAL_Driver/Src\stm32l4xx_hal_dma.c ****   }
 697:D:/iot/felix2/targets/Cloud_STM32L431_BearPi/Drivers/STM32L4xx_HAL_Driver/Src\stm32l4xx_hal_dma.c **** 
 698:D:/iot/felix2/targets/Cloud_STM32L431_BearPi/Drivers/STM32L4xx_HAL_Driver/Src\stm32l4xx_hal_dma.c ****   /* Polling mode not supported in circular mode */
 699:D:/iot/felix2/targets/Cloud_STM32L431_BearPi/Drivers/STM32L4xx_HAL_Driver/Src\stm32l4xx_hal_dma.c ****   if (0U != (hdma->Instance->CCR & DMA_CCR_CIRC))
 929              		.loc 1 699 0
 930 002c FB68     		ldr	r3, [r7, #12]
 931 002e 1B68     		ldr	r3, [r3]
 932 0030 1B68     		ldr	r3, [r3]
 933 0032 03F02003 		and	r3, r3, #32
 934 0036 002B     		cmp	r3, #0
 935 0038 05D0     		beq	.L41
 700:D:/iot/felix2/targets/Cloud_STM32L431_BearPi/Drivers/STM32L4xx_HAL_Driver/Src\stm32l4xx_hal_dma.c ****   {
 701:D:/iot/felix2/targets/Cloud_STM32L431_BearPi/Drivers/STM32L4xx_HAL_Driver/Src\stm32l4xx_hal_dma.c ****     hdma->ErrorCode = HAL_DMA_ERROR_NOT_SUPPORTED;
 936              		.loc 1 701 0
 937 003a FB68     		ldr	r3, [r7, #12]
 938 003c 4FF48072 		mov	r2, #256
 939 0040 DA63     		str	r2, [r3, #60]
 702:D:/iot/felix2/targets/Cloud_STM32L431_BearPi/Drivers/STM32L4xx_HAL_Driver/Src\stm32l4xx_hal_dma.c ****     return HAL_ERROR;
 940              		.loc 1 702 0
 941 0042 0123     		movs	r3, #1
 942 0044 7FE0     		b	.L40
 943              	.L41:
 703:D:/iot/felix2/targets/Cloud_STM32L431_BearPi/Drivers/STM32L4xx_HAL_Driver/Src\stm32l4xx_hal_dma.c ****   }
 704:D:/iot/felix2/targets/Cloud_STM32L431_BearPi/Drivers/STM32L4xx_HAL_Driver/Src\stm32l4xx_hal_dma.c **** 
 705:D:/iot/felix2/targets/Cloud_STM32L431_BearPi/Drivers/STM32L4xx_HAL_Driver/Src\stm32l4xx_hal_dma.c ****   /* Get the level transfer complete flag */
 706:D:/iot/felix2/targets/Cloud_STM32L431_BearPi/Drivers/STM32L4xx_HAL_Driver/Src\stm32l4xx_hal_dma.c ****   if (HAL_DMA_FULL_TRANSFER == CompleteLevel)
 944              		.loc 1 706 0
 945 0046 FB7A     		ldrb	r3, [r7, #11]	@ zero_extendqisi2
 946 0048 002B     		cmp	r3, #0
 947 004a 08D1     		bne	.L42
 707:D:/iot/felix2/targets/Cloud_STM32L431_BearPi/Drivers/STM32L4xx_HAL_Driver/Src\stm32l4xx_hal_dma.c ****   {
 708:D:/iot/felix2/targets/Cloud_STM32L431_BearPi/Drivers/STM32L4xx_HAL_Driver/Src\stm32l4xx_hal_dma.c ****     /* Transfer Complete flag */
 709:D:/iot/felix2/targets/Cloud_STM32L431_BearPi/Drivers/STM32L4xx_HAL_Driver/Src\stm32l4xx_hal_dma.c ****     temp = DMA_FLAG_TC1 << (hdma->ChannelIndex & 0x1cU);
 948              		.loc 1 709 0
 949 004c FB68     		ldr	r3, [r7, #12]
 950 004e 5B6C     		ldr	r3, [r3, #68]
 951 0050 03F01C03 		and	r3, r3, #28
 952 0054 0222     		movs	r2, #2
 953 0056 02FA03F3 		lsl	r3, r2, r3
ARM GAS  C:\Users\91458\AppData\Local\Temp\ccdbzqVS.s 			page 30


 954 005a 7B61     		str	r3, [r7, #20]
 955 005c 07E0     		b	.L43
 956              	.L42:
 710:D:/iot/felix2/targets/Cloud_STM32L431_BearPi/Drivers/STM32L4xx_HAL_Driver/Src\stm32l4xx_hal_dma.c ****   }
 711:D:/iot/felix2/targets/Cloud_STM32L431_BearPi/Drivers/STM32L4xx_HAL_Driver/Src\stm32l4xx_hal_dma.c ****   else
 712:D:/iot/felix2/targets/Cloud_STM32L431_BearPi/Drivers/STM32L4xx_HAL_Driver/Src\stm32l4xx_hal_dma.c ****   {
 713:D:/iot/felix2/targets/Cloud_STM32L431_BearPi/Drivers/STM32L4xx_HAL_Driver/Src\stm32l4xx_hal_dma.c ****     /* Half Transfer Complete flag */
 714:D:/iot/felix2/targets/Cloud_STM32L431_BearPi/Drivers/STM32L4xx_HAL_Driver/Src\stm32l4xx_hal_dma.c ****     temp = DMA_FLAG_HT1 << (hdma->ChannelIndex & 0x1cU);
 957              		.loc 1 714 0
 958 005e FB68     		ldr	r3, [r7, #12]
 959 0060 5B6C     		ldr	r3, [r3, #68]
 960 0062 03F01C03 		and	r3, r3, #28
 961 0066 0422     		movs	r2, #4
 962 0068 02FA03F3 		lsl	r3, r2, r3
 963 006c 7B61     		str	r3, [r7, #20]
 964              	.L43:
 715:D:/iot/felix2/targets/Cloud_STM32L431_BearPi/Drivers/STM32L4xx_HAL_Driver/Src\stm32l4xx_hal_dma.c ****   }
 716:D:/iot/felix2/targets/Cloud_STM32L431_BearPi/Drivers/STM32L4xx_HAL_Driver/Src\stm32l4xx_hal_dma.c **** 
 717:D:/iot/felix2/targets/Cloud_STM32L431_BearPi/Drivers/STM32L4xx_HAL_Driver/Src\stm32l4xx_hal_dma.c ****   /* Get tick */
 718:D:/iot/felix2/targets/Cloud_STM32L431_BearPi/Drivers/STM32L4xx_HAL_Driver/Src\stm32l4xx_hal_dma.c ****   tickstart = HAL_GetTick();
 965              		.loc 1 718 0
 966 006e FFF7FEFF 		bl	HAL_GetTick
 967 0072 3861     		str	r0, [r7, #16]
 719:D:/iot/felix2/targets/Cloud_STM32L431_BearPi/Drivers/STM32L4xx_HAL_Driver/Src\stm32l4xx_hal_dma.c **** 
 720:D:/iot/felix2/targets/Cloud_STM32L431_BearPi/Drivers/STM32L4xx_HAL_Driver/Src\stm32l4xx_hal_dma.c ****   while(0U == (hdma->DmaBaseAddress->ISR & temp))
 968              		.loc 1 720 0
 969 0074 3FE0     		b	.L44
 970              	.L47:
 721:D:/iot/felix2/targets/Cloud_STM32L431_BearPi/Drivers/STM32L4xx_HAL_Driver/Src\stm32l4xx_hal_dma.c ****   {
 722:D:/iot/felix2/targets/Cloud_STM32L431_BearPi/Drivers/STM32L4xx_HAL_Driver/Src\stm32l4xx_hal_dma.c ****     if((0U != (hdma->DmaBaseAddress->ISR & (DMA_FLAG_TE1 << (hdma->ChannelIndex& 0x1cU)))))
 971              		.loc 1 722 0
 972 0076 FB68     		ldr	r3, [r7, #12]
 973 0078 1B6C     		ldr	r3, [r3, #64]
 974 007a 1A68     		ldr	r2, [r3]
 975 007c FB68     		ldr	r3, [r7, #12]
 976 007e 5B6C     		ldr	r3, [r3, #68]
 977 0080 03F01C03 		and	r3, r3, #28
 978 0084 0821     		movs	r1, #8
 979 0086 01FA03F3 		lsl	r3, r1, r3
 980 008a 1340     		ands	r3, r3, r2
 981 008c 002B     		cmp	r3, #0
 982 008e 16D0     		beq	.L45
 723:D:/iot/felix2/targets/Cloud_STM32L431_BearPi/Drivers/STM32L4xx_HAL_Driver/Src\stm32l4xx_hal_dma.c ****     {
 724:D:/iot/felix2/targets/Cloud_STM32L431_BearPi/Drivers/STM32L4xx_HAL_Driver/Src\stm32l4xx_hal_dma.c ****       /* When a DMA transfer error occurs */
 725:D:/iot/felix2/targets/Cloud_STM32L431_BearPi/Drivers/STM32L4xx_HAL_Driver/Src\stm32l4xx_hal_dma.c ****       /* A hardware clear of its EN bits is performed */
 726:D:/iot/felix2/targets/Cloud_STM32L431_BearPi/Drivers/STM32L4xx_HAL_Driver/Src\stm32l4xx_hal_dma.c ****       /* Clear all flags */
 727:D:/iot/felix2/targets/Cloud_STM32L431_BearPi/Drivers/STM32L4xx_HAL_Driver/Src\stm32l4xx_hal_dma.c ****       hdma->DmaBaseAddress->IFCR = (DMA_ISR_GIF1 << (hdma->ChannelIndex & 0x1cU));
 983              		.loc 1 727 0
 984 0090 FB68     		ldr	r3, [r7, #12]
 985 0092 5B6C     		ldr	r3, [r3, #68]
 986 0094 03F01C02 		and	r2, r3, #28
 987 0098 FB68     		ldr	r3, [r7, #12]
 988 009a 1B6C     		ldr	r3, [r3, #64]
 989 009c 0121     		movs	r1, #1
 990 009e 01FA02F2 		lsl	r2, r1, r2
 991 00a2 5A60     		str	r2, [r3, #4]
 728:D:/iot/felix2/targets/Cloud_STM32L431_BearPi/Drivers/STM32L4xx_HAL_Driver/Src\stm32l4xx_hal_dma.c **** 
ARM GAS  C:\Users\91458\AppData\Local\Temp\ccdbzqVS.s 			page 31


 729:D:/iot/felix2/targets/Cloud_STM32L431_BearPi/Drivers/STM32L4xx_HAL_Driver/Src\stm32l4xx_hal_dma.c ****       /* Update error code */
 730:D:/iot/felix2/targets/Cloud_STM32L431_BearPi/Drivers/STM32L4xx_HAL_Driver/Src\stm32l4xx_hal_dma.c ****       hdma->ErrorCode = HAL_DMA_ERROR_TE;
 992              		.loc 1 730 0
 993 00a4 FB68     		ldr	r3, [r7, #12]
 994 00a6 0122     		movs	r2, #1
 995 00a8 DA63     		str	r2, [r3, #60]
 731:D:/iot/felix2/targets/Cloud_STM32L431_BearPi/Drivers/STM32L4xx_HAL_Driver/Src\stm32l4xx_hal_dma.c **** 
 732:D:/iot/felix2/targets/Cloud_STM32L431_BearPi/Drivers/STM32L4xx_HAL_Driver/Src\stm32l4xx_hal_dma.c ****       /* Change the DMA state */
 733:D:/iot/felix2/targets/Cloud_STM32L431_BearPi/Drivers/STM32L4xx_HAL_Driver/Src\stm32l4xx_hal_dma.c ****       hdma->State= HAL_DMA_STATE_READY;
 996              		.loc 1 733 0
 997 00aa FB68     		ldr	r3, [r7, #12]
 998 00ac 0122     		movs	r2, #1
 999 00ae 83F82520 		strb	r2, [r3, #37]
 734:D:/iot/felix2/targets/Cloud_STM32L431_BearPi/Drivers/STM32L4xx_HAL_Driver/Src\stm32l4xx_hal_dma.c **** 
 735:D:/iot/felix2/targets/Cloud_STM32L431_BearPi/Drivers/STM32L4xx_HAL_Driver/Src\stm32l4xx_hal_dma.c ****       /* Process Unlocked */
 736:D:/iot/felix2/targets/Cloud_STM32L431_BearPi/Drivers/STM32L4xx_HAL_Driver/Src\stm32l4xx_hal_dma.c ****       __HAL_UNLOCK(hdma);
 1000              		.loc 1 736 0
 1001 00b2 FB68     		ldr	r3, [r7, #12]
 1002 00b4 0022     		movs	r2, #0
 1003 00b6 83F82420 		strb	r2, [r3, #36]
 737:D:/iot/felix2/targets/Cloud_STM32L431_BearPi/Drivers/STM32L4xx_HAL_Driver/Src\stm32l4xx_hal_dma.c **** 
 738:D:/iot/felix2/targets/Cloud_STM32L431_BearPi/Drivers/STM32L4xx_HAL_Driver/Src\stm32l4xx_hal_dma.c ****       return HAL_ERROR;
 1004              		.loc 1 738 0
 1005 00ba 0123     		movs	r3, #1
 1006 00bc 43E0     		b	.L40
 1007              	.L45:
 739:D:/iot/felix2/targets/Cloud_STM32L431_BearPi/Drivers/STM32L4xx_HAL_Driver/Src\stm32l4xx_hal_dma.c ****     }
 740:D:/iot/felix2/targets/Cloud_STM32L431_BearPi/Drivers/STM32L4xx_HAL_Driver/Src\stm32l4xx_hal_dma.c ****     /* Check for the Timeout */
 741:D:/iot/felix2/targets/Cloud_STM32L431_BearPi/Drivers/STM32L4xx_HAL_Driver/Src\stm32l4xx_hal_dma.c ****     if(Timeout != HAL_MAX_DELAY)
 1008              		.loc 1 741 0
 1009 00be 7B68     		ldr	r3, [r7, #4]
 1010 00c0 B3F1FF3F 		cmp	r3, #-1
 1011 00c4 17D0     		beq	.L44
 742:D:/iot/felix2/targets/Cloud_STM32L431_BearPi/Drivers/STM32L4xx_HAL_Driver/Src\stm32l4xx_hal_dma.c ****     {
 743:D:/iot/felix2/targets/Cloud_STM32L431_BearPi/Drivers/STM32L4xx_HAL_Driver/Src\stm32l4xx_hal_dma.c ****       if(((HAL_GetTick() - tickstart) > Timeout) ||  (Timeout == 0U))
 1012              		.loc 1 743 0
 1013 00c6 FFF7FEFF 		bl	HAL_GetTick
 1014 00ca 0246     		mov	r2, r0
 1015 00cc 3B69     		ldr	r3, [r7, #16]
 1016 00ce D31A     		subs	r3, r2, r3
 1017 00d0 7A68     		ldr	r2, [r7, #4]
 1018 00d2 9A42     		cmp	r2, r3
 1019 00d4 02D3     		bcc	.L46
 1020              		.loc 1 743 0 is_stmt 0 discriminator 1
 1021 00d6 7B68     		ldr	r3, [r7, #4]
 1022 00d8 002B     		cmp	r3, #0
 1023 00da 0CD1     		bne	.L44
 1024              	.L46:
 744:D:/iot/felix2/targets/Cloud_STM32L431_BearPi/Drivers/STM32L4xx_HAL_Driver/Src\stm32l4xx_hal_dma.c ****       {
 745:D:/iot/felix2/targets/Cloud_STM32L431_BearPi/Drivers/STM32L4xx_HAL_Driver/Src\stm32l4xx_hal_dma.c ****         /* Update error code */
 746:D:/iot/felix2/targets/Cloud_STM32L431_BearPi/Drivers/STM32L4xx_HAL_Driver/Src\stm32l4xx_hal_dma.c ****         hdma->ErrorCode = HAL_DMA_ERROR_TIMEOUT;
 1025              		.loc 1 746 0 is_stmt 1
 1026 00dc FB68     		ldr	r3, [r7, #12]
 1027 00de 2022     		movs	r2, #32
 1028 00e0 DA63     		str	r2, [r3, #60]
 747:D:/iot/felix2/targets/Cloud_STM32L431_BearPi/Drivers/STM32L4xx_HAL_Driver/Src\stm32l4xx_hal_dma.c **** 
 748:D:/iot/felix2/targets/Cloud_STM32L431_BearPi/Drivers/STM32L4xx_HAL_Driver/Src\stm32l4xx_hal_dma.c ****         /* Change the DMA state */
ARM GAS  C:\Users\91458\AppData\Local\Temp\ccdbzqVS.s 			page 32


 749:D:/iot/felix2/targets/Cloud_STM32L431_BearPi/Drivers/STM32L4xx_HAL_Driver/Src\stm32l4xx_hal_dma.c ****         hdma->State = HAL_DMA_STATE_READY;
 1029              		.loc 1 749 0
 1030 00e2 FB68     		ldr	r3, [r7, #12]
 1031 00e4 0122     		movs	r2, #1
 1032 00e6 83F82520 		strb	r2, [r3, #37]
 750:D:/iot/felix2/targets/Cloud_STM32L431_BearPi/Drivers/STM32L4xx_HAL_Driver/Src\stm32l4xx_hal_dma.c **** 
 751:D:/iot/felix2/targets/Cloud_STM32L431_BearPi/Drivers/STM32L4xx_HAL_Driver/Src\stm32l4xx_hal_dma.c ****         /* Process Unlocked */
 752:D:/iot/felix2/targets/Cloud_STM32L431_BearPi/Drivers/STM32L4xx_HAL_Driver/Src\stm32l4xx_hal_dma.c ****         __HAL_UNLOCK(hdma);
 1033              		.loc 1 752 0
 1034 00ea FB68     		ldr	r3, [r7, #12]
 1035 00ec 0022     		movs	r2, #0
 1036 00ee 83F82420 		strb	r2, [r3, #36]
 753:D:/iot/felix2/targets/Cloud_STM32L431_BearPi/Drivers/STM32L4xx_HAL_Driver/Src\stm32l4xx_hal_dma.c **** 
 754:D:/iot/felix2/targets/Cloud_STM32L431_BearPi/Drivers/STM32L4xx_HAL_Driver/Src\stm32l4xx_hal_dma.c ****         return HAL_ERROR;
 1037              		.loc 1 754 0
 1038 00f2 0123     		movs	r3, #1
 1039 00f4 27E0     		b	.L40
 1040              	.L44:
 720:D:/iot/felix2/targets/Cloud_STM32L431_BearPi/Drivers/STM32L4xx_HAL_Driver/Src\stm32l4xx_hal_dma.c ****   {
 1041              		.loc 1 720 0
 1042 00f6 FB68     		ldr	r3, [r7, #12]
 1043 00f8 1B6C     		ldr	r3, [r3, #64]
 1044 00fa 1A68     		ldr	r2, [r3]
 1045 00fc 7B69     		ldr	r3, [r7, #20]
 1046 00fe 1340     		ands	r3, r3, r2
 1047 0100 002B     		cmp	r3, #0
 1048 0102 B8D0     		beq	.L47
 755:D:/iot/felix2/targets/Cloud_STM32L431_BearPi/Drivers/STM32L4xx_HAL_Driver/Src\stm32l4xx_hal_dma.c ****       }
 756:D:/iot/felix2/targets/Cloud_STM32L431_BearPi/Drivers/STM32L4xx_HAL_Driver/Src\stm32l4xx_hal_dma.c ****     }
 757:D:/iot/felix2/targets/Cloud_STM32L431_BearPi/Drivers/STM32L4xx_HAL_Driver/Src\stm32l4xx_hal_dma.c ****   }
 758:D:/iot/felix2/targets/Cloud_STM32L431_BearPi/Drivers/STM32L4xx_HAL_Driver/Src\stm32l4xx_hal_dma.c **** 
 759:D:/iot/felix2/targets/Cloud_STM32L431_BearPi/Drivers/STM32L4xx_HAL_Driver/Src\stm32l4xx_hal_dma.c **** #if defined(DMAMUX1)
 760:D:/iot/felix2/targets/Cloud_STM32L431_BearPi/Drivers/STM32L4xx_HAL_Driver/Src\stm32l4xx_hal_dma.c ****   /*Check for DMAMUX Request generator (if used) overrun status */
 761:D:/iot/felix2/targets/Cloud_STM32L431_BearPi/Drivers/STM32L4xx_HAL_Driver/Src\stm32l4xx_hal_dma.c ****   if(hdma->DMAmuxRequestGen != 0U)
 762:D:/iot/felix2/targets/Cloud_STM32L431_BearPi/Drivers/STM32L4xx_HAL_Driver/Src\stm32l4xx_hal_dma.c ****   {
 763:D:/iot/felix2/targets/Cloud_STM32L431_BearPi/Drivers/STM32L4xx_HAL_Driver/Src\stm32l4xx_hal_dma.c ****     /* if using DMAMUX request generator Check for DMAMUX request generator overrun */
 764:D:/iot/felix2/targets/Cloud_STM32L431_BearPi/Drivers/STM32L4xx_HAL_Driver/Src\stm32l4xx_hal_dma.c ****     if((hdma->DMAmuxRequestGenStatus->RGSR & hdma->DMAmuxRequestGenStatusMask) != 0U)
 765:D:/iot/felix2/targets/Cloud_STM32L431_BearPi/Drivers/STM32L4xx_HAL_Driver/Src\stm32l4xx_hal_dma.c ****     {
 766:D:/iot/felix2/targets/Cloud_STM32L431_BearPi/Drivers/STM32L4xx_HAL_Driver/Src\stm32l4xx_hal_dma.c ****       /* Disable the request gen overrun interrupt */
 767:D:/iot/felix2/targets/Cloud_STM32L431_BearPi/Drivers/STM32L4xx_HAL_Driver/Src\stm32l4xx_hal_dma.c ****       hdma->DMAmuxRequestGen->RGCR |= DMAMUX_RGxCR_OIE;
 768:D:/iot/felix2/targets/Cloud_STM32L431_BearPi/Drivers/STM32L4xx_HAL_Driver/Src\stm32l4xx_hal_dma.c **** 
 769:D:/iot/felix2/targets/Cloud_STM32L431_BearPi/Drivers/STM32L4xx_HAL_Driver/Src\stm32l4xx_hal_dma.c ****       /* Clear the DMAMUX request generator overrun flag */
 770:D:/iot/felix2/targets/Cloud_STM32L431_BearPi/Drivers/STM32L4xx_HAL_Driver/Src\stm32l4xx_hal_dma.c ****       hdma->DMAmuxRequestGenStatus->RGCFR = hdma->DMAmuxRequestGenStatusMask;
 771:D:/iot/felix2/targets/Cloud_STM32L431_BearPi/Drivers/STM32L4xx_HAL_Driver/Src\stm32l4xx_hal_dma.c **** 
 772:D:/iot/felix2/targets/Cloud_STM32L431_BearPi/Drivers/STM32L4xx_HAL_Driver/Src\stm32l4xx_hal_dma.c ****       /* Update error code */
 773:D:/iot/felix2/targets/Cloud_STM32L431_BearPi/Drivers/STM32L4xx_HAL_Driver/Src\stm32l4xx_hal_dma.c ****       hdma->ErrorCode |= HAL_DMA_ERROR_REQGEN;
 774:D:/iot/felix2/targets/Cloud_STM32L431_BearPi/Drivers/STM32L4xx_HAL_Driver/Src\stm32l4xx_hal_dma.c ****     }
 775:D:/iot/felix2/targets/Cloud_STM32L431_BearPi/Drivers/STM32L4xx_HAL_Driver/Src\stm32l4xx_hal_dma.c ****   }
 776:D:/iot/felix2/targets/Cloud_STM32L431_BearPi/Drivers/STM32L4xx_HAL_Driver/Src\stm32l4xx_hal_dma.c **** 
 777:D:/iot/felix2/targets/Cloud_STM32L431_BearPi/Drivers/STM32L4xx_HAL_Driver/Src\stm32l4xx_hal_dma.c ****   /* Check for DMAMUX Synchronization overrun */
 778:D:/iot/felix2/targets/Cloud_STM32L431_BearPi/Drivers/STM32L4xx_HAL_Driver/Src\stm32l4xx_hal_dma.c ****   if((hdma->DMAmuxChannelStatus->CSR & hdma->DMAmuxChannelStatusMask) != 0U)
 779:D:/iot/felix2/targets/Cloud_STM32L431_BearPi/Drivers/STM32L4xx_HAL_Driver/Src\stm32l4xx_hal_dma.c ****   {
 780:D:/iot/felix2/targets/Cloud_STM32L431_BearPi/Drivers/STM32L4xx_HAL_Driver/Src\stm32l4xx_hal_dma.c ****     /* Clear the DMAMUX synchro overrun flag */
 781:D:/iot/felix2/targets/Cloud_STM32L431_BearPi/Drivers/STM32L4xx_HAL_Driver/Src\stm32l4xx_hal_dma.c ****     hdma->DMAmuxChannelStatus->CFR = hdma->DMAmuxChannelStatusMask;
 782:D:/iot/felix2/targets/Cloud_STM32L431_BearPi/Drivers/STM32L4xx_HAL_Driver/Src\stm32l4xx_hal_dma.c **** 
 783:D:/iot/felix2/targets/Cloud_STM32L431_BearPi/Drivers/STM32L4xx_HAL_Driver/Src\stm32l4xx_hal_dma.c ****     /* Update error code */
 784:D:/iot/felix2/targets/Cloud_STM32L431_BearPi/Drivers/STM32L4xx_HAL_Driver/Src\stm32l4xx_hal_dma.c ****     hdma->ErrorCode |= HAL_DMA_ERROR_SYNC;
ARM GAS  C:\Users\91458\AppData\Local\Temp\ccdbzqVS.s 			page 33


 785:D:/iot/felix2/targets/Cloud_STM32L431_BearPi/Drivers/STM32L4xx_HAL_Driver/Src\stm32l4xx_hal_dma.c ****   }
 786:D:/iot/felix2/targets/Cloud_STM32L431_BearPi/Drivers/STM32L4xx_HAL_Driver/Src\stm32l4xx_hal_dma.c **** #endif /* DMAMUX1 */
 787:D:/iot/felix2/targets/Cloud_STM32L431_BearPi/Drivers/STM32L4xx_HAL_Driver/Src\stm32l4xx_hal_dma.c **** 
 788:D:/iot/felix2/targets/Cloud_STM32L431_BearPi/Drivers/STM32L4xx_HAL_Driver/Src\stm32l4xx_hal_dma.c ****   if(HAL_DMA_FULL_TRANSFER == CompleteLevel)
 1049              		.loc 1 788 0
 1050 0104 FB7A     		ldrb	r3, [r7, #11]	@ zero_extendqisi2
 1051 0106 002B     		cmp	r3, #0
 1052 0108 0ED1     		bne	.L48
 789:D:/iot/felix2/targets/Cloud_STM32L431_BearPi/Drivers/STM32L4xx_HAL_Driver/Src\stm32l4xx_hal_dma.c ****   {
 790:D:/iot/felix2/targets/Cloud_STM32L431_BearPi/Drivers/STM32L4xx_HAL_Driver/Src\stm32l4xx_hal_dma.c ****     /* Clear the transfer complete flag */
 791:D:/iot/felix2/targets/Cloud_STM32L431_BearPi/Drivers/STM32L4xx_HAL_Driver/Src\stm32l4xx_hal_dma.c ****     hdma->DmaBaseAddress->IFCR = (DMA_FLAG_TC1 << (hdma->ChannelIndex& 0x1cU));
 1053              		.loc 1 791 0
 1054 010a FB68     		ldr	r3, [r7, #12]
 1055 010c 5B6C     		ldr	r3, [r3, #68]
 1056 010e 03F01C02 		and	r2, r3, #28
 1057 0112 FB68     		ldr	r3, [r7, #12]
 1058 0114 1B6C     		ldr	r3, [r3, #64]
 1059 0116 0221     		movs	r1, #2
 1060 0118 01FA02F2 		lsl	r2, r1, r2
 1061 011c 5A60     		str	r2, [r3, #4]
 792:D:/iot/felix2/targets/Cloud_STM32L431_BearPi/Drivers/STM32L4xx_HAL_Driver/Src\stm32l4xx_hal_dma.c **** 
 793:D:/iot/felix2/targets/Cloud_STM32L431_BearPi/Drivers/STM32L4xx_HAL_Driver/Src\stm32l4xx_hal_dma.c ****     /* The selected Channelx EN bit is cleared (DMA is disabled and
 794:D:/iot/felix2/targets/Cloud_STM32L431_BearPi/Drivers/STM32L4xx_HAL_Driver/Src\stm32l4xx_hal_dma.c ****     all transfers are complete) */
 795:D:/iot/felix2/targets/Cloud_STM32L431_BearPi/Drivers/STM32L4xx_HAL_Driver/Src\stm32l4xx_hal_dma.c ****     hdma->State = HAL_DMA_STATE_READY;
 1062              		.loc 1 795 0
 1063 011e FB68     		ldr	r3, [r7, #12]
 1064 0120 0122     		movs	r2, #1
 1065 0122 83F82520 		strb	r2, [r3, #37]
 1066 0126 09E0     		b	.L49
 1067              	.L48:
 796:D:/iot/felix2/targets/Cloud_STM32L431_BearPi/Drivers/STM32L4xx_HAL_Driver/Src\stm32l4xx_hal_dma.c ****   }
 797:D:/iot/felix2/targets/Cloud_STM32L431_BearPi/Drivers/STM32L4xx_HAL_Driver/Src\stm32l4xx_hal_dma.c ****   else
 798:D:/iot/felix2/targets/Cloud_STM32L431_BearPi/Drivers/STM32L4xx_HAL_Driver/Src\stm32l4xx_hal_dma.c ****   {
 799:D:/iot/felix2/targets/Cloud_STM32L431_BearPi/Drivers/STM32L4xx_HAL_Driver/Src\stm32l4xx_hal_dma.c ****     /* Clear the half transfer complete flag */
 800:D:/iot/felix2/targets/Cloud_STM32L431_BearPi/Drivers/STM32L4xx_HAL_Driver/Src\stm32l4xx_hal_dma.c ****     hdma->DmaBaseAddress->IFCR = (DMA_FLAG_HT1 << (hdma->ChannelIndex & 0x1cU));
 1068              		.loc 1 800 0
 1069 0128 FB68     		ldr	r3, [r7, #12]
 1070 012a 5B6C     		ldr	r3, [r3, #68]
 1071 012c 03F01C02 		and	r2, r3, #28
 1072 0130 FB68     		ldr	r3, [r7, #12]
 1073 0132 1B6C     		ldr	r3, [r3, #64]
 1074 0134 0421     		movs	r1, #4
 1075 0136 01FA02F2 		lsl	r2, r1, r2
 1076 013a 5A60     		str	r2, [r3, #4]
 1077              	.L49:
 801:D:/iot/felix2/targets/Cloud_STM32L431_BearPi/Drivers/STM32L4xx_HAL_Driver/Src\stm32l4xx_hal_dma.c ****   }
 802:D:/iot/felix2/targets/Cloud_STM32L431_BearPi/Drivers/STM32L4xx_HAL_Driver/Src\stm32l4xx_hal_dma.c **** 
 803:D:/iot/felix2/targets/Cloud_STM32L431_BearPi/Drivers/STM32L4xx_HAL_Driver/Src\stm32l4xx_hal_dma.c ****   /* Process unlocked */
 804:D:/iot/felix2/targets/Cloud_STM32L431_BearPi/Drivers/STM32L4xx_HAL_Driver/Src\stm32l4xx_hal_dma.c ****   __HAL_UNLOCK(hdma);
 1078              		.loc 1 804 0
 1079 013c FB68     		ldr	r3, [r7, #12]
 1080 013e 0022     		movs	r2, #0
 1081 0140 83F82420 		strb	r2, [r3, #36]
 805:D:/iot/felix2/targets/Cloud_STM32L431_BearPi/Drivers/STM32L4xx_HAL_Driver/Src\stm32l4xx_hal_dma.c **** 
 806:D:/iot/felix2/targets/Cloud_STM32L431_BearPi/Drivers/STM32L4xx_HAL_Driver/Src\stm32l4xx_hal_dma.c ****   return HAL_OK;
 1082              		.loc 1 806 0
 1083 0144 0023     		movs	r3, #0
ARM GAS  C:\Users\91458\AppData\Local\Temp\ccdbzqVS.s 			page 34


 1084              	.L40:
 807:D:/iot/felix2/targets/Cloud_STM32L431_BearPi/Drivers/STM32L4xx_HAL_Driver/Src\stm32l4xx_hal_dma.c **** }
 1085              		.loc 1 807 0
 1086 0146 1846     		mov	r0, r3
 1087 0148 1837     		adds	r7, r7, #24
 1088              	.LCFI36:
 1089              		.cfi_def_cfa_offset 8
 1090 014a BD46     		mov	sp, r7
 1091              	.LCFI37:
 1092              		.cfi_def_cfa_register 13
 1093              		@ sp needed
 1094 014c 80BD     		pop	{r7, pc}
 1095              		.cfi_endproc
 1096              	.LFE139:
 1098              		.section	.text.HAL_DMA_IRQHandler,"ax",%progbits
 1099              		.align	1
 1100              		.global	HAL_DMA_IRQHandler
 1101              		.syntax unified
 1102              		.thumb
 1103              		.thumb_func
 1104              		.fpu fpv4-sp-d16
 1106              	HAL_DMA_IRQHandler:
 1107              	.LFB140:
 808:D:/iot/felix2/targets/Cloud_STM32L431_BearPi/Drivers/STM32L4xx_HAL_Driver/Src\stm32l4xx_hal_dma.c **** 
 809:D:/iot/felix2/targets/Cloud_STM32L431_BearPi/Drivers/STM32L4xx_HAL_Driver/Src\stm32l4xx_hal_dma.c **** /**
 810:D:/iot/felix2/targets/Cloud_STM32L431_BearPi/Drivers/STM32L4xx_HAL_Driver/Src\stm32l4xx_hal_dma.c ****   * @brief  Handle DMA interrupt request.
 811:D:/iot/felix2/targets/Cloud_STM32L431_BearPi/Drivers/STM32L4xx_HAL_Driver/Src\stm32l4xx_hal_dma.c ****   * @param  hdma pointer to a DMA_HandleTypeDef structure that contains
 812:D:/iot/felix2/targets/Cloud_STM32L431_BearPi/Drivers/STM32L4xx_HAL_Driver/Src\stm32l4xx_hal_dma.c ****   *               the configuration information for the specified DMA Channel.
 813:D:/iot/felix2/targets/Cloud_STM32L431_BearPi/Drivers/STM32L4xx_HAL_Driver/Src\stm32l4xx_hal_dma.c ****   * @retval None
 814:D:/iot/felix2/targets/Cloud_STM32L431_BearPi/Drivers/STM32L4xx_HAL_Driver/Src\stm32l4xx_hal_dma.c ****   */
 815:D:/iot/felix2/targets/Cloud_STM32L431_BearPi/Drivers/STM32L4xx_HAL_Driver/Src\stm32l4xx_hal_dma.c **** void HAL_DMA_IRQHandler(DMA_HandleTypeDef *hdma)
 816:D:/iot/felix2/targets/Cloud_STM32L431_BearPi/Drivers/STM32L4xx_HAL_Driver/Src\stm32l4xx_hal_dma.c **** {
 1108              		.loc 1 816 0
 1109              		.cfi_startproc
 1110              		@ args = 0, pretend = 0, frame = 16
 1111              		@ frame_needed = 1, uses_anonymous_args = 0
 1112 0000 80B5     		push	{r7, lr}
 1113              	.LCFI38:
 1114              		.cfi_def_cfa_offset 8
 1115              		.cfi_offset 7, -8
 1116              		.cfi_offset 14, -4
 1117 0002 84B0     		sub	sp, sp, #16
 1118              	.LCFI39:
 1119              		.cfi_def_cfa_offset 24
 1120 0004 00AF     		add	r7, sp, #0
 1121              	.LCFI40:
 1122              		.cfi_def_cfa_register 7
 1123 0006 7860     		str	r0, [r7, #4]
 817:D:/iot/felix2/targets/Cloud_STM32L431_BearPi/Drivers/STM32L4xx_HAL_Driver/Src\stm32l4xx_hal_dma.c ****   uint32_t flag_it = hdma->DmaBaseAddress->ISR;
 1124              		.loc 1 817 0
 1125 0008 7B68     		ldr	r3, [r7, #4]
 1126 000a 1B6C     		ldr	r3, [r3, #64]
 1127 000c 1B68     		ldr	r3, [r3]
 1128 000e FB60     		str	r3, [r7, #12]
 818:D:/iot/felix2/targets/Cloud_STM32L431_BearPi/Drivers/STM32L4xx_HAL_Driver/Src\stm32l4xx_hal_dma.c ****   uint32_t source_it = hdma->Instance->CCR;
 1129              		.loc 1 818 0
 1130 0010 7B68     		ldr	r3, [r7, #4]
ARM GAS  C:\Users\91458\AppData\Local\Temp\ccdbzqVS.s 			page 35


 1131 0012 1B68     		ldr	r3, [r3]
 1132 0014 1B68     		ldr	r3, [r3]
 1133 0016 BB60     		str	r3, [r7, #8]
 819:D:/iot/felix2/targets/Cloud_STM32L431_BearPi/Drivers/STM32L4xx_HAL_Driver/Src\stm32l4xx_hal_dma.c **** 
 820:D:/iot/felix2/targets/Cloud_STM32L431_BearPi/Drivers/STM32L4xx_HAL_Driver/Src\stm32l4xx_hal_dma.c ****   /* Half Transfer Complete Interrupt management ******************************/
 821:D:/iot/felix2/targets/Cloud_STM32L431_BearPi/Drivers/STM32L4xx_HAL_Driver/Src\stm32l4xx_hal_dma.c ****   if ((0U != (flag_it & (DMA_FLAG_HT1 << (hdma->ChannelIndex & 0x1cU)))) && (0U != (source_it & DMA
 1134              		.loc 1 821 0
 1135 0018 7B68     		ldr	r3, [r7, #4]
 1136 001a 5B6C     		ldr	r3, [r3, #68]
 1137 001c 03F01C03 		and	r3, r3, #28
 1138 0020 0422     		movs	r2, #4
 1139 0022 9A40     		lsls	r2, r2, r3
 1140 0024 FB68     		ldr	r3, [r7, #12]
 1141 0026 1340     		ands	r3, r3, r2
 1142 0028 002B     		cmp	r3, #0
 1143 002a 26D0     		beq	.L51
 1144              		.loc 1 821 0 is_stmt 0 discriminator 1
 1145 002c BB68     		ldr	r3, [r7, #8]
 1146 002e 03F00403 		and	r3, r3, #4
 1147 0032 002B     		cmp	r3, #0
 1148 0034 21D0     		beq	.L51
 822:D:/iot/felix2/targets/Cloud_STM32L431_BearPi/Drivers/STM32L4xx_HAL_Driver/Src\stm32l4xx_hal_dma.c ****   {
 823:D:/iot/felix2/targets/Cloud_STM32L431_BearPi/Drivers/STM32L4xx_HAL_Driver/Src\stm32l4xx_hal_dma.c ****       /* Disable the half transfer interrupt if the DMA mode is not CIRCULAR */
 824:D:/iot/felix2/targets/Cloud_STM32L431_BearPi/Drivers/STM32L4xx_HAL_Driver/Src\stm32l4xx_hal_dma.c ****       if((hdma->Instance->CCR & DMA_CCR_CIRC) == 0U)
 1149              		.loc 1 824 0 is_stmt 1
 1150 0036 7B68     		ldr	r3, [r7, #4]
 1151 0038 1B68     		ldr	r3, [r3]
 1152 003a 1B68     		ldr	r3, [r3]
 1153 003c 03F02003 		and	r3, r3, #32
 1154 0040 002B     		cmp	r3, #0
 1155 0042 07D1     		bne	.L52
 825:D:/iot/felix2/targets/Cloud_STM32L431_BearPi/Drivers/STM32L4xx_HAL_Driver/Src\stm32l4xx_hal_dma.c ****       {
 826:D:/iot/felix2/targets/Cloud_STM32L431_BearPi/Drivers/STM32L4xx_HAL_Driver/Src\stm32l4xx_hal_dma.c ****         /* Disable the half transfer interrupt */
 827:D:/iot/felix2/targets/Cloud_STM32L431_BearPi/Drivers/STM32L4xx_HAL_Driver/Src\stm32l4xx_hal_dma.c ****         __HAL_DMA_DISABLE_IT(hdma, DMA_IT_HT);
 1156              		.loc 1 827 0
 1157 0044 7B68     		ldr	r3, [r7, #4]
 1158 0046 1B68     		ldr	r3, [r3]
 1159 0048 1A68     		ldr	r2, [r3]
 1160 004a 7B68     		ldr	r3, [r7, #4]
 1161 004c 1B68     		ldr	r3, [r3]
 1162 004e 22F00402 		bic	r2, r2, #4
 1163 0052 1A60     		str	r2, [r3]
 1164              	.L52:
 828:D:/iot/felix2/targets/Cloud_STM32L431_BearPi/Drivers/STM32L4xx_HAL_Driver/Src\stm32l4xx_hal_dma.c ****       }
 829:D:/iot/felix2/targets/Cloud_STM32L431_BearPi/Drivers/STM32L4xx_HAL_Driver/Src\stm32l4xx_hal_dma.c ****       /* Clear the half transfer complete flag */
 830:D:/iot/felix2/targets/Cloud_STM32L431_BearPi/Drivers/STM32L4xx_HAL_Driver/Src\stm32l4xx_hal_dma.c ****       hdma->DmaBaseAddress->IFCR = DMA_ISR_HTIF1 << (hdma->ChannelIndex & 0x1cU);
 1165              		.loc 1 830 0
 1166 0054 7B68     		ldr	r3, [r7, #4]
 1167 0056 5B6C     		ldr	r3, [r3, #68]
 1168 0058 03F01C02 		and	r2, r3, #28
 1169 005c 7B68     		ldr	r3, [r7, #4]
 1170 005e 1B6C     		ldr	r3, [r3, #64]
 1171 0060 0421     		movs	r1, #4
 1172 0062 01FA02F2 		lsl	r2, r1, r2
 1173 0066 5A60     		str	r2, [r3, #4]
 831:D:/iot/felix2/targets/Cloud_STM32L431_BearPi/Drivers/STM32L4xx_HAL_Driver/Src\stm32l4xx_hal_dma.c **** 
 832:D:/iot/felix2/targets/Cloud_STM32L431_BearPi/Drivers/STM32L4xx_HAL_Driver/Src\stm32l4xx_hal_dma.c ****       /* DMA peripheral state is not updated in Half Transfer */
ARM GAS  C:\Users\91458\AppData\Local\Temp\ccdbzqVS.s 			page 36


 833:D:/iot/felix2/targets/Cloud_STM32L431_BearPi/Drivers/STM32L4xx_HAL_Driver/Src\stm32l4xx_hal_dma.c ****       /* but in Transfer Complete case */
 834:D:/iot/felix2/targets/Cloud_STM32L431_BearPi/Drivers/STM32L4xx_HAL_Driver/Src\stm32l4xx_hal_dma.c **** 
 835:D:/iot/felix2/targets/Cloud_STM32L431_BearPi/Drivers/STM32L4xx_HAL_Driver/Src\stm32l4xx_hal_dma.c ****      if(hdma->XferHalfCpltCallback != NULL)
 1174              		.loc 1 835 0
 1175 0068 7B68     		ldr	r3, [r7, #4]
 1176 006a 1B6B     		ldr	r3, [r3, #48]
 1177 006c 002B     		cmp	r3, #0
 1178 006e 71D0     		beq	.L54
 836:D:/iot/felix2/targets/Cloud_STM32L431_BearPi/Drivers/STM32L4xx_HAL_Driver/Src\stm32l4xx_hal_dma.c ****       {
 837:D:/iot/felix2/targets/Cloud_STM32L431_BearPi/Drivers/STM32L4xx_HAL_Driver/Src\stm32l4xx_hal_dma.c ****         /* Half transfer callback */
 838:D:/iot/felix2/targets/Cloud_STM32L431_BearPi/Drivers/STM32L4xx_HAL_Driver/Src\stm32l4xx_hal_dma.c ****         hdma->XferHalfCpltCallback(hdma);
 1179              		.loc 1 838 0
 1180 0070 7B68     		ldr	r3, [r7, #4]
 1181 0072 1B6B     		ldr	r3, [r3, #48]
 1182 0074 7868     		ldr	r0, [r7, #4]
 1183 0076 9847     		blx	r3
 1184              	.LVL1:
 835:D:/iot/felix2/targets/Cloud_STM32L431_BearPi/Drivers/STM32L4xx_HAL_Driver/Src\stm32l4xx_hal_dma.c ****       {
 1185              		.loc 1 835 0
 1186 0078 6CE0     		b	.L54
 1187              	.L51:
 839:D:/iot/felix2/targets/Cloud_STM32L431_BearPi/Drivers/STM32L4xx_HAL_Driver/Src\stm32l4xx_hal_dma.c ****       }
 840:D:/iot/felix2/targets/Cloud_STM32L431_BearPi/Drivers/STM32L4xx_HAL_Driver/Src\stm32l4xx_hal_dma.c ****   }
 841:D:/iot/felix2/targets/Cloud_STM32L431_BearPi/Drivers/STM32L4xx_HAL_Driver/Src\stm32l4xx_hal_dma.c **** 
 842:D:/iot/felix2/targets/Cloud_STM32L431_BearPi/Drivers/STM32L4xx_HAL_Driver/Src\stm32l4xx_hal_dma.c ****   /* Transfer Complete Interrupt management ***********************************/
 843:D:/iot/felix2/targets/Cloud_STM32L431_BearPi/Drivers/STM32L4xx_HAL_Driver/Src\stm32l4xx_hal_dma.c ****   else if ((0U != (flag_it & (DMA_FLAG_TC1 << (hdma->ChannelIndex & 0x1cU)))) && (0U != (source_it 
 1188              		.loc 1 843 0
 1189 007a 7B68     		ldr	r3, [r7, #4]
 1190 007c 5B6C     		ldr	r3, [r3, #68]
 1191 007e 03F01C03 		and	r3, r3, #28
 1192 0082 0222     		movs	r2, #2
 1193 0084 9A40     		lsls	r2, r2, r3
 1194 0086 FB68     		ldr	r3, [r7, #12]
 1195 0088 1340     		ands	r3, r3, r2
 1196 008a 002B     		cmp	r3, #0
 1197 008c 2ED0     		beq	.L55
 1198              		.loc 1 843 0 is_stmt 0 discriminator 1
 1199 008e BB68     		ldr	r3, [r7, #8]
 1200 0090 03F00203 		and	r3, r3, #2
 1201 0094 002B     		cmp	r3, #0
 1202 0096 29D0     		beq	.L55
 844:D:/iot/felix2/targets/Cloud_STM32L431_BearPi/Drivers/STM32L4xx_HAL_Driver/Src\stm32l4xx_hal_dma.c ****   {
 845:D:/iot/felix2/targets/Cloud_STM32L431_BearPi/Drivers/STM32L4xx_HAL_Driver/Src\stm32l4xx_hal_dma.c ****     if((hdma->Instance->CCR & DMA_CCR_CIRC) == 0U)
 1203              		.loc 1 845 0 is_stmt 1
 1204 0098 7B68     		ldr	r3, [r7, #4]
 1205 009a 1B68     		ldr	r3, [r3]
 1206 009c 1B68     		ldr	r3, [r3]
 1207 009e 03F02003 		and	r3, r3, #32
 1208 00a2 002B     		cmp	r3, #0
 1209 00a4 0BD1     		bne	.L56
 846:D:/iot/felix2/targets/Cloud_STM32L431_BearPi/Drivers/STM32L4xx_HAL_Driver/Src\stm32l4xx_hal_dma.c ****     {
 847:D:/iot/felix2/targets/Cloud_STM32L431_BearPi/Drivers/STM32L4xx_HAL_Driver/Src\stm32l4xx_hal_dma.c ****       /* Disable the transfer complete and error interrupt */
 848:D:/iot/felix2/targets/Cloud_STM32L431_BearPi/Drivers/STM32L4xx_HAL_Driver/Src\stm32l4xx_hal_dma.c ****       __HAL_DMA_DISABLE_IT(hdma, DMA_IT_TE | DMA_IT_TC);
 1210              		.loc 1 848 0
 1211 00a6 7B68     		ldr	r3, [r7, #4]
 1212 00a8 1B68     		ldr	r3, [r3]
 1213 00aa 1A68     		ldr	r2, [r3]
ARM GAS  C:\Users\91458\AppData\Local\Temp\ccdbzqVS.s 			page 37


 1214 00ac 7B68     		ldr	r3, [r7, #4]
 1215 00ae 1B68     		ldr	r3, [r3]
 1216 00b0 22F00A02 		bic	r2, r2, #10
 1217 00b4 1A60     		str	r2, [r3]
 849:D:/iot/felix2/targets/Cloud_STM32L431_BearPi/Drivers/STM32L4xx_HAL_Driver/Src\stm32l4xx_hal_dma.c **** 
 850:D:/iot/felix2/targets/Cloud_STM32L431_BearPi/Drivers/STM32L4xx_HAL_Driver/Src\stm32l4xx_hal_dma.c ****       /* Change the DMA state */
 851:D:/iot/felix2/targets/Cloud_STM32L431_BearPi/Drivers/STM32L4xx_HAL_Driver/Src\stm32l4xx_hal_dma.c ****       hdma->State = HAL_DMA_STATE_READY;
 1218              		.loc 1 851 0
 1219 00b6 7B68     		ldr	r3, [r7, #4]
 1220 00b8 0122     		movs	r2, #1
 1221 00ba 83F82520 		strb	r2, [r3, #37]
 1222              	.L56:
 852:D:/iot/felix2/targets/Cloud_STM32L431_BearPi/Drivers/STM32L4xx_HAL_Driver/Src\stm32l4xx_hal_dma.c ****     }
 853:D:/iot/felix2/targets/Cloud_STM32L431_BearPi/Drivers/STM32L4xx_HAL_Driver/Src\stm32l4xx_hal_dma.c ****     /* Clear the transfer complete flag */
 854:D:/iot/felix2/targets/Cloud_STM32L431_BearPi/Drivers/STM32L4xx_HAL_Driver/Src\stm32l4xx_hal_dma.c ****     hdma->DmaBaseAddress->IFCR = (DMA_ISR_TCIF1 << (hdma->ChannelIndex & 0x1cU));
 1223              		.loc 1 854 0
 1224 00be 7B68     		ldr	r3, [r7, #4]
 1225 00c0 5B6C     		ldr	r3, [r3, #68]
 1226 00c2 03F01C02 		and	r2, r3, #28
 1227 00c6 7B68     		ldr	r3, [r7, #4]
 1228 00c8 1B6C     		ldr	r3, [r3, #64]
 1229 00ca 0221     		movs	r1, #2
 1230 00cc 01FA02F2 		lsl	r2, r1, r2
 1231 00d0 5A60     		str	r2, [r3, #4]
 855:D:/iot/felix2/targets/Cloud_STM32L431_BearPi/Drivers/STM32L4xx_HAL_Driver/Src\stm32l4xx_hal_dma.c **** 
 856:D:/iot/felix2/targets/Cloud_STM32L431_BearPi/Drivers/STM32L4xx_HAL_Driver/Src\stm32l4xx_hal_dma.c ****     /* Process Unlocked */
 857:D:/iot/felix2/targets/Cloud_STM32L431_BearPi/Drivers/STM32L4xx_HAL_Driver/Src\stm32l4xx_hal_dma.c ****     __HAL_UNLOCK(hdma);
 1232              		.loc 1 857 0
 1233 00d2 7B68     		ldr	r3, [r7, #4]
 1234 00d4 0022     		movs	r2, #0
 1235 00d6 83F82420 		strb	r2, [r3, #36]
 858:D:/iot/felix2/targets/Cloud_STM32L431_BearPi/Drivers/STM32L4xx_HAL_Driver/Src\stm32l4xx_hal_dma.c **** 
 859:D:/iot/felix2/targets/Cloud_STM32L431_BearPi/Drivers/STM32L4xx_HAL_Driver/Src\stm32l4xx_hal_dma.c ****     if(hdma->XferCpltCallback != NULL)
 1236              		.loc 1 859 0
 1237 00da 7B68     		ldr	r3, [r7, #4]
 1238 00dc DB6A     		ldr	r3, [r3, #44]
 1239 00de 002B     		cmp	r3, #0
 1240 00e0 38D0     		beq	.L54
 860:D:/iot/felix2/targets/Cloud_STM32L431_BearPi/Drivers/STM32L4xx_HAL_Driver/Src\stm32l4xx_hal_dma.c ****     {
 861:D:/iot/felix2/targets/Cloud_STM32L431_BearPi/Drivers/STM32L4xx_HAL_Driver/Src\stm32l4xx_hal_dma.c ****       /* Transfer complete callback */
 862:D:/iot/felix2/targets/Cloud_STM32L431_BearPi/Drivers/STM32L4xx_HAL_Driver/Src\stm32l4xx_hal_dma.c ****       hdma->XferCpltCallback(hdma);
 1241              		.loc 1 862 0
 1242 00e2 7B68     		ldr	r3, [r7, #4]
 1243 00e4 DB6A     		ldr	r3, [r3, #44]
 1244 00e6 7868     		ldr	r0, [r7, #4]
 1245 00e8 9847     		blx	r3
 1246              	.LVL2:
 859:D:/iot/felix2/targets/Cloud_STM32L431_BearPi/Drivers/STM32L4xx_HAL_Driver/Src\stm32l4xx_hal_dma.c ****     {
 1247              		.loc 1 859 0
 1248 00ea 33E0     		b	.L54
 1249              	.L55:
 863:D:/iot/felix2/targets/Cloud_STM32L431_BearPi/Drivers/STM32L4xx_HAL_Driver/Src\stm32l4xx_hal_dma.c ****     }
 864:D:/iot/felix2/targets/Cloud_STM32L431_BearPi/Drivers/STM32L4xx_HAL_Driver/Src\stm32l4xx_hal_dma.c ****   }
 865:D:/iot/felix2/targets/Cloud_STM32L431_BearPi/Drivers/STM32L4xx_HAL_Driver/Src\stm32l4xx_hal_dma.c **** 
 866:D:/iot/felix2/targets/Cloud_STM32L431_BearPi/Drivers/STM32L4xx_HAL_Driver/Src\stm32l4xx_hal_dma.c ****   /* Transfer Error Interrupt management **************************************/
 867:D:/iot/felix2/targets/Cloud_STM32L431_BearPi/Drivers/STM32L4xx_HAL_Driver/Src\stm32l4xx_hal_dma.c ****   else if ((0U != (flag_it & (DMA_FLAG_TE1 << (hdma->ChannelIndex & 0x1cU)))) && (0U != (source_it 
 1250              		.loc 1 867 0
ARM GAS  C:\Users\91458\AppData\Local\Temp\ccdbzqVS.s 			page 38


 1251 00ec 7B68     		ldr	r3, [r7, #4]
 1252 00ee 5B6C     		ldr	r3, [r3, #68]
 1253 00f0 03F01C03 		and	r3, r3, #28
 1254 00f4 0822     		movs	r2, #8
 1255 00f6 9A40     		lsls	r2, r2, r3
 1256 00f8 FB68     		ldr	r3, [r7, #12]
 1257 00fa 1340     		ands	r3, r3, r2
 1258 00fc 002B     		cmp	r3, #0
 1259 00fe 2AD0     		beq	.L60
 1260              		.loc 1 867 0 is_stmt 0 discriminator 1
 1261 0100 BB68     		ldr	r3, [r7, #8]
 1262 0102 03F00803 		and	r3, r3, #8
 1263 0106 002B     		cmp	r3, #0
 1264 0108 25D0     		beq	.L60
 868:D:/iot/felix2/targets/Cloud_STM32L431_BearPi/Drivers/STM32L4xx_HAL_Driver/Src\stm32l4xx_hal_dma.c ****   {
 869:D:/iot/felix2/targets/Cloud_STM32L431_BearPi/Drivers/STM32L4xx_HAL_Driver/Src\stm32l4xx_hal_dma.c ****     /* When a DMA transfer error occurs */
 870:D:/iot/felix2/targets/Cloud_STM32L431_BearPi/Drivers/STM32L4xx_HAL_Driver/Src\stm32l4xx_hal_dma.c ****     /* A hardware clear of its EN bits is performed */
 871:D:/iot/felix2/targets/Cloud_STM32L431_BearPi/Drivers/STM32L4xx_HAL_Driver/Src\stm32l4xx_hal_dma.c ****     /* Disable ALL DMA IT */
 872:D:/iot/felix2/targets/Cloud_STM32L431_BearPi/Drivers/STM32L4xx_HAL_Driver/Src\stm32l4xx_hal_dma.c ****     __HAL_DMA_DISABLE_IT(hdma, (DMA_IT_TC | DMA_IT_HT | DMA_IT_TE));
 1265              		.loc 1 872 0 is_stmt 1
 1266 010a 7B68     		ldr	r3, [r7, #4]
 1267 010c 1B68     		ldr	r3, [r3]
 1268 010e 1A68     		ldr	r2, [r3]
 1269 0110 7B68     		ldr	r3, [r7, #4]
 1270 0112 1B68     		ldr	r3, [r3]
 1271 0114 22F00E02 		bic	r2, r2, #14
 1272 0118 1A60     		str	r2, [r3]
 873:D:/iot/felix2/targets/Cloud_STM32L431_BearPi/Drivers/STM32L4xx_HAL_Driver/Src\stm32l4xx_hal_dma.c **** 
 874:D:/iot/felix2/targets/Cloud_STM32L431_BearPi/Drivers/STM32L4xx_HAL_Driver/Src\stm32l4xx_hal_dma.c ****     /* Clear all flags */
 875:D:/iot/felix2/targets/Cloud_STM32L431_BearPi/Drivers/STM32L4xx_HAL_Driver/Src\stm32l4xx_hal_dma.c ****     hdma->DmaBaseAddress->IFCR = (DMA_ISR_GIF1 << (hdma->ChannelIndex & 0x1cU));
 1273              		.loc 1 875 0
 1274 011a 7B68     		ldr	r3, [r7, #4]
 1275 011c 5B6C     		ldr	r3, [r3, #68]
 1276 011e 03F01C02 		and	r2, r3, #28
 1277 0122 7B68     		ldr	r3, [r7, #4]
 1278 0124 1B6C     		ldr	r3, [r3, #64]
 1279 0126 0121     		movs	r1, #1
 1280 0128 01FA02F2 		lsl	r2, r1, r2
 1281 012c 5A60     		str	r2, [r3, #4]
 876:D:/iot/felix2/targets/Cloud_STM32L431_BearPi/Drivers/STM32L4xx_HAL_Driver/Src\stm32l4xx_hal_dma.c **** 
 877:D:/iot/felix2/targets/Cloud_STM32L431_BearPi/Drivers/STM32L4xx_HAL_Driver/Src\stm32l4xx_hal_dma.c ****     /* Update error code */
 878:D:/iot/felix2/targets/Cloud_STM32L431_BearPi/Drivers/STM32L4xx_HAL_Driver/Src\stm32l4xx_hal_dma.c ****     hdma->ErrorCode = HAL_DMA_ERROR_TE;
 1282              		.loc 1 878 0
 1283 012e 7B68     		ldr	r3, [r7, #4]
 1284 0130 0122     		movs	r2, #1
 1285 0132 DA63     		str	r2, [r3, #60]
 879:D:/iot/felix2/targets/Cloud_STM32L431_BearPi/Drivers/STM32L4xx_HAL_Driver/Src\stm32l4xx_hal_dma.c **** 
 880:D:/iot/felix2/targets/Cloud_STM32L431_BearPi/Drivers/STM32L4xx_HAL_Driver/Src\stm32l4xx_hal_dma.c ****     /* Change the DMA state */
 881:D:/iot/felix2/targets/Cloud_STM32L431_BearPi/Drivers/STM32L4xx_HAL_Driver/Src\stm32l4xx_hal_dma.c ****     hdma->State = HAL_DMA_STATE_READY;
 1286              		.loc 1 881 0
 1287 0134 7B68     		ldr	r3, [r7, #4]
 1288 0136 0122     		movs	r2, #1
 1289 0138 83F82520 		strb	r2, [r3, #37]
 882:D:/iot/felix2/targets/Cloud_STM32L431_BearPi/Drivers/STM32L4xx_HAL_Driver/Src\stm32l4xx_hal_dma.c **** 
 883:D:/iot/felix2/targets/Cloud_STM32L431_BearPi/Drivers/STM32L4xx_HAL_Driver/Src\stm32l4xx_hal_dma.c ****     /* Process Unlocked */
 884:D:/iot/felix2/targets/Cloud_STM32L431_BearPi/Drivers/STM32L4xx_HAL_Driver/Src\stm32l4xx_hal_dma.c ****     __HAL_UNLOCK(hdma);
 1290              		.loc 1 884 0
ARM GAS  C:\Users\91458\AppData\Local\Temp\ccdbzqVS.s 			page 39


 1291 013c 7B68     		ldr	r3, [r7, #4]
 1292 013e 0022     		movs	r2, #0
 1293 0140 83F82420 		strb	r2, [r3, #36]
 885:D:/iot/felix2/targets/Cloud_STM32L431_BearPi/Drivers/STM32L4xx_HAL_Driver/Src\stm32l4xx_hal_dma.c **** 
 886:D:/iot/felix2/targets/Cloud_STM32L431_BearPi/Drivers/STM32L4xx_HAL_Driver/Src\stm32l4xx_hal_dma.c ****     if (hdma->XferErrorCallback != NULL)
 1294              		.loc 1 886 0
 1295 0144 7B68     		ldr	r3, [r7, #4]
 1296 0146 5B6B     		ldr	r3, [r3, #52]
 1297 0148 002B     		cmp	r3, #0
 1298 014a 04D0     		beq	.L60
 887:D:/iot/felix2/targets/Cloud_STM32L431_BearPi/Drivers/STM32L4xx_HAL_Driver/Src\stm32l4xx_hal_dma.c ****     {
 888:D:/iot/felix2/targets/Cloud_STM32L431_BearPi/Drivers/STM32L4xx_HAL_Driver/Src\stm32l4xx_hal_dma.c ****       /* Transfer error callback */
 889:D:/iot/felix2/targets/Cloud_STM32L431_BearPi/Drivers/STM32L4xx_HAL_Driver/Src\stm32l4xx_hal_dma.c ****       hdma->XferErrorCallback(hdma);
 1299              		.loc 1 889 0
 1300 014c 7B68     		ldr	r3, [r7, #4]
 1301 014e 5B6B     		ldr	r3, [r3, #52]
 1302 0150 7868     		ldr	r0, [r7, #4]
 1303 0152 9847     		blx	r3
 1304              	.LVL3:
 1305              	.L54:
 890:D:/iot/felix2/targets/Cloud_STM32L431_BearPi/Drivers/STM32L4xx_HAL_Driver/Src\stm32l4xx_hal_dma.c ****     }
 891:D:/iot/felix2/targets/Cloud_STM32L431_BearPi/Drivers/STM32L4xx_HAL_Driver/Src\stm32l4xx_hal_dma.c ****   }
 892:D:/iot/felix2/targets/Cloud_STM32L431_BearPi/Drivers/STM32L4xx_HAL_Driver/Src\stm32l4xx_hal_dma.c ****   else
 893:D:/iot/felix2/targets/Cloud_STM32L431_BearPi/Drivers/STM32L4xx_HAL_Driver/Src\stm32l4xx_hal_dma.c ****   {
 894:D:/iot/felix2/targets/Cloud_STM32L431_BearPi/Drivers/STM32L4xx_HAL_Driver/Src\stm32l4xx_hal_dma.c ****     /* Nothing To Do */
 895:D:/iot/felix2/targets/Cloud_STM32L431_BearPi/Drivers/STM32L4xx_HAL_Driver/Src\stm32l4xx_hal_dma.c ****   }
 896:D:/iot/felix2/targets/Cloud_STM32L431_BearPi/Drivers/STM32L4xx_HAL_Driver/Src\stm32l4xx_hal_dma.c ****   return;
 1306              		.loc 1 896 0 discriminator 1
 1307 0154 00BF     		nop
 1308              	.L60:
 1309              		.loc 1 896 0 is_stmt 0
 1310 0156 00BF     		nop
 897:D:/iot/felix2/targets/Cloud_STM32L431_BearPi/Drivers/STM32L4xx_HAL_Driver/Src\stm32l4xx_hal_dma.c **** }
 1311              		.loc 1 897 0 is_stmt 1
 1312 0158 1037     		adds	r7, r7, #16
 1313              	.LCFI41:
 1314              		.cfi_def_cfa_offset 8
 1315 015a BD46     		mov	sp, r7
 1316              	.LCFI42:
 1317              		.cfi_def_cfa_register 13
 1318              		@ sp needed
 1319 015c 80BD     		pop	{r7, pc}
 1320              		.cfi_endproc
 1321              	.LFE140:
 1323              		.section	.text.HAL_DMA_RegisterCallback,"ax",%progbits
 1324              		.align	1
 1325              		.global	HAL_DMA_RegisterCallback
 1326              		.syntax unified
 1327              		.thumb
 1328              		.thumb_func
 1329              		.fpu fpv4-sp-d16
 1331              	HAL_DMA_RegisterCallback:
 1332              	.LFB141:
 898:D:/iot/felix2/targets/Cloud_STM32L431_BearPi/Drivers/STM32L4xx_HAL_Driver/Src\stm32l4xx_hal_dma.c **** 
 899:D:/iot/felix2/targets/Cloud_STM32L431_BearPi/Drivers/STM32L4xx_HAL_Driver/Src\stm32l4xx_hal_dma.c **** /**
 900:D:/iot/felix2/targets/Cloud_STM32L431_BearPi/Drivers/STM32L4xx_HAL_Driver/Src\stm32l4xx_hal_dma.c ****   * @brief  Register callbacks
 901:D:/iot/felix2/targets/Cloud_STM32L431_BearPi/Drivers/STM32L4xx_HAL_Driver/Src\stm32l4xx_hal_dma.c ****   * @param  hdma                 pointer to a DMA_HandleTypeDef structure that contains
ARM GAS  C:\Users\91458\AppData\Local\Temp\ccdbzqVS.s 			page 40


 902:D:/iot/felix2/targets/Cloud_STM32L431_BearPi/Drivers/STM32L4xx_HAL_Driver/Src\stm32l4xx_hal_dma.c ****   *                               the configuration information for the specified DMA Channel.
 903:D:/iot/felix2/targets/Cloud_STM32L431_BearPi/Drivers/STM32L4xx_HAL_Driver/Src\stm32l4xx_hal_dma.c ****   * @param  CallbackID           User Callback identifer
 904:D:/iot/felix2/targets/Cloud_STM32L431_BearPi/Drivers/STM32L4xx_HAL_Driver/Src\stm32l4xx_hal_dma.c ****   *                               a HAL_DMA_CallbackIDTypeDef ENUM as parameter.
 905:D:/iot/felix2/targets/Cloud_STM32L431_BearPi/Drivers/STM32L4xx_HAL_Driver/Src\stm32l4xx_hal_dma.c ****   * @param  pCallback            pointer to private callbacsk function which has pointer to
 906:D:/iot/felix2/targets/Cloud_STM32L431_BearPi/Drivers/STM32L4xx_HAL_Driver/Src\stm32l4xx_hal_dma.c ****   *                               a DMA_HandleTypeDef structure as parameter.
 907:D:/iot/felix2/targets/Cloud_STM32L431_BearPi/Drivers/STM32L4xx_HAL_Driver/Src\stm32l4xx_hal_dma.c ****   * @retval HAL status
 908:D:/iot/felix2/targets/Cloud_STM32L431_BearPi/Drivers/STM32L4xx_HAL_Driver/Src\stm32l4xx_hal_dma.c ****   */
 909:D:/iot/felix2/targets/Cloud_STM32L431_BearPi/Drivers/STM32L4xx_HAL_Driver/Src\stm32l4xx_hal_dma.c **** HAL_StatusTypeDef HAL_DMA_RegisterCallback(DMA_HandleTypeDef *hdma, HAL_DMA_CallbackIDTypeDef Callb
 910:D:/iot/felix2/targets/Cloud_STM32L431_BearPi/Drivers/STM32L4xx_HAL_Driver/Src\stm32l4xx_hal_dma.c **** {
 1333              		.loc 1 910 0
 1334              		.cfi_startproc
 1335              		@ args = 0, pretend = 0, frame = 24
 1336              		@ frame_needed = 1, uses_anonymous_args = 0
 1337              		@ link register save eliminated.
 1338 0000 80B4     		push	{r7}
 1339              	.LCFI43:
 1340              		.cfi_def_cfa_offset 4
 1341              		.cfi_offset 7, -4
 1342 0002 87B0     		sub	sp, sp, #28
 1343              	.LCFI44:
 1344              		.cfi_def_cfa_offset 32
 1345 0004 00AF     		add	r7, sp, #0
 1346              	.LCFI45:
 1347              		.cfi_def_cfa_register 7
 1348 0006 F860     		str	r0, [r7, #12]
 1349 0008 0B46     		mov	r3, r1
 1350 000a 7A60     		str	r2, [r7, #4]
 1351 000c FB72     		strb	r3, [r7, #11]
 911:D:/iot/felix2/targets/Cloud_STM32L431_BearPi/Drivers/STM32L4xx_HAL_Driver/Src\stm32l4xx_hal_dma.c ****   HAL_StatusTypeDef status = HAL_OK;
 1352              		.loc 1 911 0
 1353 000e 0023     		movs	r3, #0
 1354 0010 FB75     		strb	r3, [r7, #23]
 912:D:/iot/felix2/targets/Cloud_STM32L431_BearPi/Drivers/STM32L4xx_HAL_Driver/Src\stm32l4xx_hal_dma.c **** 
 913:D:/iot/felix2/targets/Cloud_STM32L431_BearPi/Drivers/STM32L4xx_HAL_Driver/Src\stm32l4xx_hal_dma.c ****   /* Process locked */
 914:D:/iot/felix2/targets/Cloud_STM32L431_BearPi/Drivers/STM32L4xx_HAL_Driver/Src\stm32l4xx_hal_dma.c ****   __HAL_LOCK(hdma);
 1355              		.loc 1 914 0
 1356 0012 FB68     		ldr	r3, [r7, #12]
 1357 0014 93F82430 		ldrb	r3, [r3, #36]	@ zero_extendqisi2
 1358 0018 012B     		cmp	r3, #1
 1359 001a 01D1     		bne	.L62
 1360              		.loc 1 914 0 is_stmt 0 discriminator 1
 1361 001c 0223     		movs	r3, #2
 1362 001e 32E0     		b	.L63
 1363              	.L62:
 1364              		.loc 1 914 0 discriminator 2
 1365 0020 FB68     		ldr	r3, [r7, #12]
 1366 0022 0122     		movs	r2, #1
 1367 0024 83F82420 		strb	r2, [r3, #36]
 915:D:/iot/felix2/targets/Cloud_STM32L431_BearPi/Drivers/STM32L4xx_HAL_Driver/Src\stm32l4xx_hal_dma.c **** 
 916:D:/iot/felix2/targets/Cloud_STM32L431_BearPi/Drivers/STM32L4xx_HAL_Driver/Src\stm32l4xx_hal_dma.c ****   if(HAL_DMA_STATE_READY == hdma->State)
 1368              		.loc 1 916 0 is_stmt 1 discriminator 2
 1369 0028 FB68     		ldr	r3, [r7, #12]
 1370 002a 93F82530 		ldrb	r3, [r3, #37]
 1371 002e DBB2     		uxtb	r3, r3
 1372 0030 012B     		cmp	r3, #1
 1373 0032 21D1     		bne	.L64
 917:D:/iot/felix2/targets/Cloud_STM32L431_BearPi/Drivers/STM32L4xx_HAL_Driver/Src\stm32l4xx_hal_dma.c ****   {
ARM GAS  C:\Users\91458\AppData\Local\Temp\ccdbzqVS.s 			page 41


 918:D:/iot/felix2/targets/Cloud_STM32L431_BearPi/Drivers/STM32L4xx_HAL_Driver/Src\stm32l4xx_hal_dma.c ****     switch (CallbackID)
 1374              		.loc 1 918 0
 1375 0034 FB7A     		ldrb	r3, [r7, #11]	@ zero_extendqisi2
 1376 0036 032B     		cmp	r3, #3
 1377 0038 1AD8     		bhi	.L65
 1378 003a 01A2     		adr	r2, .L67
 1379 003c 52F823F0 		ldr	pc, [r2, r3, lsl #2]
 1380              		.p2align 2
 1381              	.L67:
 1382 0040 51000000 		.word	.L66+1
 1383 0044 59000000 		.word	.L68+1
 1384 0048 61000000 		.word	.L69+1
 1385 004c 69000000 		.word	.L70+1
 1386              		.p2align 1
 1387              	.L66:
 919:D:/iot/felix2/targets/Cloud_STM32L431_BearPi/Drivers/STM32L4xx_HAL_Driver/Src\stm32l4xx_hal_dma.c ****     {
 920:D:/iot/felix2/targets/Cloud_STM32L431_BearPi/Drivers/STM32L4xx_HAL_Driver/Src\stm32l4xx_hal_dma.c ****      case  HAL_DMA_XFER_CPLT_CB_ID:
 921:D:/iot/felix2/targets/Cloud_STM32L431_BearPi/Drivers/STM32L4xx_HAL_Driver/Src\stm32l4xx_hal_dma.c ****            hdma->XferCpltCallback = pCallback;
 1388              		.loc 1 921 0
 1389 0050 FB68     		ldr	r3, [r7, #12]
 1390 0052 7A68     		ldr	r2, [r7, #4]
 1391 0054 DA62     		str	r2, [r3, #44]
 922:D:/iot/felix2/targets/Cloud_STM32L431_BearPi/Drivers/STM32L4xx_HAL_Driver/Src\stm32l4xx_hal_dma.c ****            break;
 1392              		.loc 1 922 0
 1393 0056 11E0     		b	.L72
 1394              	.L68:
 923:D:/iot/felix2/targets/Cloud_STM32L431_BearPi/Drivers/STM32L4xx_HAL_Driver/Src\stm32l4xx_hal_dma.c **** 
 924:D:/iot/felix2/targets/Cloud_STM32L431_BearPi/Drivers/STM32L4xx_HAL_Driver/Src\stm32l4xx_hal_dma.c ****      case  HAL_DMA_XFER_HALFCPLT_CB_ID:
 925:D:/iot/felix2/targets/Cloud_STM32L431_BearPi/Drivers/STM32L4xx_HAL_Driver/Src\stm32l4xx_hal_dma.c ****            hdma->XferHalfCpltCallback = pCallback;
 1395              		.loc 1 925 0
 1396 0058 FB68     		ldr	r3, [r7, #12]
 1397 005a 7A68     		ldr	r2, [r7, #4]
 1398 005c 1A63     		str	r2, [r3, #48]
 926:D:/iot/felix2/targets/Cloud_STM32L431_BearPi/Drivers/STM32L4xx_HAL_Driver/Src\stm32l4xx_hal_dma.c ****            break;
 1399              		.loc 1 926 0
 1400 005e 0DE0     		b	.L72
 1401              	.L69:
 927:D:/iot/felix2/targets/Cloud_STM32L431_BearPi/Drivers/STM32L4xx_HAL_Driver/Src\stm32l4xx_hal_dma.c **** 
 928:D:/iot/felix2/targets/Cloud_STM32L431_BearPi/Drivers/STM32L4xx_HAL_Driver/Src\stm32l4xx_hal_dma.c ****      case  HAL_DMA_XFER_ERROR_CB_ID:
 929:D:/iot/felix2/targets/Cloud_STM32L431_BearPi/Drivers/STM32L4xx_HAL_Driver/Src\stm32l4xx_hal_dma.c ****            hdma->XferErrorCallback = pCallback;
 1402              		.loc 1 929 0
 1403 0060 FB68     		ldr	r3, [r7, #12]
 1404 0062 7A68     		ldr	r2, [r7, #4]
 1405 0064 5A63     		str	r2, [r3, #52]
 930:D:/iot/felix2/targets/Cloud_STM32L431_BearPi/Drivers/STM32L4xx_HAL_Driver/Src\stm32l4xx_hal_dma.c ****            break;
 1406              		.loc 1 930 0
 1407 0066 09E0     		b	.L72
 1408              	.L70:
 931:D:/iot/felix2/targets/Cloud_STM32L431_BearPi/Drivers/STM32L4xx_HAL_Driver/Src\stm32l4xx_hal_dma.c **** 
 932:D:/iot/felix2/targets/Cloud_STM32L431_BearPi/Drivers/STM32L4xx_HAL_Driver/Src\stm32l4xx_hal_dma.c ****      case  HAL_DMA_XFER_ABORT_CB_ID:
 933:D:/iot/felix2/targets/Cloud_STM32L431_BearPi/Drivers/STM32L4xx_HAL_Driver/Src\stm32l4xx_hal_dma.c ****            hdma->XferAbortCallback = pCallback;
 1409              		.loc 1 933 0
 1410 0068 FB68     		ldr	r3, [r7, #12]
 1411 006a 7A68     		ldr	r2, [r7, #4]
 1412 006c 9A63     		str	r2, [r3, #56]
 934:D:/iot/felix2/targets/Cloud_STM32L431_BearPi/Drivers/STM32L4xx_HAL_Driver/Src\stm32l4xx_hal_dma.c ****            break;
 1413              		.loc 1 934 0
ARM GAS  C:\Users\91458\AppData\Local\Temp\ccdbzqVS.s 			page 42


 1414 006e 05E0     		b	.L72
 1415              	.L65:
 935:D:/iot/felix2/targets/Cloud_STM32L431_BearPi/Drivers/STM32L4xx_HAL_Driver/Src\stm32l4xx_hal_dma.c **** 
 936:D:/iot/felix2/targets/Cloud_STM32L431_BearPi/Drivers/STM32L4xx_HAL_Driver/Src\stm32l4xx_hal_dma.c ****      default:
 937:D:/iot/felix2/targets/Cloud_STM32L431_BearPi/Drivers/STM32L4xx_HAL_Driver/Src\stm32l4xx_hal_dma.c ****            status = HAL_ERROR;
 1416              		.loc 1 937 0
 1417 0070 0123     		movs	r3, #1
 1418 0072 FB75     		strb	r3, [r7, #23]
 938:D:/iot/felix2/targets/Cloud_STM32L431_BearPi/Drivers/STM32L4xx_HAL_Driver/Src\stm32l4xx_hal_dma.c ****            break;
 1419              		.loc 1 938 0
 1420 0074 00BF     		nop
 1421 0076 01E0     		b	.L72
 1422              	.L64:
 939:D:/iot/felix2/targets/Cloud_STM32L431_BearPi/Drivers/STM32L4xx_HAL_Driver/Src\stm32l4xx_hal_dma.c ****     }
 940:D:/iot/felix2/targets/Cloud_STM32L431_BearPi/Drivers/STM32L4xx_HAL_Driver/Src\stm32l4xx_hal_dma.c ****   }
 941:D:/iot/felix2/targets/Cloud_STM32L431_BearPi/Drivers/STM32L4xx_HAL_Driver/Src\stm32l4xx_hal_dma.c ****   else
 942:D:/iot/felix2/targets/Cloud_STM32L431_BearPi/Drivers/STM32L4xx_HAL_Driver/Src\stm32l4xx_hal_dma.c ****   {
 943:D:/iot/felix2/targets/Cloud_STM32L431_BearPi/Drivers/STM32L4xx_HAL_Driver/Src\stm32l4xx_hal_dma.c ****     status = HAL_ERROR;
 1423              		.loc 1 943 0
 1424 0078 0123     		movs	r3, #1
 1425 007a FB75     		strb	r3, [r7, #23]
 1426              	.L72:
 944:D:/iot/felix2/targets/Cloud_STM32L431_BearPi/Drivers/STM32L4xx_HAL_Driver/Src\stm32l4xx_hal_dma.c ****   }
 945:D:/iot/felix2/targets/Cloud_STM32L431_BearPi/Drivers/STM32L4xx_HAL_Driver/Src\stm32l4xx_hal_dma.c **** 
 946:D:/iot/felix2/targets/Cloud_STM32L431_BearPi/Drivers/STM32L4xx_HAL_Driver/Src\stm32l4xx_hal_dma.c ****   /* Release Lock */
 947:D:/iot/felix2/targets/Cloud_STM32L431_BearPi/Drivers/STM32L4xx_HAL_Driver/Src\stm32l4xx_hal_dma.c ****   __HAL_UNLOCK(hdma);
 1427              		.loc 1 947 0
 1428 007c FB68     		ldr	r3, [r7, #12]
 1429 007e 0022     		movs	r2, #0
 1430 0080 83F82420 		strb	r2, [r3, #36]
 948:D:/iot/felix2/targets/Cloud_STM32L431_BearPi/Drivers/STM32L4xx_HAL_Driver/Src\stm32l4xx_hal_dma.c **** 
 949:D:/iot/felix2/targets/Cloud_STM32L431_BearPi/Drivers/STM32L4xx_HAL_Driver/Src\stm32l4xx_hal_dma.c ****   return status;
 1431              		.loc 1 949 0
 1432 0084 FB7D     		ldrb	r3, [r7, #23]	@ zero_extendqisi2
 1433              	.L63:
 950:D:/iot/felix2/targets/Cloud_STM32L431_BearPi/Drivers/STM32L4xx_HAL_Driver/Src\stm32l4xx_hal_dma.c **** }
 1434              		.loc 1 950 0
 1435 0086 1846     		mov	r0, r3
 1436 0088 1C37     		adds	r7, r7, #28
 1437              	.LCFI46:
 1438              		.cfi_def_cfa_offset 4
 1439 008a BD46     		mov	sp, r7
 1440              	.LCFI47:
 1441              		.cfi_def_cfa_register 13
 1442              		@ sp needed
 1443 008c 5DF8047B 		ldr	r7, [sp], #4
 1444              	.LCFI48:
 1445              		.cfi_restore 7
 1446              		.cfi_def_cfa_offset 0
 1447 0090 7047     		bx	lr
 1448              		.cfi_endproc
 1449              	.LFE141:
 1451 0092 00BF     		.section	.text.HAL_DMA_UnRegisterCallback,"ax",%progbits
 1452              		.align	1
 1453              		.global	HAL_DMA_UnRegisterCallback
 1454              		.syntax unified
 1455              		.thumb
ARM GAS  C:\Users\91458\AppData\Local\Temp\ccdbzqVS.s 			page 43


 1456              		.thumb_func
 1457              		.fpu fpv4-sp-d16
 1459              	HAL_DMA_UnRegisterCallback:
 1460              	.LFB142:
 951:D:/iot/felix2/targets/Cloud_STM32L431_BearPi/Drivers/STM32L4xx_HAL_Driver/Src\stm32l4xx_hal_dma.c **** 
 952:D:/iot/felix2/targets/Cloud_STM32L431_BearPi/Drivers/STM32L4xx_HAL_Driver/Src\stm32l4xx_hal_dma.c **** /**
 953:D:/iot/felix2/targets/Cloud_STM32L431_BearPi/Drivers/STM32L4xx_HAL_Driver/Src\stm32l4xx_hal_dma.c ****   * @brief  UnRegister callbacks
 954:D:/iot/felix2/targets/Cloud_STM32L431_BearPi/Drivers/STM32L4xx_HAL_Driver/Src\stm32l4xx_hal_dma.c ****   * @param  hdma                 pointer to a DMA_HandleTypeDef structure that contains
 955:D:/iot/felix2/targets/Cloud_STM32L431_BearPi/Drivers/STM32L4xx_HAL_Driver/Src\stm32l4xx_hal_dma.c ****   *                               the configuration information for the specified DMA Channel.
 956:D:/iot/felix2/targets/Cloud_STM32L431_BearPi/Drivers/STM32L4xx_HAL_Driver/Src\stm32l4xx_hal_dma.c ****   * @param  CallbackID           User Callback identifer
 957:D:/iot/felix2/targets/Cloud_STM32L431_BearPi/Drivers/STM32L4xx_HAL_Driver/Src\stm32l4xx_hal_dma.c ****   *                               a HAL_DMA_CallbackIDTypeDef ENUM as parameter.
 958:D:/iot/felix2/targets/Cloud_STM32L431_BearPi/Drivers/STM32L4xx_HAL_Driver/Src\stm32l4xx_hal_dma.c ****   * @retval HAL status
 959:D:/iot/felix2/targets/Cloud_STM32L431_BearPi/Drivers/STM32L4xx_HAL_Driver/Src\stm32l4xx_hal_dma.c ****   */
 960:D:/iot/felix2/targets/Cloud_STM32L431_BearPi/Drivers/STM32L4xx_HAL_Driver/Src\stm32l4xx_hal_dma.c **** HAL_StatusTypeDef HAL_DMA_UnRegisterCallback(DMA_HandleTypeDef *hdma, HAL_DMA_CallbackIDTypeDef Cal
 961:D:/iot/felix2/targets/Cloud_STM32L431_BearPi/Drivers/STM32L4xx_HAL_Driver/Src\stm32l4xx_hal_dma.c **** {
 1461              		.loc 1 961 0
 1462              		.cfi_startproc
 1463              		@ args = 0, pretend = 0, frame = 16
 1464              		@ frame_needed = 1, uses_anonymous_args = 0
 1465              		@ link register save eliminated.
 1466 0000 80B4     		push	{r7}
 1467              	.LCFI49:
 1468              		.cfi_def_cfa_offset 4
 1469              		.cfi_offset 7, -4
 1470 0002 85B0     		sub	sp, sp, #20
 1471              	.LCFI50:
 1472              		.cfi_def_cfa_offset 24
 1473 0004 00AF     		add	r7, sp, #0
 1474              	.LCFI51:
 1475              		.cfi_def_cfa_register 7
 1476 0006 7860     		str	r0, [r7, #4]
 1477 0008 0B46     		mov	r3, r1
 1478 000a FB70     		strb	r3, [r7, #3]
 962:D:/iot/felix2/targets/Cloud_STM32L431_BearPi/Drivers/STM32L4xx_HAL_Driver/Src\stm32l4xx_hal_dma.c ****   HAL_StatusTypeDef status = HAL_OK;
 1479              		.loc 1 962 0
 1480 000c 0023     		movs	r3, #0
 1481 000e FB73     		strb	r3, [r7, #15]
 963:D:/iot/felix2/targets/Cloud_STM32L431_BearPi/Drivers/STM32L4xx_HAL_Driver/Src\stm32l4xx_hal_dma.c **** 
 964:D:/iot/felix2/targets/Cloud_STM32L431_BearPi/Drivers/STM32L4xx_HAL_Driver/Src\stm32l4xx_hal_dma.c ****     /* Process locked */
 965:D:/iot/felix2/targets/Cloud_STM32L431_BearPi/Drivers/STM32L4xx_HAL_Driver/Src\stm32l4xx_hal_dma.c ****   __HAL_LOCK(hdma);
 1482              		.loc 1 965 0
 1483 0010 7B68     		ldr	r3, [r7, #4]
 1484 0012 93F82430 		ldrb	r3, [r3, #36]	@ zero_extendqisi2
 1485 0016 012B     		cmp	r3, #1
 1486 0018 01D1     		bne	.L74
 1487              		.loc 1 965 0 is_stmt 0 discriminator 1
 1488 001a 0223     		movs	r3, #2
 1489 001c 42E0     		b	.L75
 1490              	.L74:
 1491              		.loc 1 965 0 discriminator 2
 1492 001e 7B68     		ldr	r3, [r7, #4]
 1493 0020 0122     		movs	r2, #1
 1494 0022 83F82420 		strb	r2, [r3, #36]
 966:D:/iot/felix2/targets/Cloud_STM32L431_BearPi/Drivers/STM32L4xx_HAL_Driver/Src\stm32l4xx_hal_dma.c **** 
 967:D:/iot/felix2/targets/Cloud_STM32L431_BearPi/Drivers/STM32L4xx_HAL_Driver/Src\stm32l4xx_hal_dma.c ****   if(HAL_DMA_STATE_READY == hdma->State)
 1495              		.loc 1 967 0 is_stmt 1 discriminator 2
 1496 0026 7B68     		ldr	r3, [r7, #4]
ARM GAS  C:\Users\91458\AppData\Local\Temp\ccdbzqVS.s 			page 44


 1497 0028 93F82530 		ldrb	r3, [r3, #37]
 1498 002c DBB2     		uxtb	r3, r3
 1499 002e 012B     		cmp	r3, #1
 1500 0030 31D1     		bne	.L76
 968:D:/iot/felix2/targets/Cloud_STM32L431_BearPi/Drivers/STM32L4xx_HAL_Driver/Src\stm32l4xx_hal_dma.c ****   {
 969:D:/iot/felix2/targets/Cloud_STM32L431_BearPi/Drivers/STM32L4xx_HAL_Driver/Src\stm32l4xx_hal_dma.c ****     switch (CallbackID)
 1501              		.loc 1 969 0
 1502 0032 FB78     		ldrb	r3, [r7, #3]	@ zero_extendqisi2
 1503 0034 042B     		cmp	r3, #4
 1504 0036 2AD8     		bhi	.L77
 1505 0038 01A2     		adr	r2, .L79
 1506 003a 52F823F0 		ldr	pc, [r2, r3, lsl #2]
 1507 003e 00BF     		.p2align 2
 1508              	.L79:
 1509 0040 55000000 		.word	.L78+1
 1510 0044 5D000000 		.word	.L80+1
 1511 0048 65000000 		.word	.L81+1
 1512 004c 6D000000 		.word	.L82+1
 1513 0050 75000000 		.word	.L83+1
 1514              		.p2align 1
 1515              	.L78:
 970:D:/iot/felix2/targets/Cloud_STM32L431_BearPi/Drivers/STM32L4xx_HAL_Driver/Src\stm32l4xx_hal_dma.c ****     {
 971:D:/iot/felix2/targets/Cloud_STM32L431_BearPi/Drivers/STM32L4xx_HAL_Driver/Src\stm32l4xx_hal_dma.c ****      case  HAL_DMA_XFER_CPLT_CB_ID:
 972:D:/iot/felix2/targets/Cloud_STM32L431_BearPi/Drivers/STM32L4xx_HAL_Driver/Src\stm32l4xx_hal_dma.c ****            hdma->XferCpltCallback = NULL;
 1516              		.loc 1 972 0
 1517 0054 7B68     		ldr	r3, [r7, #4]
 1518 0056 0022     		movs	r2, #0
 1519 0058 DA62     		str	r2, [r3, #44]
 973:D:/iot/felix2/targets/Cloud_STM32L431_BearPi/Drivers/STM32L4xx_HAL_Driver/Src\stm32l4xx_hal_dma.c ****            break;
 1520              		.loc 1 973 0
 1521 005a 1EE0     		b	.L85
 1522              	.L80:
 974:D:/iot/felix2/targets/Cloud_STM32L431_BearPi/Drivers/STM32L4xx_HAL_Driver/Src\stm32l4xx_hal_dma.c **** 
 975:D:/iot/felix2/targets/Cloud_STM32L431_BearPi/Drivers/STM32L4xx_HAL_Driver/Src\stm32l4xx_hal_dma.c ****      case  HAL_DMA_XFER_HALFCPLT_CB_ID:
 976:D:/iot/felix2/targets/Cloud_STM32L431_BearPi/Drivers/STM32L4xx_HAL_Driver/Src\stm32l4xx_hal_dma.c ****            hdma->XferHalfCpltCallback = NULL;
 1523              		.loc 1 976 0
 1524 005c 7B68     		ldr	r3, [r7, #4]
 1525 005e 0022     		movs	r2, #0
 1526 0060 1A63     		str	r2, [r3, #48]
 977:D:/iot/felix2/targets/Cloud_STM32L431_BearPi/Drivers/STM32L4xx_HAL_Driver/Src\stm32l4xx_hal_dma.c ****            break;
 1527              		.loc 1 977 0
 1528 0062 1AE0     		b	.L85
 1529              	.L81:
 978:D:/iot/felix2/targets/Cloud_STM32L431_BearPi/Drivers/STM32L4xx_HAL_Driver/Src\stm32l4xx_hal_dma.c **** 
 979:D:/iot/felix2/targets/Cloud_STM32L431_BearPi/Drivers/STM32L4xx_HAL_Driver/Src\stm32l4xx_hal_dma.c ****      case  HAL_DMA_XFER_ERROR_CB_ID:
 980:D:/iot/felix2/targets/Cloud_STM32L431_BearPi/Drivers/STM32L4xx_HAL_Driver/Src\stm32l4xx_hal_dma.c ****            hdma->XferErrorCallback = NULL;
 1530              		.loc 1 980 0
 1531 0064 7B68     		ldr	r3, [r7, #4]
 1532 0066 0022     		movs	r2, #0
 1533 0068 5A63     		str	r2, [r3, #52]
 981:D:/iot/felix2/targets/Cloud_STM32L431_BearPi/Drivers/STM32L4xx_HAL_Driver/Src\stm32l4xx_hal_dma.c ****            break;
 1534              		.loc 1 981 0
 1535 006a 16E0     		b	.L85
 1536              	.L82:
 982:D:/iot/felix2/targets/Cloud_STM32L431_BearPi/Drivers/STM32L4xx_HAL_Driver/Src\stm32l4xx_hal_dma.c **** 
 983:D:/iot/felix2/targets/Cloud_STM32L431_BearPi/Drivers/STM32L4xx_HAL_Driver/Src\stm32l4xx_hal_dma.c ****      case  HAL_DMA_XFER_ABORT_CB_ID:
 984:D:/iot/felix2/targets/Cloud_STM32L431_BearPi/Drivers/STM32L4xx_HAL_Driver/Src\stm32l4xx_hal_dma.c ****            hdma->XferAbortCallback = NULL;
ARM GAS  C:\Users\91458\AppData\Local\Temp\ccdbzqVS.s 			page 45


 1537              		.loc 1 984 0
 1538 006c 7B68     		ldr	r3, [r7, #4]
 1539 006e 0022     		movs	r2, #0
 1540 0070 9A63     		str	r2, [r3, #56]
 985:D:/iot/felix2/targets/Cloud_STM32L431_BearPi/Drivers/STM32L4xx_HAL_Driver/Src\stm32l4xx_hal_dma.c ****            break;
 1541              		.loc 1 985 0
 1542 0072 12E0     		b	.L85
 1543              	.L83:
 986:D:/iot/felix2/targets/Cloud_STM32L431_BearPi/Drivers/STM32L4xx_HAL_Driver/Src\stm32l4xx_hal_dma.c **** 
 987:D:/iot/felix2/targets/Cloud_STM32L431_BearPi/Drivers/STM32L4xx_HAL_Driver/Src\stm32l4xx_hal_dma.c ****     case   HAL_DMA_XFER_ALL_CB_ID:
 988:D:/iot/felix2/targets/Cloud_STM32L431_BearPi/Drivers/STM32L4xx_HAL_Driver/Src\stm32l4xx_hal_dma.c ****            hdma->XferCpltCallback = NULL;
 1544              		.loc 1 988 0
 1545 0074 7B68     		ldr	r3, [r7, #4]
 1546 0076 0022     		movs	r2, #0
 1547 0078 DA62     		str	r2, [r3, #44]
 989:D:/iot/felix2/targets/Cloud_STM32L431_BearPi/Drivers/STM32L4xx_HAL_Driver/Src\stm32l4xx_hal_dma.c ****            hdma->XferHalfCpltCallback = NULL;
 1548              		.loc 1 989 0
 1549 007a 7B68     		ldr	r3, [r7, #4]
 1550 007c 0022     		movs	r2, #0
 1551 007e 1A63     		str	r2, [r3, #48]
 990:D:/iot/felix2/targets/Cloud_STM32L431_BearPi/Drivers/STM32L4xx_HAL_Driver/Src\stm32l4xx_hal_dma.c ****            hdma->XferErrorCallback = NULL;
 1552              		.loc 1 990 0
 1553 0080 7B68     		ldr	r3, [r7, #4]
 1554 0082 0022     		movs	r2, #0
 1555 0084 5A63     		str	r2, [r3, #52]
 991:D:/iot/felix2/targets/Cloud_STM32L431_BearPi/Drivers/STM32L4xx_HAL_Driver/Src\stm32l4xx_hal_dma.c ****            hdma->XferAbortCallback = NULL;
 1556              		.loc 1 991 0
 1557 0086 7B68     		ldr	r3, [r7, #4]
 1558 0088 0022     		movs	r2, #0
 1559 008a 9A63     		str	r2, [r3, #56]
 992:D:/iot/felix2/targets/Cloud_STM32L431_BearPi/Drivers/STM32L4xx_HAL_Driver/Src\stm32l4xx_hal_dma.c ****            break;
 1560              		.loc 1 992 0
 1561 008c 05E0     		b	.L85
 1562              	.L77:
 993:D:/iot/felix2/targets/Cloud_STM32L431_BearPi/Drivers/STM32L4xx_HAL_Driver/Src\stm32l4xx_hal_dma.c **** 
 994:D:/iot/felix2/targets/Cloud_STM32L431_BearPi/Drivers/STM32L4xx_HAL_Driver/Src\stm32l4xx_hal_dma.c ****     default:
 995:D:/iot/felix2/targets/Cloud_STM32L431_BearPi/Drivers/STM32L4xx_HAL_Driver/Src\stm32l4xx_hal_dma.c ****            status = HAL_ERROR;
 1563              		.loc 1 995 0
 1564 008e 0123     		movs	r3, #1
 1565 0090 FB73     		strb	r3, [r7, #15]
 996:D:/iot/felix2/targets/Cloud_STM32L431_BearPi/Drivers/STM32L4xx_HAL_Driver/Src\stm32l4xx_hal_dma.c ****            break;
 1566              		.loc 1 996 0
 1567 0092 00BF     		nop
 1568 0094 01E0     		b	.L85
 1569              	.L76:
 997:D:/iot/felix2/targets/Cloud_STM32L431_BearPi/Drivers/STM32L4xx_HAL_Driver/Src\stm32l4xx_hal_dma.c ****     }
 998:D:/iot/felix2/targets/Cloud_STM32L431_BearPi/Drivers/STM32L4xx_HAL_Driver/Src\stm32l4xx_hal_dma.c ****   }
 999:D:/iot/felix2/targets/Cloud_STM32L431_BearPi/Drivers/STM32L4xx_HAL_Driver/Src\stm32l4xx_hal_dma.c ****   else
1000:D:/iot/felix2/targets/Cloud_STM32L431_BearPi/Drivers/STM32L4xx_HAL_Driver/Src\stm32l4xx_hal_dma.c ****   {
1001:D:/iot/felix2/targets/Cloud_STM32L431_BearPi/Drivers/STM32L4xx_HAL_Driver/Src\stm32l4xx_hal_dma.c ****     status = HAL_ERROR;
 1570              		.loc 1 1001 0
 1571 0096 0123     		movs	r3, #1
 1572 0098 FB73     		strb	r3, [r7, #15]
 1573              	.L85:
1002:D:/iot/felix2/targets/Cloud_STM32L431_BearPi/Drivers/STM32L4xx_HAL_Driver/Src\stm32l4xx_hal_dma.c ****   }
1003:D:/iot/felix2/targets/Cloud_STM32L431_BearPi/Drivers/STM32L4xx_HAL_Driver/Src\stm32l4xx_hal_dma.c **** 
1004:D:/iot/felix2/targets/Cloud_STM32L431_BearPi/Drivers/STM32L4xx_HAL_Driver/Src\stm32l4xx_hal_dma.c ****   /* Release Lock */
ARM GAS  C:\Users\91458\AppData\Local\Temp\ccdbzqVS.s 			page 46


1005:D:/iot/felix2/targets/Cloud_STM32L431_BearPi/Drivers/STM32L4xx_HAL_Driver/Src\stm32l4xx_hal_dma.c ****   __HAL_UNLOCK(hdma);
 1574              		.loc 1 1005 0
 1575 009a 7B68     		ldr	r3, [r7, #4]
 1576 009c 0022     		movs	r2, #0
 1577 009e 83F82420 		strb	r2, [r3, #36]
1006:D:/iot/felix2/targets/Cloud_STM32L431_BearPi/Drivers/STM32L4xx_HAL_Driver/Src\stm32l4xx_hal_dma.c **** 
1007:D:/iot/felix2/targets/Cloud_STM32L431_BearPi/Drivers/STM32L4xx_HAL_Driver/Src\stm32l4xx_hal_dma.c ****   return status;
 1578              		.loc 1 1007 0
 1579 00a2 FB7B     		ldrb	r3, [r7, #15]	@ zero_extendqisi2
 1580              	.L75:
1008:D:/iot/felix2/targets/Cloud_STM32L431_BearPi/Drivers/STM32L4xx_HAL_Driver/Src\stm32l4xx_hal_dma.c **** }
 1581              		.loc 1 1008 0
 1582 00a4 1846     		mov	r0, r3
 1583 00a6 1437     		adds	r7, r7, #20
 1584              	.LCFI52:
 1585              		.cfi_def_cfa_offset 4
 1586 00a8 BD46     		mov	sp, r7
 1587              	.LCFI53:
 1588              		.cfi_def_cfa_register 13
 1589              		@ sp needed
 1590 00aa 5DF8047B 		ldr	r7, [sp], #4
 1591              	.LCFI54:
 1592              		.cfi_restore 7
 1593              		.cfi_def_cfa_offset 0
 1594 00ae 7047     		bx	lr
 1595              		.cfi_endproc
 1596              	.LFE142:
 1598              		.section	.text.HAL_DMA_GetState,"ax",%progbits
 1599              		.align	1
 1600              		.global	HAL_DMA_GetState
 1601              		.syntax unified
 1602              		.thumb
 1603              		.thumb_func
 1604              		.fpu fpv4-sp-d16
 1606              	HAL_DMA_GetState:
 1607              	.LFB143:
1009:D:/iot/felix2/targets/Cloud_STM32L431_BearPi/Drivers/STM32L4xx_HAL_Driver/Src\stm32l4xx_hal_dma.c **** 
1010:D:/iot/felix2/targets/Cloud_STM32L431_BearPi/Drivers/STM32L4xx_HAL_Driver/Src\stm32l4xx_hal_dma.c **** /**
1011:D:/iot/felix2/targets/Cloud_STM32L431_BearPi/Drivers/STM32L4xx_HAL_Driver/Src\stm32l4xx_hal_dma.c ****   * @}
1012:D:/iot/felix2/targets/Cloud_STM32L431_BearPi/Drivers/STM32L4xx_HAL_Driver/Src\stm32l4xx_hal_dma.c ****   */
1013:D:/iot/felix2/targets/Cloud_STM32L431_BearPi/Drivers/STM32L4xx_HAL_Driver/Src\stm32l4xx_hal_dma.c **** 
1014:D:/iot/felix2/targets/Cloud_STM32L431_BearPi/Drivers/STM32L4xx_HAL_Driver/Src\stm32l4xx_hal_dma.c **** 
1015:D:/iot/felix2/targets/Cloud_STM32L431_BearPi/Drivers/STM32L4xx_HAL_Driver/Src\stm32l4xx_hal_dma.c **** 
1016:D:/iot/felix2/targets/Cloud_STM32L431_BearPi/Drivers/STM32L4xx_HAL_Driver/Src\stm32l4xx_hal_dma.c **** /** @defgroup DMA_Exported_Functions_Group3 Peripheral State and Errors functions
1017:D:/iot/felix2/targets/Cloud_STM32L431_BearPi/Drivers/STM32L4xx_HAL_Driver/Src\stm32l4xx_hal_dma.c ****  *  @brief    Peripheral State and Errors functions
1018:D:/iot/felix2/targets/Cloud_STM32L431_BearPi/Drivers/STM32L4xx_HAL_Driver/Src\stm32l4xx_hal_dma.c ****  *
1019:D:/iot/felix2/targets/Cloud_STM32L431_BearPi/Drivers/STM32L4xx_HAL_Driver/Src\stm32l4xx_hal_dma.c **** @verbatim
1020:D:/iot/felix2/targets/Cloud_STM32L431_BearPi/Drivers/STM32L4xx_HAL_Driver/Src\stm32l4xx_hal_dma.c ****  ===============================================================================
1021:D:/iot/felix2/targets/Cloud_STM32L431_BearPi/Drivers/STM32L4xx_HAL_Driver/Src\stm32l4xx_hal_dma.c ****             ##### Peripheral State and Errors functions #####
1022:D:/iot/felix2/targets/Cloud_STM32L431_BearPi/Drivers/STM32L4xx_HAL_Driver/Src\stm32l4xx_hal_dma.c ****  ===============================================================================
1023:D:/iot/felix2/targets/Cloud_STM32L431_BearPi/Drivers/STM32L4xx_HAL_Driver/Src\stm32l4xx_hal_dma.c ****     [..]
1024:D:/iot/felix2/targets/Cloud_STM32L431_BearPi/Drivers/STM32L4xx_HAL_Driver/Src\stm32l4xx_hal_dma.c ****     This subsection provides functions allowing to
1025:D:/iot/felix2/targets/Cloud_STM32L431_BearPi/Drivers/STM32L4xx_HAL_Driver/Src\stm32l4xx_hal_dma.c ****       (+) Check the DMA state
1026:D:/iot/felix2/targets/Cloud_STM32L431_BearPi/Drivers/STM32L4xx_HAL_Driver/Src\stm32l4xx_hal_dma.c ****       (+) Get error code
1027:D:/iot/felix2/targets/Cloud_STM32L431_BearPi/Drivers/STM32L4xx_HAL_Driver/Src\stm32l4xx_hal_dma.c **** 
1028:D:/iot/felix2/targets/Cloud_STM32L431_BearPi/Drivers/STM32L4xx_HAL_Driver/Src\stm32l4xx_hal_dma.c **** @endverbatim
1029:D:/iot/felix2/targets/Cloud_STM32L431_BearPi/Drivers/STM32L4xx_HAL_Driver/Src\stm32l4xx_hal_dma.c ****   * @{
ARM GAS  C:\Users\91458\AppData\Local\Temp\ccdbzqVS.s 			page 47


1030:D:/iot/felix2/targets/Cloud_STM32L431_BearPi/Drivers/STM32L4xx_HAL_Driver/Src\stm32l4xx_hal_dma.c ****   */
1031:D:/iot/felix2/targets/Cloud_STM32L431_BearPi/Drivers/STM32L4xx_HAL_Driver/Src\stm32l4xx_hal_dma.c **** 
1032:D:/iot/felix2/targets/Cloud_STM32L431_BearPi/Drivers/STM32L4xx_HAL_Driver/Src\stm32l4xx_hal_dma.c **** /**
1033:D:/iot/felix2/targets/Cloud_STM32L431_BearPi/Drivers/STM32L4xx_HAL_Driver/Src\stm32l4xx_hal_dma.c ****   * @brief  Return the DMA hande state.
1034:D:/iot/felix2/targets/Cloud_STM32L431_BearPi/Drivers/STM32L4xx_HAL_Driver/Src\stm32l4xx_hal_dma.c ****   * @param  hdma pointer to a DMA_HandleTypeDef structure that contains
1035:D:/iot/felix2/targets/Cloud_STM32L431_BearPi/Drivers/STM32L4xx_HAL_Driver/Src\stm32l4xx_hal_dma.c ****   *               the configuration information for the specified DMA Channel.
1036:D:/iot/felix2/targets/Cloud_STM32L431_BearPi/Drivers/STM32L4xx_HAL_Driver/Src\stm32l4xx_hal_dma.c ****   * @retval HAL state
1037:D:/iot/felix2/targets/Cloud_STM32L431_BearPi/Drivers/STM32L4xx_HAL_Driver/Src\stm32l4xx_hal_dma.c ****   */
1038:D:/iot/felix2/targets/Cloud_STM32L431_BearPi/Drivers/STM32L4xx_HAL_Driver/Src\stm32l4xx_hal_dma.c **** HAL_DMA_StateTypeDef HAL_DMA_GetState(DMA_HandleTypeDef *hdma)
1039:D:/iot/felix2/targets/Cloud_STM32L431_BearPi/Drivers/STM32L4xx_HAL_Driver/Src\stm32l4xx_hal_dma.c **** {
 1608              		.loc 1 1039 0
 1609              		.cfi_startproc
 1610              		@ args = 0, pretend = 0, frame = 8
 1611              		@ frame_needed = 1, uses_anonymous_args = 0
 1612              		@ link register save eliminated.
 1613 0000 80B4     		push	{r7}
 1614              	.LCFI55:
 1615              		.cfi_def_cfa_offset 4
 1616              		.cfi_offset 7, -4
 1617 0002 83B0     		sub	sp, sp, #12
 1618              	.LCFI56:
 1619              		.cfi_def_cfa_offset 16
 1620 0004 00AF     		add	r7, sp, #0
 1621              	.LCFI57:
 1622              		.cfi_def_cfa_register 7
 1623 0006 7860     		str	r0, [r7, #4]
1040:D:/iot/felix2/targets/Cloud_STM32L431_BearPi/Drivers/STM32L4xx_HAL_Driver/Src\stm32l4xx_hal_dma.c ****   /* Return DMA handle state */
1041:D:/iot/felix2/targets/Cloud_STM32L431_BearPi/Drivers/STM32L4xx_HAL_Driver/Src\stm32l4xx_hal_dma.c ****   return hdma->State;
 1624              		.loc 1 1041 0
 1625 0008 7B68     		ldr	r3, [r7, #4]
 1626 000a 93F82530 		ldrb	r3, [r3, #37]
 1627 000e DBB2     		uxtb	r3, r3
1042:D:/iot/felix2/targets/Cloud_STM32L431_BearPi/Drivers/STM32L4xx_HAL_Driver/Src\stm32l4xx_hal_dma.c **** }
 1628              		.loc 1 1042 0
 1629 0010 1846     		mov	r0, r3
 1630 0012 0C37     		adds	r7, r7, #12
 1631              	.LCFI58:
 1632              		.cfi_def_cfa_offset 4
 1633 0014 BD46     		mov	sp, r7
 1634              	.LCFI59:
 1635              		.cfi_def_cfa_register 13
 1636              		@ sp needed
 1637 0016 5DF8047B 		ldr	r7, [sp], #4
 1638              	.LCFI60:
 1639              		.cfi_restore 7
 1640              		.cfi_def_cfa_offset 0
 1641 001a 7047     		bx	lr
 1642              		.cfi_endproc
 1643              	.LFE143:
 1645              		.section	.text.HAL_DMA_GetError,"ax",%progbits
 1646              		.align	1
 1647              		.global	HAL_DMA_GetError
 1648              		.syntax unified
 1649              		.thumb
 1650              		.thumb_func
 1651              		.fpu fpv4-sp-d16
 1653              	HAL_DMA_GetError:
ARM GAS  C:\Users\91458\AppData\Local\Temp\ccdbzqVS.s 			page 48


 1654              	.LFB144:
1043:D:/iot/felix2/targets/Cloud_STM32L431_BearPi/Drivers/STM32L4xx_HAL_Driver/Src\stm32l4xx_hal_dma.c **** 
1044:D:/iot/felix2/targets/Cloud_STM32L431_BearPi/Drivers/STM32L4xx_HAL_Driver/Src\stm32l4xx_hal_dma.c **** /**
1045:D:/iot/felix2/targets/Cloud_STM32L431_BearPi/Drivers/STM32L4xx_HAL_Driver/Src\stm32l4xx_hal_dma.c ****   * @brief  Return the DMA error code.
1046:D:/iot/felix2/targets/Cloud_STM32L431_BearPi/Drivers/STM32L4xx_HAL_Driver/Src\stm32l4xx_hal_dma.c ****   * @param  hdma : pointer to a DMA_HandleTypeDef structure that contains
1047:D:/iot/felix2/targets/Cloud_STM32L431_BearPi/Drivers/STM32L4xx_HAL_Driver/Src\stm32l4xx_hal_dma.c ****   *              the configuration information for the specified DMA Channel.
1048:D:/iot/felix2/targets/Cloud_STM32L431_BearPi/Drivers/STM32L4xx_HAL_Driver/Src\stm32l4xx_hal_dma.c ****   * @retval DMA Error Code
1049:D:/iot/felix2/targets/Cloud_STM32L431_BearPi/Drivers/STM32L4xx_HAL_Driver/Src\stm32l4xx_hal_dma.c ****   */
1050:D:/iot/felix2/targets/Cloud_STM32L431_BearPi/Drivers/STM32L4xx_HAL_Driver/Src\stm32l4xx_hal_dma.c **** uint32_t HAL_DMA_GetError(DMA_HandleTypeDef *hdma)
1051:D:/iot/felix2/targets/Cloud_STM32L431_BearPi/Drivers/STM32L4xx_HAL_Driver/Src\stm32l4xx_hal_dma.c **** {
 1655              		.loc 1 1051 0
 1656              		.cfi_startproc
 1657              		@ args = 0, pretend = 0, frame = 8
 1658              		@ frame_needed = 1, uses_anonymous_args = 0
 1659              		@ link register save eliminated.
 1660 0000 80B4     		push	{r7}
 1661              	.LCFI61:
 1662              		.cfi_def_cfa_offset 4
 1663              		.cfi_offset 7, -4
 1664 0002 83B0     		sub	sp, sp, #12
 1665              	.LCFI62:
 1666              		.cfi_def_cfa_offset 16
 1667 0004 00AF     		add	r7, sp, #0
 1668              	.LCFI63:
 1669              		.cfi_def_cfa_register 7
 1670 0006 7860     		str	r0, [r7, #4]
1052:D:/iot/felix2/targets/Cloud_STM32L431_BearPi/Drivers/STM32L4xx_HAL_Driver/Src\stm32l4xx_hal_dma.c ****   return hdma->ErrorCode;
 1671              		.loc 1 1052 0
 1672 0008 7B68     		ldr	r3, [r7, #4]
 1673 000a DB6B     		ldr	r3, [r3, #60]
1053:D:/iot/felix2/targets/Cloud_STM32L431_BearPi/Drivers/STM32L4xx_HAL_Driver/Src\stm32l4xx_hal_dma.c **** }
 1674              		.loc 1 1053 0
 1675 000c 1846     		mov	r0, r3
 1676 000e 0C37     		adds	r7, r7, #12
 1677              	.LCFI64:
 1678              		.cfi_def_cfa_offset 4
 1679 0010 BD46     		mov	sp, r7
 1680              	.LCFI65:
 1681              		.cfi_def_cfa_register 13
 1682              		@ sp needed
 1683 0012 5DF8047B 		ldr	r7, [sp], #4
 1684              	.LCFI66:
 1685              		.cfi_restore 7
 1686              		.cfi_def_cfa_offset 0
 1687 0016 7047     		bx	lr
 1688              		.cfi_endproc
 1689              	.LFE144:
 1691              		.section	.text.DMA_SetConfig,"ax",%progbits
 1692              		.align	1
 1693              		.syntax unified
 1694              		.thumb
 1695              		.thumb_func
 1696              		.fpu fpv4-sp-d16
 1698              	DMA_SetConfig:
 1699              	.LFB145:
1054:D:/iot/felix2/targets/Cloud_STM32L431_BearPi/Drivers/STM32L4xx_HAL_Driver/Src\stm32l4xx_hal_dma.c **** 
1055:D:/iot/felix2/targets/Cloud_STM32L431_BearPi/Drivers/STM32L4xx_HAL_Driver/Src\stm32l4xx_hal_dma.c **** /**
ARM GAS  C:\Users\91458\AppData\Local\Temp\ccdbzqVS.s 			page 49


1056:D:/iot/felix2/targets/Cloud_STM32L431_BearPi/Drivers/STM32L4xx_HAL_Driver/Src\stm32l4xx_hal_dma.c ****   * @}
1057:D:/iot/felix2/targets/Cloud_STM32L431_BearPi/Drivers/STM32L4xx_HAL_Driver/Src\stm32l4xx_hal_dma.c ****   */
1058:D:/iot/felix2/targets/Cloud_STM32L431_BearPi/Drivers/STM32L4xx_HAL_Driver/Src\stm32l4xx_hal_dma.c **** 
1059:D:/iot/felix2/targets/Cloud_STM32L431_BearPi/Drivers/STM32L4xx_HAL_Driver/Src\stm32l4xx_hal_dma.c **** /**
1060:D:/iot/felix2/targets/Cloud_STM32L431_BearPi/Drivers/STM32L4xx_HAL_Driver/Src\stm32l4xx_hal_dma.c ****   * @}
1061:D:/iot/felix2/targets/Cloud_STM32L431_BearPi/Drivers/STM32L4xx_HAL_Driver/Src\stm32l4xx_hal_dma.c ****   */
1062:D:/iot/felix2/targets/Cloud_STM32L431_BearPi/Drivers/STM32L4xx_HAL_Driver/Src\stm32l4xx_hal_dma.c **** 
1063:D:/iot/felix2/targets/Cloud_STM32L431_BearPi/Drivers/STM32L4xx_HAL_Driver/Src\stm32l4xx_hal_dma.c **** /** @addtogroup DMA_Private_Functions
1064:D:/iot/felix2/targets/Cloud_STM32L431_BearPi/Drivers/STM32L4xx_HAL_Driver/Src\stm32l4xx_hal_dma.c ****   * @{
1065:D:/iot/felix2/targets/Cloud_STM32L431_BearPi/Drivers/STM32L4xx_HAL_Driver/Src\stm32l4xx_hal_dma.c ****   */
1066:D:/iot/felix2/targets/Cloud_STM32L431_BearPi/Drivers/STM32L4xx_HAL_Driver/Src\stm32l4xx_hal_dma.c **** 
1067:D:/iot/felix2/targets/Cloud_STM32L431_BearPi/Drivers/STM32L4xx_HAL_Driver/Src\stm32l4xx_hal_dma.c **** /**
1068:D:/iot/felix2/targets/Cloud_STM32L431_BearPi/Drivers/STM32L4xx_HAL_Driver/Src\stm32l4xx_hal_dma.c ****   * @brief  Sets the DMA Transfer parameter.
1069:D:/iot/felix2/targets/Cloud_STM32L431_BearPi/Drivers/STM32L4xx_HAL_Driver/Src\stm32l4xx_hal_dma.c ****   * @param  hdma       pointer to a DMA_HandleTypeDef structure that contains
1070:D:/iot/felix2/targets/Cloud_STM32L431_BearPi/Drivers/STM32L4xx_HAL_Driver/Src\stm32l4xx_hal_dma.c ****   *                     the configuration information for the specified DMA Channel.
1071:D:/iot/felix2/targets/Cloud_STM32L431_BearPi/Drivers/STM32L4xx_HAL_Driver/Src\stm32l4xx_hal_dma.c ****   * @param  SrcAddress The source memory Buffer address
1072:D:/iot/felix2/targets/Cloud_STM32L431_BearPi/Drivers/STM32L4xx_HAL_Driver/Src\stm32l4xx_hal_dma.c ****   * @param  DstAddress The destination memory Buffer address
1073:D:/iot/felix2/targets/Cloud_STM32L431_BearPi/Drivers/STM32L4xx_HAL_Driver/Src\stm32l4xx_hal_dma.c ****   * @param  DataLength The length of data to be transferred from source to destination
1074:D:/iot/felix2/targets/Cloud_STM32L431_BearPi/Drivers/STM32L4xx_HAL_Driver/Src\stm32l4xx_hal_dma.c ****   * @retval HAL status
1075:D:/iot/felix2/targets/Cloud_STM32L431_BearPi/Drivers/STM32L4xx_HAL_Driver/Src\stm32l4xx_hal_dma.c ****   */
1076:D:/iot/felix2/targets/Cloud_STM32L431_BearPi/Drivers/STM32L4xx_HAL_Driver/Src\stm32l4xx_hal_dma.c **** static void DMA_SetConfig(DMA_HandleTypeDef *hdma, uint32_t SrcAddress, uint32_t DstAddress, uint32
1077:D:/iot/felix2/targets/Cloud_STM32L431_BearPi/Drivers/STM32L4xx_HAL_Driver/Src\stm32l4xx_hal_dma.c **** {
 1700              		.loc 1 1077 0
 1701              		.cfi_startproc
 1702              		@ args = 0, pretend = 0, frame = 16
 1703              		@ frame_needed = 1, uses_anonymous_args = 0
 1704              		@ link register save eliminated.
 1705 0000 80B4     		push	{r7}
 1706              	.LCFI67:
 1707              		.cfi_def_cfa_offset 4
 1708              		.cfi_offset 7, -4
 1709 0002 85B0     		sub	sp, sp, #20
 1710              	.LCFI68:
 1711              		.cfi_def_cfa_offset 24
 1712 0004 00AF     		add	r7, sp, #0
 1713              	.LCFI69:
 1714              		.cfi_def_cfa_register 7
 1715 0006 F860     		str	r0, [r7, #12]
 1716 0008 B960     		str	r1, [r7, #8]
 1717 000a 7A60     		str	r2, [r7, #4]
 1718 000c 3B60     		str	r3, [r7]
1078:D:/iot/felix2/targets/Cloud_STM32L431_BearPi/Drivers/STM32L4xx_HAL_Driver/Src\stm32l4xx_hal_dma.c **** #if defined(DMAMUX1)
1079:D:/iot/felix2/targets/Cloud_STM32L431_BearPi/Drivers/STM32L4xx_HAL_Driver/Src\stm32l4xx_hal_dma.c ****   /* Clear the DMAMUX synchro overrun flag */
1080:D:/iot/felix2/targets/Cloud_STM32L431_BearPi/Drivers/STM32L4xx_HAL_Driver/Src\stm32l4xx_hal_dma.c ****   hdma->DMAmuxChannelStatus->CFR = hdma->DMAmuxChannelStatusMask;
1081:D:/iot/felix2/targets/Cloud_STM32L431_BearPi/Drivers/STM32L4xx_HAL_Driver/Src\stm32l4xx_hal_dma.c **** 
1082:D:/iot/felix2/targets/Cloud_STM32L431_BearPi/Drivers/STM32L4xx_HAL_Driver/Src\stm32l4xx_hal_dma.c ****   if(hdma->DMAmuxRequestGen != 0U)
1083:D:/iot/felix2/targets/Cloud_STM32L431_BearPi/Drivers/STM32L4xx_HAL_Driver/Src\stm32l4xx_hal_dma.c ****   {
1084:D:/iot/felix2/targets/Cloud_STM32L431_BearPi/Drivers/STM32L4xx_HAL_Driver/Src\stm32l4xx_hal_dma.c ****     /* Clear the DMAMUX request generator overrun flag */
1085:D:/iot/felix2/targets/Cloud_STM32L431_BearPi/Drivers/STM32L4xx_HAL_Driver/Src\stm32l4xx_hal_dma.c ****     hdma->DMAmuxRequestGenStatus->RGCFR = hdma->DMAmuxRequestGenStatusMask;
1086:D:/iot/felix2/targets/Cloud_STM32L431_BearPi/Drivers/STM32L4xx_HAL_Driver/Src\stm32l4xx_hal_dma.c ****   }
1087:D:/iot/felix2/targets/Cloud_STM32L431_BearPi/Drivers/STM32L4xx_HAL_Driver/Src\stm32l4xx_hal_dma.c **** #endif
1088:D:/iot/felix2/targets/Cloud_STM32L431_BearPi/Drivers/STM32L4xx_HAL_Driver/Src\stm32l4xx_hal_dma.c **** 
1089:D:/iot/felix2/targets/Cloud_STM32L431_BearPi/Drivers/STM32L4xx_HAL_Driver/Src\stm32l4xx_hal_dma.c ****   /* Clear all flags */
1090:D:/iot/felix2/targets/Cloud_STM32L431_BearPi/Drivers/STM32L4xx_HAL_Driver/Src\stm32l4xx_hal_dma.c ****   hdma->DmaBaseAddress->IFCR = (DMA_ISR_GIF1 << (hdma->ChannelIndex & 0x1cU));
 1719              		.loc 1 1090 0
 1720 000e FB68     		ldr	r3, [r7, #12]
 1721 0010 5B6C     		ldr	r3, [r3, #68]
ARM GAS  C:\Users\91458\AppData\Local\Temp\ccdbzqVS.s 			page 50


 1722 0012 03F01C02 		and	r2, r3, #28
 1723 0016 FB68     		ldr	r3, [r7, #12]
 1724 0018 1B6C     		ldr	r3, [r3, #64]
 1725 001a 0121     		movs	r1, #1
 1726 001c 01FA02F2 		lsl	r2, r1, r2
 1727 0020 5A60     		str	r2, [r3, #4]
1091:D:/iot/felix2/targets/Cloud_STM32L431_BearPi/Drivers/STM32L4xx_HAL_Driver/Src\stm32l4xx_hal_dma.c **** 
1092:D:/iot/felix2/targets/Cloud_STM32L431_BearPi/Drivers/STM32L4xx_HAL_Driver/Src\stm32l4xx_hal_dma.c ****   /* Configure DMA Channel data length */
1093:D:/iot/felix2/targets/Cloud_STM32L431_BearPi/Drivers/STM32L4xx_HAL_Driver/Src\stm32l4xx_hal_dma.c ****   hdma->Instance->CNDTR = DataLength;
 1728              		.loc 1 1093 0
 1729 0022 FB68     		ldr	r3, [r7, #12]
 1730 0024 1B68     		ldr	r3, [r3]
 1731 0026 3A68     		ldr	r2, [r7]
 1732 0028 5A60     		str	r2, [r3, #4]
1094:D:/iot/felix2/targets/Cloud_STM32L431_BearPi/Drivers/STM32L4xx_HAL_Driver/Src\stm32l4xx_hal_dma.c **** 
1095:D:/iot/felix2/targets/Cloud_STM32L431_BearPi/Drivers/STM32L4xx_HAL_Driver/Src\stm32l4xx_hal_dma.c ****   /* Memory to Peripheral */
1096:D:/iot/felix2/targets/Cloud_STM32L431_BearPi/Drivers/STM32L4xx_HAL_Driver/Src\stm32l4xx_hal_dma.c ****   if((hdma->Init.Direction) == DMA_MEMORY_TO_PERIPH)
 1733              		.loc 1 1096 0
 1734 002a FB68     		ldr	r3, [r7, #12]
 1735 002c 9B68     		ldr	r3, [r3, #8]
 1736 002e 102B     		cmp	r3, #16
 1737 0030 08D1     		bne	.L91
1097:D:/iot/felix2/targets/Cloud_STM32L431_BearPi/Drivers/STM32L4xx_HAL_Driver/Src\stm32l4xx_hal_dma.c ****   {
1098:D:/iot/felix2/targets/Cloud_STM32L431_BearPi/Drivers/STM32L4xx_HAL_Driver/Src\stm32l4xx_hal_dma.c ****     /* Configure DMA Channel destination address */
1099:D:/iot/felix2/targets/Cloud_STM32L431_BearPi/Drivers/STM32L4xx_HAL_Driver/Src\stm32l4xx_hal_dma.c ****     hdma->Instance->CPAR = DstAddress;
 1738              		.loc 1 1099 0
 1739 0032 FB68     		ldr	r3, [r7, #12]
 1740 0034 1B68     		ldr	r3, [r3]
 1741 0036 7A68     		ldr	r2, [r7, #4]
 1742 0038 9A60     		str	r2, [r3, #8]
1100:D:/iot/felix2/targets/Cloud_STM32L431_BearPi/Drivers/STM32L4xx_HAL_Driver/Src\stm32l4xx_hal_dma.c **** 
1101:D:/iot/felix2/targets/Cloud_STM32L431_BearPi/Drivers/STM32L4xx_HAL_Driver/Src\stm32l4xx_hal_dma.c ****     /* Configure DMA Channel source address */
1102:D:/iot/felix2/targets/Cloud_STM32L431_BearPi/Drivers/STM32L4xx_HAL_Driver/Src\stm32l4xx_hal_dma.c ****     hdma->Instance->CMAR = SrcAddress;
 1743              		.loc 1 1102 0
 1744 003a FB68     		ldr	r3, [r7, #12]
 1745 003c 1B68     		ldr	r3, [r3]
 1746 003e BA68     		ldr	r2, [r7, #8]
 1747 0040 DA60     		str	r2, [r3, #12]
1103:D:/iot/felix2/targets/Cloud_STM32L431_BearPi/Drivers/STM32L4xx_HAL_Driver/Src\stm32l4xx_hal_dma.c ****   }
1104:D:/iot/felix2/targets/Cloud_STM32L431_BearPi/Drivers/STM32L4xx_HAL_Driver/Src\stm32l4xx_hal_dma.c ****   /* Peripheral to Memory */
1105:D:/iot/felix2/targets/Cloud_STM32L431_BearPi/Drivers/STM32L4xx_HAL_Driver/Src\stm32l4xx_hal_dma.c ****   else
1106:D:/iot/felix2/targets/Cloud_STM32L431_BearPi/Drivers/STM32L4xx_HAL_Driver/Src\stm32l4xx_hal_dma.c ****   {
1107:D:/iot/felix2/targets/Cloud_STM32L431_BearPi/Drivers/STM32L4xx_HAL_Driver/Src\stm32l4xx_hal_dma.c ****     /* Configure DMA Channel source address */
1108:D:/iot/felix2/targets/Cloud_STM32L431_BearPi/Drivers/STM32L4xx_HAL_Driver/Src\stm32l4xx_hal_dma.c ****     hdma->Instance->CPAR = SrcAddress;
1109:D:/iot/felix2/targets/Cloud_STM32L431_BearPi/Drivers/STM32L4xx_HAL_Driver/Src\stm32l4xx_hal_dma.c **** 
1110:D:/iot/felix2/targets/Cloud_STM32L431_BearPi/Drivers/STM32L4xx_HAL_Driver/Src\stm32l4xx_hal_dma.c ****     /* Configure DMA Channel destination address */
1111:D:/iot/felix2/targets/Cloud_STM32L431_BearPi/Drivers/STM32L4xx_HAL_Driver/Src\stm32l4xx_hal_dma.c ****     hdma->Instance->CMAR = DstAddress;
1112:D:/iot/felix2/targets/Cloud_STM32L431_BearPi/Drivers/STM32L4xx_HAL_Driver/Src\stm32l4xx_hal_dma.c ****   }
1113:D:/iot/felix2/targets/Cloud_STM32L431_BearPi/Drivers/STM32L4xx_HAL_Driver/Src\stm32l4xx_hal_dma.c **** }
 1748              		.loc 1 1113 0
 1749 0042 07E0     		b	.L93
 1750              	.L91:
1108:D:/iot/felix2/targets/Cloud_STM32L431_BearPi/Drivers/STM32L4xx_HAL_Driver/Src\stm32l4xx_hal_dma.c **** 
 1751              		.loc 1 1108 0
 1752 0044 FB68     		ldr	r3, [r7, #12]
 1753 0046 1B68     		ldr	r3, [r3]
 1754 0048 BA68     		ldr	r2, [r7, #8]
ARM GAS  C:\Users\91458\AppData\Local\Temp\ccdbzqVS.s 			page 51


 1755 004a 9A60     		str	r2, [r3, #8]
1111:D:/iot/felix2/targets/Cloud_STM32L431_BearPi/Drivers/STM32L4xx_HAL_Driver/Src\stm32l4xx_hal_dma.c ****   }
 1756              		.loc 1 1111 0
 1757 004c FB68     		ldr	r3, [r7, #12]
 1758 004e 1B68     		ldr	r3, [r3]
 1759 0050 7A68     		ldr	r2, [r7, #4]
 1760 0052 DA60     		str	r2, [r3, #12]
 1761              	.L93:
 1762              		.loc 1 1113 0
 1763 0054 00BF     		nop
 1764 0056 1437     		adds	r7, r7, #20
 1765              	.LCFI70:
 1766              		.cfi_def_cfa_offset 4
 1767 0058 BD46     		mov	sp, r7
 1768              	.LCFI71:
 1769              		.cfi_def_cfa_register 13
 1770              		@ sp needed
 1771 005a 5DF8047B 		ldr	r7, [sp], #4
 1772              	.LCFI72:
 1773              		.cfi_restore 7
 1774              		.cfi_def_cfa_offset 0
 1775 005e 7047     		bx	lr
 1776              		.cfi_endproc
 1777              	.LFE145:
 1779              		.text
 1780              	.Letext0:
 1781              		.file 2 "d:\\liteos studio\\resources\\arm-none-eabi\\arm-none-eabi\\include\\machine\\_default_ty
 1782              		.file 3 "d:\\liteos studio\\resources\\arm-none-eabi\\arm-none-eabi\\include\\sys\\lock.h"
 1783              		.file 4 "d:\\liteos studio\\resources\\arm-none-eabi\\arm-none-eabi\\include\\sys\\_types.h"
 1784              		.file 5 "d:\\liteos studio\\resources\\arm-none-eabi\\lib\\gcc\\arm-none-eabi\\7.3.1\\include\\std
 1785              		.file 6 "d:\\liteos studio\\resources\\arm-none-eabi\\arm-none-eabi\\include\\sys\\reent.h"
 1786              		.file 7 "D:/iot/felix2/kernel/include/los_typedef.h"
 1787              		.file 8 "d:\\liteos studio\\resources\\arm-none-eabi\\arm-none-eabi\\include\\sys\\_stdint.h"
 1788              		.file 9 "D:/iot/felix2/arch/arm/common/cmsis/core_cm4.h"
 1789              		.file 10 "D:/iot/felix2/targets/Cloud_STM32L431_BearPi/Inc/system_stm32l4xx.h"
 1790              		.file 11 "D:/iot/felix2/targets/Cloud_STM32L431_BearPi/Inc/stm32l431xx.h"
 1791              		.file 12 "D:/iot/felix2/targets/Cloud_STM32L431_BearPi/OS_CONFIG/target_config.h"
 1792              		.file 13 "D:/iot/felix2/kernel/include/los_config.h"
 1793              		.file 14 "D:/iot/felix2/kernel/include/los_list.h"
 1794              		.file 15 "D:/iot/felix2/kernel/include/los_err.h"
 1795              		.file 16 "D:/iot/felix2/arch/arm/arm-m/include/los_hwi.h"
 1796              		.file 17 "D:/iot/felix2/kernel/include/los_tick.h"
 1797              		.file 18 "D:/iot/felix2/kernel/include/los_event.h"
 1798              		.file 19 "D:/iot/felix2/kernel/include/los_task.h"
 1799              		.file 20 "D:/iot/felix2/kernel/base/include/los_task.ph"
 1800              		.file 21 "D:/iot/felix2/targets/Cloud_STM32L431_BearPi/Inc/main.h"
 1801              		.file 22 "D:/iot/felix2/targets/Cloud_STM32L431_BearPi/Drivers/STM32L4xx_HAL_Driver/Inc/stm32l4xx_
 1802              		.file 23 "D:/iot/felix2/targets/Cloud_STM32L431_BearPi/Drivers/STM32L4xx_HAL_Driver/Inc/stm32l4xx_
ARM GAS  C:\Users\91458\AppData\Local\Temp\ccdbzqVS.s 			page 52

