ARM GAS  C:\Users\91458\AppData\Local\Temp\cct4oxZw.s 			page 1


   1              		.cpu cortex-m4
   2              		.eabi_attribute 27, 1
   3              		.eabi_attribute 28, 1
   4              		.eabi_attribute 20, 1
   5              		.eabi_attribute 21, 1
   6              		.eabi_attribute 23, 3
   7              		.eabi_attribute 24, 1
   8              		.eabi_attribute 25, 1
   9              		.eabi_attribute 26, 1
  10              		.eabi_attribute 30, 6
  11              		.eabi_attribute 34, 1
  12              		.eabi_attribute 18, 4
  13              		.file	"stm32l4xx_hal_flash_ex.c"
  14              		.text
  15              	.Ltext0:
  16              		.cfi_sections	.debug_frame
  17              		.section	.text.HAL_FLASHEx_Erase,"ax",%progbits
  18              		.align	1
  19              		.global	HAL_FLASHEx_Erase
  20              		.syntax unified
  21              		.thumb
  22              		.thumb_func
  23              		.fpu fpv4-sp-d16
  25              	HAL_FLASHEx_Erase:
  26              	.LFB133:
  27              		.file 1 "D:/iot/felix2/targets/Cloud_STM32L431_BearPi/Drivers/STM32L4xx_HAL_Driver/Src/stm32l4xx_h
   1:D:/iot/felix2/targets/Cloud_STM32L431_BearPi/Drivers/STM32L4xx_HAL_Driver/Src\stm32l4xx_hal_flash_ex.c **** /**
   2:D:/iot/felix2/targets/Cloud_STM32L431_BearPi/Drivers/STM32L4xx_HAL_Driver/Src\stm32l4xx_hal_flash_ex.c ****   ******************************************************************************
   3:D:/iot/felix2/targets/Cloud_STM32L431_BearPi/Drivers/STM32L4xx_HAL_Driver/Src\stm32l4xx_hal_flash_ex.c ****   * @file    stm32l4xx_hal_flash_ex.c
   4:D:/iot/felix2/targets/Cloud_STM32L431_BearPi/Drivers/STM32L4xx_HAL_Driver/Src\stm32l4xx_hal_flash_ex.c ****   * @author  MCD Application Team
   5:D:/iot/felix2/targets/Cloud_STM32L431_BearPi/Drivers/STM32L4xx_HAL_Driver/Src\stm32l4xx_hal_flash_ex.c ****   * @brief   Extended FLASH HAL module driver.
   6:D:/iot/felix2/targets/Cloud_STM32L431_BearPi/Drivers/STM32L4xx_HAL_Driver/Src\stm32l4xx_hal_flash_ex.c ****   *          This file provides firmware functions to manage the following 
   7:D:/iot/felix2/targets/Cloud_STM32L431_BearPi/Drivers/STM32L4xx_HAL_Driver/Src\stm32l4xx_hal_flash_ex.c ****   *          functionalities of the FLASH extended peripheral:
   8:D:/iot/felix2/targets/Cloud_STM32L431_BearPi/Drivers/STM32L4xx_HAL_Driver/Src\stm32l4xx_hal_flash_ex.c ****   *           + Extended programming operations functions
   9:D:/iot/felix2/targets/Cloud_STM32L431_BearPi/Drivers/STM32L4xx_HAL_Driver/Src\stm32l4xx_hal_flash_ex.c ****   *  
  10:D:/iot/felix2/targets/Cloud_STM32L431_BearPi/Drivers/STM32L4xx_HAL_Driver/Src\stm32l4xx_hal_flash_ex.c ****  @verbatim    
  11:D:/iot/felix2/targets/Cloud_STM32L431_BearPi/Drivers/STM32L4xx_HAL_Driver/Src\stm32l4xx_hal_flash_ex.c ****  ==============================================================================
  12:D:/iot/felix2/targets/Cloud_STM32L431_BearPi/Drivers/STM32L4xx_HAL_Driver/Src\stm32l4xx_hal_flash_ex.c ****                    ##### Flash Extended features #####
  13:D:/iot/felix2/targets/Cloud_STM32L431_BearPi/Drivers/STM32L4xx_HAL_Driver/Src\stm32l4xx_hal_flash_ex.c ****   ==============================================================================
  14:D:/iot/felix2/targets/Cloud_STM32L431_BearPi/Drivers/STM32L4xx_HAL_Driver/Src\stm32l4xx_hal_flash_ex.c ****            
  15:D:/iot/felix2/targets/Cloud_STM32L431_BearPi/Drivers/STM32L4xx_HAL_Driver/Src\stm32l4xx_hal_flash_ex.c ****   [..] Comparing to other previous devices, the FLASH interface for STM32L4xx 
  16:D:/iot/felix2/targets/Cloud_STM32L431_BearPi/Drivers/STM32L4xx_HAL_Driver/Src\stm32l4xx_hal_flash_ex.c ****        devices contains the following additional features 
  17:D:/iot/felix2/targets/Cloud_STM32L431_BearPi/Drivers/STM32L4xx_HAL_Driver/Src\stm32l4xx_hal_flash_ex.c ****        
  18:D:/iot/felix2/targets/Cloud_STM32L431_BearPi/Drivers/STM32L4xx_HAL_Driver/Src\stm32l4xx_hal_flash_ex.c ****        (+) Capacity up to 2 Mbyte with dual bank architecture supporting read-while-write
  19:D:/iot/felix2/targets/Cloud_STM32L431_BearPi/Drivers/STM32L4xx_HAL_Driver/Src\stm32l4xx_hal_flash_ex.c ****            capability (RWW)
  20:D:/iot/felix2/targets/Cloud_STM32L431_BearPi/Drivers/STM32L4xx_HAL_Driver/Src\stm32l4xx_hal_flash_ex.c ****        (+) Dual bank memory organization       
  21:D:/iot/felix2/targets/Cloud_STM32L431_BearPi/Drivers/STM32L4xx_HAL_Driver/Src\stm32l4xx_hal_flash_ex.c ****        (+) PCROP protection for all banks
  22:D:/iot/felix2/targets/Cloud_STM32L431_BearPi/Drivers/STM32L4xx_HAL_Driver/Src\stm32l4xx_hal_flash_ex.c ****    
  23:D:/iot/felix2/targets/Cloud_STM32L431_BearPi/Drivers/STM32L4xx_HAL_Driver/Src\stm32l4xx_hal_flash_ex.c ****                         ##### How to use this driver #####
  24:D:/iot/felix2/targets/Cloud_STM32L431_BearPi/Drivers/STM32L4xx_HAL_Driver/Src\stm32l4xx_hal_flash_ex.c ****  ==============================================================================
  25:D:/iot/felix2/targets/Cloud_STM32L431_BearPi/Drivers/STM32L4xx_HAL_Driver/Src\stm32l4xx_hal_flash_ex.c ****   [..] This driver provides functions to configure and program the FLASH memory 
  26:D:/iot/felix2/targets/Cloud_STM32L431_BearPi/Drivers/STM32L4xx_HAL_Driver/Src\stm32l4xx_hal_flash_ex.c ****        of all STM32L4xx devices. It includes
  27:D:/iot/felix2/targets/Cloud_STM32L431_BearPi/Drivers/STM32L4xx_HAL_Driver/Src\stm32l4xx_hal_flash_ex.c ****       (#) Flash Memory Erase functions: 
  28:D:/iot/felix2/targets/Cloud_STM32L431_BearPi/Drivers/STM32L4xx_HAL_Driver/Src\stm32l4xx_hal_flash_ex.c ****            (++) Lock and Unlock the FLASH interface using HAL_FLASH_Unlock() and 
  29:D:/iot/felix2/targets/Cloud_STM32L431_BearPi/Drivers/STM32L4xx_HAL_Driver/Src\stm32l4xx_hal_flash_ex.c ****                 HAL_FLASH_Lock() functions
  30:D:/iot/felix2/targets/Cloud_STM32L431_BearPi/Drivers/STM32L4xx_HAL_Driver/Src\stm32l4xx_hal_flash_ex.c ****            (++) Erase function: Erase page, erase all sectors
  31:D:/iot/felix2/targets/Cloud_STM32L431_BearPi/Drivers/STM32L4xx_HAL_Driver/Src\stm32l4xx_hal_flash_ex.c ****            (++) There are two modes of erase :
ARM GAS  C:\Users\91458\AppData\Local\Temp\cct4oxZw.s 			page 2


  32:D:/iot/felix2/targets/Cloud_STM32L431_BearPi/Drivers/STM32L4xx_HAL_Driver/Src\stm32l4xx_hal_flash_ex.c ****              (+++) Polling Mode using HAL_FLASHEx_Erase()
  33:D:/iot/felix2/targets/Cloud_STM32L431_BearPi/Drivers/STM32L4xx_HAL_Driver/Src\stm32l4xx_hal_flash_ex.c ****              (+++) Interrupt Mode using HAL_FLASHEx_Erase_IT()
  34:D:/iot/felix2/targets/Cloud_STM32L431_BearPi/Drivers/STM32L4xx_HAL_Driver/Src\stm32l4xx_hal_flash_ex.c ****                          
  35:D:/iot/felix2/targets/Cloud_STM32L431_BearPi/Drivers/STM32L4xx_HAL_Driver/Src\stm32l4xx_hal_flash_ex.c ****       (#) Option Bytes Programming function: Use HAL_FLASHEx_OBProgram() to :
  36:D:/iot/felix2/targets/Cloud_STM32L431_BearPi/Drivers/STM32L4xx_HAL_Driver/Src\stm32l4xx_hal_flash_ex.c ****         (++) Set/Reset the write protection
  37:D:/iot/felix2/targets/Cloud_STM32L431_BearPi/Drivers/STM32L4xx_HAL_Driver/Src\stm32l4xx_hal_flash_ex.c ****         (++) Set the Read protection Level
  38:D:/iot/felix2/targets/Cloud_STM32L431_BearPi/Drivers/STM32L4xx_HAL_Driver/Src\stm32l4xx_hal_flash_ex.c ****         (++) Program the user Option Bytes
  39:D:/iot/felix2/targets/Cloud_STM32L431_BearPi/Drivers/STM32L4xx_HAL_Driver/Src\stm32l4xx_hal_flash_ex.c ****         (++) Configure the PCROP protection
  40:D:/iot/felix2/targets/Cloud_STM32L431_BearPi/Drivers/STM32L4xx_HAL_Driver/Src\stm32l4xx_hal_flash_ex.c ****         
  41:D:/iot/felix2/targets/Cloud_STM32L431_BearPi/Drivers/STM32L4xx_HAL_Driver/Src\stm32l4xx_hal_flash_ex.c ****       (#) Get Option Bytes Configuration function: Use HAL_FLASHEx_OBGetConfig() to :
  42:D:/iot/felix2/targets/Cloud_STM32L431_BearPi/Drivers/STM32L4xx_HAL_Driver/Src\stm32l4xx_hal_flash_ex.c ****         (++) Get the value of a write protection area
  43:D:/iot/felix2/targets/Cloud_STM32L431_BearPi/Drivers/STM32L4xx_HAL_Driver/Src\stm32l4xx_hal_flash_ex.c ****         (++) Know if the read protection is activated
  44:D:/iot/felix2/targets/Cloud_STM32L431_BearPi/Drivers/STM32L4xx_HAL_Driver/Src\stm32l4xx_hal_flash_ex.c ****         (++) Get the value of the user Option Bytes
  45:D:/iot/felix2/targets/Cloud_STM32L431_BearPi/Drivers/STM32L4xx_HAL_Driver/Src\stm32l4xx_hal_flash_ex.c ****         (++) Get the value of a PCROP area
  46:D:/iot/felix2/targets/Cloud_STM32L431_BearPi/Drivers/STM32L4xx_HAL_Driver/Src\stm32l4xx_hal_flash_ex.c ****     
  47:D:/iot/felix2/targets/Cloud_STM32L431_BearPi/Drivers/STM32L4xx_HAL_Driver/Src\stm32l4xx_hal_flash_ex.c ****  @endverbatim                      
  48:D:/iot/felix2/targets/Cloud_STM32L431_BearPi/Drivers/STM32L4xx_HAL_Driver/Src\stm32l4xx_hal_flash_ex.c ****   ******************************************************************************
  49:D:/iot/felix2/targets/Cloud_STM32L431_BearPi/Drivers/STM32L4xx_HAL_Driver/Src\stm32l4xx_hal_flash_ex.c ****   * @attention
  50:D:/iot/felix2/targets/Cloud_STM32L431_BearPi/Drivers/STM32L4xx_HAL_Driver/Src\stm32l4xx_hal_flash_ex.c ****   *
  51:D:/iot/felix2/targets/Cloud_STM32L431_BearPi/Drivers/STM32L4xx_HAL_Driver/Src\stm32l4xx_hal_flash_ex.c ****   * <h2><center>&copy; COPYRIGHT(c) 2017 STMicroelectronics</center></h2>
  52:D:/iot/felix2/targets/Cloud_STM32L431_BearPi/Drivers/STM32L4xx_HAL_Driver/Src\stm32l4xx_hal_flash_ex.c ****   *
  53:D:/iot/felix2/targets/Cloud_STM32L431_BearPi/Drivers/STM32L4xx_HAL_Driver/Src\stm32l4xx_hal_flash_ex.c ****   * Redistribution and use in source and binary forms, with or without modification,
  54:D:/iot/felix2/targets/Cloud_STM32L431_BearPi/Drivers/STM32L4xx_HAL_Driver/Src\stm32l4xx_hal_flash_ex.c ****   * are permitted provided that the following conditions are met:
  55:D:/iot/felix2/targets/Cloud_STM32L431_BearPi/Drivers/STM32L4xx_HAL_Driver/Src\stm32l4xx_hal_flash_ex.c ****   *   1. Redistributions of source code must retain the above copyright notice,
  56:D:/iot/felix2/targets/Cloud_STM32L431_BearPi/Drivers/STM32L4xx_HAL_Driver/Src\stm32l4xx_hal_flash_ex.c ****   *      this list of conditions and the following disclaimer.
  57:D:/iot/felix2/targets/Cloud_STM32L431_BearPi/Drivers/STM32L4xx_HAL_Driver/Src\stm32l4xx_hal_flash_ex.c ****   *   2. Redistributions in binary form must reproduce the above copyright notice,
  58:D:/iot/felix2/targets/Cloud_STM32L431_BearPi/Drivers/STM32L4xx_HAL_Driver/Src\stm32l4xx_hal_flash_ex.c ****   *      this list of conditions and the following disclaimer in the documentation
  59:D:/iot/felix2/targets/Cloud_STM32L431_BearPi/Drivers/STM32L4xx_HAL_Driver/Src\stm32l4xx_hal_flash_ex.c ****   *      and/or other materials provided with the distribution.
  60:D:/iot/felix2/targets/Cloud_STM32L431_BearPi/Drivers/STM32L4xx_HAL_Driver/Src\stm32l4xx_hal_flash_ex.c ****   *   3. Neither the name of STMicroelectronics nor the names of its contributors
  61:D:/iot/felix2/targets/Cloud_STM32L431_BearPi/Drivers/STM32L4xx_HAL_Driver/Src\stm32l4xx_hal_flash_ex.c ****   *      may be used to endorse or promote products derived from this software
  62:D:/iot/felix2/targets/Cloud_STM32L431_BearPi/Drivers/STM32L4xx_HAL_Driver/Src\stm32l4xx_hal_flash_ex.c ****   *      without specific prior written permission.
  63:D:/iot/felix2/targets/Cloud_STM32L431_BearPi/Drivers/STM32L4xx_HAL_Driver/Src\stm32l4xx_hal_flash_ex.c ****   *
  64:D:/iot/felix2/targets/Cloud_STM32L431_BearPi/Drivers/STM32L4xx_HAL_Driver/Src\stm32l4xx_hal_flash_ex.c ****   * THIS SOFTWARE IS PROVIDED BY THE COPYRIGHT HOLDERS AND CONTRIBUTORS "AS IS"
  65:D:/iot/felix2/targets/Cloud_STM32L431_BearPi/Drivers/STM32L4xx_HAL_Driver/Src\stm32l4xx_hal_flash_ex.c ****   * AND ANY EXPRESS OR IMPLIED WARRANTIES, INCLUDING, BUT NOT LIMITED TO, THE
  66:D:/iot/felix2/targets/Cloud_STM32L431_BearPi/Drivers/STM32L4xx_HAL_Driver/Src\stm32l4xx_hal_flash_ex.c ****   * IMPLIED WARRANTIES OF MERCHANTABILITY AND FITNESS FOR A PARTICULAR PURPOSE ARE
  67:D:/iot/felix2/targets/Cloud_STM32L431_BearPi/Drivers/STM32L4xx_HAL_Driver/Src\stm32l4xx_hal_flash_ex.c ****   * DISCLAIMED. IN NO EVENT SHALL THE COPYRIGHT HOLDER OR CONTRIBUTORS BE LIABLE
  68:D:/iot/felix2/targets/Cloud_STM32L431_BearPi/Drivers/STM32L4xx_HAL_Driver/Src\stm32l4xx_hal_flash_ex.c ****   * FOR ANY DIRECT, INDIRECT, INCIDENTAL, SPECIAL, EXEMPLARY, OR CONSEQUENTIAL
  69:D:/iot/felix2/targets/Cloud_STM32L431_BearPi/Drivers/STM32L4xx_HAL_Driver/Src\stm32l4xx_hal_flash_ex.c ****   * DAMAGES (INCLUDING, BUT NOT LIMITED TO, PROCUREMENT OF SUBSTITUTE GOODS OR
  70:D:/iot/felix2/targets/Cloud_STM32L431_BearPi/Drivers/STM32L4xx_HAL_Driver/Src\stm32l4xx_hal_flash_ex.c ****   * SERVICES; LOSS OF USE, DATA, OR PROFITS; OR BUSINESS INTERRUPTION) HOWEVER
  71:D:/iot/felix2/targets/Cloud_STM32L431_BearPi/Drivers/STM32L4xx_HAL_Driver/Src\stm32l4xx_hal_flash_ex.c ****   * CAUSED AND ON ANY THEORY OF LIABILITY, WHETHER IN CONTRACT, STRICT LIABILITY,
  72:D:/iot/felix2/targets/Cloud_STM32L431_BearPi/Drivers/STM32L4xx_HAL_Driver/Src\stm32l4xx_hal_flash_ex.c ****   * OR TORT (INCLUDING NEGLIGENCE OR OTHERWISE) ARISING IN ANY WAY OUT OF THE USE
  73:D:/iot/felix2/targets/Cloud_STM32L431_BearPi/Drivers/STM32L4xx_HAL_Driver/Src\stm32l4xx_hal_flash_ex.c ****   * OF THIS SOFTWARE, EVEN IF ADVISED OF THE POSSIBILITY OF SUCH DAMAGE.
  74:D:/iot/felix2/targets/Cloud_STM32L431_BearPi/Drivers/STM32L4xx_HAL_Driver/Src\stm32l4xx_hal_flash_ex.c ****   *
  75:D:/iot/felix2/targets/Cloud_STM32L431_BearPi/Drivers/STM32L4xx_HAL_Driver/Src\stm32l4xx_hal_flash_ex.c ****   ******************************************************************************
  76:D:/iot/felix2/targets/Cloud_STM32L431_BearPi/Drivers/STM32L4xx_HAL_Driver/Src\stm32l4xx_hal_flash_ex.c ****   */
  77:D:/iot/felix2/targets/Cloud_STM32L431_BearPi/Drivers/STM32L4xx_HAL_Driver/Src\stm32l4xx_hal_flash_ex.c **** 
  78:D:/iot/felix2/targets/Cloud_STM32L431_BearPi/Drivers/STM32L4xx_HAL_Driver/Src\stm32l4xx_hal_flash_ex.c **** /* Includes ------------------------------------------------------------------*/
  79:D:/iot/felix2/targets/Cloud_STM32L431_BearPi/Drivers/STM32L4xx_HAL_Driver/Src\stm32l4xx_hal_flash_ex.c **** #include "stm32l4xx_hal.h"
  80:D:/iot/felix2/targets/Cloud_STM32L431_BearPi/Drivers/STM32L4xx_HAL_Driver/Src\stm32l4xx_hal_flash_ex.c **** 
  81:D:/iot/felix2/targets/Cloud_STM32L431_BearPi/Drivers/STM32L4xx_HAL_Driver/Src\stm32l4xx_hal_flash_ex.c **** /** @addtogroup STM32L4xx_HAL_Driver
  82:D:/iot/felix2/targets/Cloud_STM32L431_BearPi/Drivers/STM32L4xx_HAL_Driver/Src\stm32l4xx_hal_flash_ex.c ****   * @{
  83:D:/iot/felix2/targets/Cloud_STM32L431_BearPi/Drivers/STM32L4xx_HAL_Driver/Src\stm32l4xx_hal_flash_ex.c ****   */
  84:D:/iot/felix2/targets/Cloud_STM32L431_BearPi/Drivers/STM32L4xx_HAL_Driver/Src\stm32l4xx_hal_flash_ex.c **** 
  85:D:/iot/felix2/targets/Cloud_STM32L431_BearPi/Drivers/STM32L4xx_HAL_Driver/Src\stm32l4xx_hal_flash_ex.c **** /** @defgroup FLASHEx FLASHEx
  86:D:/iot/felix2/targets/Cloud_STM32L431_BearPi/Drivers/STM32L4xx_HAL_Driver/Src\stm32l4xx_hal_flash_ex.c ****   * @brief FLASH Extended HAL module driver
  87:D:/iot/felix2/targets/Cloud_STM32L431_BearPi/Drivers/STM32L4xx_HAL_Driver/Src\stm32l4xx_hal_flash_ex.c ****   * @{
  88:D:/iot/felix2/targets/Cloud_STM32L431_BearPi/Drivers/STM32L4xx_HAL_Driver/Src\stm32l4xx_hal_flash_ex.c ****   */
ARM GAS  C:\Users\91458\AppData\Local\Temp\cct4oxZw.s 			page 3


  89:D:/iot/felix2/targets/Cloud_STM32L431_BearPi/Drivers/STM32L4xx_HAL_Driver/Src\stm32l4xx_hal_flash_ex.c **** 
  90:D:/iot/felix2/targets/Cloud_STM32L431_BearPi/Drivers/STM32L4xx_HAL_Driver/Src\stm32l4xx_hal_flash_ex.c **** #ifdef HAL_FLASH_MODULE_ENABLED
  91:D:/iot/felix2/targets/Cloud_STM32L431_BearPi/Drivers/STM32L4xx_HAL_Driver/Src\stm32l4xx_hal_flash_ex.c **** 
  92:D:/iot/felix2/targets/Cloud_STM32L431_BearPi/Drivers/STM32L4xx_HAL_Driver/Src\stm32l4xx_hal_flash_ex.c **** /* Private typedef -----------------------------------------------------------*/
  93:D:/iot/felix2/targets/Cloud_STM32L431_BearPi/Drivers/STM32L4xx_HAL_Driver/Src\stm32l4xx_hal_flash_ex.c **** /* Private define ------------------------------------------------------------*/ 
  94:D:/iot/felix2/targets/Cloud_STM32L431_BearPi/Drivers/STM32L4xx_HAL_Driver/Src\stm32l4xx_hal_flash_ex.c **** /* Private macro -------------------------------------------------------------*/
  95:D:/iot/felix2/targets/Cloud_STM32L431_BearPi/Drivers/STM32L4xx_HAL_Driver/Src\stm32l4xx_hal_flash_ex.c **** /* Private variables ---------------------------------------------------------*/
  96:D:/iot/felix2/targets/Cloud_STM32L431_BearPi/Drivers/STM32L4xx_HAL_Driver/Src\stm32l4xx_hal_flash_ex.c **** /** @defgroup FLASHEx_Private_Variables FLASHEx Private Variables
  97:D:/iot/felix2/targets/Cloud_STM32L431_BearPi/Drivers/STM32L4xx_HAL_Driver/Src\stm32l4xx_hal_flash_ex.c ****  * @{
  98:D:/iot/felix2/targets/Cloud_STM32L431_BearPi/Drivers/STM32L4xx_HAL_Driver/Src\stm32l4xx_hal_flash_ex.c ****  */
  99:D:/iot/felix2/targets/Cloud_STM32L431_BearPi/Drivers/STM32L4xx_HAL_Driver/Src\stm32l4xx_hal_flash_ex.c **** extern FLASH_ProcessTypeDef pFlash;
 100:D:/iot/felix2/targets/Cloud_STM32L431_BearPi/Drivers/STM32L4xx_HAL_Driver/Src\stm32l4xx_hal_flash_ex.c **** /**
 101:D:/iot/felix2/targets/Cloud_STM32L431_BearPi/Drivers/STM32L4xx_HAL_Driver/Src\stm32l4xx_hal_flash_ex.c ****   * @}
 102:D:/iot/felix2/targets/Cloud_STM32L431_BearPi/Drivers/STM32L4xx_HAL_Driver/Src\stm32l4xx_hal_flash_ex.c ****   */
 103:D:/iot/felix2/targets/Cloud_STM32L431_BearPi/Drivers/STM32L4xx_HAL_Driver/Src\stm32l4xx_hal_flash_ex.c **** 
 104:D:/iot/felix2/targets/Cloud_STM32L431_BearPi/Drivers/STM32L4xx_HAL_Driver/Src\stm32l4xx_hal_flash_ex.c **** /* Private function prototypes -----------------------------------------------*/
 105:D:/iot/felix2/targets/Cloud_STM32L431_BearPi/Drivers/STM32L4xx_HAL_Driver/Src\stm32l4xx_hal_flash_ex.c **** /** @defgroup FLASHEx_Private_Functions FLASHEx Private Functions
 106:D:/iot/felix2/targets/Cloud_STM32L431_BearPi/Drivers/STM32L4xx_HAL_Driver/Src\stm32l4xx_hal_flash_ex.c ****  * @{
 107:D:/iot/felix2/targets/Cloud_STM32L431_BearPi/Drivers/STM32L4xx_HAL_Driver/Src\stm32l4xx_hal_flash_ex.c ****  */
 108:D:/iot/felix2/targets/Cloud_STM32L431_BearPi/Drivers/STM32L4xx_HAL_Driver/Src\stm32l4xx_hal_flash_ex.c **** extern HAL_StatusTypeDef FLASH_WaitForLastOperation(uint32_t Timeout);
 109:D:/iot/felix2/targets/Cloud_STM32L431_BearPi/Drivers/STM32L4xx_HAL_Driver/Src\stm32l4xx_hal_flash_ex.c **** void                     FLASH_PageErase(uint32_t Page, uint32_t Banks);
 110:D:/iot/felix2/targets/Cloud_STM32L431_BearPi/Drivers/STM32L4xx_HAL_Driver/Src\stm32l4xx_hal_flash_ex.c **** static void              FLASH_MassErase(uint32_t Banks);
 111:D:/iot/felix2/targets/Cloud_STM32L431_BearPi/Drivers/STM32L4xx_HAL_Driver/Src\stm32l4xx_hal_flash_ex.c **** void                     FLASH_FlushCaches(void);
 112:D:/iot/felix2/targets/Cloud_STM32L431_BearPi/Drivers/STM32L4xx_HAL_Driver/Src\stm32l4xx_hal_flash_ex.c **** static HAL_StatusTypeDef FLASH_OB_WRPConfig(uint32_t WRPArea, uint32_t WRPStartOffset, uint32_t WRD
 113:D:/iot/felix2/targets/Cloud_STM32L431_BearPi/Drivers/STM32L4xx_HAL_Driver/Src\stm32l4xx_hal_flash_ex.c **** static HAL_StatusTypeDef FLASH_OB_RDPConfig(uint32_t RDPLevel);
 114:D:/iot/felix2/targets/Cloud_STM32L431_BearPi/Drivers/STM32L4xx_HAL_Driver/Src\stm32l4xx_hal_flash_ex.c **** static HAL_StatusTypeDef FLASH_OB_UserConfig(uint32_t UserType, uint32_t UserConfig);
 115:D:/iot/felix2/targets/Cloud_STM32L431_BearPi/Drivers/STM32L4xx_HAL_Driver/Src\stm32l4xx_hal_flash_ex.c **** static HAL_StatusTypeDef FLASH_OB_PCROPConfig(uint32_t PCROPConfig, uint32_t PCROPStartAddr, uint32
 116:D:/iot/felix2/targets/Cloud_STM32L431_BearPi/Drivers/STM32L4xx_HAL_Driver/Src\stm32l4xx_hal_flash_ex.c **** static void              FLASH_OB_GetWRP(uint32_t WRPArea, uint32_t * WRPStartOffset, uint32_t * WR
 117:D:/iot/felix2/targets/Cloud_STM32L431_BearPi/Drivers/STM32L4xx_HAL_Driver/Src\stm32l4xx_hal_flash_ex.c **** static uint32_t          FLASH_OB_GetRDP(void);
 118:D:/iot/felix2/targets/Cloud_STM32L431_BearPi/Drivers/STM32L4xx_HAL_Driver/Src\stm32l4xx_hal_flash_ex.c **** static uint32_t          FLASH_OB_GetUser(void);
 119:D:/iot/felix2/targets/Cloud_STM32L431_BearPi/Drivers/STM32L4xx_HAL_Driver/Src\stm32l4xx_hal_flash_ex.c **** static void              FLASH_OB_GetPCROP(uint32_t * PCROPConfig, uint32_t * PCROPStartAddr, uint3
 120:D:/iot/felix2/targets/Cloud_STM32L431_BearPi/Drivers/STM32L4xx_HAL_Driver/Src\stm32l4xx_hal_flash_ex.c **** /**
 121:D:/iot/felix2/targets/Cloud_STM32L431_BearPi/Drivers/STM32L4xx_HAL_Driver/Src\stm32l4xx_hal_flash_ex.c ****   * @}
 122:D:/iot/felix2/targets/Cloud_STM32L431_BearPi/Drivers/STM32L4xx_HAL_Driver/Src\stm32l4xx_hal_flash_ex.c ****   */
 123:D:/iot/felix2/targets/Cloud_STM32L431_BearPi/Drivers/STM32L4xx_HAL_Driver/Src\stm32l4xx_hal_flash_ex.c **** 
 124:D:/iot/felix2/targets/Cloud_STM32L431_BearPi/Drivers/STM32L4xx_HAL_Driver/Src\stm32l4xx_hal_flash_ex.c **** /* Exported functions -------------------------------------------------------*/
 125:D:/iot/felix2/targets/Cloud_STM32L431_BearPi/Drivers/STM32L4xx_HAL_Driver/Src\stm32l4xx_hal_flash_ex.c **** /** @defgroup FLASHEx_Exported_Functions FLASHEx Exported Functions
 126:D:/iot/felix2/targets/Cloud_STM32L431_BearPi/Drivers/STM32L4xx_HAL_Driver/Src\stm32l4xx_hal_flash_ex.c ****   * @{
 127:D:/iot/felix2/targets/Cloud_STM32L431_BearPi/Drivers/STM32L4xx_HAL_Driver/Src\stm32l4xx_hal_flash_ex.c ****   */ 
 128:D:/iot/felix2/targets/Cloud_STM32L431_BearPi/Drivers/STM32L4xx_HAL_Driver/Src\stm32l4xx_hal_flash_ex.c **** 
 129:D:/iot/felix2/targets/Cloud_STM32L431_BearPi/Drivers/STM32L4xx_HAL_Driver/Src\stm32l4xx_hal_flash_ex.c **** /** @defgroup FLASHEx_Exported_Functions_Group1 Extended IO operation functions
 130:D:/iot/felix2/targets/Cloud_STM32L431_BearPi/Drivers/STM32L4xx_HAL_Driver/Src\stm32l4xx_hal_flash_ex.c ****  *  @brief   Extended IO operation functions 
 131:D:/iot/felix2/targets/Cloud_STM32L431_BearPi/Drivers/STM32L4xx_HAL_Driver/Src\stm32l4xx_hal_flash_ex.c ****  *
 132:D:/iot/felix2/targets/Cloud_STM32L431_BearPi/Drivers/STM32L4xx_HAL_Driver/Src\stm32l4xx_hal_flash_ex.c **** @verbatim   
 133:D:/iot/felix2/targets/Cloud_STM32L431_BearPi/Drivers/STM32L4xx_HAL_Driver/Src\stm32l4xx_hal_flash_ex.c ****  ===============================================================================
 134:D:/iot/felix2/targets/Cloud_STM32L431_BearPi/Drivers/STM32L4xx_HAL_Driver/Src\stm32l4xx_hal_flash_ex.c ****                 ##### Extended programming operation functions #####
 135:D:/iot/felix2/targets/Cloud_STM32L431_BearPi/Drivers/STM32L4xx_HAL_Driver/Src\stm32l4xx_hal_flash_ex.c ****  ===============================================================================
 136:D:/iot/felix2/targets/Cloud_STM32L431_BearPi/Drivers/STM32L4xx_HAL_Driver/Src\stm32l4xx_hal_flash_ex.c ****     [..]
 137:D:/iot/felix2/targets/Cloud_STM32L431_BearPi/Drivers/STM32L4xx_HAL_Driver/Src\stm32l4xx_hal_flash_ex.c ****     This subsection provides a set of functions allowing to manage the Extended FLASH 
 138:D:/iot/felix2/targets/Cloud_STM32L431_BearPi/Drivers/STM32L4xx_HAL_Driver/Src\stm32l4xx_hal_flash_ex.c ****     programming operations Operations.
 139:D:/iot/felix2/targets/Cloud_STM32L431_BearPi/Drivers/STM32L4xx_HAL_Driver/Src\stm32l4xx_hal_flash_ex.c ****  
 140:D:/iot/felix2/targets/Cloud_STM32L431_BearPi/Drivers/STM32L4xx_HAL_Driver/Src\stm32l4xx_hal_flash_ex.c **** @endverbatim
 141:D:/iot/felix2/targets/Cloud_STM32L431_BearPi/Drivers/STM32L4xx_HAL_Driver/Src\stm32l4xx_hal_flash_ex.c ****   * @{
 142:D:/iot/felix2/targets/Cloud_STM32L431_BearPi/Drivers/STM32L4xx_HAL_Driver/Src\stm32l4xx_hal_flash_ex.c ****   */
 143:D:/iot/felix2/targets/Cloud_STM32L431_BearPi/Drivers/STM32L4xx_HAL_Driver/Src\stm32l4xx_hal_flash_ex.c **** /**
 144:D:/iot/felix2/targets/Cloud_STM32L431_BearPi/Drivers/STM32L4xx_HAL_Driver/Src\stm32l4xx_hal_flash_ex.c ****   * @brief  Perform a mass erase or erase the specified FLASH memory pages.
 145:D:/iot/felix2/targets/Cloud_STM32L431_BearPi/Drivers/STM32L4xx_HAL_Driver/Src\stm32l4xx_hal_flash_ex.c ****   * @param[in]  pEraseInit: pointer to an FLASH_EraseInitTypeDef structure that
ARM GAS  C:\Users\91458\AppData\Local\Temp\cct4oxZw.s 			page 4


 146:D:/iot/felix2/targets/Cloud_STM32L431_BearPi/Drivers/STM32L4xx_HAL_Driver/Src\stm32l4xx_hal_flash_ex.c ****   *         contains the configuration information for the erasing.
 147:D:/iot/felix2/targets/Cloud_STM32L431_BearPi/Drivers/STM32L4xx_HAL_Driver/Src\stm32l4xx_hal_flash_ex.c ****   * 
 148:D:/iot/felix2/targets/Cloud_STM32L431_BearPi/Drivers/STM32L4xx_HAL_Driver/Src\stm32l4xx_hal_flash_ex.c ****   * @param[out]  PageError  : pointer to variable that contains the configuration 
 149:D:/iot/felix2/targets/Cloud_STM32L431_BearPi/Drivers/STM32L4xx_HAL_Driver/Src\stm32l4xx_hal_flash_ex.c ****   *         information on faulty page in case of error (0xFFFFFFFF means that all 
 150:D:/iot/felix2/targets/Cloud_STM32L431_BearPi/Drivers/STM32L4xx_HAL_Driver/Src\stm32l4xx_hal_flash_ex.c ****   *         the pages have been correctly erased)
 151:D:/iot/felix2/targets/Cloud_STM32L431_BearPi/Drivers/STM32L4xx_HAL_Driver/Src\stm32l4xx_hal_flash_ex.c ****   * 
 152:D:/iot/felix2/targets/Cloud_STM32L431_BearPi/Drivers/STM32L4xx_HAL_Driver/Src\stm32l4xx_hal_flash_ex.c ****   * @retval HAL Status
 153:D:/iot/felix2/targets/Cloud_STM32L431_BearPi/Drivers/STM32L4xx_HAL_Driver/Src\stm32l4xx_hal_flash_ex.c ****   */
 154:D:/iot/felix2/targets/Cloud_STM32L431_BearPi/Drivers/STM32L4xx_HAL_Driver/Src\stm32l4xx_hal_flash_ex.c **** HAL_StatusTypeDef HAL_FLASHEx_Erase(FLASH_EraseInitTypeDef *pEraseInit, uint32_t *PageError)
 155:D:/iot/felix2/targets/Cloud_STM32L431_BearPi/Drivers/STM32L4xx_HAL_Driver/Src\stm32l4xx_hal_flash_ex.c **** {
  28              		.loc 1 155 0
  29              		.cfi_startproc
  30              		@ args = 0, pretend = 0, frame = 16
  31              		@ frame_needed = 1, uses_anonymous_args = 0
  32 0000 80B5     		push	{r7, lr}
  33              	.LCFI0:
  34              		.cfi_def_cfa_offset 8
  35              		.cfi_offset 7, -8
  36              		.cfi_offset 14, -4
  37 0002 84B0     		sub	sp, sp, #16
  38              	.LCFI1:
  39              		.cfi_def_cfa_offset 24
  40 0004 00AF     		add	r7, sp, #0
  41              	.LCFI2:
  42              		.cfi_def_cfa_register 7
  43 0006 7860     		str	r0, [r7, #4]
  44 0008 3960     		str	r1, [r7]
 156:D:/iot/felix2/targets/Cloud_STM32L431_BearPi/Drivers/STM32L4xx_HAL_Driver/Src\stm32l4xx_hal_flash_ex.c ****   HAL_StatusTypeDef status;
 157:D:/iot/felix2/targets/Cloud_STM32L431_BearPi/Drivers/STM32L4xx_HAL_Driver/Src\stm32l4xx_hal_flash_ex.c ****   uint32_t page_index;
 158:D:/iot/felix2/targets/Cloud_STM32L431_BearPi/Drivers/STM32L4xx_HAL_Driver/Src\stm32l4xx_hal_flash_ex.c **** 
 159:D:/iot/felix2/targets/Cloud_STM32L431_BearPi/Drivers/STM32L4xx_HAL_Driver/Src\stm32l4xx_hal_flash_ex.c ****   /* Process Locked */
 160:D:/iot/felix2/targets/Cloud_STM32L431_BearPi/Drivers/STM32L4xx_HAL_Driver/Src\stm32l4xx_hal_flash_ex.c ****   __HAL_LOCK(&pFlash);
  45              		.loc 1 160 0
  46 000a 4B4B     		ldr	r3, .L15
  47 000c 1B78     		ldrb	r3, [r3]	@ zero_extendqisi2
  48 000e 012B     		cmp	r3, #1
  49 0010 01D1     		bne	.L2
  50              		.loc 1 160 0 is_stmt 0 discriminator 1
  51 0012 0223     		movs	r3, #2
  52 0014 8BE0     		b	.L3
  53              	.L2:
  54              		.loc 1 160 0 discriminator 2
  55 0016 484B     		ldr	r3, .L15
  56 0018 0122     		movs	r2, #1
  57 001a 1A70     		strb	r2, [r3]
 161:D:/iot/felix2/targets/Cloud_STM32L431_BearPi/Drivers/STM32L4xx_HAL_Driver/Src\stm32l4xx_hal_flash_ex.c **** 
 162:D:/iot/felix2/targets/Cloud_STM32L431_BearPi/Drivers/STM32L4xx_HAL_Driver/Src\stm32l4xx_hal_flash_ex.c ****   /* Check the parameters */
 163:D:/iot/felix2/targets/Cloud_STM32L431_BearPi/Drivers/STM32L4xx_HAL_Driver/Src\stm32l4xx_hal_flash_ex.c ****   assert_param(IS_FLASH_TYPEERASE(pEraseInit->TypeErase));
 164:D:/iot/felix2/targets/Cloud_STM32L431_BearPi/Drivers/STM32L4xx_HAL_Driver/Src\stm32l4xx_hal_flash_ex.c **** 
 165:D:/iot/felix2/targets/Cloud_STM32L431_BearPi/Drivers/STM32L4xx_HAL_Driver/Src\stm32l4xx_hal_flash_ex.c ****   /* Wait for last operation to be completed */
 166:D:/iot/felix2/targets/Cloud_STM32L431_BearPi/Drivers/STM32L4xx_HAL_Driver/Src\stm32l4xx_hal_flash_ex.c ****   status = FLASH_WaitForLastOperation((uint32_t)FLASH_TIMEOUT_VALUE);
  58              		.loc 1 166 0 is_stmt 1 discriminator 2
  59 001c 4CF25030 		movw	r0, #50000
  60 0020 FFF7FEFF 		bl	FLASH_WaitForLastOperation
  61 0024 0346     		mov	r3, r0
  62 0026 FB73     		strb	r3, [r7, #15]
 167:D:/iot/felix2/targets/Cloud_STM32L431_BearPi/Drivers/STM32L4xx_HAL_Driver/Src\stm32l4xx_hal_flash_ex.c **** 
ARM GAS  C:\Users\91458\AppData\Local\Temp\cct4oxZw.s 			page 5


 168:D:/iot/felix2/targets/Cloud_STM32L431_BearPi/Drivers/STM32L4xx_HAL_Driver/Src\stm32l4xx_hal_flash_ex.c ****   if (status == HAL_OK)
  63              		.loc 1 168 0 discriminator 2
  64 0028 FB7B     		ldrb	r3, [r7, #15]	@ zero_extendqisi2
  65 002a 002B     		cmp	r3, #0
  66 002c 7BD1     		bne	.L4
 169:D:/iot/felix2/targets/Cloud_STM32L431_BearPi/Drivers/STM32L4xx_HAL_Driver/Src\stm32l4xx_hal_flash_ex.c ****   {
 170:D:/iot/felix2/targets/Cloud_STM32L431_BearPi/Drivers/STM32L4xx_HAL_Driver/Src\stm32l4xx_hal_flash_ex.c ****     pFlash.ErrorCode = HAL_FLASH_ERROR_NONE;
  67              		.loc 1 170 0
  68 002e 424B     		ldr	r3, .L15
  69 0030 0022     		movs	r2, #0
  70 0032 5A60     		str	r2, [r3, #4]
 171:D:/iot/felix2/targets/Cloud_STM32L431_BearPi/Drivers/STM32L4xx_HAL_Driver/Src\stm32l4xx_hal_flash_ex.c **** 
 172:D:/iot/felix2/targets/Cloud_STM32L431_BearPi/Drivers/STM32L4xx_HAL_Driver/Src\stm32l4xx_hal_flash_ex.c ****     /* Deactivate the cache if they are activated to avoid data misbehavior */
 173:D:/iot/felix2/targets/Cloud_STM32L431_BearPi/Drivers/STM32L4xx_HAL_Driver/Src\stm32l4xx_hal_flash_ex.c ****     if(READ_BIT(FLASH->ACR, FLASH_ACR_ICEN) != 0U)
  71              		.loc 1 173 0
  72 0034 414B     		ldr	r3, .L15+4
  73 0036 1B68     		ldr	r3, [r3]
  74 0038 03F40073 		and	r3, r3, #512
  75 003c 002B     		cmp	r3, #0
  76 003e 19D0     		beq	.L5
 174:D:/iot/felix2/targets/Cloud_STM32L431_BearPi/Drivers/STM32L4xx_HAL_Driver/Src\stm32l4xx_hal_flash_ex.c ****     {
 175:D:/iot/felix2/targets/Cloud_STM32L431_BearPi/Drivers/STM32L4xx_HAL_Driver/Src\stm32l4xx_hal_flash_ex.c ****       /* Disable instruction cache  */
 176:D:/iot/felix2/targets/Cloud_STM32L431_BearPi/Drivers/STM32L4xx_HAL_Driver/Src\stm32l4xx_hal_flash_ex.c ****       __HAL_FLASH_INSTRUCTION_CACHE_DISABLE();
  77              		.loc 1 176 0
  78 0040 3E4B     		ldr	r3, .L15+4
  79 0042 1B68     		ldr	r3, [r3]
  80 0044 3D4A     		ldr	r2, .L15+4
  81 0046 23F40073 		bic	r3, r3, #512
  82 004a 1360     		str	r3, [r2]
 177:D:/iot/felix2/targets/Cloud_STM32L431_BearPi/Drivers/STM32L4xx_HAL_Driver/Src\stm32l4xx_hal_flash_ex.c **** 
 178:D:/iot/felix2/targets/Cloud_STM32L431_BearPi/Drivers/STM32L4xx_HAL_Driver/Src\stm32l4xx_hal_flash_ex.c ****       if(READ_BIT(FLASH->ACR, FLASH_ACR_DCEN) != 0U)
  83              		.loc 1 178 0
  84 004c 3B4B     		ldr	r3, .L15+4
  85 004e 1B68     		ldr	r3, [r3]
  86 0050 03F48063 		and	r3, r3, #1024
  87 0054 002B     		cmp	r3, #0
  88 0056 09D0     		beq	.L6
 179:D:/iot/felix2/targets/Cloud_STM32L431_BearPi/Drivers/STM32L4xx_HAL_Driver/Src\stm32l4xx_hal_flash_ex.c ****       {
 180:D:/iot/felix2/targets/Cloud_STM32L431_BearPi/Drivers/STM32L4xx_HAL_Driver/Src\stm32l4xx_hal_flash_ex.c ****         /* Disable data cache  */
 181:D:/iot/felix2/targets/Cloud_STM32L431_BearPi/Drivers/STM32L4xx_HAL_Driver/Src\stm32l4xx_hal_flash_ex.c ****         __HAL_FLASH_DATA_CACHE_DISABLE();
  89              		.loc 1 181 0
  90 0058 384B     		ldr	r3, .L15+4
  91 005a 1B68     		ldr	r3, [r3]
  92 005c 374A     		ldr	r2, .L15+4
  93 005e 23F48063 		bic	r3, r3, #1024
  94 0062 1360     		str	r3, [r2]
 182:D:/iot/felix2/targets/Cloud_STM32L431_BearPi/Drivers/STM32L4xx_HAL_Driver/Src\stm32l4xx_hal_flash_ex.c ****         pFlash.CacheToReactivate = FLASH_CACHE_ICACHE_DCACHE_ENABLED;
  95              		.loc 1 182 0
  96 0064 344B     		ldr	r3, .L15
  97 0066 0322     		movs	r2, #3
  98 0068 1A77     		strb	r2, [r3, #28]
  99 006a 16E0     		b	.L8
 100              	.L6:
 183:D:/iot/felix2/targets/Cloud_STM32L431_BearPi/Drivers/STM32L4xx_HAL_Driver/Src\stm32l4xx_hal_flash_ex.c ****       }
 184:D:/iot/felix2/targets/Cloud_STM32L431_BearPi/Drivers/STM32L4xx_HAL_Driver/Src\stm32l4xx_hal_flash_ex.c ****       else
 185:D:/iot/felix2/targets/Cloud_STM32L431_BearPi/Drivers/STM32L4xx_HAL_Driver/Src\stm32l4xx_hal_flash_ex.c ****       {
 186:D:/iot/felix2/targets/Cloud_STM32L431_BearPi/Drivers/STM32L4xx_HAL_Driver/Src\stm32l4xx_hal_flash_ex.c ****         pFlash.CacheToReactivate = FLASH_CACHE_ICACHE_ENABLED;
ARM GAS  C:\Users\91458\AppData\Local\Temp\cct4oxZw.s 			page 6


 101              		.loc 1 186 0
 102 006c 324B     		ldr	r3, .L15
 103 006e 0122     		movs	r2, #1
 104 0070 1A77     		strb	r2, [r3, #28]
 105 0072 12E0     		b	.L8
 106              	.L5:
 187:D:/iot/felix2/targets/Cloud_STM32L431_BearPi/Drivers/STM32L4xx_HAL_Driver/Src\stm32l4xx_hal_flash_ex.c ****       }
 188:D:/iot/felix2/targets/Cloud_STM32L431_BearPi/Drivers/STM32L4xx_HAL_Driver/Src\stm32l4xx_hal_flash_ex.c ****     }
 189:D:/iot/felix2/targets/Cloud_STM32L431_BearPi/Drivers/STM32L4xx_HAL_Driver/Src\stm32l4xx_hal_flash_ex.c ****     else if(READ_BIT(FLASH->ACR, FLASH_ACR_DCEN) != 0U)
 107              		.loc 1 189 0
 108 0074 314B     		ldr	r3, .L15+4
 109 0076 1B68     		ldr	r3, [r3]
 110 0078 03F48063 		and	r3, r3, #1024
 111 007c 002B     		cmp	r3, #0
 112 007e 09D0     		beq	.L9
 190:D:/iot/felix2/targets/Cloud_STM32L431_BearPi/Drivers/STM32L4xx_HAL_Driver/Src\stm32l4xx_hal_flash_ex.c ****     {
 191:D:/iot/felix2/targets/Cloud_STM32L431_BearPi/Drivers/STM32L4xx_HAL_Driver/Src\stm32l4xx_hal_flash_ex.c ****       /* Disable data cache  */
 192:D:/iot/felix2/targets/Cloud_STM32L431_BearPi/Drivers/STM32L4xx_HAL_Driver/Src\stm32l4xx_hal_flash_ex.c ****       __HAL_FLASH_DATA_CACHE_DISABLE();
 113              		.loc 1 192 0
 114 0080 2E4B     		ldr	r3, .L15+4
 115 0082 1B68     		ldr	r3, [r3]
 116 0084 2D4A     		ldr	r2, .L15+4
 117 0086 23F48063 		bic	r3, r3, #1024
 118 008a 1360     		str	r3, [r2]
 193:D:/iot/felix2/targets/Cloud_STM32L431_BearPi/Drivers/STM32L4xx_HAL_Driver/Src\stm32l4xx_hal_flash_ex.c ****       pFlash.CacheToReactivate = FLASH_CACHE_DCACHE_ENABLED;
 119              		.loc 1 193 0
 120 008c 2A4B     		ldr	r3, .L15
 121 008e 0222     		movs	r2, #2
 122 0090 1A77     		strb	r2, [r3, #28]
 123 0092 02E0     		b	.L8
 124              	.L9:
 194:D:/iot/felix2/targets/Cloud_STM32L431_BearPi/Drivers/STM32L4xx_HAL_Driver/Src\stm32l4xx_hal_flash_ex.c ****     }
 195:D:/iot/felix2/targets/Cloud_STM32L431_BearPi/Drivers/STM32L4xx_HAL_Driver/Src\stm32l4xx_hal_flash_ex.c ****     else
 196:D:/iot/felix2/targets/Cloud_STM32L431_BearPi/Drivers/STM32L4xx_HAL_Driver/Src\stm32l4xx_hal_flash_ex.c ****     {
 197:D:/iot/felix2/targets/Cloud_STM32L431_BearPi/Drivers/STM32L4xx_HAL_Driver/Src\stm32l4xx_hal_flash_ex.c ****       pFlash.CacheToReactivate = FLASH_CACHE_DISABLED;
 125              		.loc 1 197 0
 126 0094 284B     		ldr	r3, .L15
 127 0096 0022     		movs	r2, #0
 128 0098 1A77     		strb	r2, [r3, #28]
 129              	.L8:
 198:D:/iot/felix2/targets/Cloud_STM32L431_BearPi/Drivers/STM32L4xx_HAL_Driver/Src\stm32l4xx_hal_flash_ex.c ****     }
 199:D:/iot/felix2/targets/Cloud_STM32L431_BearPi/Drivers/STM32L4xx_HAL_Driver/Src\stm32l4xx_hal_flash_ex.c **** 
 200:D:/iot/felix2/targets/Cloud_STM32L431_BearPi/Drivers/STM32L4xx_HAL_Driver/Src\stm32l4xx_hal_flash_ex.c ****     if (pEraseInit->TypeErase == FLASH_TYPEERASE_MASSERASE)
 130              		.loc 1 200 0
 131 009a 7B68     		ldr	r3, [r7, #4]
 132 009c 1B68     		ldr	r3, [r3]
 133 009e 012B     		cmp	r3, #1
 134 00a0 11D1     		bne	.L10
 201:D:/iot/felix2/targets/Cloud_STM32L431_BearPi/Drivers/STM32L4xx_HAL_Driver/Src\stm32l4xx_hal_flash_ex.c ****     {
 202:D:/iot/felix2/targets/Cloud_STM32L431_BearPi/Drivers/STM32L4xx_HAL_Driver/Src\stm32l4xx_hal_flash_ex.c ****       /* Mass erase to be done */
 203:D:/iot/felix2/targets/Cloud_STM32L431_BearPi/Drivers/STM32L4xx_HAL_Driver/Src\stm32l4xx_hal_flash_ex.c ****       FLASH_MassErase(pEraseInit->Banks);
 135              		.loc 1 203 0
 136 00a2 7B68     		ldr	r3, [r7, #4]
 137 00a4 5B68     		ldr	r3, [r3, #4]
 138 00a6 1846     		mov	r0, r3
 139 00a8 FFF7FEFF 		bl	FLASH_MassErase
 204:D:/iot/felix2/targets/Cloud_STM32L431_BearPi/Drivers/STM32L4xx_HAL_Driver/Src\stm32l4xx_hal_flash_ex.c **** 
ARM GAS  C:\Users\91458\AppData\Local\Temp\cct4oxZw.s 			page 7


 205:D:/iot/felix2/targets/Cloud_STM32L431_BearPi/Drivers/STM32L4xx_HAL_Driver/Src\stm32l4xx_hal_flash_ex.c ****       /* Wait for last operation to be completed */
 206:D:/iot/felix2/targets/Cloud_STM32L431_BearPi/Drivers/STM32L4xx_HAL_Driver/Src\stm32l4xx_hal_flash_ex.c ****       status = FLASH_WaitForLastOperation((uint32_t)FLASH_TIMEOUT_VALUE);
 140              		.loc 1 206 0
 141 00ac 4CF25030 		movw	r0, #50000
 142 00b0 FFF7FEFF 		bl	FLASH_WaitForLastOperation
 143 00b4 0346     		mov	r3, r0
 144 00b6 FB73     		strb	r3, [r7, #15]
 207:D:/iot/felix2/targets/Cloud_STM32L431_BearPi/Drivers/STM32L4xx_HAL_Driver/Src\stm32l4xx_hal_flash_ex.c **** 
 208:D:/iot/felix2/targets/Cloud_STM32L431_BearPi/Drivers/STM32L4xx_HAL_Driver/Src\stm32l4xx_hal_flash_ex.c **** #if defined (STM32L471xx) || defined (STM32L475xx) || defined (STM32L476xx) || defined (STM32L485xx
 209:D:/iot/felix2/targets/Cloud_STM32L431_BearPi/Drivers/STM32L4xx_HAL_Driver/Src\stm32l4xx_hal_flash_ex.c ****     defined (STM32L496xx) || defined (STM32L4A6xx) || \
 210:D:/iot/felix2/targets/Cloud_STM32L431_BearPi/Drivers/STM32L4xx_HAL_Driver/Src\stm32l4xx_hal_flash_ex.c ****     defined (STM32L4R5xx) || defined (STM32L4R7xx) || defined (STM32L4R9xx) || defined (STM32L4S5xx
 211:D:/iot/felix2/targets/Cloud_STM32L431_BearPi/Drivers/STM32L4xx_HAL_Driver/Src\stm32l4xx_hal_flash_ex.c ****       /* If the erase operation is completed, disable the MER1 and MER2 Bits */
 212:D:/iot/felix2/targets/Cloud_STM32L431_BearPi/Drivers/STM32L4xx_HAL_Driver/Src\stm32l4xx_hal_flash_ex.c ****       CLEAR_BIT(FLASH->CR, (FLASH_CR_MER1 | FLASH_CR_MER2));
 213:D:/iot/felix2/targets/Cloud_STM32L431_BearPi/Drivers/STM32L4xx_HAL_Driver/Src\stm32l4xx_hal_flash_ex.c **** #else
 214:D:/iot/felix2/targets/Cloud_STM32L431_BearPi/Drivers/STM32L4xx_HAL_Driver/Src\stm32l4xx_hal_flash_ex.c ****       /* If the erase operation is completed, disable the MER1 Bit */
 215:D:/iot/felix2/targets/Cloud_STM32L431_BearPi/Drivers/STM32L4xx_HAL_Driver/Src\stm32l4xx_hal_flash_ex.c ****       CLEAR_BIT(FLASH->CR, (FLASH_CR_MER1));
 145              		.loc 1 215 0
 146 00b8 204B     		ldr	r3, .L15+4
 147 00ba 5B69     		ldr	r3, [r3, #20]
 148 00bc 1F4A     		ldr	r2, .L15+4
 149 00be 23F00403 		bic	r3, r3, #4
 150 00c2 5361     		str	r3, [r2, #20]
 151 00c4 2DE0     		b	.L11
 152              	.L10:
 216:D:/iot/felix2/targets/Cloud_STM32L431_BearPi/Drivers/STM32L4xx_HAL_Driver/Src\stm32l4xx_hal_flash_ex.c **** #endif      
 217:D:/iot/felix2/targets/Cloud_STM32L431_BearPi/Drivers/STM32L4xx_HAL_Driver/Src\stm32l4xx_hal_flash_ex.c ****     }
 218:D:/iot/felix2/targets/Cloud_STM32L431_BearPi/Drivers/STM32L4xx_HAL_Driver/Src\stm32l4xx_hal_flash_ex.c ****     else
 219:D:/iot/felix2/targets/Cloud_STM32L431_BearPi/Drivers/STM32L4xx_HAL_Driver/Src\stm32l4xx_hal_flash_ex.c ****     {
 220:D:/iot/felix2/targets/Cloud_STM32L431_BearPi/Drivers/STM32L4xx_HAL_Driver/Src\stm32l4xx_hal_flash_ex.c ****       /*Initialization of PageError variable*/
 221:D:/iot/felix2/targets/Cloud_STM32L431_BearPi/Drivers/STM32L4xx_HAL_Driver/Src\stm32l4xx_hal_flash_ex.c ****       *PageError = 0xFFFFFFFFU;
 153              		.loc 1 221 0
 154 00c6 3B68     		ldr	r3, [r7]
 155 00c8 4FF0FF32 		mov	r2, #-1
 156 00cc 1A60     		str	r2, [r3]
 222:D:/iot/felix2/targets/Cloud_STM32L431_BearPi/Drivers/STM32L4xx_HAL_Driver/Src\stm32l4xx_hal_flash_ex.c ****       
 223:D:/iot/felix2/targets/Cloud_STM32L431_BearPi/Drivers/STM32L4xx_HAL_Driver/Src\stm32l4xx_hal_flash_ex.c ****       for(page_index = pEraseInit->Page; page_index < (pEraseInit->Page + pEraseInit->NbPages); pag
 157              		.loc 1 223 0
 158 00ce 7B68     		ldr	r3, [r7, #4]
 159 00d0 9B68     		ldr	r3, [r3, #8]
 160 00d2 BB60     		str	r3, [r7, #8]
 161 00d4 1DE0     		b	.L12
 162              	.L14:
 224:D:/iot/felix2/targets/Cloud_STM32L431_BearPi/Drivers/STM32L4xx_HAL_Driver/Src\stm32l4xx_hal_flash_ex.c ****       {
 225:D:/iot/felix2/targets/Cloud_STM32L431_BearPi/Drivers/STM32L4xx_HAL_Driver/Src\stm32l4xx_hal_flash_ex.c ****         FLASH_PageErase(page_index, pEraseInit->Banks);
 163              		.loc 1 225 0
 164 00d6 7B68     		ldr	r3, [r7, #4]
 165 00d8 5B68     		ldr	r3, [r3, #4]
 166 00da 1946     		mov	r1, r3
 167 00dc B868     		ldr	r0, [r7, #8]
 168 00de FFF7FEFF 		bl	FLASH_PageErase
 226:D:/iot/felix2/targets/Cloud_STM32L431_BearPi/Drivers/STM32L4xx_HAL_Driver/Src\stm32l4xx_hal_flash_ex.c **** 
 227:D:/iot/felix2/targets/Cloud_STM32L431_BearPi/Drivers/STM32L4xx_HAL_Driver/Src\stm32l4xx_hal_flash_ex.c ****         /* Wait for last operation to be completed */
 228:D:/iot/felix2/targets/Cloud_STM32L431_BearPi/Drivers/STM32L4xx_HAL_Driver/Src\stm32l4xx_hal_flash_ex.c ****         status = FLASH_WaitForLastOperation((uint32_t)FLASH_TIMEOUT_VALUE);
 169              		.loc 1 228 0
 170 00e2 4CF25030 		movw	r0, #50000
 171 00e6 FFF7FEFF 		bl	FLASH_WaitForLastOperation
 172 00ea 0346     		mov	r3, r0
ARM GAS  C:\Users\91458\AppData\Local\Temp\cct4oxZw.s 			page 8


 173 00ec FB73     		strb	r3, [r7, #15]
 229:D:/iot/felix2/targets/Cloud_STM32L431_BearPi/Drivers/STM32L4xx_HAL_Driver/Src\stm32l4xx_hal_flash_ex.c **** 
 230:D:/iot/felix2/targets/Cloud_STM32L431_BearPi/Drivers/STM32L4xx_HAL_Driver/Src\stm32l4xx_hal_flash_ex.c ****         /* If the erase operation is completed, disable the PER Bit */
 231:D:/iot/felix2/targets/Cloud_STM32L431_BearPi/Drivers/STM32L4xx_HAL_Driver/Src\stm32l4xx_hal_flash_ex.c ****         CLEAR_BIT(FLASH->CR, (FLASH_CR_PER | FLASH_CR_PNB));
 174              		.loc 1 231 0
 175 00ee 134B     		ldr	r3, .L15+4
 176 00f0 5B69     		ldr	r3, [r3, #20]
 177 00f2 124A     		ldr	r2, .L15+4
 178 00f4 23F4FF63 		bic	r3, r3, #2040
 179 00f8 23F00203 		bic	r3, r3, #2
 180 00fc 5361     		str	r3, [r2, #20]
 232:D:/iot/felix2/targets/Cloud_STM32L431_BearPi/Drivers/STM32L4xx_HAL_Driver/Src\stm32l4xx_hal_flash_ex.c **** 
 233:D:/iot/felix2/targets/Cloud_STM32L431_BearPi/Drivers/STM32L4xx_HAL_Driver/Src\stm32l4xx_hal_flash_ex.c ****         if (status != HAL_OK)
 181              		.loc 1 233 0
 182 00fe FB7B     		ldrb	r3, [r7, #15]	@ zero_extendqisi2
 183 0100 002B     		cmp	r3, #0
 184 0102 03D0     		beq	.L13
 234:D:/iot/felix2/targets/Cloud_STM32L431_BearPi/Drivers/STM32L4xx_HAL_Driver/Src\stm32l4xx_hal_flash_ex.c ****         {
 235:D:/iot/felix2/targets/Cloud_STM32L431_BearPi/Drivers/STM32L4xx_HAL_Driver/Src\stm32l4xx_hal_flash_ex.c ****           /* In case of error, stop erase procedure and return the faulty address */
 236:D:/iot/felix2/targets/Cloud_STM32L431_BearPi/Drivers/STM32L4xx_HAL_Driver/Src\stm32l4xx_hal_flash_ex.c ****           *PageError = page_index;
 185              		.loc 1 236 0
 186 0104 3B68     		ldr	r3, [r7]
 187 0106 BA68     		ldr	r2, [r7, #8]
 188 0108 1A60     		str	r2, [r3]
 237:D:/iot/felix2/targets/Cloud_STM32L431_BearPi/Drivers/STM32L4xx_HAL_Driver/Src\stm32l4xx_hal_flash_ex.c ****           break;
 189              		.loc 1 237 0
 190 010a 0AE0     		b	.L11
 191              	.L13:
 223:D:/iot/felix2/targets/Cloud_STM32L431_BearPi/Drivers/STM32L4xx_HAL_Driver/Src\stm32l4xx_hal_flash_ex.c ****       {
 192              		.loc 1 223 0 discriminator 2
 193 010c BB68     		ldr	r3, [r7, #8]
 194 010e 0133     		adds	r3, r3, #1
 195 0110 BB60     		str	r3, [r7, #8]
 196              	.L12:
 223:D:/iot/felix2/targets/Cloud_STM32L431_BearPi/Drivers/STM32L4xx_HAL_Driver/Src\stm32l4xx_hal_flash_ex.c ****       {
 197              		.loc 1 223 0 is_stmt 0 discriminator 1
 198 0112 7B68     		ldr	r3, [r7, #4]
 199 0114 9A68     		ldr	r2, [r3, #8]
 200 0116 7B68     		ldr	r3, [r7, #4]
 201 0118 DB68     		ldr	r3, [r3, #12]
 202 011a 1344     		add	r3, r3, r2
 203 011c BA68     		ldr	r2, [r7, #8]
 204 011e 9A42     		cmp	r2, r3
 205 0120 D9D3     		bcc	.L14
 206              	.L11:
 238:D:/iot/felix2/targets/Cloud_STM32L431_BearPi/Drivers/STM32L4xx_HAL_Driver/Src\stm32l4xx_hal_flash_ex.c ****         }
 239:D:/iot/felix2/targets/Cloud_STM32L431_BearPi/Drivers/STM32L4xx_HAL_Driver/Src\stm32l4xx_hal_flash_ex.c ****       }
 240:D:/iot/felix2/targets/Cloud_STM32L431_BearPi/Drivers/STM32L4xx_HAL_Driver/Src\stm32l4xx_hal_flash_ex.c ****     }
 241:D:/iot/felix2/targets/Cloud_STM32L431_BearPi/Drivers/STM32L4xx_HAL_Driver/Src\stm32l4xx_hal_flash_ex.c ****     
 242:D:/iot/felix2/targets/Cloud_STM32L431_BearPi/Drivers/STM32L4xx_HAL_Driver/Src\stm32l4xx_hal_flash_ex.c ****     /* Flush the caches to be sure of the data consistency */
 243:D:/iot/felix2/targets/Cloud_STM32L431_BearPi/Drivers/STM32L4xx_HAL_Driver/Src\stm32l4xx_hal_flash_ex.c ****     FLASH_FlushCaches();
 207              		.loc 1 243 0 is_stmt 1
 208 0122 FFF7FEFF 		bl	FLASH_FlushCaches
 209              	.L4:
 244:D:/iot/felix2/targets/Cloud_STM32L431_BearPi/Drivers/STM32L4xx_HAL_Driver/Src\stm32l4xx_hal_flash_ex.c ****   }
 245:D:/iot/felix2/targets/Cloud_STM32L431_BearPi/Drivers/STM32L4xx_HAL_Driver/Src\stm32l4xx_hal_flash_ex.c **** 
 246:D:/iot/felix2/targets/Cloud_STM32L431_BearPi/Drivers/STM32L4xx_HAL_Driver/Src\stm32l4xx_hal_flash_ex.c ****   /* Process Unlocked */
ARM GAS  C:\Users\91458\AppData\Local\Temp\cct4oxZw.s 			page 9


 247:D:/iot/felix2/targets/Cloud_STM32L431_BearPi/Drivers/STM32L4xx_HAL_Driver/Src\stm32l4xx_hal_flash_ex.c ****   __HAL_UNLOCK(&pFlash);
 210              		.loc 1 247 0
 211 0126 044B     		ldr	r3, .L15
 212 0128 0022     		movs	r2, #0
 213 012a 1A70     		strb	r2, [r3]
 248:D:/iot/felix2/targets/Cloud_STM32L431_BearPi/Drivers/STM32L4xx_HAL_Driver/Src\stm32l4xx_hal_flash_ex.c **** 
 249:D:/iot/felix2/targets/Cloud_STM32L431_BearPi/Drivers/STM32L4xx_HAL_Driver/Src\stm32l4xx_hal_flash_ex.c ****   return status;
 214              		.loc 1 249 0
 215 012c FB7B     		ldrb	r3, [r7, #15]	@ zero_extendqisi2
 216              	.L3:
 250:D:/iot/felix2/targets/Cloud_STM32L431_BearPi/Drivers/STM32L4xx_HAL_Driver/Src\stm32l4xx_hal_flash_ex.c **** }
 217              		.loc 1 250 0
 218 012e 1846     		mov	r0, r3
 219 0130 1037     		adds	r7, r7, #16
 220              	.LCFI3:
 221              		.cfi_def_cfa_offset 8
 222 0132 BD46     		mov	sp, r7
 223              	.LCFI4:
 224              		.cfi_def_cfa_register 13
 225              		@ sp needed
 226 0134 80BD     		pop	{r7, pc}
 227              	.L16:
 228 0136 00BF     		.align	2
 229              	.L15:
 230 0138 00000000 		.word	pFlash
 231 013c 00200240 		.word	1073881088
 232              		.cfi_endproc
 233              	.LFE133:
 235              		.section	.text.HAL_FLASHEx_Erase_IT,"ax",%progbits
 236              		.align	1
 237              		.global	HAL_FLASHEx_Erase_IT
 238              		.syntax unified
 239              		.thumb
 240              		.thumb_func
 241              		.fpu fpv4-sp-d16
 243              	HAL_FLASHEx_Erase_IT:
 244              	.LFB134:
 251:D:/iot/felix2/targets/Cloud_STM32L431_BearPi/Drivers/STM32L4xx_HAL_Driver/Src\stm32l4xx_hal_flash_ex.c **** 
 252:D:/iot/felix2/targets/Cloud_STM32L431_BearPi/Drivers/STM32L4xx_HAL_Driver/Src\stm32l4xx_hal_flash_ex.c **** /**
 253:D:/iot/felix2/targets/Cloud_STM32L431_BearPi/Drivers/STM32L4xx_HAL_Driver/Src\stm32l4xx_hal_flash_ex.c ****   * @brief  Perform a mass erase or erase the specified FLASH memory pages with interrupt enabled.
 254:D:/iot/felix2/targets/Cloud_STM32L431_BearPi/Drivers/STM32L4xx_HAL_Driver/Src\stm32l4xx_hal_flash_ex.c ****   * @param  pEraseInit: pointer to an FLASH_EraseInitTypeDef structure that
 255:D:/iot/felix2/targets/Cloud_STM32L431_BearPi/Drivers/STM32L4xx_HAL_Driver/Src\stm32l4xx_hal_flash_ex.c ****   *         contains the configuration information for the erasing.
 256:D:/iot/felix2/targets/Cloud_STM32L431_BearPi/Drivers/STM32L4xx_HAL_Driver/Src\stm32l4xx_hal_flash_ex.c ****   * 
 257:D:/iot/felix2/targets/Cloud_STM32L431_BearPi/Drivers/STM32L4xx_HAL_Driver/Src\stm32l4xx_hal_flash_ex.c ****   * @retval HAL Status
 258:D:/iot/felix2/targets/Cloud_STM32L431_BearPi/Drivers/STM32L4xx_HAL_Driver/Src\stm32l4xx_hal_flash_ex.c ****   */
 259:D:/iot/felix2/targets/Cloud_STM32L431_BearPi/Drivers/STM32L4xx_HAL_Driver/Src\stm32l4xx_hal_flash_ex.c **** HAL_StatusTypeDef HAL_FLASHEx_Erase_IT(FLASH_EraseInitTypeDef *pEraseInit)
 260:D:/iot/felix2/targets/Cloud_STM32L431_BearPi/Drivers/STM32L4xx_HAL_Driver/Src\stm32l4xx_hal_flash_ex.c **** {
 245              		.loc 1 260 0
 246              		.cfi_startproc
 247              		@ args = 0, pretend = 0, frame = 16
 248              		@ frame_needed = 1, uses_anonymous_args = 0
 249 0000 80B5     		push	{r7, lr}
 250              	.LCFI5:
 251              		.cfi_def_cfa_offset 8
 252              		.cfi_offset 7, -8
 253              		.cfi_offset 14, -4
 254 0002 84B0     		sub	sp, sp, #16
ARM GAS  C:\Users\91458\AppData\Local\Temp\cct4oxZw.s 			page 10


 255              	.LCFI6:
 256              		.cfi_def_cfa_offset 24
 257 0004 00AF     		add	r7, sp, #0
 258              	.LCFI7:
 259              		.cfi_def_cfa_register 7
 260 0006 7860     		str	r0, [r7, #4]
 261:D:/iot/felix2/targets/Cloud_STM32L431_BearPi/Drivers/STM32L4xx_HAL_Driver/Src\stm32l4xx_hal_flash_ex.c ****   HAL_StatusTypeDef status = HAL_OK;
 261              		.loc 1 261 0
 262 0008 0023     		movs	r3, #0
 263 000a FB73     		strb	r3, [r7, #15]
 262:D:/iot/felix2/targets/Cloud_STM32L431_BearPi/Drivers/STM32L4xx_HAL_Driver/Src\stm32l4xx_hal_flash_ex.c **** 
 263:D:/iot/felix2/targets/Cloud_STM32L431_BearPi/Drivers/STM32L4xx_HAL_Driver/Src\stm32l4xx_hal_flash_ex.c ****   /* Process Locked */
 264:D:/iot/felix2/targets/Cloud_STM32L431_BearPi/Drivers/STM32L4xx_HAL_Driver/Src\stm32l4xx_hal_flash_ex.c ****   __HAL_LOCK(&pFlash);
 264              		.loc 1 264 0
 265 000c 364B     		ldr	r3, .L28
 266 000e 1B78     		ldrb	r3, [r3]	@ zero_extendqisi2
 267 0010 012B     		cmp	r3, #1
 268 0012 01D1     		bne	.L18
 269              		.loc 1 264 0 is_stmt 0 discriminator 1
 270 0014 0223     		movs	r3, #2
 271 0016 63E0     		b	.L19
 272              	.L18:
 273              		.loc 1 264 0 discriminator 2
 274 0018 334B     		ldr	r3, .L28
 275 001a 0122     		movs	r2, #1
 276 001c 1A70     		strb	r2, [r3]
 265:D:/iot/felix2/targets/Cloud_STM32L431_BearPi/Drivers/STM32L4xx_HAL_Driver/Src\stm32l4xx_hal_flash_ex.c **** 
 266:D:/iot/felix2/targets/Cloud_STM32L431_BearPi/Drivers/STM32L4xx_HAL_Driver/Src\stm32l4xx_hal_flash_ex.c ****   /* Check the parameters */
 267:D:/iot/felix2/targets/Cloud_STM32L431_BearPi/Drivers/STM32L4xx_HAL_Driver/Src\stm32l4xx_hal_flash_ex.c ****   assert_param(IS_FLASH_TYPEERASE(pEraseInit->TypeErase));
 268:D:/iot/felix2/targets/Cloud_STM32L431_BearPi/Drivers/STM32L4xx_HAL_Driver/Src\stm32l4xx_hal_flash_ex.c **** 
 269:D:/iot/felix2/targets/Cloud_STM32L431_BearPi/Drivers/STM32L4xx_HAL_Driver/Src\stm32l4xx_hal_flash_ex.c ****   pFlash.ErrorCode = HAL_FLASH_ERROR_NONE;
 277              		.loc 1 269 0 is_stmt 1 discriminator 2
 278 001e 324B     		ldr	r3, .L28
 279 0020 0022     		movs	r2, #0
 280 0022 5A60     		str	r2, [r3, #4]
 270:D:/iot/felix2/targets/Cloud_STM32L431_BearPi/Drivers/STM32L4xx_HAL_Driver/Src\stm32l4xx_hal_flash_ex.c **** 
 271:D:/iot/felix2/targets/Cloud_STM32L431_BearPi/Drivers/STM32L4xx_HAL_Driver/Src\stm32l4xx_hal_flash_ex.c ****   /* Deactivate the cache if they are activated to avoid data misbehavior */
 272:D:/iot/felix2/targets/Cloud_STM32L431_BearPi/Drivers/STM32L4xx_HAL_Driver/Src\stm32l4xx_hal_flash_ex.c ****   if(READ_BIT(FLASH->ACR, FLASH_ACR_ICEN) != 0U)
 281              		.loc 1 272 0 discriminator 2
 282 0024 314B     		ldr	r3, .L28+4
 283 0026 1B68     		ldr	r3, [r3]
 284 0028 03F40073 		and	r3, r3, #512
 285 002c 002B     		cmp	r3, #0
 286 002e 19D0     		beq	.L20
 273:D:/iot/felix2/targets/Cloud_STM32L431_BearPi/Drivers/STM32L4xx_HAL_Driver/Src\stm32l4xx_hal_flash_ex.c ****   {
 274:D:/iot/felix2/targets/Cloud_STM32L431_BearPi/Drivers/STM32L4xx_HAL_Driver/Src\stm32l4xx_hal_flash_ex.c ****     /* Disable instruction cache  */
 275:D:/iot/felix2/targets/Cloud_STM32L431_BearPi/Drivers/STM32L4xx_HAL_Driver/Src\stm32l4xx_hal_flash_ex.c ****     __HAL_FLASH_INSTRUCTION_CACHE_DISABLE();
 287              		.loc 1 275 0
 288 0030 2E4B     		ldr	r3, .L28+4
 289 0032 1B68     		ldr	r3, [r3]
 290 0034 2D4A     		ldr	r2, .L28+4
 291 0036 23F40073 		bic	r3, r3, #512
 292 003a 1360     		str	r3, [r2]
 276:D:/iot/felix2/targets/Cloud_STM32L431_BearPi/Drivers/STM32L4xx_HAL_Driver/Src\stm32l4xx_hal_flash_ex.c ****     
 277:D:/iot/felix2/targets/Cloud_STM32L431_BearPi/Drivers/STM32L4xx_HAL_Driver/Src\stm32l4xx_hal_flash_ex.c ****     if(READ_BIT(FLASH->ACR, FLASH_ACR_DCEN) != 0U)
 293              		.loc 1 277 0
 294 003c 2B4B     		ldr	r3, .L28+4
ARM GAS  C:\Users\91458\AppData\Local\Temp\cct4oxZw.s 			page 11


 295 003e 1B68     		ldr	r3, [r3]
 296 0040 03F48063 		and	r3, r3, #1024
 297 0044 002B     		cmp	r3, #0
 298 0046 09D0     		beq	.L21
 278:D:/iot/felix2/targets/Cloud_STM32L431_BearPi/Drivers/STM32L4xx_HAL_Driver/Src\stm32l4xx_hal_flash_ex.c ****     {
 279:D:/iot/felix2/targets/Cloud_STM32L431_BearPi/Drivers/STM32L4xx_HAL_Driver/Src\stm32l4xx_hal_flash_ex.c ****       /* Disable data cache  */
 280:D:/iot/felix2/targets/Cloud_STM32L431_BearPi/Drivers/STM32L4xx_HAL_Driver/Src\stm32l4xx_hal_flash_ex.c ****       __HAL_FLASH_DATA_CACHE_DISABLE();
 299              		.loc 1 280 0
 300 0048 284B     		ldr	r3, .L28+4
 301 004a 1B68     		ldr	r3, [r3]
 302 004c 274A     		ldr	r2, .L28+4
 303 004e 23F48063 		bic	r3, r3, #1024
 304 0052 1360     		str	r3, [r2]
 281:D:/iot/felix2/targets/Cloud_STM32L431_BearPi/Drivers/STM32L4xx_HAL_Driver/Src\stm32l4xx_hal_flash_ex.c ****       pFlash.CacheToReactivate = FLASH_CACHE_ICACHE_DCACHE_ENABLED;
 305              		.loc 1 281 0
 306 0054 244B     		ldr	r3, .L28
 307 0056 0322     		movs	r2, #3
 308 0058 1A77     		strb	r2, [r3, #28]
 309 005a 16E0     		b	.L27
 310              	.L21:
 282:D:/iot/felix2/targets/Cloud_STM32L431_BearPi/Drivers/STM32L4xx_HAL_Driver/Src\stm32l4xx_hal_flash_ex.c ****     }
 283:D:/iot/felix2/targets/Cloud_STM32L431_BearPi/Drivers/STM32L4xx_HAL_Driver/Src\stm32l4xx_hal_flash_ex.c ****     else
 284:D:/iot/felix2/targets/Cloud_STM32L431_BearPi/Drivers/STM32L4xx_HAL_Driver/Src\stm32l4xx_hal_flash_ex.c ****     {
 285:D:/iot/felix2/targets/Cloud_STM32L431_BearPi/Drivers/STM32L4xx_HAL_Driver/Src\stm32l4xx_hal_flash_ex.c ****       pFlash.CacheToReactivate = FLASH_CACHE_ICACHE_ENABLED;
 311              		.loc 1 285 0
 312 005c 224B     		ldr	r3, .L28
 313 005e 0122     		movs	r2, #1
 314 0060 1A77     		strb	r2, [r3, #28]
 315 0062 12E0     		b	.L27
 316              	.L20:
 286:D:/iot/felix2/targets/Cloud_STM32L431_BearPi/Drivers/STM32L4xx_HAL_Driver/Src\stm32l4xx_hal_flash_ex.c ****     }
 287:D:/iot/felix2/targets/Cloud_STM32L431_BearPi/Drivers/STM32L4xx_HAL_Driver/Src\stm32l4xx_hal_flash_ex.c ****   }
 288:D:/iot/felix2/targets/Cloud_STM32L431_BearPi/Drivers/STM32L4xx_HAL_Driver/Src\stm32l4xx_hal_flash_ex.c ****   else if(READ_BIT(FLASH->ACR, FLASH_ACR_DCEN) != 0U)
 317              		.loc 1 288 0
 318 0064 214B     		ldr	r3, .L28+4
 319 0066 1B68     		ldr	r3, [r3]
 320 0068 03F48063 		and	r3, r3, #1024
 321 006c 002B     		cmp	r3, #0
 322 006e 09D0     		beq	.L24
 289:D:/iot/felix2/targets/Cloud_STM32L431_BearPi/Drivers/STM32L4xx_HAL_Driver/Src\stm32l4xx_hal_flash_ex.c ****   {
 290:D:/iot/felix2/targets/Cloud_STM32L431_BearPi/Drivers/STM32L4xx_HAL_Driver/Src\stm32l4xx_hal_flash_ex.c ****     /* Disable data cache  */
 291:D:/iot/felix2/targets/Cloud_STM32L431_BearPi/Drivers/STM32L4xx_HAL_Driver/Src\stm32l4xx_hal_flash_ex.c ****     __HAL_FLASH_DATA_CACHE_DISABLE();
 323              		.loc 1 291 0
 324 0070 1E4B     		ldr	r3, .L28+4
 325 0072 1B68     		ldr	r3, [r3]
 326 0074 1D4A     		ldr	r2, .L28+4
 327 0076 23F48063 		bic	r3, r3, #1024
 328 007a 1360     		str	r3, [r2]
 292:D:/iot/felix2/targets/Cloud_STM32L431_BearPi/Drivers/STM32L4xx_HAL_Driver/Src\stm32l4xx_hal_flash_ex.c ****     pFlash.CacheToReactivate = FLASH_CACHE_DCACHE_ENABLED;
 329              		.loc 1 292 0
 330 007c 1A4B     		ldr	r3, .L28
 331 007e 0222     		movs	r2, #2
 332 0080 1A77     		strb	r2, [r3, #28]
 333 0082 02E0     		b	.L27
 334              	.L24:
 293:D:/iot/felix2/targets/Cloud_STM32L431_BearPi/Drivers/STM32L4xx_HAL_Driver/Src\stm32l4xx_hal_flash_ex.c ****   }
 294:D:/iot/felix2/targets/Cloud_STM32L431_BearPi/Drivers/STM32L4xx_HAL_Driver/Src\stm32l4xx_hal_flash_ex.c ****   else
ARM GAS  C:\Users\91458\AppData\Local\Temp\cct4oxZw.s 			page 12


 295:D:/iot/felix2/targets/Cloud_STM32L431_BearPi/Drivers/STM32L4xx_HAL_Driver/Src\stm32l4xx_hal_flash_ex.c ****   {
 296:D:/iot/felix2/targets/Cloud_STM32L431_BearPi/Drivers/STM32L4xx_HAL_Driver/Src\stm32l4xx_hal_flash_ex.c ****     pFlash.CacheToReactivate = FLASH_CACHE_DISABLED;
 335              		.loc 1 296 0
 336 0084 184B     		ldr	r3, .L28
 337 0086 0022     		movs	r2, #0
 338 0088 1A77     		strb	r2, [r3, #28]
 339              	.L27:
 297:D:/iot/felix2/targets/Cloud_STM32L431_BearPi/Drivers/STM32L4xx_HAL_Driver/Src\stm32l4xx_hal_flash_ex.c ****   }
 298:D:/iot/felix2/targets/Cloud_STM32L431_BearPi/Drivers/STM32L4xx_HAL_Driver/Src\stm32l4xx_hal_flash_ex.c **** 
 299:D:/iot/felix2/targets/Cloud_STM32L431_BearPi/Drivers/STM32L4xx_HAL_Driver/Src\stm32l4xx_hal_flash_ex.c ****   /* Enable End of Operation and Error interrupts */
 300:D:/iot/felix2/targets/Cloud_STM32L431_BearPi/Drivers/STM32L4xx_HAL_Driver/Src\stm32l4xx_hal_flash_ex.c ****   __HAL_FLASH_ENABLE_IT(FLASH_IT_EOP | FLASH_IT_OPERR);
 340              		.loc 1 300 0 discriminator 4
 341 008a 184B     		ldr	r3, .L28+4
 342 008c 5B69     		ldr	r3, [r3, #20]
 343 008e 174A     		ldr	r2, .L28+4
 344 0090 43F04073 		orr	r3, r3, #50331648
 345 0094 5361     		str	r3, [r2, #20]
 301:D:/iot/felix2/targets/Cloud_STM32L431_BearPi/Drivers/STM32L4xx_HAL_Driver/Src\stm32l4xx_hal_flash_ex.c **** 
 302:D:/iot/felix2/targets/Cloud_STM32L431_BearPi/Drivers/STM32L4xx_HAL_Driver/Src\stm32l4xx_hal_flash_ex.c ****   pFlash.Bank = pEraseInit->Banks;
 346              		.loc 1 302 0 discriminator 4
 347 0096 7B68     		ldr	r3, [r7, #4]
 348 0098 5B68     		ldr	r3, [r3, #4]
 349 009a 134A     		ldr	r2, .L28
 350 009c 1361     		str	r3, [r2, #16]
 303:D:/iot/felix2/targets/Cloud_STM32L431_BearPi/Drivers/STM32L4xx_HAL_Driver/Src\stm32l4xx_hal_flash_ex.c **** 
 304:D:/iot/felix2/targets/Cloud_STM32L431_BearPi/Drivers/STM32L4xx_HAL_Driver/Src\stm32l4xx_hal_flash_ex.c ****   if (pEraseInit->TypeErase == FLASH_TYPEERASE_MASSERASE)
 351              		.loc 1 304 0 discriminator 4
 352 009e 7B68     		ldr	r3, [r7, #4]
 353 00a0 1B68     		ldr	r3, [r3]
 354 00a2 012B     		cmp	r3, #1
 355 00a4 08D1     		bne	.L25
 305:D:/iot/felix2/targets/Cloud_STM32L431_BearPi/Drivers/STM32L4xx_HAL_Driver/Src\stm32l4xx_hal_flash_ex.c ****   {
 306:D:/iot/felix2/targets/Cloud_STM32L431_BearPi/Drivers/STM32L4xx_HAL_Driver/Src\stm32l4xx_hal_flash_ex.c ****     /* Mass erase to be done */
 307:D:/iot/felix2/targets/Cloud_STM32L431_BearPi/Drivers/STM32L4xx_HAL_Driver/Src\stm32l4xx_hal_flash_ex.c ****     pFlash.ProcedureOnGoing = FLASH_PROC_MASS_ERASE;
 356              		.loc 1 307 0
 357 00a6 104B     		ldr	r3, .L28
 358 00a8 0222     		movs	r2, #2
 359 00aa 1A72     		strb	r2, [r3, #8]
 308:D:/iot/felix2/targets/Cloud_STM32L431_BearPi/Drivers/STM32L4xx_HAL_Driver/Src\stm32l4xx_hal_flash_ex.c ****     FLASH_MassErase(pEraseInit->Banks);
 360              		.loc 1 308 0
 361 00ac 7B68     		ldr	r3, [r7, #4]
 362 00ae 5B68     		ldr	r3, [r3, #4]
 363 00b0 1846     		mov	r0, r3
 364 00b2 FFF7FEFF 		bl	FLASH_MassErase
 365 00b6 12E0     		b	.L26
 366              	.L25:
 309:D:/iot/felix2/targets/Cloud_STM32L431_BearPi/Drivers/STM32L4xx_HAL_Driver/Src\stm32l4xx_hal_flash_ex.c ****   }
 310:D:/iot/felix2/targets/Cloud_STM32L431_BearPi/Drivers/STM32L4xx_HAL_Driver/Src\stm32l4xx_hal_flash_ex.c ****   else
 311:D:/iot/felix2/targets/Cloud_STM32L431_BearPi/Drivers/STM32L4xx_HAL_Driver/Src\stm32l4xx_hal_flash_ex.c ****   {
 312:D:/iot/felix2/targets/Cloud_STM32L431_BearPi/Drivers/STM32L4xx_HAL_Driver/Src\stm32l4xx_hal_flash_ex.c ****     /* Erase by page to be done */
 313:D:/iot/felix2/targets/Cloud_STM32L431_BearPi/Drivers/STM32L4xx_HAL_Driver/Src\stm32l4xx_hal_flash_ex.c ****     pFlash.ProcedureOnGoing = FLASH_PROC_PAGE_ERASE;
 367              		.loc 1 313 0
 368 00b8 0B4B     		ldr	r3, .L28
 369 00ba 0122     		movs	r2, #1
 370 00bc 1A72     		strb	r2, [r3, #8]
 314:D:/iot/felix2/targets/Cloud_STM32L431_BearPi/Drivers/STM32L4xx_HAL_Driver/Src\stm32l4xx_hal_flash_ex.c ****     pFlash.NbPagesToErase = pEraseInit->NbPages;
 371              		.loc 1 314 0
ARM GAS  C:\Users\91458\AppData\Local\Temp\cct4oxZw.s 			page 13


 372 00be 7B68     		ldr	r3, [r7, #4]
 373 00c0 DB68     		ldr	r3, [r3, #12]
 374 00c2 094A     		ldr	r2, .L28
 375 00c4 9361     		str	r3, [r2, #24]
 315:D:/iot/felix2/targets/Cloud_STM32L431_BearPi/Drivers/STM32L4xx_HAL_Driver/Src\stm32l4xx_hal_flash_ex.c ****     pFlash.Page = pEraseInit->Page;
 376              		.loc 1 315 0
 377 00c6 7B68     		ldr	r3, [r7, #4]
 378 00c8 9B68     		ldr	r3, [r3, #8]
 379 00ca 074A     		ldr	r2, .L28
 380 00cc 5361     		str	r3, [r2, #20]
 316:D:/iot/felix2/targets/Cloud_STM32L431_BearPi/Drivers/STM32L4xx_HAL_Driver/Src\stm32l4xx_hal_flash_ex.c **** 
 317:D:/iot/felix2/targets/Cloud_STM32L431_BearPi/Drivers/STM32L4xx_HAL_Driver/Src\stm32l4xx_hal_flash_ex.c ****     /*Erase 1st page and wait for IT */
 318:D:/iot/felix2/targets/Cloud_STM32L431_BearPi/Drivers/STM32L4xx_HAL_Driver/Src\stm32l4xx_hal_flash_ex.c ****     FLASH_PageErase(pEraseInit->Page, pEraseInit->Banks);
 381              		.loc 1 318 0
 382 00ce 7B68     		ldr	r3, [r7, #4]
 383 00d0 9A68     		ldr	r2, [r3, #8]
 384 00d2 7B68     		ldr	r3, [r7, #4]
 385 00d4 5B68     		ldr	r3, [r3, #4]
 386 00d6 1946     		mov	r1, r3
 387 00d8 1046     		mov	r0, r2
 388 00da FFF7FEFF 		bl	FLASH_PageErase
 389              	.L26:
 319:D:/iot/felix2/targets/Cloud_STM32L431_BearPi/Drivers/STM32L4xx_HAL_Driver/Src\stm32l4xx_hal_flash_ex.c ****   }
 320:D:/iot/felix2/targets/Cloud_STM32L431_BearPi/Drivers/STM32L4xx_HAL_Driver/Src\stm32l4xx_hal_flash_ex.c ****   
 321:D:/iot/felix2/targets/Cloud_STM32L431_BearPi/Drivers/STM32L4xx_HAL_Driver/Src\stm32l4xx_hal_flash_ex.c ****   return status;
 390              		.loc 1 321 0
 391 00de FB7B     		ldrb	r3, [r7, #15]	@ zero_extendqisi2
 392              	.L19:
 322:D:/iot/felix2/targets/Cloud_STM32L431_BearPi/Drivers/STM32L4xx_HAL_Driver/Src\stm32l4xx_hal_flash_ex.c **** }
 393              		.loc 1 322 0
 394 00e0 1846     		mov	r0, r3
 395 00e2 1037     		adds	r7, r7, #16
 396              	.LCFI8:
 397              		.cfi_def_cfa_offset 8
 398 00e4 BD46     		mov	sp, r7
 399              	.LCFI9:
 400              		.cfi_def_cfa_register 13
 401              		@ sp needed
 402 00e6 80BD     		pop	{r7, pc}
 403              	.L29:
 404              		.align	2
 405              	.L28:
 406 00e8 00000000 		.word	pFlash
 407 00ec 00200240 		.word	1073881088
 408              		.cfi_endproc
 409              	.LFE134:
 411              		.section	.text.HAL_FLASHEx_OBProgram,"ax",%progbits
 412              		.align	1
 413              		.global	HAL_FLASHEx_OBProgram
 414              		.syntax unified
 415              		.thumb
 416              		.thumb_func
 417              		.fpu fpv4-sp-d16
 419              	HAL_FLASHEx_OBProgram:
 420              	.LFB135:
 323:D:/iot/felix2/targets/Cloud_STM32L431_BearPi/Drivers/STM32L4xx_HAL_Driver/Src\stm32l4xx_hal_flash_ex.c **** 
 324:D:/iot/felix2/targets/Cloud_STM32L431_BearPi/Drivers/STM32L4xx_HAL_Driver/Src\stm32l4xx_hal_flash_ex.c **** /**
ARM GAS  C:\Users\91458\AppData\Local\Temp\cct4oxZw.s 			page 14


 325:D:/iot/felix2/targets/Cloud_STM32L431_BearPi/Drivers/STM32L4xx_HAL_Driver/Src\stm32l4xx_hal_flash_ex.c ****   * @brief  Program Option bytes.
 326:D:/iot/felix2/targets/Cloud_STM32L431_BearPi/Drivers/STM32L4xx_HAL_Driver/Src\stm32l4xx_hal_flash_ex.c ****   * @param  pOBInit: pointer to an FLASH_OBInitStruct structure that
 327:D:/iot/felix2/targets/Cloud_STM32L431_BearPi/Drivers/STM32L4xx_HAL_Driver/Src\stm32l4xx_hal_flash_ex.c ****   *         contains the configuration information for the programming.
 328:D:/iot/felix2/targets/Cloud_STM32L431_BearPi/Drivers/STM32L4xx_HAL_Driver/Src\stm32l4xx_hal_flash_ex.c ****   * 
 329:D:/iot/felix2/targets/Cloud_STM32L431_BearPi/Drivers/STM32L4xx_HAL_Driver/Src\stm32l4xx_hal_flash_ex.c ****   * @retval HAL Status
 330:D:/iot/felix2/targets/Cloud_STM32L431_BearPi/Drivers/STM32L4xx_HAL_Driver/Src\stm32l4xx_hal_flash_ex.c ****   */
 331:D:/iot/felix2/targets/Cloud_STM32L431_BearPi/Drivers/STM32L4xx_HAL_Driver/Src\stm32l4xx_hal_flash_ex.c **** HAL_StatusTypeDef HAL_FLASHEx_OBProgram(FLASH_OBProgramInitTypeDef *pOBInit)
 332:D:/iot/felix2/targets/Cloud_STM32L431_BearPi/Drivers/STM32L4xx_HAL_Driver/Src\stm32l4xx_hal_flash_ex.c **** {
 421              		.loc 1 332 0
 422              		.cfi_startproc
 423              		@ args = 0, pretend = 0, frame = 16
 424              		@ frame_needed = 1, uses_anonymous_args = 0
 425 0000 80B5     		push	{r7, lr}
 426              	.LCFI10:
 427              		.cfi_def_cfa_offset 8
 428              		.cfi_offset 7, -8
 429              		.cfi_offset 14, -4
 430 0002 84B0     		sub	sp, sp, #16
 431              	.LCFI11:
 432              		.cfi_def_cfa_offset 24
 433 0004 00AF     		add	r7, sp, #0
 434              	.LCFI12:
 435              		.cfi_def_cfa_register 7
 436 0006 7860     		str	r0, [r7, #4]
 333:D:/iot/felix2/targets/Cloud_STM32L431_BearPi/Drivers/STM32L4xx_HAL_Driver/Src\stm32l4xx_hal_flash_ex.c ****   HAL_StatusTypeDef status = HAL_OK;
 437              		.loc 1 333 0
 438 0008 0023     		movs	r3, #0
 439 000a FB73     		strb	r3, [r7, #15]
 334:D:/iot/felix2/targets/Cloud_STM32L431_BearPi/Drivers/STM32L4xx_HAL_Driver/Src\stm32l4xx_hal_flash_ex.c ****   
 335:D:/iot/felix2/targets/Cloud_STM32L431_BearPi/Drivers/STM32L4xx_HAL_Driver/Src\stm32l4xx_hal_flash_ex.c ****   /* Process Locked */
 336:D:/iot/felix2/targets/Cloud_STM32L431_BearPi/Drivers/STM32L4xx_HAL_Driver/Src\stm32l4xx_hal_flash_ex.c ****   __HAL_LOCK(&pFlash);
 440              		.loc 1 336 0
 441 000c 324B     		ldr	r3, .L37
 442 000e 1B78     		ldrb	r3, [r3]	@ zero_extendqisi2
 443 0010 012B     		cmp	r3, #1
 444 0012 01D1     		bne	.L31
 445              		.loc 1 336 0 is_stmt 0 discriminator 1
 446 0014 0223     		movs	r3, #2
 447 0016 5AE0     		b	.L32
 448              	.L31:
 449              		.loc 1 336 0 discriminator 2
 450 0018 2F4B     		ldr	r3, .L37
 451 001a 0122     		movs	r2, #1
 452 001c 1A70     		strb	r2, [r3]
 337:D:/iot/felix2/targets/Cloud_STM32L431_BearPi/Drivers/STM32L4xx_HAL_Driver/Src\stm32l4xx_hal_flash_ex.c **** 
 338:D:/iot/felix2/targets/Cloud_STM32L431_BearPi/Drivers/STM32L4xx_HAL_Driver/Src\stm32l4xx_hal_flash_ex.c ****   /* Check the parameters */
 339:D:/iot/felix2/targets/Cloud_STM32L431_BearPi/Drivers/STM32L4xx_HAL_Driver/Src\stm32l4xx_hal_flash_ex.c ****   assert_param(IS_OPTIONBYTE(pOBInit->OptionType));
 340:D:/iot/felix2/targets/Cloud_STM32L431_BearPi/Drivers/STM32L4xx_HAL_Driver/Src\stm32l4xx_hal_flash_ex.c ****   
 341:D:/iot/felix2/targets/Cloud_STM32L431_BearPi/Drivers/STM32L4xx_HAL_Driver/Src\stm32l4xx_hal_flash_ex.c ****   pFlash.ErrorCode = HAL_FLASH_ERROR_NONE;
 453              		.loc 1 341 0 is_stmt 1 discriminator 2
 454 001e 2E4B     		ldr	r3, .L37
 455 0020 0022     		movs	r2, #0
 456 0022 5A60     		str	r2, [r3, #4]
 342:D:/iot/felix2/targets/Cloud_STM32L431_BearPi/Drivers/STM32L4xx_HAL_Driver/Src\stm32l4xx_hal_flash_ex.c **** 
 343:D:/iot/felix2/targets/Cloud_STM32L431_BearPi/Drivers/STM32L4xx_HAL_Driver/Src\stm32l4xx_hal_flash_ex.c ****   /* Write protection configuration */
 344:D:/iot/felix2/targets/Cloud_STM32L431_BearPi/Drivers/STM32L4xx_HAL_Driver/Src\stm32l4xx_hal_flash_ex.c ****   if((pOBInit->OptionType & OPTIONBYTE_WRP) != 0U)
 457              		.loc 1 344 0 discriminator 2
ARM GAS  C:\Users\91458\AppData\Local\Temp\cct4oxZw.s 			page 15


 458 0024 7B68     		ldr	r3, [r7, #4]
 459 0026 1B68     		ldr	r3, [r3]
 460 0028 03F00103 		and	r3, r3, #1
 461 002c 002B     		cmp	r3, #0
 462 002e 0DD0     		beq	.L33
 345:D:/iot/felix2/targets/Cloud_STM32L431_BearPi/Drivers/STM32L4xx_HAL_Driver/Src\stm32l4xx_hal_flash_ex.c ****   {
 346:D:/iot/felix2/targets/Cloud_STM32L431_BearPi/Drivers/STM32L4xx_HAL_Driver/Src\stm32l4xx_hal_flash_ex.c ****     /* Configure of Write protection on the selected area */
 347:D:/iot/felix2/targets/Cloud_STM32L431_BearPi/Drivers/STM32L4xx_HAL_Driver/Src\stm32l4xx_hal_flash_ex.c ****     if(FLASH_OB_WRPConfig(pOBInit->WRPArea, pOBInit->WRPStartOffset, pOBInit->WRPEndOffset) != HAL_
 463              		.loc 1 347 0
 464 0030 7B68     		ldr	r3, [r7, #4]
 465 0032 5868     		ldr	r0, [r3, #4]
 466 0034 7B68     		ldr	r3, [r7, #4]
 467 0036 9968     		ldr	r1, [r3, #8]
 468 0038 7B68     		ldr	r3, [r7, #4]
 469 003a DB68     		ldr	r3, [r3, #12]
 470 003c 1A46     		mov	r2, r3
 471 003e FFF7FEFF 		bl	FLASH_OB_WRPConfig
 472 0042 0346     		mov	r3, r0
 473 0044 002B     		cmp	r3, #0
 474 0046 01D0     		beq	.L33
 348:D:/iot/felix2/targets/Cloud_STM32L431_BearPi/Drivers/STM32L4xx_HAL_Driver/Src\stm32l4xx_hal_flash_ex.c ****     {
 349:D:/iot/felix2/targets/Cloud_STM32L431_BearPi/Drivers/STM32L4xx_HAL_Driver/Src\stm32l4xx_hal_flash_ex.c ****       status = HAL_ERROR;
 475              		.loc 1 349 0
 476 0048 0123     		movs	r3, #1
 477 004a FB73     		strb	r3, [r7, #15]
 478              	.L33:
 350:D:/iot/felix2/targets/Cloud_STM32L431_BearPi/Drivers/STM32L4xx_HAL_Driver/Src\stm32l4xx_hal_flash_ex.c ****     }
 351:D:/iot/felix2/targets/Cloud_STM32L431_BearPi/Drivers/STM32L4xx_HAL_Driver/Src\stm32l4xx_hal_flash_ex.c ****     
 352:D:/iot/felix2/targets/Cloud_STM32L431_BearPi/Drivers/STM32L4xx_HAL_Driver/Src\stm32l4xx_hal_flash_ex.c ****   }
 353:D:/iot/felix2/targets/Cloud_STM32L431_BearPi/Drivers/STM32L4xx_HAL_Driver/Src\stm32l4xx_hal_flash_ex.c ****   
 354:D:/iot/felix2/targets/Cloud_STM32L431_BearPi/Drivers/STM32L4xx_HAL_Driver/Src\stm32l4xx_hal_flash_ex.c ****   /* Read protection configuration */
 355:D:/iot/felix2/targets/Cloud_STM32L431_BearPi/Drivers/STM32L4xx_HAL_Driver/Src\stm32l4xx_hal_flash_ex.c ****   if((pOBInit->OptionType & OPTIONBYTE_RDP) != 0U)
 479              		.loc 1 355 0
 480 004c 7B68     		ldr	r3, [r7, #4]
 481 004e 1B68     		ldr	r3, [r3]
 482 0050 03F00203 		and	r3, r3, #2
 483 0054 002B     		cmp	r3, #0
 484 0056 09D0     		beq	.L34
 356:D:/iot/felix2/targets/Cloud_STM32L431_BearPi/Drivers/STM32L4xx_HAL_Driver/Src\stm32l4xx_hal_flash_ex.c ****   {
 357:D:/iot/felix2/targets/Cloud_STM32L431_BearPi/Drivers/STM32L4xx_HAL_Driver/Src\stm32l4xx_hal_flash_ex.c ****     /* Configure the Read protection level */
 358:D:/iot/felix2/targets/Cloud_STM32L431_BearPi/Drivers/STM32L4xx_HAL_Driver/Src\stm32l4xx_hal_flash_ex.c ****     if(FLASH_OB_RDPConfig(pOBInit->RDPLevel) != HAL_OK)
 485              		.loc 1 358 0
 486 0058 7B68     		ldr	r3, [r7, #4]
 487 005a 1B69     		ldr	r3, [r3, #16]
 488 005c 1846     		mov	r0, r3
 489 005e FFF7FEFF 		bl	FLASH_OB_RDPConfig
 490 0062 0346     		mov	r3, r0
 491 0064 002B     		cmp	r3, #0
 492 0066 01D0     		beq	.L34
 359:D:/iot/felix2/targets/Cloud_STM32L431_BearPi/Drivers/STM32L4xx_HAL_Driver/Src\stm32l4xx_hal_flash_ex.c ****     {
 360:D:/iot/felix2/targets/Cloud_STM32L431_BearPi/Drivers/STM32L4xx_HAL_Driver/Src\stm32l4xx_hal_flash_ex.c ****       status = HAL_ERROR;
 493              		.loc 1 360 0
 494 0068 0123     		movs	r3, #1
 495 006a FB73     		strb	r3, [r7, #15]
 496              	.L34:
 361:D:/iot/felix2/targets/Cloud_STM32L431_BearPi/Drivers/STM32L4xx_HAL_Driver/Src\stm32l4xx_hal_flash_ex.c ****     }
 362:D:/iot/felix2/targets/Cloud_STM32L431_BearPi/Drivers/STM32L4xx_HAL_Driver/Src\stm32l4xx_hal_flash_ex.c ****   }
ARM GAS  C:\Users\91458\AppData\Local\Temp\cct4oxZw.s 			page 16


 363:D:/iot/felix2/targets/Cloud_STM32L431_BearPi/Drivers/STM32L4xx_HAL_Driver/Src\stm32l4xx_hal_flash_ex.c ****   
 364:D:/iot/felix2/targets/Cloud_STM32L431_BearPi/Drivers/STM32L4xx_HAL_Driver/Src\stm32l4xx_hal_flash_ex.c ****   /* User Configuration */
 365:D:/iot/felix2/targets/Cloud_STM32L431_BearPi/Drivers/STM32L4xx_HAL_Driver/Src\stm32l4xx_hal_flash_ex.c ****   if((pOBInit->OptionType & OPTIONBYTE_USER) != 0U)
 497              		.loc 1 365 0
 498 006c 7B68     		ldr	r3, [r7, #4]
 499 006e 1B68     		ldr	r3, [r3]
 500 0070 03F00403 		and	r3, r3, #4
 501 0074 002B     		cmp	r3, #0
 502 0076 0CD0     		beq	.L35
 366:D:/iot/felix2/targets/Cloud_STM32L431_BearPi/Drivers/STM32L4xx_HAL_Driver/Src\stm32l4xx_hal_flash_ex.c ****   {
 367:D:/iot/felix2/targets/Cloud_STM32L431_BearPi/Drivers/STM32L4xx_HAL_Driver/Src\stm32l4xx_hal_flash_ex.c ****     /* Configure the user option bytes */
 368:D:/iot/felix2/targets/Cloud_STM32L431_BearPi/Drivers/STM32L4xx_HAL_Driver/Src\stm32l4xx_hal_flash_ex.c ****     if(FLASH_OB_UserConfig(pOBInit->USERType, pOBInit->USERConfig) != HAL_OK)
 503              		.loc 1 368 0
 504 0078 7B68     		ldr	r3, [r7, #4]
 505 007a 5A69     		ldr	r2, [r3, #20]
 506 007c 7B68     		ldr	r3, [r7, #4]
 507 007e 9B69     		ldr	r3, [r3, #24]
 508 0080 1946     		mov	r1, r3
 509 0082 1046     		mov	r0, r2
 510 0084 FFF7FEFF 		bl	FLASH_OB_UserConfig
 511 0088 0346     		mov	r3, r0
 512 008a 002B     		cmp	r3, #0
 513 008c 01D0     		beq	.L35
 369:D:/iot/felix2/targets/Cloud_STM32L431_BearPi/Drivers/STM32L4xx_HAL_Driver/Src\stm32l4xx_hal_flash_ex.c ****     {
 370:D:/iot/felix2/targets/Cloud_STM32L431_BearPi/Drivers/STM32L4xx_HAL_Driver/Src\stm32l4xx_hal_flash_ex.c ****       status = HAL_ERROR;
 514              		.loc 1 370 0
 515 008e 0123     		movs	r3, #1
 516 0090 FB73     		strb	r3, [r7, #15]
 517              	.L35:
 371:D:/iot/felix2/targets/Cloud_STM32L431_BearPi/Drivers/STM32L4xx_HAL_Driver/Src\stm32l4xx_hal_flash_ex.c ****     }
 372:D:/iot/felix2/targets/Cloud_STM32L431_BearPi/Drivers/STM32L4xx_HAL_Driver/Src\stm32l4xx_hal_flash_ex.c ****   }
 373:D:/iot/felix2/targets/Cloud_STM32L431_BearPi/Drivers/STM32L4xx_HAL_Driver/Src\stm32l4xx_hal_flash_ex.c ****   
 374:D:/iot/felix2/targets/Cloud_STM32L431_BearPi/Drivers/STM32L4xx_HAL_Driver/Src\stm32l4xx_hal_flash_ex.c ****   /* PCROP Configuration */
 375:D:/iot/felix2/targets/Cloud_STM32L431_BearPi/Drivers/STM32L4xx_HAL_Driver/Src\stm32l4xx_hal_flash_ex.c ****   if((pOBInit->OptionType & OPTIONBYTE_PCROP) != 0U)
 518              		.loc 1 375 0
 519 0092 7B68     		ldr	r3, [r7, #4]
 520 0094 1B68     		ldr	r3, [r3]
 521 0096 03F00803 		and	r3, r3, #8
 522 009a 002B     		cmp	r3, #0
 523 009c 13D0     		beq	.L36
 376:D:/iot/felix2/targets/Cloud_STM32L431_BearPi/Drivers/STM32L4xx_HAL_Driver/Src\stm32l4xx_hal_flash_ex.c ****   {
 377:D:/iot/felix2/targets/Cloud_STM32L431_BearPi/Drivers/STM32L4xx_HAL_Driver/Src\stm32l4xx_hal_flash_ex.c ****     if (pOBInit->PCROPStartAddr != pOBInit->PCROPEndAddr)
 524              		.loc 1 377 0
 525 009e 7B68     		ldr	r3, [r7, #4]
 526 00a0 1A6A     		ldr	r2, [r3, #32]
 527 00a2 7B68     		ldr	r3, [r7, #4]
 528 00a4 5B6A     		ldr	r3, [r3, #36]
 529 00a6 9A42     		cmp	r2, r3
 530 00a8 0DD0     		beq	.L36
 378:D:/iot/felix2/targets/Cloud_STM32L431_BearPi/Drivers/STM32L4xx_HAL_Driver/Src\stm32l4xx_hal_flash_ex.c ****     {
 379:D:/iot/felix2/targets/Cloud_STM32L431_BearPi/Drivers/STM32L4xx_HAL_Driver/Src\stm32l4xx_hal_flash_ex.c ****       /* Configure the Proprietary code readout protection */
 380:D:/iot/felix2/targets/Cloud_STM32L431_BearPi/Drivers/STM32L4xx_HAL_Driver/Src\stm32l4xx_hal_flash_ex.c ****       if(FLASH_OB_PCROPConfig(pOBInit->PCROPConfig, pOBInit->PCROPStartAddr, pOBInit->PCROPEndAddr)
 531              		.loc 1 380 0
 532 00aa 7B68     		ldr	r3, [r7, #4]
 533 00ac D869     		ldr	r0, [r3, #28]
 534 00ae 7B68     		ldr	r3, [r7, #4]
 535 00b0 196A     		ldr	r1, [r3, #32]
ARM GAS  C:\Users\91458\AppData\Local\Temp\cct4oxZw.s 			page 17


 536 00b2 7B68     		ldr	r3, [r7, #4]
 537 00b4 5B6A     		ldr	r3, [r3, #36]
 538 00b6 1A46     		mov	r2, r3
 539 00b8 FFF7FEFF 		bl	FLASH_OB_PCROPConfig
 540 00bc 0346     		mov	r3, r0
 541 00be 002B     		cmp	r3, #0
 542 00c0 01D0     		beq	.L36
 381:D:/iot/felix2/targets/Cloud_STM32L431_BearPi/Drivers/STM32L4xx_HAL_Driver/Src\stm32l4xx_hal_flash_ex.c ****       {
 382:D:/iot/felix2/targets/Cloud_STM32L431_BearPi/Drivers/STM32L4xx_HAL_Driver/Src\stm32l4xx_hal_flash_ex.c ****         status = HAL_ERROR;
 543              		.loc 1 382 0
 544 00c2 0123     		movs	r3, #1
 545 00c4 FB73     		strb	r3, [r7, #15]
 546              	.L36:
 383:D:/iot/felix2/targets/Cloud_STM32L431_BearPi/Drivers/STM32L4xx_HAL_Driver/Src\stm32l4xx_hal_flash_ex.c ****       }
 384:D:/iot/felix2/targets/Cloud_STM32L431_BearPi/Drivers/STM32L4xx_HAL_Driver/Src\stm32l4xx_hal_flash_ex.c ****     }
 385:D:/iot/felix2/targets/Cloud_STM32L431_BearPi/Drivers/STM32L4xx_HAL_Driver/Src\stm32l4xx_hal_flash_ex.c ****   }
 386:D:/iot/felix2/targets/Cloud_STM32L431_BearPi/Drivers/STM32L4xx_HAL_Driver/Src\stm32l4xx_hal_flash_ex.c **** 
 387:D:/iot/felix2/targets/Cloud_STM32L431_BearPi/Drivers/STM32L4xx_HAL_Driver/Src\stm32l4xx_hal_flash_ex.c ****   /* Process Unlocked */
 388:D:/iot/felix2/targets/Cloud_STM32L431_BearPi/Drivers/STM32L4xx_HAL_Driver/Src\stm32l4xx_hal_flash_ex.c ****   __HAL_UNLOCK(&pFlash);
 547              		.loc 1 388 0
 548 00c6 044B     		ldr	r3, .L37
 549 00c8 0022     		movs	r2, #0
 550 00ca 1A70     		strb	r2, [r3]
 389:D:/iot/felix2/targets/Cloud_STM32L431_BearPi/Drivers/STM32L4xx_HAL_Driver/Src\stm32l4xx_hal_flash_ex.c **** 
 390:D:/iot/felix2/targets/Cloud_STM32L431_BearPi/Drivers/STM32L4xx_HAL_Driver/Src\stm32l4xx_hal_flash_ex.c ****   return status;
 551              		.loc 1 390 0
 552 00cc FB7B     		ldrb	r3, [r7, #15]	@ zero_extendqisi2
 553              	.L32:
 391:D:/iot/felix2/targets/Cloud_STM32L431_BearPi/Drivers/STM32L4xx_HAL_Driver/Src\stm32l4xx_hal_flash_ex.c **** }
 554              		.loc 1 391 0
 555 00ce 1846     		mov	r0, r3
 556 00d0 1037     		adds	r7, r7, #16
 557              	.LCFI13:
 558              		.cfi_def_cfa_offset 8
 559 00d2 BD46     		mov	sp, r7
 560              	.LCFI14:
 561              		.cfi_def_cfa_register 13
 562              		@ sp needed
 563 00d4 80BD     		pop	{r7, pc}
 564              	.L38:
 565 00d6 00BF     		.align	2
 566              	.L37:
 567 00d8 00000000 		.word	pFlash
 568              		.cfi_endproc
 569              	.LFE135:
 571              		.section	.text.HAL_FLASHEx_OBGetConfig,"ax",%progbits
 572              		.align	1
 573              		.global	HAL_FLASHEx_OBGetConfig
 574              		.syntax unified
 575              		.thumb
 576              		.thumb_func
 577              		.fpu fpv4-sp-d16
 579              	HAL_FLASHEx_OBGetConfig:
 580              	.LFB136:
 392:D:/iot/felix2/targets/Cloud_STM32L431_BearPi/Drivers/STM32L4xx_HAL_Driver/Src\stm32l4xx_hal_flash_ex.c **** 
 393:D:/iot/felix2/targets/Cloud_STM32L431_BearPi/Drivers/STM32L4xx_HAL_Driver/Src\stm32l4xx_hal_flash_ex.c **** /**
 394:D:/iot/felix2/targets/Cloud_STM32L431_BearPi/Drivers/STM32L4xx_HAL_Driver/Src\stm32l4xx_hal_flash_ex.c ****   * @brief  Get the Option bytes configuration.
ARM GAS  C:\Users\91458\AppData\Local\Temp\cct4oxZw.s 			page 18


 395:D:/iot/felix2/targets/Cloud_STM32L431_BearPi/Drivers/STM32L4xx_HAL_Driver/Src\stm32l4xx_hal_flash_ex.c ****   * @param  pOBInit: pointer to an FLASH_OBInitStruct structure that contains the 
 396:D:/iot/felix2/targets/Cloud_STM32L431_BearPi/Drivers/STM32L4xx_HAL_Driver/Src\stm32l4xx_hal_flash_ex.c ****   *                  configuration information.
 397:D:/iot/felix2/targets/Cloud_STM32L431_BearPi/Drivers/STM32L4xx_HAL_Driver/Src\stm32l4xx_hal_flash_ex.c ****   * @note   The fields pOBInit->WRPArea and pOBInit->PCROPConfig should indicate 
 398:D:/iot/felix2/targets/Cloud_STM32L431_BearPi/Drivers/STM32L4xx_HAL_Driver/Src\stm32l4xx_hal_flash_ex.c ****   *         which area is requested for the WRP and PCROP, else no information will be returned
 399:D:/iot/felix2/targets/Cloud_STM32L431_BearPi/Drivers/STM32L4xx_HAL_Driver/Src\stm32l4xx_hal_flash_ex.c ****   * 
 400:D:/iot/felix2/targets/Cloud_STM32L431_BearPi/Drivers/STM32L4xx_HAL_Driver/Src\stm32l4xx_hal_flash_ex.c ****   * @retval None
 401:D:/iot/felix2/targets/Cloud_STM32L431_BearPi/Drivers/STM32L4xx_HAL_Driver/Src\stm32l4xx_hal_flash_ex.c ****   */
 402:D:/iot/felix2/targets/Cloud_STM32L431_BearPi/Drivers/STM32L4xx_HAL_Driver/Src\stm32l4xx_hal_flash_ex.c **** void HAL_FLASHEx_OBGetConfig(FLASH_OBProgramInitTypeDef *pOBInit)
 403:D:/iot/felix2/targets/Cloud_STM32L431_BearPi/Drivers/STM32L4xx_HAL_Driver/Src\stm32l4xx_hal_flash_ex.c **** {
 581              		.loc 1 403 0
 582              		.cfi_startproc
 583              		@ args = 0, pretend = 0, frame = 8
 584              		@ frame_needed = 1, uses_anonymous_args = 0
 585 0000 80B5     		push	{r7, lr}
 586              	.LCFI15:
 587              		.cfi_def_cfa_offset 8
 588              		.cfi_offset 7, -8
 589              		.cfi_offset 14, -4
 590 0002 82B0     		sub	sp, sp, #8
 591              	.LCFI16:
 592              		.cfi_def_cfa_offset 16
 593 0004 00AF     		add	r7, sp, #0
 594              	.LCFI17:
 595              		.cfi_def_cfa_register 7
 596 0006 7860     		str	r0, [r7, #4]
 404:D:/iot/felix2/targets/Cloud_STM32L431_BearPi/Drivers/STM32L4xx_HAL_Driver/Src\stm32l4xx_hal_flash_ex.c ****   pOBInit->OptionType = (OPTIONBYTE_RDP | OPTIONBYTE_USER);
 597              		.loc 1 404 0
 598 0008 7B68     		ldr	r3, [r7, #4]
 599 000a 0622     		movs	r2, #6
 600 000c 1A60     		str	r2, [r3]
 405:D:/iot/felix2/targets/Cloud_STM32L431_BearPi/Drivers/STM32L4xx_HAL_Driver/Src\stm32l4xx_hal_flash_ex.c **** 
 406:D:/iot/felix2/targets/Cloud_STM32L431_BearPi/Drivers/STM32L4xx_HAL_Driver/Src\stm32l4xx_hal_flash_ex.c **** #if defined (STM32L471xx) || defined (STM32L475xx) || defined (STM32L476xx) || defined (STM32L485xx
 407:D:/iot/felix2/targets/Cloud_STM32L431_BearPi/Drivers/STM32L4xx_HAL_Driver/Src\stm32l4xx_hal_flash_ex.c ****     defined (STM32L496xx) || defined (STM32L4A6xx) || \
 408:D:/iot/felix2/targets/Cloud_STM32L431_BearPi/Drivers/STM32L4xx_HAL_Driver/Src\stm32l4xx_hal_flash_ex.c ****     defined (STM32L4R5xx) || defined (STM32L4R7xx) || defined (STM32L4R9xx) || defined (STM32L4S5xx
 409:D:/iot/felix2/targets/Cloud_STM32L431_BearPi/Drivers/STM32L4xx_HAL_Driver/Src\stm32l4xx_hal_flash_ex.c ****   if((pOBInit->WRPArea == OB_WRPAREA_BANK1_AREAA) || (pOBInit->WRPArea == OB_WRPAREA_BANK1_AREAB) |
 410:D:/iot/felix2/targets/Cloud_STM32L431_BearPi/Drivers/STM32L4xx_HAL_Driver/Src\stm32l4xx_hal_flash_ex.c ****      (pOBInit->WRPArea == OB_WRPAREA_BANK2_AREAA) || (pOBInit->WRPArea == OB_WRPAREA_BANK2_AREAB))
 411:D:/iot/felix2/targets/Cloud_STM32L431_BearPi/Drivers/STM32L4xx_HAL_Driver/Src\stm32l4xx_hal_flash_ex.c **** #else
 412:D:/iot/felix2/targets/Cloud_STM32L431_BearPi/Drivers/STM32L4xx_HAL_Driver/Src\stm32l4xx_hal_flash_ex.c ****   if((pOBInit->WRPArea == OB_WRPAREA_BANK1_AREAA) || (pOBInit->WRPArea == OB_WRPAREA_BANK1_AREAB))
 601              		.loc 1 412 0
 602 000e 7B68     		ldr	r3, [r7, #4]
 603 0010 5B68     		ldr	r3, [r3, #4]
 604 0012 002B     		cmp	r3, #0
 605 0014 03D0     		beq	.L40
 606              		.loc 1 412 0 is_stmt 0 discriminator 1
 607 0016 7B68     		ldr	r3, [r7, #4]
 608 0018 5B68     		ldr	r3, [r3, #4]
 609 001a 012B     		cmp	r3, #1
 610 001c 0FD1     		bne	.L41
 611              	.L40:
 413:D:/iot/felix2/targets/Cloud_STM32L431_BearPi/Drivers/STM32L4xx_HAL_Driver/Src\stm32l4xx_hal_flash_ex.c **** #endif
 414:D:/iot/felix2/targets/Cloud_STM32L431_BearPi/Drivers/STM32L4xx_HAL_Driver/Src\stm32l4xx_hal_flash_ex.c ****   {
 415:D:/iot/felix2/targets/Cloud_STM32L431_BearPi/Drivers/STM32L4xx_HAL_Driver/Src\stm32l4xx_hal_flash_ex.c ****     pOBInit->OptionType |= OPTIONBYTE_WRP;
 612              		.loc 1 415 0 is_stmt 1
 613 001e 7B68     		ldr	r3, [r7, #4]
 614 0020 1B68     		ldr	r3, [r3]
 615 0022 43F00102 		orr	r2, r3, #1
 616 0026 7B68     		ldr	r3, [r7, #4]
ARM GAS  C:\Users\91458\AppData\Local\Temp\cct4oxZw.s 			page 19


 617 0028 1A60     		str	r2, [r3]
 416:D:/iot/felix2/targets/Cloud_STM32L431_BearPi/Drivers/STM32L4xx_HAL_Driver/Src\stm32l4xx_hal_flash_ex.c ****     /* Get write protection on the selected area */
 417:D:/iot/felix2/targets/Cloud_STM32L431_BearPi/Drivers/STM32L4xx_HAL_Driver/Src\stm32l4xx_hal_flash_ex.c ****     FLASH_OB_GetWRP(pOBInit->WRPArea, &(pOBInit->WRPStartOffset), &(pOBInit->WRPEndOffset));
 618              		.loc 1 417 0
 619 002a 7B68     		ldr	r3, [r7, #4]
 620 002c 5868     		ldr	r0, [r3, #4]
 621 002e 7B68     		ldr	r3, [r7, #4]
 622 0030 03F10801 		add	r1, r3, #8
 623 0034 7B68     		ldr	r3, [r7, #4]
 624 0036 0C33     		adds	r3, r3, #12
 625 0038 1A46     		mov	r2, r3
 626 003a FFF7FEFF 		bl	FLASH_OB_GetWRP
 627              	.L41:
 418:D:/iot/felix2/targets/Cloud_STM32L431_BearPi/Drivers/STM32L4xx_HAL_Driver/Src\stm32l4xx_hal_flash_ex.c ****   }
 419:D:/iot/felix2/targets/Cloud_STM32L431_BearPi/Drivers/STM32L4xx_HAL_Driver/Src\stm32l4xx_hal_flash_ex.c ****   
 420:D:/iot/felix2/targets/Cloud_STM32L431_BearPi/Drivers/STM32L4xx_HAL_Driver/Src\stm32l4xx_hal_flash_ex.c ****   /* Get Read protection level */
 421:D:/iot/felix2/targets/Cloud_STM32L431_BearPi/Drivers/STM32L4xx_HAL_Driver/Src\stm32l4xx_hal_flash_ex.c ****   pOBInit->RDPLevel = FLASH_OB_GetRDP();
 628              		.loc 1 421 0
 629 003e FFF7FEFF 		bl	FLASH_OB_GetRDP
 630 0042 0246     		mov	r2, r0
 631 0044 7B68     		ldr	r3, [r7, #4]
 632 0046 1A61     		str	r2, [r3, #16]
 422:D:/iot/felix2/targets/Cloud_STM32L431_BearPi/Drivers/STM32L4xx_HAL_Driver/Src\stm32l4xx_hal_flash_ex.c ****   
 423:D:/iot/felix2/targets/Cloud_STM32L431_BearPi/Drivers/STM32L4xx_HAL_Driver/Src\stm32l4xx_hal_flash_ex.c ****   /* Get the user option bytes */
 424:D:/iot/felix2/targets/Cloud_STM32L431_BearPi/Drivers/STM32L4xx_HAL_Driver/Src\stm32l4xx_hal_flash_ex.c ****   pOBInit->USERConfig = FLASH_OB_GetUser();
 633              		.loc 1 424 0
 634 0048 FFF7FEFF 		bl	FLASH_OB_GetUser
 635 004c 0246     		mov	r2, r0
 636 004e 7B68     		ldr	r3, [r7, #4]
 637 0050 9A61     		str	r2, [r3, #24]
 425:D:/iot/felix2/targets/Cloud_STM32L431_BearPi/Drivers/STM32L4xx_HAL_Driver/Src\stm32l4xx_hal_flash_ex.c ****   
 426:D:/iot/felix2/targets/Cloud_STM32L431_BearPi/Drivers/STM32L4xx_HAL_Driver/Src\stm32l4xx_hal_flash_ex.c **** #if defined (STM32L471xx) || defined (STM32L475xx) || defined (STM32L476xx) || defined (STM32L485xx
 427:D:/iot/felix2/targets/Cloud_STM32L431_BearPi/Drivers/STM32L4xx_HAL_Driver/Src\stm32l4xx_hal_flash_ex.c ****     defined (STM32L496xx) || defined (STM32L4A6xx) || \
 428:D:/iot/felix2/targets/Cloud_STM32L431_BearPi/Drivers/STM32L4xx_HAL_Driver/Src\stm32l4xx_hal_flash_ex.c ****     defined (STM32L4R5xx) || defined (STM32L4R7xx) || defined (STM32L4R9xx) || defined (STM32L4S5xx
 429:D:/iot/felix2/targets/Cloud_STM32L431_BearPi/Drivers/STM32L4xx_HAL_Driver/Src\stm32l4xx_hal_flash_ex.c ****   if((pOBInit->PCROPConfig == FLASH_BANK_1) || (pOBInit->PCROPConfig == FLASH_BANK_2))
 430:D:/iot/felix2/targets/Cloud_STM32L431_BearPi/Drivers/STM32L4xx_HAL_Driver/Src\stm32l4xx_hal_flash_ex.c **** #else
 431:D:/iot/felix2/targets/Cloud_STM32L431_BearPi/Drivers/STM32L4xx_HAL_Driver/Src\stm32l4xx_hal_flash_ex.c ****   if(pOBInit->PCROPConfig == FLASH_BANK_1)
 638              		.loc 1 431 0
 639 0052 7B68     		ldr	r3, [r7, #4]
 640 0054 DB69     		ldr	r3, [r3, #28]
 641 0056 012B     		cmp	r3, #1
 642 0058 10D1     		bne	.L43
 432:D:/iot/felix2/targets/Cloud_STM32L431_BearPi/Drivers/STM32L4xx_HAL_Driver/Src\stm32l4xx_hal_flash_ex.c **** #endif    
 433:D:/iot/felix2/targets/Cloud_STM32L431_BearPi/Drivers/STM32L4xx_HAL_Driver/Src\stm32l4xx_hal_flash_ex.c ****   {
 434:D:/iot/felix2/targets/Cloud_STM32L431_BearPi/Drivers/STM32L4xx_HAL_Driver/Src\stm32l4xx_hal_flash_ex.c ****     pOBInit->OptionType |= OPTIONBYTE_PCROP;
 643              		.loc 1 434 0
 644 005a 7B68     		ldr	r3, [r7, #4]
 645 005c 1B68     		ldr	r3, [r3]
 646 005e 43F00802 		orr	r2, r3, #8
 647 0062 7B68     		ldr	r3, [r7, #4]
 648 0064 1A60     		str	r2, [r3]
 435:D:/iot/felix2/targets/Cloud_STM32L431_BearPi/Drivers/STM32L4xx_HAL_Driver/Src\stm32l4xx_hal_flash_ex.c ****     /* Get the Proprietary code readout protection */
 436:D:/iot/felix2/targets/Cloud_STM32L431_BearPi/Drivers/STM32L4xx_HAL_Driver/Src\stm32l4xx_hal_flash_ex.c ****     FLASH_OB_GetPCROP(&(pOBInit->PCROPConfig), &(pOBInit->PCROPStartAddr), &(pOBInit->PCROPEndAddr)
 649              		.loc 1 436 0
 650 0066 7B68     		ldr	r3, [r7, #4]
 651 0068 03F11C00 		add	r0, r3, #28
 652 006c 7B68     		ldr	r3, [r7, #4]
ARM GAS  C:\Users\91458\AppData\Local\Temp\cct4oxZw.s 			page 20


 653 006e 03F12001 		add	r1, r3, #32
 654 0072 7B68     		ldr	r3, [r7, #4]
 655 0074 2433     		adds	r3, r3, #36
 656 0076 1A46     		mov	r2, r3
 657 0078 FFF7FEFF 		bl	FLASH_OB_GetPCROP
 658              	.L43:
 437:D:/iot/felix2/targets/Cloud_STM32L431_BearPi/Drivers/STM32L4xx_HAL_Driver/Src\stm32l4xx_hal_flash_ex.c ****   }
 438:D:/iot/felix2/targets/Cloud_STM32L431_BearPi/Drivers/STM32L4xx_HAL_Driver/Src\stm32l4xx_hal_flash_ex.c **** }
 659              		.loc 1 438 0
 660 007c 00BF     		nop
 661 007e 0837     		adds	r7, r7, #8
 662              	.LCFI18:
 663              		.cfi_def_cfa_offset 8
 664 0080 BD46     		mov	sp, r7
 665              	.LCFI19:
 666              		.cfi_def_cfa_register 13
 667              		@ sp needed
 668 0082 80BD     		pop	{r7, pc}
 669              		.cfi_endproc
 670              	.LFE136:
 672              		.section	.text.FLASH_MassErase,"ax",%progbits
 673              		.align	1
 674              		.syntax unified
 675              		.thumb
 676              		.thumb_func
 677              		.fpu fpv4-sp-d16
 679              	FLASH_MassErase:
 680              	.LFB137:
 439:D:/iot/felix2/targets/Cloud_STM32L431_BearPi/Drivers/STM32L4xx_HAL_Driver/Src\stm32l4xx_hal_flash_ex.c **** 
 440:D:/iot/felix2/targets/Cloud_STM32L431_BearPi/Drivers/STM32L4xx_HAL_Driver/Src\stm32l4xx_hal_flash_ex.c **** /**
 441:D:/iot/felix2/targets/Cloud_STM32L431_BearPi/Drivers/STM32L4xx_HAL_Driver/Src\stm32l4xx_hal_flash_ex.c ****   * @}
 442:D:/iot/felix2/targets/Cloud_STM32L431_BearPi/Drivers/STM32L4xx_HAL_Driver/Src\stm32l4xx_hal_flash_ex.c ****   */ 
 443:D:/iot/felix2/targets/Cloud_STM32L431_BearPi/Drivers/STM32L4xx_HAL_Driver/Src\stm32l4xx_hal_flash_ex.c **** 
 444:D:/iot/felix2/targets/Cloud_STM32L431_BearPi/Drivers/STM32L4xx_HAL_Driver/Src\stm32l4xx_hal_flash_ex.c **** #if defined (FLASH_CFGR_LVEN)
 445:D:/iot/felix2/targets/Cloud_STM32L431_BearPi/Drivers/STM32L4xx_HAL_Driver/Src\stm32l4xx_hal_flash_ex.c **** /** @defgroup FLASHEx_Exported_Functions_Group2 Extended specific configuration functions
 446:D:/iot/felix2/targets/Cloud_STM32L431_BearPi/Drivers/STM32L4xx_HAL_Driver/Src\stm32l4xx_hal_flash_ex.c ****  *  @brief   Extended specific configuration functions
 447:D:/iot/felix2/targets/Cloud_STM32L431_BearPi/Drivers/STM32L4xx_HAL_Driver/Src\stm32l4xx_hal_flash_ex.c ****  *
 448:D:/iot/felix2/targets/Cloud_STM32L431_BearPi/Drivers/STM32L4xx_HAL_Driver/Src\stm32l4xx_hal_flash_ex.c **** @verbatim
 449:D:/iot/felix2/targets/Cloud_STM32L431_BearPi/Drivers/STM32L4xx_HAL_Driver/Src\stm32l4xx_hal_flash_ex.c ****  ===============================================================================
 450:D:/iot/felix2/targets/Cloud_STM32L431_BearPi/Drivers/STM32L4xx_HAL_Driver/Src\stm32l4xx_hal_flash_ex.c ****                 ##### Extended specific configuration functions #####
 451:D:/iot/felix2/targets/Cloud_STM32L431_BearPi/Drivers/STM32L4xx_HAL_Driver/Src\stm32l4xx_hal_flash_ex.c ****  ===============================================================================
 452:D:/iot/felix2/targets/Cloud_STM32L431_BearPi/Drivers/STM32L4xx_HAL_Driver/Src\stm32l4xx_hal_flash_ex.c ****     [..]
 453:D:/iot/felix2/targets/Cloud_STM32L431_BearPi/Drivers/STM32L4xx_HAL_Driver/Src\stm32l4xx_hal_flash_ex.c ****     This subsection provides a set of functions allowing to manage the Extended FLASH
 454:D:/iot/felix2/targets/Cloud_STM32L431_BearPi/Drivers/STM32L4xx_HAL_Driver/Src\stm32l4xx_hal_flash_ex.c ****     specific configurations.
 455:D:/iot/felix2/targets/Cloud_STM32L431_BearPi/Drivers/STM32L4xx_HAL_Driver/Src\stm32l4xx_hal_flash_ex.c **** 
 456:D:/iot/felix2/targets/Cloud_STM32L431_BearPi/Drivers/STM32L4xx_HAL_Driver/Src\stm32l4xx_hal_flash_ex.c **** @endverbatim
 457:D:/iot/felix2/targets/Cloud_STM32L431_BearPi/Drivers/STM32L4xx_HAL_Driver/Src\stm32l4xx_hal_flash_ex.c ****   * @{
 458:D:/iot/felix2/targets/Cloud_STM32L431_BearPi/Drivers/STM32L4xx_HAL_Driver/Src\stm32l4xx_hal_flash_ex.c ****   */
 459:D:/iot/felix2/targets/Cloud_STM32L431_BearPi/Drivers/STM32L4xx_HAL_Driver/Src\stm32l4xx_hal_flash_ex.c **** 
 460:D:/iot/felix2/targets/Cloud_STM32L431_BearPi/Drivers/STM32L4xx_HAL_Driver/Src\stm32l4xx_hal_flash_ex.c **** /**
 461:D:/iot/felix2/targets/Cloud_STM32L431_BearPi/Drivers/STM32L4xx_HAL_Driver/Src\stm32l4xx_hal_flash_ex.c ****   * @brief  Configuration of the LVE pin of the Flash (managed by power controller
 462:D:/iot/felix2/targets/Cloud_STM32L431_BearPi/Drivers/STM32L4xx_HAL_Driver/Src\stm32l4xx_hal_flash_ex.c ****   *         or forced to low in order to use an external SMPS)
 463:D:/iot/felix2/targets/Cloud_STM32L431_BearPi/Drivers/STM32L4xx_HAL_Driver/Src\stm32l4xx_hal_flash_ex.c ****   * @param  ConfigLVE: Configuration of the LVE pin,
 464:D:/iot/felix2/targets/Cloud_STM32L431_BearPi/Drivers/STM32L4xx_HAL_Driver/Src\stm32l4xx_hal_flash_ex.c ****   *              This parameter can be one of the following values:
 465:D:/iot/felix2/targets/Cloud_STM32L431_BearPi/Drivers/STM32L4xx_HAL_Driver/Src\stm32l4xx_hal_flash_ex.c ****   *                @arg FLASH_LVE_PIN_CTRL: LVE FLASH pin controlled by power controller
 466:D:/iot/felix2/targets/Cloud_STM32L431_BearPi/Drivers/STM32L4xx_HAL_Driver/Src\stm32l4xx_hal_flash_ex.c ****   *                @arg FLASH_LVE_PIN_FORCED: LVE FLASH pin enforced to low (external SMPS used)
 467:D:/iot/felix2/targets/Cloud_STM32L431_BearPi/Drivers/STM32L4xx_HAL_Driver/Src\stm32l4xx_hal_flash_ex.c ****   *
ARM GAS  C:\Users\91458\AppData\Local\Temp\cct4oxZw.s 			page 21


 468:D:/iot/felix2/targets/Cloud_STM32L431_BearPi/Drivers/STM32L4xx_HAL_Driver/Src\stm32l4xx_hal_flash_ex.c ****   * @note   Before enforcing the LVE pin to low, the SOC should be in low voltage
 469:D:/iot/felix2/targets/Cloud_STM32L431_BearPi/Drivers/STM32L4xx_HAL_Driver/Src\stm32l4xx_hal_flash_ex.c ****   *         range 2 and the voltage VDD12 should be higher than 1.08V and SMPS is ON.
 470:D:/iot/felix2/targets/Cloud_STM32L431_BearPi/Drivers/STM32L4xx_HAL_Driver/Src\stm32l4xx_hal_flash_ex.c ****   *
 471:D:/iot/felix2/targets/Cloud_STM32L431_BearPi/Drivers/STM32L4xx_HAL_Driver/Src\stm32l4xx_hal_flash_ex.c ****   * @retval HAL Status
 472:D:/iot/felix2/targets/Cloud_STM32L431_BearPi/Drivers/STM32L4xx_HAL_Driver/Src\stm32l4xx_hal_flash_ex.c ****   */
 473:D:/iot/felix2/targets/Cloud_STM32L431_BearPi/Drivers/STM32L4xx_HAL_Driver/Src\stm32l4xx_hal_flash_ex.c **** HAL_StatusTypeDef HAL_FLASHEx_ConfigLVEPin(uint32_t ConfigLVE)
 474:D:/iot/felix2/targets/Cloud_STM32L431_BearPi/Drivers/STM32L4xx_HAL_Driver/Src\stm32l4xx_hal_flash_ex.c **** {
 475:D:/iot/felix2/targets/Cloud_STM32L431_BearPi/Drivers/STM32L4xx_HAL_Driver/Src\stm32l4xx_hal_flash_ex.c ****   HAL_StatusTypeDef status;
 476:D:/iot/felix2/targets/Cloud_STM32L431_BearPi/Drivers/STM32L4xx_HAL_Driver/Src\stm32l4xx_hal_flash_ex.c **** 
 477:D:/iot/felix2/targets/Cloud_STM32L431_BearPi/Drivers/STM32L4xx_HAL_Driver/Src\stm32l4xx_hal_flash_ex.c ****   /* Process Locked */
 478:D:/iot/felix2/targets/Cloud_STM32L431_BearPi/Drivers/STM32L4xx_HAL_Driver/Src\stm32l4xx_hal_flash_ex.c ****   __HAL_LOCK(&pFlash);
 479:D:/iot/felix2/targets/Cloud_STM32L431_BearPi/Drivers/STM32L4xx_HAL_Driver/Src\stm32l4xx_hal_flash_ex.c **** 
 480:D:/iot/felix2/targets/Cloud_STM32L431_BearPi/Drivers/STM32L4xx_HAL_Driver/Src\stm32l4xx_hal_flash_ex.c ****   /* Check the parameters */
 481:D:/iot/felix2/targets/Cloud_STM32L431_BearPi/Drivers/STM32L4xx_HAL_Driver/Src\stm32l4xx_hal_flash_ex.c ****   assert_param(IS_FLASH_LVE_PIN(ConfigLVE));
 482:D:/iot/felix2/targets/Cloud_STM32L431_BearPi/Drivers/STM32L4xx_HAL_Driver/Src\stm32l4xx_hal_flash_ex.c **** 
 483:D:/iot/felix2/targets/Cloud_STM32L431_BearPi/Drivers/STM32L4xx_HAL_Driver/Src\stm32l4xx_hal_flash_ex.c ****   /* Wait for last operation to be completed */
 484:D:/iot/felix2/targets/Cloud_STM32L431_BearPi/Drivers/STM32L4xx_HAL_Driver/Src\stm32l4xx_hal_flash_ex.c ****   status = FLASH_WaitForLastOperation((uint32_t)FLASH_TIMEOUT_VALUE);
 485:D:/iot/felix2/targets/Cloud_STM32L431_BearPi/Drivers/STM32L4xx_HAL_Driver/Src\stm32l4xx_hal_flash_ex.c **** 
 486:D:/iot/felix2/targets/Cloud_STM32L431_BearPi/Drivers/STM32L4xx_HAL_Driver/Src\stm32l4xx_hal_flash_ex.c ****   if (status == HAL_OK)
 487:D:/iot/felix2/targets/Cloud_STM32L431_BearPi/Drivers/STM32L4xx_HAL_Driver/Src\stm32l4xx_hal_flash_ex.c ****   {
 488:D:/iot/felix2/targets/Cloud_STM32L431_BearPi/Drivers/STM32L4xx_HAL_Driver/Src\stm32l4xx_hal_flash_ex.c ****     /* Check that the voltage scaling is range 2 */
 489:D:/iot/felix2/targets/Cloud_STM32L431_BearPi/Drivers/STM32L4xx_HAL_Driver/Src\stm32l4xx_hal_flash_ex.c ****     if (HAL_PWREx_GetVoltageRange() == PWR_REGULATOR_VOLTAGE_SCALE2)
 490:D:/iot/felix2/targets/Cloud_STM32L431_BearPi/Drivers/STM32L4xx_HAL_Driver/Src\stm32l4xx_hal_flash_ex.c ****     {
 491:D:/iot/felix2/targets/Cloud_STM32L431_BearPi/Drivers/STM32L4xx_HAL_Driver/Src\stm32l4xx_hal_flash_ex.c ****       /* Configure the LVEN bit */
 492:D:/iot/felix2/targets/Cloud_STM32L431_BearPi/Drivers/STM32L4xx_HAL_Driver/Src\stm32l4xx_hal_flash_ex.c ****       MODIFY_REG(FLASH->CFGR, FLASH_CFGR_LVEN, ConfigLVE);
 493:D:/iot/felix2/targets/Cloud_STM32L431_BearPi/Drivers/STM32L4xx_HAL_Driver/Src\stm32l4xx_hal_flash_ex.c ****  
 494:D:/iot/felix2/targets/Cloud_STM32L431_BearPi/Drivers/STM32L4xx_HAL_Driver/Src\stm32l4xx_hal_flash_ex.c ****       /* Check that the bit has been correctly configured */
 495:D:/iot/felix2/targets/Cloud_STM32L431_BearPi/Drivers/STM32L4xx_HAL_Driver/Src\stm32l4xx_hal_flash_ex.c ****       if (READ_BIT(FLASH->CFGR, FLASH_CFGR_LVEN) != ConfigLVE)
 496:D:/iot/felix2/targets/Cloud_STM32L431_BearPi/Drivers/STM32L4xx_HAL_Driver/Src\stm32l4xx_hal_flash_ex.c ****       {
 497:D:/iot/felix2/targets/Cloud_STM32L431_BearPi/Drivers/STM32L4xx_HAL_Driver/Src\stm32l4xx_hal_flash_ex.c ****         status = HAL_ERROR;
 498:D:/iot/felix2/targets/Cloud_STM32L431_BearPi/Drivers/STM32L4xx_HAL_Driver/Src\stm32l4xx_hal_flash_ex.c ****       }
 499:D:/iot/felix2/targets/Cloud_STM32L431_BearPi/Drivers/STM32L4xx_HAL_Driver/Src\stm32l4xx_hal_flash_ex.c ****     }
 500:D:/iot/felix2/targets/Cloud_STM32L431_BearPi/Drivers/STM32L4xx_HAL_Driver/Src\stm32l4xx_hal_flash_ex.c ****     else
 501:D:/iot/felix2/targets/Cloud_STM32L431_BearPi/Drivers/STM32L4xx_HAL_Driver/Src\stm32l4xx_hal_flash_ex.c ****     {
 502:D:/iot/felix2/targets/Cloud_STM32L431_BearPi/Drivers/STM32L4xx_HAL_Driver/Src\stm32l4xx_hal_flash_ex.c ****       /* Not allow to force Flash LVE pin if not in voltage range 2 */
 503:D:/iot/felix2/targets/Cloud_STM32L431_BearPi/Drivers/STM32L4xx_HAL_Driver/Src\stm32l4xx_hal_flash_ex.c ****       status = HAL_ERROR;
 504:D:/iot/felix2/targets/Cloud_STM32L431_BearPi/Drivers/STM32L4xx_HAL_Driver/Src\stm32l4xx_hal_flash_ex.c ****     }
 505:D:/iot/felix2/targets/Cloud_STM32L431_BearPi/Drivers/STM32L4xx_HAL_Driver/Src\stm32l4xx_hal_flash_ex.c ****   }
 506:D:/iot/felix2/targets/Cloud_STM32L431_BearPi/Drivers/STM32L4xx_HAL_Driver/Src\stm32l4xx_hal_flash_ex.c **** 
 507:D:/iot/felix2/targets/Cloud_STM32L431_BearPi/Drivers/STM32L4xx_HAL_Driver/Src\stm32l4xx_hal_flash_ex.c ****   /* Process Unlocked */
 508:D:/iot/felix2/targets/Cloud_STM32L431_BearPi/Drivers/STM32L4xx_HAL_Driver/Src\stm32l4xx_hal_flash_ex.c ****   __HAL_UNLOCK(&pFlash);
 509:D:/iot/felix2/targets/Cloud_STM32L431_BearPi/Drivers/STM32L4xx_HAL_Driver/Src\stm32l4xx_hal_flash_ex.c **** 
 510:D:/iot/felix2/targets/Cloud_STM32L431_BearPi/Drivers/STM32L4xx_HAL_Driver/Src\stm32l4xx_hal_flash_ex.c ****   return status;
 511:D:/iot/felix2/targets/Cloud_STM32L431_BearPi/Drivers/STM32L4xx_HAL_Driver/Src\stm32l4xx_hal_flash_ex.c **** }
 512:D:/iot/felix2/targets/Cloud_STM32L431_BearPi/Drivers/STM32L4xx_HAL_Driver/Src\stm32l4xx_hal_flash_ex.c **** 
 513:D:/iot/felix2/targets/Cloud_STM32L431_BearPi/Drivers/STM32L4xx_HAL_Driver/Src\stm32l4xx_hal_flash_ex.c **** /**
 514:D:/iot/felix2/targets/Cloud_STM32L431_BearPi/Drivers/STM32L4xx_HAL_Driver/Src\stm32l4xx_hal_flash_ex.c ****   * @}
 515:D:/iot/felix2/targets/Cloud_STM32L431_BearPi/Drivers/STM32L4xx_HAL_Driver/Src\stm32l4xx_hal_flash_ex.c ****   */
 516:D:/iot/felix2/targets/Cloud_STM32L431_BearPi/Drivers/STM32L4xx_HAL_Driver/Src\stm32l4xx_hal_flash_ex.c **** #endif /* FLASH_CFGR_LVEN */
 517:D:/iot/felix2/targets/Cloud_STM32L431_BearPi/Drivers/STM32L4xx_HAL_Driver/Src\stm32l4xx_hal_flash_ex.c **** 
 518:D:/iot/felix2/targets/Cloud_STM32L431_BearPi/Drivers/STM32L4xx_HAL_Driver/Src\stm32l4xx_hal_flash_ex.c **** /**
 519:D:/iot/felix2/targets/Cloud_STM32L431_BearPi/Drivers/STM32L4xx_HAL_Driver/Src\stm32l4xx_hal_flash_ex.c ****   * @}
 520:D:/iot/felix2/targets/Cloud_STM32L431_BearPi/Drivers/STM32L4xx_HAL_Driver/Src\stm32l4xx_hal_flash_ex.c ****   */
 521:D:/iot/felix2/targets/Cloud_STM32L431_BearPi/Drivers/STM32L4xx_HAL_Driver/Src\stm32l4xx_hal_flash_ex.c **** 
 522:D:/iot/felix2/targets/Cloud_STM32L431_BearPi/Drivers/STM32L4xx_HAL_Driver/Src\stm32l4xx_hal_flash_ex.c **** /* Private functions ---------------------------------------------------------*/
 523:D:/iot/felix2/targets/Cloud_STM32L431_BearPi/Drivers/STM32L4xx_HAL_Driver/Src\stm32l4xx_hal_flash_ex.c **** 
 524:D:/iot/felix2/targets/Cloud_STM32L431_BearPi/Drivers/STM32L4xx_HAL_Driver/Src\stm32l4xx_hal_flash_ex.c **** /** @addtogroup FLASHEx_Private_Functions
ARM GAS  C:\Users\91458\AppData\Local\Temp\cct4oxZw.s 			page 22


 525:D:/iot/felix2/targets/Cloud_STM32L431_BearPi/Drivers/STM32L4xx_HAL_Driver/Src\stm32l4xx_hal_flash_ex.c ****   * @{
 526:D:/iot/felix2/targets/Cloud_STM32L431_BearPi/Drivers/STM32L4xx_HAL_Driver/Src\stm32l4xx_hal_flash_ex.c ****   */
 527:D:/iot/felix2/targets/Cloud_STM32L431_BearPi/Drivers/STM32L4xx_HAL_Driver/Src\stm32l4xx_hal_flash_ex.c **** /**
 528:D:/iot/felix2/targets/Cloud_STM32L431_BearPi/Drivers/STM32L4xx_HAL_Driver/Src\stm32l4xx_hal_flash_ex.c ****   * @brief  Mass erase of FLASH memory.
 529:D:/iot/felix2/targets/Cloud_STM32L431_BearPi/Drivers/STM32L4xx_HAL_Driver/Src\stm32l4xx_hal_flash_ex.c ****   * @param  Banks: Banks to be erased
 530:D:/iot/felix2/targets/Cloud_STM32L431_BearPi/Drivers/STM32L4xx_HAL_Driver/Src\stm32l4xx_hal_flash_ex.c ****   *          This parameter can be one of the following values:
 531:D:/iot/felix2/targets/Cloud_STM32L431_BearPi/Drivers/STM32L4xx_HAL_Driver/Src\stm32l4xx_hal_flash_ex.c ****   *            @arg FLASH_BANK_1: Bank1 to be erased
 532:D:/iot/felix2/targets/Cloud_STM32L431_BearPi/Drivers/STM32L4xx_HAL_Driver/Src\stm32l4xx_hal_flash_ex.c ****   *            @arg FLASH_BANK_2: Bank2 to be erased
 533:D:/iot/felix2/targets/Cloud_STM32L431_BearPi/Drivers/STM32L4xx_HAL_Driver/Src\stm32l4xx_hal_flash_ex.c ****   *            @arg FLASH_BANK_BOTH: Bank1 and Bank2 to be erased
 534:D:/iot/felix2/targets/Cloud_STM32L431_BearPi/Drivers/STM32L4xx_HAL_Driver/Src\stm32l4xx_hal_flash_ex.c ****   * @retval None
 535:D:/iot/felix2/targets/Cloud_STM32L431_BearPi/Drivers/STM32L4xx_HAL_Driver/Src\stm32l4xx_hal_flash_ex.c ****   */
 536:D:/iot/felix2/targets/Cloud_STM32L431_BearPi/Drivers/STM32L4xx_HAL_Driver/Src\stm32l4xx_hal_flash_ex.c **** static void FLASH_MassErase(uint32_t Banks)
 537:D:/iot/felix2/targets/Cloud_STM32L431_BearPi/Drivers/STM32L4xx_HAL_Driver/Src\stm32l4xx_hal_flash_ex.c **** {
 681              		.loc 1 537 0
 682              		.cfi_startproc
 683              		@ args = 0, pretend = 0, frame = 8
 684              		@ frame_needed = 1, uses_anonymous_args = 0
 685              		@ link register save eliminated.
 686 0000 80B4     		push	{r7}
 687              	.LCFI20:
 688              		.cfi_def_cfa_offset 4
 689              		.cfi_offset 7, -4
 690 0002 83B0     		sub	sp, sp, #12
 691              	.LCFI21:
 692              		.cfi_def_cfa_offset 16
 693 0004 00AF     		add	r7, sp, #0
 694              	.LCFI22:
 695              		.cfi_def_cfa_register 7
 696 0006 7860     		str	r0, [r7, #4]
 538:D:/iot/felix2/targets/Cloud_STM32L431_BearPi/Drivers/STM32L4xx_HAL_Driver/Src\stm32l4xx_hal_flash_ex.c **** #if defined (STM32L4R5xx) || defined (STM32L4R7xx) || defined (STM32L4R9xx) || defined (STM32L4S5xx
 539:D:/iot/felix2/targets/Cloud_STM32L431_BearPi/Drivers/STM32L4xx_HAL_Driver/Src\stm32l4xx_hal_flash_ex.c ****   if (READ_BIT(FLASH->OPTR, FLASH_OPTR_DBANK) != 0U)
 540:D:/iot/felix2/targets/Cloud_STM32L431_BearPi/Drivers/STM32L4xx_HAL_Driver/Src\stm32l4xx_hal_flash_ex.c **** #endif
 541:D:/iot/felix2/targets/Cloud_STM32L431_BearPi/Drivers/STM32L4xx_HAL_Driver/Src\stm32l4xx_hal_flash_ex.c ****   {
 542:D:/iot/felix2/targets/Cloud_STM32L431_BearPi/Drivers/STM32L4xx_HAL_Driver/Src\stm32l4xx_hal_flash_ex.c ****     /* Check the parameters */
 543:D:/iot/felix2/targets/Cloud_STM32L431_BearPi/Drivers/STM32L4xx_HAL_Driver/Src\stm32l4xx_hal_flash_ex.c ****     assert_param(IS_FLASH_BANK(Banks));
 544:D:/iot/felix2/targets/Cloud_STM32L431_BearPi/Drivers/STM32L4xx_HAL_Driver/Src\stm32l4xx_hal_flash_ex.c **** 
 545:D:/iot/felix2/targets/Cloud_STM32L431_BearPi/Drivers/STM32L4xx_HAL_Driver/Src\stm32l4xx_hal_flash_ex.c ****     /* Set the Mass Erase Bit for the bank 1 if requested */
 546:D:/iot/felix2/targets/Cloud_STM32L431_BearPi/Drivers/STM32L4xx_HAL_Driver/Src\stm32l4xx_hal_flash_ex.c ****     if((Banks & FLASH_BANK_1) != 0U)
 697              		.loc 1 546 0
 698 0008 7B68     		ldr	r3, [r7, #4]
 699 000a 03F00103 		and	r3, r3, #1
 700 000e 002B     		cmp	r3, #0
 701 0010 05D0     		beq	.L45
 547:D:/iot/felix2/targets/Cloud_STM32L431_BearPi/Drivers/STM32L4xx_HAL_Driver/Src\stm32l4xx_hal_flash_ex.c ****     {
 548:D:/iot/felix2/targets/Cloud_STM32L431_BearPi/Drivers/STM32L4xx_HAL_Driver/Src\stm32l4xx_hal_flash_ex.c ****       SET_BIT(FLASH->CR, FLASH_CR_MER1);
 702              		.loc 1 548 0
 703 0012 094B     		ldr	r3, .L46
 704 0014 5B69     		ldr	r3, [r3, #20]
 705 0016 084A     		ldr	r2, .L46
 706 0018 43F00403 		orr	r3, r3, #4
 707 001c 5361     		str	r3, [r2, #20]
 708              	.L45:
 549:D:/iot/felix2/targets/Cloud_STM32L431_BearPi/Drivers/STM32L4xx_HAL_Driver/Src\stm32l4xx_hal_flash_ex.c ****     }
 550:D:/iot/felix2/targets/Cloud_STM32L431_BearPi/Drivers/STM32L4xx_HAL_Driver/Src\stm32l4xx_hal_flash_ex.c ****     
 551:D:/iot/felix2/targets/Cloud_STM32L431_BearPi/Drivers/STM32L4xx_HAL_Driver/Src\stm32l4xx_hal_flash_ex.c **** #if defined (STM32L471xx) || defined (STM32L475xx) || defined (STM32L476xx) || defined (STM32L485xx
 552:D:/iot/felix2/targets/Cloud_STM32L431_BearPi/Drivers/STM32L4xx_HAL_Driver/Src\stm32l4xx_hal_flash_ex.c ****     defined (STM32L496xx) || defined (STM32L4A6xx) || \
 553:D:/iot/felix2/targets/Cloud_STM32L431_BearPi/Drivers/STM32L4xx_HAL_Driver/Src\stm32l4xx_hal_flash_ex.c ****     defined (STM32L4R5xx) || defined (STM32L4R7xx) || defined (STM32L4R9xx) || defined (STM32L4S5xx
ARM GAS  C:\Users\91458\AppData\Local\Temp\cct4oxZw.s 			page 23


 554:D:/iot/felix2/targets/Cloud_STM32L431_BearPi/Drivers/STM32L4xx_HAL_Driver/Src\stm32l4xx_hal_flash_ex.c ****     /* Set the Mass Erase Bit for the bank 2 if requested */
 555:D:/iot/felix2/targets/Cloud_STM32L431_BearPi/Drivers/STM32L4xx_HAL_Driver/Src\stm32l4xx_hal_flash_ex.c ****     if((Banks & FLASH_BANK_2) != 0U)
 556:D:/iot/felix2/targets/Cloud_STM32L431_BearPi/Drivers/STM32L4xx_HAL_Driver/Src\stm32l4xx_hal_flash_ex.c ****     {
 557:D:/iot/felix2/targets/Cloud_STM32L431_BearPi/Drivers/STM32L4xx_HAL_Driver/Src\stm32l4xx_hal_flash_ex.c ****       SET_BIT(FLASH->CR, FLASH_CR_MER2);
 558:D:/iot/felix2/targets/Cloud_STM32L431_BearPi/Drivers/STM32L4xx_HAL_Driver/Src\stm32l4xx_hal_flash_ex.c ****     }
 559:D:/iot/felix2/targets/Cloud_STM32L431_BearPi/Drivers/STM32L4xx_HAL_Driver/Src\stm32l4xx_hal_flash_ex.c **** #endif
 560:D:/iot/felix2/targets/Cloud_STM32L431_BearPi/Drivers/STM32L4xx_HAL_Driver/Src\stm32l4xx_hal_flash_ex.c ****   }
 561:D:/iot/felix2/targets/Cloud_STM32L431_BearPi/Drivers/STM32L4xx_HAL_Driver/Src\stm32l4xx_hal_flash_ex.c **** #if defined (STM32L4R5xx) || defined (STM32L4R7xx) || defined (STM32L4R9xx) || defined (STM32L4S5xx
 562:D:/iot/felix2/targets/Cloud_STM32L431_BearPi/Drivers/STM32L4xx_HAL_Driver/Src\stm32l4xx_hal_flash_ex.c ****   else
 563:D:/iot/felix2/targets/Cloud_STM32L431_BearPi/Drivers/STM32L4xx_HAL_Driver/Src\stm32l4xx_hal_flash_ex.c ****   {
 564:D:/iot/felix2/targets/Cloud_STM32L431_BearPi/Drivers/STM32L4xx_HAL_Driver/Src\stm32l4xx_hal_flash_ex.c ****     SET_BIT(FLASH->CR, (FLASH_CR_MER1 | FLASH_CR_MER2));
 565:D:/iot/felix2/targets/Cloud_STM32L431_BearPi/Drivers/STM32L4xx_HAL_Driver/Src\stm32l4xx_hal_flash_ex.c ****   }
 566:D:/iot/felix2/targets/Cloud_STM32L431_BearPi/Drivers/STM32L4xx_HAL_Driver/Src\stm32l4xx_hal_flash_ex.c **** #endif
 567:D:/iot/felix2/targets/Cloud_STM32L431_BearPi/Drivers/STM32L4xx_HAL_Driver/Src\stm32l4xx_hal_flash_ex.c **** 
 568:D:/iot/felix2/targets/Cloud_STM32L431_BearPi/Drivers/STM32L4xx_HAL_Driver/Src\stm32l4xx_hal_flash_ex.c ****   /* Proceed to erase all sectors */
 569:D:/iot/felix2/targets/Cloud_STM32L431_BearPi/Drivers/STM32L4xx_HAL_Driver/Src\stm32l4xx_hal_flash_ex.c ****   SET_BIT(FLASH->CR, FLASH_CR_STRT);
 709              		.loc 1 569 0
 710 001e 064B     		ldr	r3, .L46
 711 0020 5B69     		ldr	r3, [r3, #20]
 712 0022 054A     		ldr	r2, .L46
 713 0024 43F48033 		orr	r3, r3, #65536
 714 0028 5361     		str	r3, [r2, #20]
 570:D:/iot/felix2/targets/Cloud_STM32L431_BearPi/Drivers/STM32L4xx_HAL_Driver/Src\stm32l4xx_hal_flash_ex.c **** }
 715              		.loc 1 570 0
 716 002a 00BF     		nop
 717 002c 0C37     		adds	r7, r7, #12
 718              	.LCFI23:
 719              		.cfi_def_cfa_offset 4
 720 002e BD46     		mov	sp, r7
 721              	.LCFI24:
 722              		.cfi_def_cfa_register 13
 723              		@ sp needed
 724 0030 5DF8047B 		ldr	r7, [sp], #4
 725              	.LCFI25:
 726              		.cfi_restore 7
 727              		.cfi_def_cfa_offset 0
 728 0034 7047     		bx	lr
 729              	.L47:
 730 0036 00BF     		.align	2
 731              	.L46:
 732 0038 00200240 		.word	1073881088
 733              		.cfi_endproc
 734              	.LFE137:
 736              		.section	.text.FLASH_PageErase,"ax",%progbits
 737              		.align	1
 738              		.global	FLASH_PageErase
 739              		.syntax unified
 740              		.thumb
 741              		.thumb_func
 742              		.fpu fpv4-sp-d16
 744              	FLASH_PageErase:
 745              	.LFB138:
 571:D:/iot/felix2/targets/Cloud_STM32L431_BearPi/Drivers/STM32L4xx_HAL_Driver/Src\stm32l4xx_hal_flash_ex.c **** 
 572:D:/iot/felix2/targets/Cloud_STM32L431_BearPi/Drivers/STM32L4xx_HAL_Driver/Src\stm32l4xx_hal_flash_ex.c **** /**
 573:D:/iot/felix2/targets/Cloud_STM32L431_BearPi/Drivers/STM32L4xx_HAL_Driver/Src\stm32l4xx_hal_flash_ex.c ****   * @brief  Erase the specified FLASH memory page.
 574:D:/iot/felix2/targets/Cloud_STM32L431_BearPi/Drivers/STM32L4xx_HAL_Driver/Src\stm32l4xx_hal_flash_ex.c ****   * @param  Page: FLASH page to erase
 575:D:/iot/felix2/targets/Cloud_STM32L431_BearPi/Drivers/STM32L4xx_HAL_Driver/Src\stm32l4xx_hal_flash_ex.c ****   *         This parameter must be a value between 0 and (max number of pages in the bank - 1)     
ARM GAS  C:\Users\91458\AppData\Local\Temp\cct4oxZw.s 			page 24


 576:D:/iot/felix2/targets/Cloud_STM32L431_BearPi/Drivers/STM32L4xx_HAL_Driver/Src\stm32l4xx_hal_flash_ex.c ****   * @param  Banks: Bank(s) where the page will be erased
 577:D:/iot/felix2/targets/Cloud_STM32L431_BearPi/Drivers/STM32L4xx_HAL_Driver/Src\stm32l4xx_hal_flash_ex.c ****   *          This parameter can be one of the following values:
 578:D:/iot/felix2/targets/Cloud_STM32L431_BearPi/Drivers/STM32L4xx_HAL_Driver/Src\stm32l4xx_hal_flash_ex.c ****   *            @arg FLASH_BANK_1: Page in bank 1 to be erased
 579:D:/iot/felix2/targets/Cloud_STM32L431_BearPi/Drivers/STM32L4xx_HAL_Driver/Src\stm32l4xx_hal_flash_ex.c ****   *            @arg FLASH_BANK_2: Page in bank 2 to be erased
 580:D:/iot/felix2/targets/Cloud_STM32L431_BearPi/Drivers/STM32L4xx_HAL_Driver/Src\stm32l4xx_hal_flash_ex.c ****   * @retval None
 581:D:/iot/felix2/targets/Cloud_STM32L431_BearPi/Drivers/STM32L4xx_HAL_Driver/Src\stm32l4xx_hal_flash_ex.c ****   */
 582:D:/iot/felix2/targets/Cloud_STM32L431_BearPi/Drivers/STM32L4xx_HAL_Driver/Src\stm32l4xx_hal_flash_ex.c **** void FLASH_PageErase(uint32_t Page, uint32_t Banks)
 583:D:/iot/felix2/targets/Cloud_STM32L431_BearPi/Drivers/STM32L4xx_HAL_Driver/Src\stm32l4xx_hal_flash_ex.c **** {
 746              		.loc 1 583 0
 747              		.cfi_startproc
 748              		@ args = 0, pretend = 0, frame = 8
 749              		@ frame_needed = 1, uses_anonymous_args = 0
 750              		@ link register save eliminated.
 751 0000 80B4     		push	{r7}
 752              	.LCFI26:
 753              		.cfi_def_cfa_offset 4
 754              		.cfi_offset 7, -4
 755 0002 83B0     		sub	sp, sp, #12
 756              	.LCFI27:
 757              		.cfi_def_cfa_offset 16
 758 0004 00AF     		add	r7, sp, #0
 759              	.LCFI28:
 760              		.cfi_def_cfa_register 7
 761 0006 7860     		str	r0, [r7, #4]
 762 0008 3960     		str	r1, [r7]
 584:D:/iot/felix2/targets/Cloud_STM32L431_BearPi/Drivers/STM32L4xx_HAL_Driver/Src\stm32l4xx_hal_flash_ex.c ****   /* Check the parameters */
 585:D:/iot/felix2/targets/Cloud_STM32L431_BearPi/Drivers/STM32L4xx_HAL_Driver/Src\stm32l4xx_hal_flash_ex.c ****   assert_param(IS_FLASH_PAGE(Page));
 586:D:/iot/felix2/targets/Cloud_STM32L431_BearPi/Drivers/STM32L4xx_HAL_Driver/Src\stm32l4xx_hal_flash_ex.c **** 
 587:D:/iot/felix2/targets/Cloud_STM32L431_BearPi/Drivers/STM32L4xx_HAL_Driver/Src\stm32l4xx_hal_flash_ex.c **** #if defined (STM32L471xx) || defined (STM32L475xx) || defined (STM32L476xx) || defined (STM32L485xx
 588:D:/iot/felix2/targets/Cloud_STM32L431_BearPi/Drivers/STM32L4xx_HAL_Driver/Src\stm32l4xx_hal_flash_ex.c ****     defined (STM32L496xx) || defined (STM32L4A6xx) || \
 589:D:/iot/felix2/targets/Cloud_STM32L431_BearPi/Drivers/STM32L4xx_HAL_Driver/Src\stm32l4xx_hal_flash_ex.c ****     defined (STM32L4R5xx) || defined (STM32L4R7xx) || defined (STM32L4R9xx) || defined (STM32L4S5xx
 590:D:/iot/felix2/targets/Cloud_STM32L431_BearPi/Drivers/STM32L4xx_HAL_Driver/Src\stm32l4xx_hal_flash_ex.c **** #if defined (STM32L4R5xx) || defined (STM32L4R7xx) || defined (STM32L4R9xx) || defined (STM32L4S5xx
 591:D:/iot/felix2/targets/Cloud_STM32L431_BearPi/Drivers/STM32L4xx_HAL_Driver/Src\stm32l4xx_hal_flash_ex.c ****   if(READ_BIT(FLASH->OPTR, FLASH_OPTR_DBANK) == 0U)
 592:D:/iot/felix2/targets/Cloud_STM32L431_BearPi/Drivers/STM32L4xx_HAL_Driver/Src\stm32l4xx_hal_flash_ex.c ****   {
 593:D:/iot/felix2/targets/Cloud_STM32L431_BearPi/Drivers/STM32L4xx_HAL_Driver/Src\stm32l4xx_hal_flash_ex.c ****     CLEAR_BIT(FLASH->CR, FLASH_CR_BKER);
 594:D:/iot/felix2/targets/Cloud_STM32L431_BearPi/Drivers/STM32L4xx_HAL_Driver/Src\stm32l4xx_hal_flash_ex.c ****   }
 595:D:/iot/felix2/targets/Cloud_STM32L431_BearPi/Drivers/STM32L4xx_HAL_Driver/Src\stm32l4xx_hal_flash_ex.c ****   else
 596:D:/iot/felix2/targets/Cloud_STM32L431_BearPi/Drivers/STM32L4xx_HAL_Driver/Src\stm32l4xx_hal_flash_ex.c **** #endif
 597:D:/iot/felix2/targets/Cloud_STM32L431_BearPi/Drivers/STM32L4xx_HAL_Driver/Src\stm32l4xx_hal_flash_ex.c ****   {
 598:D:/iot/felix2/targets/Cloud_STM32L431_BearPi/Drivers/STM32L4xx_HAL_Driver/Src\stm32l4xx_hal_flash_ex.c ****     assert_param(IS_FLASH_BANK_EXCLUSIVE(Banks));
 599:D:/iot/felix2/targets/Cloud_STM32L431_BearPi/Drivers/STM32L4xx_HAL_Driver/Src\stm32l4xx_hal_flash_ex.c **** 
 600:D:/iot/felix2/targets/Cloud_STM32L431_BearPi/Drivers/STM32L4xx_HAL_Driver/Src\stm32l4xx_hal_flash_ex.c ****     if((Banks & FLASH_BANK_1) != 0U)
 601:D:/iot/felix2/targets/Cloud_STM32L431_BearPi/Drivers/STM32L4xx_HAL_Driver/Src\stm32l4xx_hal_flash_ex.c ****     {
 602:D:/iot/felix2/targets/Cloud_STM32L431_BearPi/Drivers/STM32L4xx_HAL_Driver/Src\stm32l4xx_hal_flash_ex.c ****       CLEAR_BIT(FLASH->CR, FLASH_CR_BKER);
 603:D:/iot/felix2/targets/Cloud_STM32L431_BearPi/Drivers/STM32L4xx_HAL_Driver/Src\stm32l4xx_hal_flash_ex.c ****     }
 604:D:/iot/felix2/targets/Cloud_STM32L431_BearPi/Drivers/STM32L4xx_HAL_Driver/Src\stm32l4xx_hal_flash_ex.c ****     else
 605:D:/iot/felix2/targets/Cloud_STM32L431_BearPi/Drivers/STM32L4xx_HAL_Driver/Src\stm32l4xx_hal_flash_ex.c ****     {
 606:D:/iot/felix2/targets/Cloud_STM32L431_BearPi/Drivers/STM32L4xx_HAL_Driver/Src\stm32l4xx_hal_flash_ex.c ****       SET_BIT(FLASH->CR, FLASH_CR_BKER);
 607:D:/iot/felix2/targets/Cloud_STM32L431_BearPi/Drivers/STM32L4xx_HAL_Driver/Src\stm32l4xx_hal_flash_ex.c ****     }
 608:D:/iot/felix2/targets/Cloud_STM32L431_BearPi/Drivers/STM32L4xx_HAL_Driver/Src\stm32l4xx_hal_flash_ex.c ****   }
 609:D:/iot/felix2/targets/Cloud_STM32L431_BearPi/Drivers/STM32L4xx_HAL_Driver/Src\stm32l4xx_hal_flash_ex.c **** #else
 610:D:/iot/felix2/targets/Cloud_STM32L431_BearPi/Drivers/STM32L4xx_HAL_Driver/Src\stm32l4xx_hal_flash_ex.c ****   /* Prevent unused argument(s) compilation warning */
 611:D:/iot/felix2/targets/Cloud_STM32L431_BearPi/Drivers/STM32L4xx_HAL_Driver/Src\stm32l4xx_hal_flash_ex.c ****   UNUSED(Banks);
 612:D:/iot/felix2/targets/Cloud_STM32L431_BearPi/Drivers/STM32L4xx_HAL_Driver/Src\stm32l4xx_hal_flash_ex.c **** #endif
 613:D:/iot/felix2/targets/Cloud_STM32L431_BearPi/Drivers/STM32L4xx_HAL_Driver/Src\stm32l4xx_hal_flash_ex.c **** 
 614:D:/iot/felix2/targets/Cloud_STM32L431_BearPi/Drivers/STM32L4xx_HAL_Driver/Src\stm32l4xx_hal_flash_ex.c ****   /* Proceed to erase the page */
 615:D:/iot/felix2/targets/Cloud_STM32L431_BearPi/Drivers/STM32L4xx_HAL_Driver/Src\stm32l4xx_hal_flash_ex.c ****   MODIFY_REG(FLASH->CR, FLASH_CR_PNB, ((Page & 0xFFU) << FLASH_CR_PNB_Pos));
ARM GAS  C:\Users\91458\AppData\Local\Temp\cct4oxZw.s 			page 25


 763              		.loc 1 615 0
 764 000a 0E4B     		ldr	r3, .L49
 765 000c 5B69     		ldr	r3, [r3, #20]
 766 000e 23F4FF62 		bic	r2, r3, #2040
 767 0012 7B68     		ldr	r3, [r7, #4]
 768 0014 DB00     		lsls	r3, r3, #3
 769 0016 03F4FF63 		and	r3, r3, #2040
 770 001a 0A49     		ldr	r1, .L49
 771 001c 1343     		orrs	r3, r3, r2
 772 001e 4B61     		str	r3, [r1, #20]
 616:D:/iot/felix2/targets/Cloud_STM32L431_BearPi/Drivers/STM32L4xx_HAL_Driver/Src\stm32l4xx_hal_flash_ex.c ****   SET_BIT(FLASH->CR, FLASH_CR_PER);
 773              		.loc 1 616 0
 774 0020 084B     		ldr	r3, .L49
 775 0022 5B69     		ldr	r3, [r3, #20]
 776 0024 074A     		ldr	r2, .L49
 777 0026 43F00203 		orr	r3, r3, #2
 778 002a 5361     		str	r3, [r2, #20]
 617:D:/iot/felix2/targets/Cloud_STM32L431_BearPi/Drivers/STM32L4xx_HAL_Driver/Src\stm32l4xx_hal_flash_ex.c ****   SET_BIT(FLASH->CR, FLASH_CR_STRT);
 779              		.loc 1 617 0
 780 002c 054B     		ldr	r3, .L49
 781 002e 5B69     		ldr	r3, [r3, #20]
 782 0030 044A     		ldr	r2, .L49
 783 0032 43F48033 		orr	r3, r3, #65536
 784 0036 5361     		str	r3, [r2, #20]
 618:D:/iot/felix2/targets/Cloud_STM32L431_BearPi/Drivers/STM32L4xx_HAL_Driver/Src\stm32l4xx_hal_flash_ex.c **** }
 785              		.loc 1 618 0
 786 0038 00BF     		nop
 787 003a 0C37     		adds	r7, r7, #12
 788              	.LCFI29:
 789              		.cfi_def_cfa_offset 4
 790 003c BD46     		mov	sp, r7
 791              	.LCFI30:
 792              		.cfi_def_cfa_register 13
 793              		@ sp needed
 794 003e 5DF8047B 		ldr	r7, [sp], #4
 795              	.LCFI31:
 796              		.cfi_restore 7
 797              		.cfi_def_cfa_offset 0
 798 0042 7047     		bx	lr
 799              	.L50:
 800              		.align	2
 801              	.L49:
 802 0044 00200240 		.word	1073881088
 803              		.cfi_endproc
 804              	.LFE138:
 806              		.section	.text.FLASH_FlushCaches,"ax",%progbits
 807              		.align	1
 808              		.global	FLASH_FlushCaches
 809              		.syntax unified
 810              		.thumb
 811              		.thumb_func
 812              		.fpu fpv4-sp-d16
 814              	FLASH_FlushCaches:
 815              	.LFB139:
 619:D:/iot/felix2/targets/Cloud_STM32L431_BearPi/Drivers/STM32L4xx_HAL_Driver/Src\stm32l4xx_hal_flash_ex.c **** 
 620:D:/iot/felix2/targets/Cloud_STM32L431_BearPi/Drivers/STM32L4xx_HAL_Driver/Src\stm32l4xx_hal_flash_ex.c **** /**
 621:D:/iot/felix2/targets/Cloud_STM32L431_BearPi/Drivers/STM32L4xx_HAL_Driver/Src\stm32l4xx_hal_flash_ex.c ****   * @brief  Flush the instruction and data caches.
ARM GAS  C:\Users\91458\AppData\Local\Temp\cct4oxZw.s 			page 26


 622:D:/iot/felix2/targets/Cloud_STM32L431_BearPi/Drivers/STM32L4xx_HAL_Driver/Src\stm32l4xx_hal_flash_ex.c ****   * @retval None
 623:D:/iot/felix2/targets/Cloud_STM32L431_BearPi/Drivers/STM32L4xx_HAL_Driver/Src\stm32l4xx_hal_flash_ex.c ****   */
 624:D:/iot/felix2/targets/Cloud_STM32L431_BearPi/Drivers/STM32L4xx_HAL_Driver/Src\stm32l4xx_hal_flash_ex.c **** void FLASH_FlushCaches(void)
 625:D:/iot/felix2/targets/Cloud_STM32L431_BearPi/Drivers/STM32L4xx_HAL_Driver/Src\stm32l4xx_hal_flash_ex.c **** {
 816              		.loc 1 625 0
 817              		.cfi_startproc
 818              		@ args = 0, pretend = 0, frame = 8
 819              		@ frame_needed = 1, uses_anonymous_args = 0
 820              		@ link register save eliminated.
 821 0000 80B4     		push	{r7}
 822              	.LCFI32:
 823              		.cfi_def_cfa_offset 4
 824              		.cfi_offset 7, -4
 825 0002 83B0     		sub	sp, sp, #12
 826              	.LCFI33:
 827              		.cfi_def_cfa_offset 16
 828 0004 00AF     		add	r7, sp, #0
 829              	.LCFI34:
 830              		.cfi_def_cfa_register 7
 626:D:/iot/felix2/targets/Cloud_STM32L431_BearPi/Drivers/STM32L4xx_HAL_Driver/Src\stm32l4xx_hal_flash_ex.c ****   FLASH_CacheTypeDef cache = pFlash.CacheToReactivate;
 831              		.loc 1 626 0
 832 0006 1E4B     		ldr	r3, .L56
 833 0008 1B7F     		ldrb	r3, [r3, #28]
 834 000a FB71     		strb	r3, [r7, #7]
 627:D:/iot/felix2/targets/Cloud_STM32L431_BearPi/Drivers/STM32L4xx_HAL_Driver/Src\stm32l4xx_hal_flash_ex.c **** 
 628:D:/iot/felix2/targets/Cloud_STM32L431_BearPi/Drivers/STM32L4xx_HAL_Driver/Src\stm32l4xx_hal_flash_ex.c ****   /* Flush instruction cache  */
 629:D:/iot/felix2/targets/Cloud_STM32L431_BearPi/Drivers/STM32L4xx_HAL_Driver/Src\stm32l4xx_hal_flash_ex.c ****   if((cache == FLASH_CACHE_ICACHE_ENABLED) || 
 835              		.loc 1 629 0
 836 000c FB79     		ldrb	r3, [r7, #7]	@ zero_extendqisi2
 837 000e 012B     		cmp	r3, #1
 838 0010 02D0     		beq	.L52
 839              		.loc 1 629 0 is_stmt 0 discriminator 1
 840 0012 FB79     		ldrb	r3, [r7, #7]	@ zero_extendqisi2
 841 0014 032B     		cmp	r3, #3
 842 0016 11D1     		bne	.L53
 843              	.L52:
 630:D:/iot/felix2/targets/Cloud_STM32L431_BearPi/Drivers/STM32L4xx_HAL_Driver/Src\stm32l4xx_hal_flash_ex.c ****      (cache == FLASH_CACHE_ICACHE_DCACHE_ENABLED))
 631:D:/iot/felix2/targets/Cloud_STM32L431_BearPi/Drivers/STM32L4xx_HAL_Driver/Src\stm32l4xx_hal_flash_ex.c ****   {
 632:D:/iot/felix2/targets/Cloud_STM32L431_BearPi/Drivers/STM32L4xx_HAL_Driver/Src\stm32l4xx_hal_flash_ex.c ****     /* Reset instruction cache */
 633:D:/iot/felix2/targets/Cloud_STM32L431_BearPi/Drivers/STM32L4xx_HAL_Driver/Src\stm32l4xx_hal_flash_ex.c ****     __HAL_FLASH_INSTRUCTION_CACHE_RESET();
 844              		.loc 1 633 0 is_stmt 1
 845 0018 1A4B     		ldr	r3, .L56+4
 846 001a 1B68     		ldr	r3, [r3]
 847 001c 194A     		ldr	r2, .L56+4
 848 001e 43F40063 		orr	r3, r3, #2048
 849 0022 1360     		str	r3, [r2]
 850 0024 174B     		ldr	r3, .L56+4
 851 0026 1B68     		ldr	r3, [r3]
 852 0028 164A     		ldr	r2, .L56+4
 853 002a 23F40063 		bic	r3, r3, #2048
 854 002e 1360     		str	r3, [r2]
 634:D:/iot/felix2/targets/Cloud_STM32L431_BearPi/Drivers/STM32L4xx_HAL_Driver/Src\stm32l4xx_hal_flash_ex.c ****     /* Enable instruction cache */
 635:D:/iot/felix2/targets/Cloud_STM32L431_BearPi/Drivers/STM32L4xx_HAL_Driver/Src\stm32l4xx_hal_flash_ex.c ****     __HAL_FLASH_INSTRUCTION_CACHE_ENABLE();
 855              		.loc 1 635 0
 856 0030 144B     		ldr	r3, .L56+4
 857 0032 1B68     		ldr	r3, [r3]
 858 0034 134A     		ldr	r2, .L56+4
ARM GAS  C:\Users\91458\AppData\Local\Temp\cct4oxZw.s 			page 27


 859 0036 43F40073 		orr	r3, r3, #512
 860 003a 1360     		str	r3, [r2]
 861              	.L53:
 636:D:/iot/felix2/targets/Cloud_STM32L431_BearPi/Drivers/STM32L4xx_HAL_Driver/Src\stm32l4xx_hal_flash_ex.c ****   }
 637:D:/iot/felix2/targets/Cloud_STM32L431_BearPi/Drivers/STM32L4xx_HAL_Driver/Src\stm32l4xx_hal_flash_ex.c ****   
 638:D:/iot/felix2/targets/Cloud_STM32L431_BearPi/Drivers/STM32L4xx_HAL_Driver/Src\stm32l4xx_hal_flash_ex.c ****   /* Flush data cache */
 639:D:/iot/felix2/targets/Cloud_STM32L431_BearPi/Drivers/STM32L4xx_HAL_Driver/Src\stm32l4xx_hal_flash_ex.c ****   if((cache == FLASH_CACHE_DCACHE_ENABLED) || 
 862              		.loc 1 639 0
 863 003c FB79     		ldrb	r3, [r7, #7]	@ zero_extendqisi2
 864 003e 022B     		cmp	r3, #2
 865 0040 02D0     		beq	.L54
 866              		.loc 1 639 0 is_stmt 0 discriminator 1
 867 0042 FB79     		ldrb	r3, [r7, #7]	@ zero_extendqisi2
 868 0044 032B     		cmp	r3, #3
 869 0046 11D1     		bne	.L55
 870              	.L54:
 640:D:/iot/felix2/targets/Cloud_STM32L431_BearPi/Drivers/STM32L4xx_HAL_Driver/Src\stm32l4xx_hal_flash_ex.c ****      (cache == FLASH_CACHE_ICACHE_DCACHE_ENABLED))
 641:D:/iot/felix2/targets/Cloud_STM32L431_BearPi/Drivers/STM32L4xx_HAL_Driver/Src\stm32l4xx_hal_flash_ex.c ****   {
 642:D:/iot/felix2/targets/Cloud_STM32L431_BearPi/Drivers/STM32L4xx_HAL_Driver/Src\stm32l4xx_hal_flash_ex.c ****     /* Reset data cache */
 643:D:/iot/felix2/targets/Cloud_STM32L431_BearPi/Drivers/STM32L4xx_HAL_Driver/Src\stm32l4xx_hal_flash_ex.c ****     __HAL_FLASH_DATA_CACHE_RESET();
 871              		.loc 1 643 0 is_stmt 1
 872 0048 0E4B     		ldr	r3, .L56+4
 873 004a 1B68     		ldr	r3, [r3]
 874 004c 0D4A     		ldr	r2, .L56+4
 875 004e 43F48053 		orr	r3, r3, #4096
 876 0052 1360     		str	r3, [r2]
 877 0054 0B4B     		ldr	r3, .L56+4
 878 0056 1B68     		ldr	r3, [r3]
 879 0058 0A4A     		ldr	r2, .L56+4
 880 005a 23F48053 		bic	r3, r3, #4096
 881 005e 1360     		str	r3, [r2]
 644:D:/iot/felix2/targets/Cloud_STM32L431_BearPi/Drivers/STM32L4xx_HAL_Driver/Src\stm32l4xx_hal_flash_ex.c ****     /* Enable data cache */
 645:D:/iot/felix2/targets/Cloud_STM32L431_BearPi/Drivers/STM32L4xx_HAL_Driver/Src\stm32l4xx_hal_flash_ex.c ****     __HAL_FLASH_DATA_CACHE_ENABLE();
 882              		.loc 1 645 0
 883 0060 084B     		ldr	r3, .L56+4
 884 0062 1B68     		ldr	r3, [r3]
 885 0064 074A     		ldr	r2, .L56+4
 886 0066 43F48063 		orr	r3, r3, #1024
 887 006a 1360     		str	r3, [r2]
 888              	.L55:
 646:D:/iot/felix2/targets/Cloud_STM32L431_BearPi/Drivers/STM32L4xx_HAL_Driver/Src\stm32l4xx_hal_flash_ex.c ****   }
 647:D:/iot/felix2/targets/Cloud_STM32L431_BearPi/Drivers/STM32L4xx_HAL_Driver/Src\stm32l4xx_hal_flash_ex.c ****   
 648:D:/iot/felix2/targets/Cloud_STM32L431_BearPi/Drivers/STM32L4xx_HAL_Driver/Src\stm32l4xx_hal_flash_ex.c ****   /* Reset internal variable */
 649:D:/iot/felix2/targets/Cloud_STM32L431_BearPi/Drivers/STM32L4xx_HAL_Driver/Src\stm32l4xx_hal_flash_ex.c ****   pFlash.CacheToReactivate = FLASH_CACHE_DISABLED;
 889              		.loc 1 649 0
 890 006c 044B     		ldr	r3, .L56
 891 006e 0022     		movs	r2, #0
 892 0070 1A77     		strb	r2, [r3, #28]
 650:D:/iot/felix2/targets/Cloud_STM32L431_BearPi/Drivers/STM32L4xx_HAL_Driver/Src\stm32l4xx_hal_flash_ex.c **** }
 893              		.loc 1 650 0
 894 0072 00BF     		nop
 895 0074 0C37     		adds	r7, r7, #12
 896              	.LCFI35:
 897              		.cfi_def_cfa_offset 4
 898 0076 BD46     		mov	sp, r7
 899              	.LCFI36:
 900              		.cfi_def_cfa_register 13
ARM GAS  C:\Users\91458\AppData\Local\Temp\cct4oxZw.s 			page 28


 901              		@ sp needed
 902 0078 5DF8047B 		ldr	r7, [sp], #4
 903              	.LCFI37:
 904              		.cfi_restore 7
 905              		.cfi_def_cfa_offset 0
 906 007c 7047     		bx	lr
 907              	.L57:
 908 007e 00BF     		.align	2
 909              	.L56:
 910 0080 00000000 		.word	pFlash
 911 0084 00200240 		.word	1073881088
 912              		.cfi_endproc
 913              	.LFE139:
 915              		.section	.text.FLASH_OB_WRPConfig,"ax",%progbits
 916              		.align	1
 917              		.syntax unified
 918              		.thumb
 919              		.thumb_func
 920              		.fpu fpv4-sp-d16
 922              	FLASH_OB_WRPConfig:
 923              	.LFB140:
 651:D:/iot/felix2/targets/Cloud_STM32L431_BearPi/Drivers/STM32L4xx_HAL_Driver/Src\stm32l4xx_hal_flash_ex.c **** 
 652:D:/iot/felix2/targets/Cloud_STM32L431_BearPi/Drivers/STM32L4xx_HAL_Driver/Src\stm32l4xx_hal_flash_ex.c **** /**
 653:D:/iot/felix2/targets/Cloud_STM32L431_BearPi/Drivers/STM32L4xx_HAL_Driver/Src\stm32l4xx_hal_flash_ex.c ****   * @brief  Configure the write protection of the desired pages.
 654:D:/iot/felix2/targets/Cloud_STM32L431_BearPi/Drivers/STM32L4xx_HAL_Driver/Src\stm32l4xx_hal_flash_ex.c ****   *
 655:D:/iot/felix2/targets/Cloud_STM32L431_BearPi/Drivers/STM32L4xx_HAL_Driver/Src\stm32l4xx_hal_flash_ex.c ****   * @note   When the memory read protection level is selected (RDP level = 1), 
 656:D:/iot/felix2/targets/Cloud_STM32L431_BearPi/Drivers/STM32L4xx_HAL_Driver/Src\stm32l4xx_hal_flash_ex.c ****   *         it is not possible to program or erase Flash memory if the CPU debug 
 657:D:/iot/felix2/targets/Cloud_STM32L431_BearPi/Drivers/STM32L4xx_HAL_Driver/Src\stm32l4xx_hal_flash_ex.c ****   *         features are connected (JTAG or single wire) or boot code is being 
 658:D:/iot/felix2/targets/Cloud_STM32L431_BearPi/Drivers/STM32L4xx_HAL_Driver/Src\stm32l4xx_hal_flash_ex.c ****   *         executed from RAM or System flash, even if WRP is not activated. 
 659:D:/iot/felix2/targets/Cloud_STM32L431_BearPi/Drivers/STM32L4xx_HAL_Driver/Src\stm32l4xx_hal_flash_ex.c ****   * @note   To configure the WRP options, the option lock bit OPTLOCK must be 
 660:D:/iot/felix2/targets/Cloud_STM32L431_BearPi/Drivers/STM32L4xx_HAL_Driver/Src\stm32l4xx_hal_flash_ex.c ****   *         cleared with the call of the HAL_FLASH_OB_Unlock() function.
 661:D:/iot/felix2/targets/Cloud_STM32L431_BearPi/Drivers/STM32L4xx_HAL_Driver/Src\stm32l4xx_hal_flash_ex.c ****   * @note   To validate the WRP options, the option bytes must be reloaded 
 662:D:/iot/felix2/targets/Cloud_STM32L431_BearPi/Drivers/STM32L4xx_HAL_Driver/Src\stm32l4xx_hal_flash_ex.c ****   *         through the call of the HAL_FLASH_OB_Launch() function.
 663:D:/iot/felix2/targets/Cloud_STM32L431_BearPi/Drivers/STM32L4xx_HAL_Driver/Src\stm32l4xx_hal_flash_ex.c ****   *
 664:D:/iot/felix2/targets/Cloud_STM32L431_BearPi/Drivers/STM32L4xx_HAL_Driver/Src\stm32l4xx_hal_flash_ex.c ****   * @param  WRPArea: specifies the area to be configured.
 665:D:/iot/felix2/targets/Cloud_STM32L431_BearPi/Drivers/STM32L4xx_HAL_Driver/Src\stm32l4xx_hal_flash_ex.c ****   *          This parameter can be one of the following values:
 666:D:/iot/felix2/targets/Cloud_STM32L431_BearPi/Drivers/STM32L4xx_HAL_Driver/Src\stm32l4xx_hal_flash_ex.c ****   *            @arg OB_WRPAREA_BANK1_AREAA: Flash Bank 1 Area A                      
 667:D:/iot/felix2/targets/Cloud_STM32L431_BearPi/Drivers/STM32L4xx_HAL_Driver/Src\stm32l4xx_hal_flash_ex.c ****   *            @arg OB_WRPAREA_BANK1_AREAB: Flash Bank 1 Area B                      
 668:D:/iot/felix2/targets/Cloud_STM32L431_BearPi/Drivers/STM32L4xx_HAL_Driver/Src\stm32l4xx_hal_flash_ex.c ****   *            @arg OB_WRPAREA_BANK2_AREAA: Flash Bank 2 Area A  (don't apply for STM32L43x/STM32L4
 669:D:/iot/felix2/targets/Cloud_STM32L431_BearPi/Drivers/STM32L4xx_HAL_Driver/Src\stm32l4xx_hal_flash_ex.c ****   *            @arg OB_WRPAREA_BANK2_AREAB: Flash Bank 2 Area B  (don't apply for STM32L43x/STM32L4
 670:D:/iot/felix2/targets/Cloud_STM32L431_BearPi/Drivers/STM32L4xx_HAL_Driver/Src\stm32l4xx_hal_flash_ex.c ****   *
 671:D:/iot/felix2/targets/Cloud_STM32L431_BearPi/Drivers/STM32L4xx_HAL_Driver/Src\stm32l4xx_hal_flash_ex.c ****   * @param  WRPStartOffset: specifies the start page of the write protected area
 672:D:/iot/felix2/targets/Cloud_STM32L431_BearPi/Drivers/STM32L4xx_HAL_Driver/Src\stm32l4xx_hal_flash_ex.c ****   *          This parameter can be page number between 0 and (max number of pages in the bank - 1) 
 673:D:/iot/felix2/targets/Cloud_STM32L431_BearPi/Drivers/STM32L4xx_HAL_Driver/Src\stm32l4xx_hal_flash_ex.c ****   *
 674:D:/iot/felix2/targets/Cloud_STM32L431_BearPi/Drivers/STM32L4xx_HAL_Driver/Src\stm32l4xx_hal_flash_ex.c ****   * @param  WRDPEndOffset: specifies the end page of the write protected area
 675:D:/iot/felix2/targets/Cloud_STM32L431_BearPi/Drivers/STM32L4xx_HAL_Driver/Src\stm32l4xx_hal_flash_ex.c ****   *          This parameter can be page number between WRPStartOffset and (max number of pages in t
 676:D:/iot/felix2/targets/Cloud_STM32L431_BearPi/Drivers/STM32L4xx_HAL_Driver/Src\stm32l4xx_hal_flash_ex.c ****   *
 677:D:/iot/felix2/targets/Cloud_STM32L431_BearPi/Drivers/STM32L4xx_HAL_Driver/Src\stm32l4xx_hal_flash_ex.c ****   * @retval HAL Status
 678:D:/iot/felix2/targets/Cloud_STM32L431_BearPi/Drivers/STM32L4xx_HAL_Driver/Src\stm32l4xx_hal_flash_ex.c ****   */
 679:D:/iot/felix2/targets/Cloud_STM32L431_BearPi/Drivers/STM32L4xx_HAL_Driver/Src\stm32l4xx_hal_flash_ex.c **** static HAL_StatusTypeDef FLASH_OB_WRPConfig(uint32_t WRPArea, uint32_t WRPStartOffset, uint32_t WRD
 680:D:/iot/felix2/targets/Cloud_STM32L431_BearPi/Drivers/STM32L4xx_HAL_Driver/Src\stm32l4xx_hal_flash_ex.c **** {
 924              		.loc 1 680 0
 925              		.cfi_startproc
 926              		@ args = 0, pretend = 0, frame = 24
 927              		@ frame_needed = 1, uses_anonymous_args = 0
 928 0000 80B5     		push	{r7, lr}
 929              	.LCFI38:
ARM GAS  C:\Users\91458\AppData\Local\Temp\cct4oxZw.s 			page 29


 930              		.cfi_def_cfa_offset 8
 931              		.cfi_offset 7, -8
 932              		.cfi_offset 14, -4
 933 0002 86B0     		sub	sp, sp, #24
 934              	.LCFI39:
 935              		.cfi_def_cfa_offset 32
 936 0004 00AF     		add	r7, sp, #0
 937              	.LCFI40:
 938              		.cfi_def_cfa_register 7
 939 0006 F860     		str	r0, [r7, #12]
 940 0008 B960     		str	r1, [r7, #8]
 941 000a 7A60     		str	r2, [r7, #4]
 681:D:/iot/felix2/targets/Cloud_STM32L431_BearPi/Drivers/STM32L4xx_HAL_Driver/Src\stm32l4xx_hal_flash_ex.c ****   HAL_StatusTypeDef status;
 682:D:/iot/felix2/targets/Cloud_STM32L431_BearPi/Drivers/STM32L4xx_HAL_Driver/Src\stm32l4xx_hal_flash_ex.c **** 
 683:D:/iot/felix2/targets/Cloud_STM32L431_BearPi/Drivers/STM32L4xx_HAL_Driver/Src\stm32l4xx_hal_flash_ex.c ****   /* Check the parameters */
 684:D:/iot/felix2/targets/Cloud_STM32L431_BearPi/Drivers/STM32L4xx_HAL_Driver/Src\stm32l4xx_hal_flash_ex.c ****   assert_param(IS_OB_WRPAREA(WRPArea));
 685:D:/iot/felix2/targets/Cloud_STM32L431_BearPi/Drivers/STM32L4xx_HAL_Driver/Src\stm32l4xx_hal_flash_ex.c ****   assert_param(IS_FLASH_PAGE(WRPStartOffset));
 686:D:/iot/felix2/targets/Cloud_STM32L431_BearPi/Drivers/STM32L4xx_HAL_Driver/Src\stm32l4xx_hal_flash_ex.c ****   assert_param(IS_FLASH_PAGE(WRDPEndOffset));
 687:D:/iot/felix2/targets/Cloud_STM32L431_BearPi/Drivers/STM32L4xx_HAL_Driver/Src\stm32l4xx_hal_flash_ex.c **** 
 688:D:/iot/felix2/targets/Cloud_STM32L431_BearPi/Drivers/STM32L4xx_HAL_Driver/Src\stm32l4xx_hal_flash_ex.c ****   /* Wait for last operation to be completed */
 689:D:/iot/felix2/targets/Cloud_STM32L431_BearPi/Drivers/STM32L4xx_HAL_Driver/Src\stm32l4xx_hal_flash_ex.c ****   status = FLASH_WaitForLastOperation((uint32_t)FLASH_TIMEOUT_VALUE);
 942              		.loc 1 689 0
 943 000c 4CF25030 		movw	r0, #50000
 944 0010 FFF7FEFF 		bl	FLASH_WaitForLastOperation
 945 0014 0346     		mov	r3, r0
 946 0016 FB75     		strb	r3, [r7, #23]
 690:D:/iot/felix2/targets/Cloud_STM32L431_BearPi/Drivers/STM32L4xx_HAL_Driver/Src\stm32l4xx_hal_flash_ex.c **** 
 691:D:/iot/felix2/targets/Cloud_STM32L431_BearPi/Drivers/STM32L4xx_HAL_Driver/Src\stm32l4xx_hal_flash_ex.c ****   if(status == HAL_OK)
 947              		.loc 1 691 0
 948 0018 FB7D     		ldrb	r3, [r7, #23]	@ zero_extendqisi2
 949 001a 002B     		cmp	r3, #0
 950 001c 2ED1     		bne	.L59
 692:D:/iot/felix2/targets/Cloud_STM32L431_BearPi/Drivers/STM32L4xx_HAL_Driver/Src\stm32l4xx_hal_flash_ex.c ****   {
 693:D:/iot/felix2/targets/Cloud_STM32L431_BearPi/Drivers/STM32L4xx_HAL_Driver/Src\stm32l4xx_hal_flash_ex.c ****     /* Configure the write protected area */
 694:D:/iot/felix2/targets/Cloud_STM32L431_BearPi/Drivers/STM32L4xx_HAL_Driver/Src\stm32l4xx_hal_flash_ex.c ****     if(WRPArea == OB_WRPAREA_BANK1_AREAA)
 951              		.loc 1 694 0
 952 001e FB68     		ldr	r3, [r7, #12]
 953 0020 002B     		cmp	r3, #0
 954 0022 0BD1     		bne	.L60
 695:D:/iot/felix2/targets/Cloud_STM32L431_BearPi/Drivers/STM32L4xx_HAL_Driver/Src\stm32l4xx_hal_flash_ex.c ****     {
 696:D:/iot/felix2/targets/Cloud_STM32L431_BearPi/Drivers/STM32L4xx_HAL_Driver/Src\stm32l4xx_hal_flash_ex.c ****       MODIFY_REG(FLASH->WRP1AR, (FLASH_WRP1AR_WRP1A_STRT | FLASH_WRP1AR_WRP1A_END), 
 955              		.loc 1 696 0
 956 0024 184B     		ldr	r3, .L63
 957 0026 DB6A     		ldr	r3, [r3, #44]
 958 0028 03F0FF22 		and	r2, r3, #-16711936
 959 002c 7B68     		ldr	r3, [r7, #4]
 960 002e 1904     		lsls	r1, r3, #16
 961 0030 BB68     		ldr	r3, [r7, #8]
 962 0032 0B43     		orrs	r3, r3, r1
 963 0034 1449     		ldr	r1, .L63
 964 0036 1343     		orrs	r3, r3, r2
 965 0038 CB62     		str	r3, [r1, #44]
 966 003a 0DE0     		b	.L61
 967              	.L60:
 697:D:/iot/felix2/targets/Cloud_STM32L431_BearPi/Drivers/STM32L4xx_HAL_Driver/Src\stm32l4xx_hal_flash_ex.c ****                  (WRPStartOffset | (WRDPEndOffset << 16)));
 698:D:/iot/felix2/targets/Cloud_STM32L431_BearPi/Drivers/STM32L4xx_HAL_Driver/Src\stm32l4xx_hal_flash_ex.c ****     }
 699:D:/iot/felix2/targets/Cloud_STM32L431_BearPi/Drivers/STM32L4xx_HAL_Driver/Src\stm32l4xx_hal_flash_ex.c ****     else if(WRPArea == OB_WRPAREA_BANK1_AREAB)
ARM GAS  C:\Users\91458\AppData\Local\Temp\cct4oxZw.s 			page 30


 968              		.loc 1 699 0
 969 003c FB68     		ldr	r3, [r7, #12]
 970 003e 012B     		cmp	r3, #1
 971 0040 0AD1     		bne	.L61
 700:D:/iot/felix2/targets/Cloud_STM32L431_BearPi/Drivers/STM32L4xx_HAL_Driver/Src\stm32l4xx_hal_flash_ex.c ****     {
 701:D:/iot/felix2/targets/Cloud_STM32L431_BearPi/Drivers/STM32L4xx_HAL_Driver/Src\stm32l4xx_hal_flash_ex.c ****       MODIFY_REG(FLASH->WRP1BR, (FLASH_WRP1BR_WRP1B_STRT | FLASH_WRP1BR_WRP1B_END), 
 972              		.loc 1 701 0
 973 0042 114B     		ldr	r3, .L63
 974 0044 1B6B     		ldr	r3, [r3, #48]
 975 0046 03F0FF22 		and	r2, r3, #-16711936
 976 004a 7B68     		ldr	r3, [r7, #4]
 977 004c 1904     		lsls	r1, r3, #16
 978 004e BB68     		ldr	r3, [r7, #8]
 979 0050 0B43     		orrs	r3, r3, r1
 980 0052 0D49     		ldr	r1, .L63
 981 0054 1343     		orrs	r3, r3, r2
 982 0056 0B63     		str	r3, [r1, #48]
 983              	.L61:
 702:D:/iot/felix2/targets/Cloud_STM32L431_BearPi/Drivers/STM32L4xx_HAL_Driver/Src\stm32l4xx_hal_flash_ex.c ****                  (WRPStartOffset | (WRDPEndOffset << 16)));
 703:D:/iot/felix2/targets/Cloud_STM32L431_BearPi/Drivers/STM32L4xx_HAL_Driver/Src\stm32l4xx_hal_flash_ex.c ****     }
 704:D:/iot/felix2/targets/Cloud_STM32L431_BearPi/Drivers/STM32L4xx_HAL_Driver/Src\stm32l4xx_hal_flash_ex.c **** #if defined (STM32L471xx) || defined (STM32L475xx) || defined (STM32L476xx) || defined (STM32L485xx
 705:D:/iot/felix2/targets/Cloud_STM32L431_BearPi/Drivers/STM32L4xx_HAL_Driver/Src\stm32l4xx_hal_flash_ex.c ****     defined (STM32L496xx) || defined (STM32L4A6xx) || \
 706:D:/iot/felix2/targets/Cloud_STM32L431_BearPi/Drivers/STM32L4xx_HAL_Driver/Src\stm32l4xx_hal_flash_ex.c ****     defined (STM32L4R5xx) || defined (STM32L4R7xx) || defined (STM32L4R9xx) || defined (STM32L4S5xx
 707:D:/iot/felix2/targets/Cloud_STM32L431_BearPi/Drivers/STM32L4xx_HAL_Driver/Src\stm32l4xx_hal_flash_ex.c ****     else if(WRPArea == OB_WRPAREA_BANK2_AREAA)
 708:D:/iot/felix2/targets/Cloud_STM32L431_BearPi/Drivers/STM32L4xx_HAL_Driver/Src\stm32l4xx_hal_flash_ex.c ****     {
 709:D:/iot/felix2/targets/Cloud_STM32L431_BearPi/Drivers/STM32L4xx_HAL_Driver/Src\stm32l4xx_hal_flash_ex.c ****       MODIFY_REG(FLASH->WRP2AR, (FLASH_WRP2AR_WRP2A_STRT | FLASH_WRP2AR_WRP2A_END), 
 710:D:/iot/felix2/targets/Cloud_STM32L431_BearPi/Drivers/STM32L4xx_HAL_Driver/Src\stm32l4xx_hal_flash_ex.c ****                  (WRPStartOffset | (WRDPEndOffset << 16)));
 711:D:/iot/felix2/targets/Cloud_STM32L431_BearPi/Drivers/STM32L4xx_HAL_Driver/Src\stm32l4xx_hal_flash_ex.c ****     }
 712:D:/iot/felix2/targets/Cloud_STM32L431_BearPi/Drivers/STM32L4xx_HAL_Driver/Src\stm32l4xx_hal_flash_ex.c ****     else if(WRPArea == OB_WRPAREA_BANK2_AREAB)
 713:D:/iot/felix2/targets/Cloud_STM32L431_BearPi/Drivers/STM32L4xx_HAL_Driver/Src\stm32l4xx_hal_flash_ex.c ****     {
 714:D:/iot/felix2/targets/Cloud_STM32L431_BearPi/Drivers/STM32L4xx_HAL_Driver/Src\stm32l4xx_hal_flash_ex.c ****       MODIFY_REG(FLASH->WRP2BR, (FLASH_WRP2BR_WRP2B_STRT | FLASH_WRP2BR_WRP2B_END), 
 715:D:/iot/felix2/targets/Cloud_STM32L431_BearPi/Drivers/STM32L4xx_HAL_Driver/Src\stm32l4xx_hal_flash_ex.c ****                  (WRPStartOffset | (WRDPEndOffset << 16)));
 716:D:/iot/felix2/targets/Cloud_STM32L431_BearPi/Drivers/STM32L4xx_HAL_Driver/Src\stm32l4xx_hal_flash_ex.c ****     }
 717:D:/iot/felix2/targets/Cloud_STM32L431_BearPi/Drivers/STM32L4xx_HAL_Driver/Src\stm32l4xx_hal_flash_ex.c **** #endif
 718:D:/iot/felix2/targets/Cloud_STM32L431_BearPi/Drivers/STM32L4xx_HAL_Driver/Src\stm32l4xx_hal_flash_ex.c ****     else
 719:D:/iot/felix2/targets/Cloud_STM32L431_BearPi/Drivers/STM32L4xx_HAL_Driver/Src\stm32l4xx_hal_flash_ex.c ****     {
 720:D:/iot/felix2/targets/Cloud_STM32L431_BearPi/Drivers/STM32L4xx_HAL_Driver/Src\stm32l4xx_hal_flash_ex.c ****       /* Nothing to do */
 721:D:/iot/felix2/targets/Cloud_STM32L431_BearPi/Drivers/STM32L4xx_HAL_Driver/Src\stm32l4xx_hal_flash_ex.c ****     }
 722:D:/iot/felix2/targets/Cloud_STM32L431_BearPi/Drivers/STM32L4xx_HAL_Driver/Src\stm32l4xx_hal_flash_ex.c ****     
 723:D:/iot/felix2/targets/Cloud_STM32L431_BearPi/Drivers/STM32L4xx_HAL_Driver/Src\stm32l4xx_hal_flash_ex.c ****     /* Set OPTSTRT Bit */
 724:D:/iot/felix2/targets/Cloud_STM32L431_BearPi/Drivers/STM32L4xx_HAL_Driver/Src\stm32l4xx_hal_flash_ex.c ****     SET_BIT(FLASH->CR, FLASH_CR_OPTSTRT);
 984              		.loc 1 724 0
 985 0058 0B4B     		ldr	r3, .L63
 986 005a 5B69     		ldr	r3, [r3, #20]
 987 005c 0A4A     		ldr	r2, .L63
 988 005e 43F40033 		orr	r3, r3, #131072
 989 0062 5361     		str	r3, [r2, #20]
 725:D:/iot/felix2/targets/Cloud_STM32L431_BearPi/Drivers/STM32L4xx_HAL_Driver/Src\stm32l4xx_hal_flash_ex.c ****     
 726:D:/iot/felix2/targets/Cloud_STM32L431_BearPi/Drivers/STM32L4xx_HAL_Driver/Src\stm32l4xx_hal_flash_ex.c ****     /* Wait for last operation to be completed */
 727:D:/iot/felix2/targets/Cloud_STM32L431_BearPi/Drivers/STM32L4xx_HAL_Driver/Src\stm32l4xx_hal_flash_ex.c ****     status = FLASH_WaitForLastOperation((uint32_t)FLASH_TIMEOUT_VALUE);
 990              		.loc 1 727 0
 991 0064 4CF25030 		movw	r0, #50000
 992 0068 FFF7FEFF 		bl	FLASH_WaitForLastOperation
 993 006c 0346     		mov	r3, r0
 994 006e FB75     		strb	r3, [r7, #23]
 728:D:/iot/felix2/targets/Cloud_STM32L431_BearPi/Drivers/STM32L4xx_HAL_Driver/Src\stm32l4xx_hal_flash_ex.c **** 
 729:D:/iot/felix2/targets/Cloud_STM32L431_BearPi/Drivers/STM32L4xx_HAL_Driver/Src\stm32l4xx_hal_flash_ex.c ****     /* If the option byte program operation is completed, disable the OPTSTRT Bit */
ARM GAS  C:\Users\91458\AppData\Local\Temp\cct4oxZw.s 			page 31


 730:D:/iot/felix2/targets/Cloud_STM32L431_BearPi/Drivers/STM32L4xx_HAL_Driver/Src\stm32l4xx_hal_flash_ex.c ****     CLEAR_BIT(FLASH->CR, FLASH_CR_OPTSTRT);
 995              		.loc 1 730 0
 996 0070 054B     		ldr	r3, .L63
 997 0072 5B69     		ldr	r3, [r3, #20]
 998 0074 044A     		ldr	r2, .L63
 999 0076 23F40033 		bic	r3, r3, #131072
 1000 007a 5361     		str	r3, [r2, #20]
 1001              	.L59:
 731:D:/iot/felix2/targets/Cloud_STM32L431_BearPi/Drivers/STM32L4xx_HAL_Driver/Src\stm32l4xx_hal_flash_ex.c ****   }
 732:D:/iot/felix2/targets/Cloud_STM32L431_BearPi/Drivers/STM32L4xx_HAL_Driver/Src\stm32l4xx_hal_flash_ex.c ****   
 733:D:/iot/felix2/targets/Cloud_STM32L431_BearPi/Drivers/STM32L4xx_HAL_Driver/Src\stm32l4xx_hal_flash_ex.c ****   return status;
 1002              		.loc 1 733 0
 1003 007c FB7D     		ldrb	r3, [r7, #23]	@ zero_extendqisi2
 734:D:/iot/felix2/targets/Cloud_STM32L431_BearPi/Drivers/STM32L4xx_HAL_Driver/Src\stm32l4xx_hal_flash_ex.c **** }
 1004              		.loc 1 734 0
 1005 007e 1846     		mov	r0, r3
 1006 0080 1837     		adds	r7, r7, #24
 1007              	.LCFI41:
 1008              		.cfi_def_cfa_offset 8
 1009 0082 BD46     		mov	sp, r7
 1010              	.LCFI42:
 1011              		.cfi_def_cfa_register 13
 1012              		@ sp needed
 1013 0084 80BD     		pop	{r7, pc}
 1014              	.L64:
 1015 0086 00BF     		.align	2
 1016              	.L63:
 1017 0088 00200240 		.word	1073881088
 1018              		.cfi_endproc
 1019              	.LFE140:
 1021              		.section	.text.FLASH_OB_RDPConfig,"ax",%progbits
 1022              		.align	1
 1023              		.syntax unified
 1024              		.thumb
 1025              		.thumb_func
 1026              		.fpu fpv4-sp-d16
 1028              	FLASH_OB_RDPConfig:
 1029              	.LFB141:
 735:D:/iot/felix2/targets/Cloud_STM32L431_BearPi/Drivers/STM32L4xx_HAL_Driver/Src\stm32l4xx_hal_flash_ex.c **** 
 736:D:/iot/felix2/targets/Cloud_STM32L431_BearPi/Drivers/STM32L4xx_HAL_Driver/Src\stm32l4xx_hal_flash_ex.c **** /**
 737:D:/iot/felix2/targets/Cloud_STM32L431_BearPi/Drivers/STM32L4xx_HAL_Driver/Src\stm32l4xx_hal_flash_ex.c ****   * @brief  Set the read protection level.
 738:D:/iot/felix2/targets/Cloud_STM32L431_BearPi/Drivers/STM32L4xx_HAL_Driver/Src\stm32l4xx_hal_flash_ex.c ****   *    
 739:D:/iot/felix2/targets/Cloud_STM32L431_BearPi/Drivers/STM32L4xx_HAL_Driver/Src\stm32l4xx_hal_flash_ex.c ****   * @note   To configure the RDP level, the option lock bit OPTLOCK must be 
 740:D:/iot/felix2/targets/Cloud_STM32L431_BearPi/Drivers/STM32L4xx_HAL_Driver/Src\stm32l4xx_hal_flash_ex.c ****   *         cleared with the call of the HAL_FLASH_OB_Unlock() function.
 741:D:/iot/felix2/targets/Cloud_STM32L431_BearPi/Drivers/STM32L4xx_HAL_Driver/Src\stm32l4xx_hal_flash_ex.c ****   * @note   To validate the RDP level, the option bytes must be reloaded 
 742:D:/iot/felix2/targets/Cloud_STM32L431_BearPi/Drivers/STM32L4xx_HAL_Driver/Src\stm32l4xx_hal_flash_ex.c ****   *         through the call of the HAL_FLASH_OB_Launch() function.
 743:D:/iot/felix2/targets/Cloud_STM32L431_BearPi/Drivers/STM32L4xx_HAL_Driver/Src\stm32l4xx_hal_flash_ex.c ****   * @note   !!! Warning : When enabling OB_RDP level 2 it's no more possible 
 744:D:/iot/felix2/targets/Cloud_STM32L431_BearPi/Drivers/STM32L4xx_HAL_Driver/Src\stm32l4xx_hal_flash_ex.c ****   *         to go back to level 1 or 0 !!!
 745:D:/iot/felix2/targets/Cloud_STM32L431_BearPi/Drivers/STM32L4xx_HAL_Driver/Src\stm32l4xx_hal_flash_ex.c ****   *    
 746:D:/iot/felix2/targets/Cloud_STM32L431_BearPi/Drivers/STM32L4xx_HAL_Driver/Src\stm32l4xx_hal_flash_ex.c ****   * @param  RDPLevel: specifies the read protection level.
 747:D:/iot/felix2/targets/Cloud_STM32L431_BearPi/Drivers/STM32L4xx_HAL_Driver/Src\stm32l4xx_hal_flash_ex.c ****   *         This parameter can be one of the following values:
 748:D:/iot/felix2/targets/Cloud_STM32L431_BearPi/Drivers/STM32L4xx_HAL_Driver/Src\stm32l4xx_hal_flash_ex.c ****   *            @arg OB_RDP_LEVEL_0: No protection
 749:D:/iot/felix2/targets/Cloud_STM32L431_BearPi/Drivers/STM32L4xx_HAL_Driver/Src\stm32l4xx_hal_flash_ex.c ****   *            @arg OB_RDP_LEVEL_1: Read protection of the memory
 750:D:/iot/felix2/targets/Cloud_STM32L431_BearPi/Drivers/STM32L4xx_HAL_Driver/Src\stm32l4xx_hal_flash_ex.c ****   *            @arg OB_RDP_LEVEL_2: Full chip protection
 751:D:/iot/felix2/targets/Cloud_STM32L431_BearPi/Drivers/STM32L4xx_HAL_Driver/Src\stm32l4xx_hal_flash_ex.c ****   *   
 752:D:/iot/felix2/targets/Cloud_STM32L431_BearPi/Drivers/STM32L4xx_HAL_Driver/Src\stm32l4xx_hal_flash_ex.c ****   * @retval HAL status
 753:D:/iot/felix2/targets/Cloud_STM32L431_BearPi/Drivers/STM32L4xx_HAL_Driver/Src\stm32l4xx_hal_flash_ex.c ****   */
ARM GAS  C:\Users\91458\AppData\Local\Temp\cct4oxZw.s 			page 32


 754:D:/iot/felix2/targets/Cloud_STM32L431_BearPi/Drivers/STM32L4xx_HAL_Driver/Src\stm32l4xx_hal_flash_ex.c **** static HAL_StatusTypeDef FLASH_OB_RDPConfig(uint32_t RDPLevel)
 755:D:/iot/felix2/targets/Cloud_STM32L431_BearPi/Drivers/STM32L4xx_HAL_Driver/Src\stm32l4xx_hal_flash_ex.c **** {
 1030              		.loc 1 755 0
 1031              		.cfi_startproc
 1032              		@ args = 0, pretend = 0, frame = 16
 1033              		@ frame_needed = 1, uses_anonymous_args = 0
 1034 0000 80B5     		push	{r7, lr}
 1035              	.LCFI43:
 1036              		.cfi_def_cfa_offset 8
 1037              		.cfi_offset 7, -8
 1038              		.cfi_offset 14, -4
 1039 0002 84B0     		sub	sp, sp, #16
 1040              	.LCFI44:
 1041              		.cfi_def_cfa_offset 24
 1042 0004 00AF     		add	r7, sp, #0
 1043              	.LCFI45:
 1044              		.cfi_def_cfa_register 7
 1045 0006 7860     		str	r0, [r7, #4]
 756:D:/iot/felix2/targets/Cloud_STM32L431_BearPi/Drivers/STM32L4xx_HAL_Driver/Src\stm32l4xx_hal_flash_ex.c ****   HAL_StatusTypeDef status;
 757:D:/iot/felix2/targets/Cloud_STM32L431_BearPi/Drivers/STM32L4xx_HAL_Driver/Src\stm32l4xx_hal_flash_ex.c **** 
 758:D:/iot/felix2/targets/Cloud_STM32L431_BearPi/Drivers/STM32L4xx_HAL_Driver/Src\stm32l4xx_hal_flash_ex.c ****   /* Check the parameters */
 759:D:/iot/felix2/targets/Cloud_STM32L431_BearPi/Drivers/STM32L4xx_HAL_Driver/Src\stm32l4xx_hal_flash_ex.c ****   assert_param(IS_OB_RDP_LEVEL(RDPLevel));
 760:D:/iot/felix2/targets/Cloud_STM32L431_BearPi/Drivers/STM32L4xx_HAL_Driver/Src\stm32l4xx_hal_flash_ex.c ****     
 761:D:/iot/felix2/targets/Cloud_STM32L431_BearPi/Drivers/STM32L4xx_HAL_Driver/Src\stm32l4xx_hal_flash_ex.c ****   /* Wait for last operation to be completed */
 762:D:/iot/felix2/targets/Cloud_STM32L431_BearPi/Drivers/STM32L4xx_HAL_Driver/Src\stm32l4xx_hal_flash_ex.c ****   status = FLASH_WaitForLastOperation((uint32_t)FLASH_TIMEOUT_VALUE);
 1046              		.loc 1 762 0
 1047 0008 4CF25030 		movw	r0, #50000
 1048 000c FFF7FEFF 		bl	FLASH_WaitForLastOperation
 1049 0010 0346     		mov	r3, r0
 1050 0012 FB73     		strb	r3, [r7, #15]
 763:D:/iot/felix2/targets/Cloud_STM32L431_BearPi/Drivers/STM32L4xx_HAL_Driver/Src\stm32l4xx_hal_flash_ex.c **** 
 764:D:/iot/felix2/targets/Cloud_STM32L431_BearPi/Drivers/STM32L4xx_HAL_Driver/Src\stm32l4xx_hal_flash_ex.c ****   if(status == HAL_OK)
 1051              		.loc 1 764 0
 1052 0014 FB7B     		ldrb	r3, [r7, #15]	@ zero_extendqisi2
 1053 0016 002B     		cmp	r3, #0
 1054 0018 19D1     		bne	.L66
 765:D:/iot/felix2/targets/Cloud_STM32L431_BearPi/Drivers/STM32L4xx_HAL_Driver/Src\stm32l4xx_hal_flash_ex.c ****   { 
 766:D:/iot/felix2/targets/Cloud_STM32L431_BearPi/Drivers/STM32L4xx_HAL_Driver/Src\stm32l4xx_hal_flash_ex.c ****     /* Configure the RDP level in the option bytes register */
 767:D:/iot/felix2/targets/Cloud_STM32L431_BearPi/Drivers/STM32L4xx_HAL_Driver/Src\stm32l4xx_hal_flash_ex.c ****     MODIFY_REG(FLASH->OPTR, FLASH_OPTR_RDP, RDPLevel);
 1055              		.loc 1 767 0
 1056 001a 0F4B     		ldr	r3, .L68
 1057 001c 1B6A     		ldr	r3, [r3, #32]
 1058 001e 23F0FF02 		bic	r2, r3, #255
 1059 0022 0D49     		ldr	r1, .L68
 1060 0024 7B68     		ldr	r3, [r7, #4]
 1061 0026 1343     		orrs	r3, r3, r2
 1062 0028 0B62     		str	r3, [r1, #32]
 768:D:/iot/felix2/targets/Cloud_STM32L431_BearPi/Drivers/STM32L4xx_HAL_Driver/Src\stm32l4xx_hal_flash_ex.c ****     
 769:D:/iot/felix2/targets/Cloud_STM32L431_BearPi/Drivers/STM32L4xx_HAL_Driver/Src\stm32l4xx_hal_flash_ex.c ****     /* Set OPTSTRT Bit */
 770:D:/iot/felix2/targets/Cloud_STM32L431_BearPi/Drivers/STM32L4xx_HAL_Driver/Src\stm32l4xx_hal_flash_ex.c ****     SET_BIT(FLASH->CR, FLASH_CR_OPTSTRT);
 1063              		.loc 1 770 0
 1064 002a 0B4B     		ldr	r3, .L68
 1065 002c 5B69     		ldr	r3, [r3, #20]
 1066 002e 0A4A     		ldr	r2, .L68
 1067 0030 43F40033 		orr	r3, r3, #131072
 1068 0034 5361     		str	r3, [r2, #20]
 771:D:/iot/felix2/targets/Cloud_STM32L431_BearPi/Drivers/STM32L4xx_HAL_Driver/Src\stm32l4xx_hal_flash_ex.c ****     
ARM GAS  C:\Users\91458\AppData\Local\Temp\cct4oxZw.s 			page 33


 772:D:/iot/felix2/targets/Cloud_STM32L431_BearPi/Drivers/STM32L4xx_HAL_Driver/Src\stm32l4xx_hal_flash_ex.c ****     /* Wait for last operation to be completed */
 773:D:/iot/felix2/targets/Cloud_STM32L431_BearPi/Drivers/STM32L4xx_HAL_Driver/Src\stm32l4xx_hal_flash_ex.c ****     status = FLASH_WaitForLastOperation((uint32_t)FLASH_TIMEOUT_VALUE);
 1069              		.loc 1 773 0
 1070 0036 4CF25030 		movw	r0, #50000
 1071 003a FFF7FEFF 		bl	FLASH_WaitForLastOperation
 1072 003e 0346     		mov	r3, r0
 1073 0040 FB73     		strb	r3, [r7, #15]
 774:D:/iot/felix2/targets/Cloud_STM32L431_BearPi/Drivers/STM32L4xx_HAL_Driver/Src\stm32l4xx_hal_flash_ex.c **** 
 775:D:/iot/felix2/targets/Cloud_STM32L431_BearPi/Drivers/STM32L4xx_HAL_Driver/Src\stm32l4xx_hal_flash_ex.c ****     /* If the option byte program operation is completed, disable the OPTSTRT Bit */
 776:D:/iot/felix2/targets/Cloud_STM32L431_BearPi/Drivers/STM32L4xx_HAL_Driver/Src\stm32l4xx_hal_flash_ex.c ****     CLEAR_BIT(FLASH->CR, FLASH_CR_OPTSTRT);
 1074              		.loc 1 776 0
 1075 0042 054B     		ldr	r3, .L68
 1076 0044 5B69     		ldr	r3, [r3, #20]
 1077 0046 044A     		ldr	r2, .L68
 1078 0048 23F40033 		bic	r3, r3, #131072
 1079 004c 5361     		str	r3, [r2, #20]
 1080              	.L66:
 777:D:/iot/felix2/targets/Cloud_STM32L431_BearPi/Drivers/STM32L4xx_HAL_Driver/Src\stm32l4xx_hal_flash_ex.c ****   }
 778:D:/iot/felix2/targets/Cloud_STM32L431_BearPi/Drivers/STM32L4xx_HAL_Driver/Src\stm32l4xx_hal_flash_ex.c **** 
 779:D:/iot/felix2/targets/Cloud_STM32L431_BearPi/Drivers/STM32L4xx_HAL_Driver/Src\stm32l4xx_hal_flash_ex.c ****   return status;            
 1081              		.loc 1 779 0
 1082 004e FB7B     		ldrb	r3, [r7, #15]	@ zero_extendqisi2
 780:D:/iot/felix2/targets/Cloud_STM32L431_BearPi/Drivers/STM32L4xx_HAL_Driver/Src\stm32l4xx_hal_flash_ex.c **** }
 1083              		.loc 1 780 0
 1084 0050 1846     		mov	r0, r3
 1085 0052 1037     		adds	r7, r7, #16
 1086              	.LCFI46:
 1087              		.cfi_def_cfa_offset 8
 1088 0054 BD46     		mov	sp, r7
 1089              	.LCFI47:
 1090              		.cfi_def_cfa_register 13
 1091              		@ sp needed
 1092 0056 80BD     		pop	{r7, pc}
 1093              	.L69:
 1094              		.align	2
 1095              	.L68:
 1096 0058 00200240 		.word	1073881088
 1097              		.cfi_endproc
 1098              	.LFE141:
 1100              		.section	.text.FLASH_OB_UserConfig,"ax",%progbits
 1101              		.align	1
 1102              		.syntax unified
 1103              		.thumb
 1104              		.thumb_func
 1105              		.fpu fpv4-sp-d16
 1107              	FLASH_OB_UserConfig:
 1108              	.LFB142:
 781:D:/iot/felix2/targets/Cloud_STM32L431_BearPi/Drivers/STM32L4xx_HAL_Driver/Src\stm32l4xx_hal_flash_ex.c **** 
 782:D:/iot/felix2/targets/Cloud_STM32L431_BearPi/Drivers/STM32L4xx_HAL_Driver/Src\stm32l4xx_hal_flash_ex.c **** /**
 783:D:/iot/felix2/targets/Cloud_STM32L431_BearPi/Drivers/STM32L4xx_HAL_Driver/Src\stm32l4xx_hal_flash_ex.c ****   * @brief  Program the FLASH User Option Byte.    
 784:D:/iot/felix2/targets/Cloud_STM32L431_BearPi/Drivers/STM32L4xx_HAL_Driver/Src\stm32l4xx_hal_flash_ex.c ****   *   
 785:D:/iot/felix2/targets/Cloud_STM32L431_BearPi/Drivers/STM32L4xx_HAL_Driver/Src\stm32l4xx_hal_flash_ex.c ****   * @note   To configure the user option bytes, the option lock bit OPTLOCK must
 786:D:/iot/felix2/targets/Cloud_STM32L431_BearPi/Drivers/STM32L4xx_HAL_Driver/Src\stm32l4xx_hal_flash_ex.c ****   *         be cleared with the call of the HAL_FLASH_OB_Unlock() function.
 787:D:/iot/felix2/targets/Cloud_STM32L431_BearPi/Drivers/STM32L4xx_HAL_Driver/Src\stm32l4xx_hal_flash_ex.c ****   * @note   To validate the user option bytes, the option bytes must be reloaded 
 788:D:/iot/felix2/targets/Cloud_STM32L431_BearPi/Drivers/STM32L4xx_HAL_Driver/Src\stm32l4xx_hal_flash_ex.c ****   *         through the call of the HAL_FLASH_OB_Launch() function.
 789:D:/iot/felix2/targets/Cloud_STM32L431_BearPi/Drivers/STM32L4xx_HAL_Driver/Src\stm32l4xx_hal_flash_ex.c ****   *   
 790:D:/iot/felix2/targets/Cloud_STM32L431_BearPi/Drivers/STM32L4xx_HAL_Driver/Src\stm32l4xx_hal_flash_ex.c ****   * @param  UserType: The FLASH User Option Bytes to be modified 
ARM GAS  C:\Users\91458\AppData\Local\Temp\cct4oxZw.s 			page 34


 791:D:/iot/felix2/targets/Cloud_STM32L431_BearPi/Drivers/STM32L4xx_HAL_Driver/Src\stm32l4xx_hal_flash_ex.c ****   * @param  UserConfig: The FLASH User Option Bytes values: 
 792:D:/iot/felix2/targets/Cloud_STM32L431_BearPi/Drivers/STM32L4xx_HAL_Driver/Src\stm32l4xx_hal_flash_ex.c ****   *         BOR_LEV(Bit8-10), nRST_STOP(Bit12), nRST_STDBY(Bit13), IWDG_SW(Bit16),
 793:D:/iot/felix2/targets/Cloud_STM32L431_BearPi/Drivers/STM32L4xx_HAL_Driver/Src\stm32l4xx_hal_flash_ex.c ****   *         IWDG_STOP(Bit17), IWDG_STDBY(Bit18), WWDG_SW(Bit19), BFB2(Bit20), 
 794:D:/iot/felix2/targets/Cloud_STM32L431_BearPi/Drivers/STM32L4xx_HAL_Driver/Src\stm32l4xx_hal_flash_ex.c ****   *         DUALBANK(Bit21), nBOOT1(Bit23), SRAM2_PE(Bit24) and SRAM2_RST(Bit25). 
 795:D:/iot/felix2/targets/Cloud_STM32L431_BearPi/Drivers/STM32L4xx_HAL_Driver/Src\stm32l4xx_hal_flash_ex.c ****   *   
 796:D:/iot/felix2/targets/Cloud_STM32L431_BearPi/Drivers/STM32L4xx_HAL_Driver/Src\stm32l4xx_hal_flash_ex.c ****   * @retval HAL status
 797:D:/iot/felix2/targets/Cloud_STM32L431_BearPi/Drivers/STM32L4xx_HAL_Driver/Src\stm32l4xx_hal_flash_ex.c ****   */
 798:D:/iot/felix2/targets/Cloud_STM32L431_BearPi/Drivers/STM32L4xx_HAL_Driver/Src\stm32l4xx_hal_flash_ex.c **** static HAL_StatusTypeDef FLASH_OB_UserConfig(uint32_t UserType, uint32_t UserConfig)
 799:D:/iot/felix2/targets/Cloud_STM32L431_BearPi/Drivers/STM32L4xx_HAL_Driver/Src\stm32l4xx_hal_flash_ex.c **** {
 1109              		.loc 1 799 0
 1110              		.cfi_startproc
 1111              		@ args = 0, pretend = 0, frame = 24
 1112              		@ frame_needed = 1, uses_anonymous_args = 0
 1113 0000 80B5     		push	{r7, lr}
 1114              	.LCFI48:
 1115              		.cfi_def_cfa_offset 8
 1116              		.cfi_offset 7, -8
 1117              		.cfi_offset 14, -4
 1118 0002 86B0     		sub	sp, sp, #24
 1119              	.LCFI49:
 1120              		.cfi_def_cfa_offset 32
 1121 0004 00AF     		add	r7, sp, #0
 1122              	.LCFI50:
 1123              		.cfi_def_cfa_register 7
 1124 0006 7860     		str	r0, [r7, #4]
 1125 0008 3960     		str	r1, [r7]
 800:D:/iot/felix2/targets/Cloud_STM32L431_BearPi/Drivers/STM32L4xx_HAL_Driver/Src\stm32l4xx_hal_flash_ex.c ****   uint32_t optr_reg_val = 0;
 1126              		.loc 1 800 0
 1127 000a 0023     		movs	r3, #0
 1128 000c 7B61     		str	r3, [r7, #20]
 801:D:/iot/felix2/targets/Cloud_STM32L431_BearPi/Drivers/STM32L4xx_HAL_Driver/Src\stm32l4xx_hal_flash_ex.c ****   uint32_t optr_reg_mask = 0;
 1129              		.loc 1 801 0
 1130 000e 0023     		movs	r3, #0
 1131 0010 3B61     		str	r3, [r7, #16]
 802:D:/iot/felix2/targets/Cloud_STM32L431_BearPi/Drivers/STM32L4xx_HAL_Driver/Src\stm32l4xx_hal_flash_ex.c ****   HAL_StatusTypeDef status;
 803:D:/iot/felix2/targets/Cloud_STM32L431_BearPi/Drivers/STM32L4xx_HAL_Driver/Src\stm32l4xx_hal_flash_ex.c **** 
 804:D:/iot/felix2/targets/Cloud_STM32L431_BearPi/Drivers/STM32L4xx_HAL_Driver/Src\stm32l4xx_hal_flash_ex.c ****   /* Check the parameters */
 805:D:/iot/felix2/targets/Cloud_STM32L431_BearPi/Drivers/STM32L4xx_HAL_Driver/Src\stm32l4xx_hal_flash_ex.c ****   assert_param(IS_OB_USER_TYPE(UserType));
 806:D:/iot/felix2/targets/Cloud_STM32L431_BearPi/Drivers/STM32L4xx_HAL_Driver/Src\stm32l4xx_hal_flash_ex.c ****   
 807:D:/iot/felix2/targets/Cloud_STM32L431_BearPi/Drivers/STM32L4xx_HAL_Driver/Src\stm32l4xx_hal_flash_ex.c ****   /* Wait for last operation to be completed */
 808:D:/iot/felix2/targets/Cloud_STM32L431_BearPi/Drivers/STM32L4xx_HAL_Driver/Src\stm32l4xx_hal_flash_ex.c ****   status = FLASH_WaitForLastOperation((uint32_t)FLASH_TIMEOUT_VALUE);
 1132              		.loc 1 808 0
 1133 0012 4CF25030 		movw	r0, #50000
 1134 0016 FFF7FEFF 		bl	FLASH_WaitForLastOperation
 1135 001a 0346     		mov	r3, r0
 1136 001c FB73     		strb	r3, [r7, #15]
 809:D:/iot/felix2/targets/Cloud_STM32L431_BearPi/Drivers/STM32L4xx_HAL_Driver/Src\stm32l4xx_hal_flash_ex.c **** 
 810:D:/iot/felix2/targets/Cloud_STM32L431_BearPi/Drivers/STM32L4xx_HAL_Driver/Src\stm32l4xx_hal_flash_ex.c ****   if(status == HAL_OK)
 1137              		.loc 1 810 0
 1138 001e FB7B     		ldrb	r3, [r7, #15]	@ zero_extendqisi2
 1139 0020 002B     		cmp	r3, #0
 1140 0022 40F0DE80 		bne	.L71
 811:D:/iot/felix2/targets/Cloud_STM32L431_BearPi/Drivers/STM32L4xx_HAL_Driver/Src\stm32l4xx_hal_flash_ex.c ****   { 
 812:D:/iot/felix2/targets/Cloud_STM32L431_BearPi/Drivers/STM32L4xx_HAL_Driver/Src\stm32l4xx_hal_flash_ex.c ****     if((UserType & OB_USER_BOR_LEV) != 0U)
 1141              		.loc 1 812 0
 1142 0026 7B68     		ldr	r3, [r7, #4]
 1143 0028 03F00103 		and	r3, r3, #1
ARM GAS  C:\Users\91458\AppData\Local\Temp\cct4oxZw.s 			page 35


 1144 002c 002B     		cmp	r3, #0
 1145 002e 09D0     		beq	.L72
 813:D:/iot/felix2/targets/Cloud_STM32L431_BearPi/Drivers/STM32L4xx_HAL_Driver/Src\stm32l4xx_hal_flash_ex.c ****     {
 814:D:/iot/felix2/targets/Cloud_STM32L431_BearPi/Drivers/STM32L4xx_HAL_Driver/Src\stm32l4xx_hal_flash_ex.c ****       /* BOR level option byte should be modified */
 815:D:/iot/felix2/targets/Cloud_STM32L431_BearPi/Drivers/STM32L4xx_HAL_Driver/Src\stm32l4xx_hal_flash_ex.c ****       assert_param(IS_OB_USER_BOR_LEVEL(UserConfig & FLASH_OPTR_BOR_LEV));
 816:D:/iot/felix2/targets/Cloud_STM32L431_BearPi/Drivers/STM32L4xx_HAL_Driver/Src\stm32l4xx_hal_flash_ex.c ****     
 817:D:/iot/felix2/targets/Cloud_STM32L431_BearPi/Drivers/STM32L4xx_HAL_Driver/Src\stm32l4xx_hal_flash_ex.c ****       /* Set value and mask for BOR level option byte */
 818:D:/iot/felix2/targets/Cloud_STM32L431_BearPi/Drivers/STM32L4xx_HAL_Driver/Src\stm32l4xx_hal_flash_ex.c ****       optr_reg_val |= (UserConfig & FLASH_OPTR_BOR_LEV);
 1146              		.loc 1 818 0
 1147 0030 3B68     		ldr	r3, [r7]
 1148 0032 03F4E063 		and	r3, r3, #1792
 1149 0036 7A69     		ldr	r2, [r7, #20]
 1150 0038 1343     		orrs	r3, r3, r2
 1151 003a 7B61     		str	r3, [r7, #20]
 819:D:/iot/felix2/targets/Cloud_STM32L431_BearPi/Drivers/STM32L4xx_HAL_Driver/Src\stm32l4xx_hal_flash_ex.c ****       optr_reg_mask |= FLASH_OPTR_BOR_LEV;
 1152              		.loc 1 819 0
 1153 003c 3B69     		ldr	r3, [r7, #16]
 1154 003e 43F4E063 		orr	r3, r3, #1792
 1155 0042 3B61     		str	r3, [r7, #16]
 1156              	.L72:
 820:D:/iot/felix2/targets/Cloud_STM32L431_BearPi/Drivers/STM32L4xx_HAL_Driver/Src\stm32l4xx_hal_flash_ex.c ****     }
 821:D:/iot/felix2/targets/Cloud_STM32L431_BearPi/Drivers/STM32L4xx_HAL_Driver/Src\stm32l4xx_hal_flash_ex.c **** 
 822:D:/iot/felix2/targets/Cloud_STM32L431_BearPi/Drivers/STM32L4xx_HAL_Driver/Src\stm32l4xx_hal_flash_ex.c ****     if((UserType & OB_USER_nRST_STOP) != 0U)
 1157              		.loc 1 822 0
 1158 0044 7B68     		ldr	r3, [r7, #4]
 1159 0046 03F00203 		and	r3, r3, #2
 1160 004a 002B     		cmp	r3, #0
 1161 004c 09D0     		beq	.L73
 823:D:/iot/felix2/targets/Cloud_STM32L431_BearPi/Drivers/STM32L4xx_HAL_Driver/Src\stm32l4xx_hal_flash_ex.c ****     {
 824:D:/iot/felix2/targets/Cloud_STM32L431_BearPi/Drivers/STM32L4xx_HAL_Driver/Src\stm32l4xx_hal_flash_ex.c ****       /* nRST_STOP option byte should be modified */
 825:D:/iot/felix2/targets/Cloud_STM32L431_BearPi/Drivers/STM32L4xx_HAL_Driver/Src\stm32l4xx_hal_flash_ex.c ****       assert_param(IS_OB_USER_STOP(UserConfig & FLASH_OPTR_nRST_STOP));
 826:D:/iot/felix2/targets/Cloud_STM32L431_BearPi/Drivers/STM32L4xx_HAL_Driver/Src\stm32l4xx_hal_flash_ex.c ****     
 827:D:/iot/felix2/targets/Cloud_STM32L431_BearPi/Drivers/STM32L4xx_HAL_Driver/Src\stm32l4xx_hal_flash_ex.c ****       /* Set value and mask for nRST_STOP option byte */
 828:D:/iot/felix2/targets/Cloud_STM32L431_BearPi/Drivers/STM32L4xx_HAL_Driver/Src\stm32l4xx_hal_flash_ex.c ****       optr_reg_val |= (UserConfig & FLASH_OPTR_nRST_STOP);
 1162              		.loc 1 828 0
 1163 004e 3B68     		ldr	r3, [r7]
 1164 0050 03F48053 		and	r3, r3, #4096
 1165 0054 7A69     		ldr	r2, [r7, #20]
 1166 0056 1343     		orrs	r3, r3, r2
 1167 0058 7B61     		str	r3, [r7, #20]
 829:D:/iot/felix2/targets/Cloud_STM32L431_BearPi/Drivers/STM32L4xx_HAL_Driver/Src\stm32l4xx_hal_flash_ex.c ****       optr_reg_mask |= FLASH_OPTR_nRST_STOP;
 1168              		.loc 1 829 0
 1169 005a 3B69     		ldr	r3, [r7, #16]
 1170 005c 43F48053 		orr	r3, r3, #4096
 1171 0060 3B61     		str	r3, [r7, #16]
 1172              	.L73:
 830:D:/iot/felix2/targets/Cloud_STM32L431_BearPi/Drivers/STM32L4xx_HAL_Driver/Src\stm32l4xx_hal_flash_ex.c ****     }
 831:D:/iot/felix2/targets/Cloud_STM32L431_BearPi/Drivers/STM32L4xx_HAL_Driver/Src\stm32l4xx_hal_flash_ex.c **** 
 832:D:/iot/felix2/targets/Cloud_STM32L431_BearPi/Drivers/STM32L4xx_HAL_Driver/Src\stm32l4xx_hal_flash_ex.c ****     if((UserType & OB_USER_nRST_STDBY) != 0U)
 1173              		.loc 1 832 0
 1174 0062 7B68     		ldr	r3, [r7, #4]
 1175 0064 03F00403 		and	r3, r3, #4
 1176 0068 002B     		cmp	r3, #0
 1177 006a 09D0     		beq	.L74
 833:D:/iot/felix2/targets/Cloud_STM32L431_BearPi/Drivers/STM32L4xx_HAL_Driver/Src\stm32l4xx_hal_flash_ex.c ****     {
 834:D:/iot/felix2/targets/Cloud_STM32L431_BearPi/Drivers/STM32L4xx_HAL_Driver/Src\stm32l4xx_hal_flash_ex.c ****       /* nRST_STDBY option byte should be modified */
 835:D:/iot/felix2/targets/Cloud_STM32L431_BearPi/Drivers/STM32L4xx_HAL_Driver/Src\stm32l4xx_hal_flash_ex.c ****       assert_param(IS_OB_USER_STANDBY(UserConfig & FLASH_OPTR_nRST_STDBY));
ARM GAS  C:\Users\91458\AppData\Local\Temp\cct4oxZw.s 			page 36


 836:D:/iot/felix2/targets/Cloud_STM32L431_BearPi/Drivers/STM32L4xx_HAL_Driver/Src\stm32l4xx_hal_flash_ex.c ****     
 837:D:/iot/felix2/targets/Cloud_STM32L431_BearPi/Drivers/STM32L4xx_HAL_Driver/Src\stm32l4xx_hal_flash_ex.c ****       /* Set value and mask for nRST_STDBY option byte */
 838:D:/iot/felix2/targets/Cloud_STM32L431_BearPi/Drivers/STM32L4xx_HAL_Driver/Src\stm32l4xx_hal_flash_ex.c ****       optr_reg_val |= (UserConfig & FLASH_OPTR_nRST_STDBY);
 1178              		.loc 1 838 0
 1179 006c 3B68     		ldr	r3, [r7]
 1180 006e 03F40053 		and	r3, r3, #8192
 1181 0072 7A69     		ldr	r2, [r7, #20]
 1182 0074 1343     		orrs	r3, r3, r2
 1183 0076 7B61     		str	r3, [r7, #20]
 839:D:/iot/felix2/targets/Cloud_STM32L431_BearPi/Drivers/STM32L4xx_HAL_Driver/Src\stm32l4xx_hal_flash_ex.c ****       optr_reg_mask |= FLASH_OPTR_nRST_STDBY;
 1184              		.loc 1 839 0
 1185 0078 3B69     		ldr	r3, [r7, #16]
 1186 007a 43F40053 		orr	r3, r3, #8192
 1187 007e 3B61     		str	r3, [r7, #16]
 1188              	.L74:
 840:D:/iot/felix2/targets/Cloud_STM32L431_BearPi/Drivers/STM32L4xx_HAL_Driver/Src\stm32l4xx_hal_flash_ex.c ****     }
 841:D:/iot/felix2/targets/Cloud_STM32L431_BearPi/Drivers/STM32L4xx_HAL_Driver/Src\stm32l4xx_hal_flash_ex.c **** 
 842:D:/iot/felix2/targets/Cloud_STM32L431_BearPi/Drivers/STM32L4xx_HAL_Driver/Src\stm32l4xx_hal_flash_ex.c ****     if((UserType & OB_USER_nRST_SHDW) != 0U)
 1189              		.loc 1 842 0
 1190 0080 7B68     		ldr	r3, [r7, #4]
 1191 0082 03F48053 		and	r3, r3, #4096
 1192 0086 002B     		cmp	r3, #0
 1193 0088 09D0     		beq	.L75
 843:D:/iot/felix2/targets/Cloud_STM32L431_BearPi/Drivers/STM32L4xx_HAL_Driver/Src\stm32l4xx_hal_flash_ex.c ****     {
 844:D:/iot/felix2/targets/Cloud_STM32L431_BearPi/Drivers/STM32L4xx_HAL_Driver/Src\stm32l4xx_hal_flash_ex.c ****       /* nRST_SHDW option byte should be modified */
 845:D:/iot/felix2/targets/Cloud_STM32L431_BearPi/Drivers/STM32L4xx_HAL_Driver/Src\stm32l4xx_hal_flash_ex.c ****       assert_param(IS_OB_USER_SHUTDOWN(UserConfig & FLASH_OPTR_nRST_SHDW));
 846:D:/iot/felix2/targets/Cloud_STM32L431_BearPi/Drivers/STM32L4xx_HAL_Driver/Src\stm32l4xx_hal_flash_ex.c ****     
 847:D:/iot/felix2/targets/Cloud_STM32L431_BearPi/Drivers/STM32L4xx_HAL_Driver/Src\stm32l4xx_hal_flash_ex.c ****       /* Set value and mask for nRST_SHDW option byte */
 848:D:/iot/felix2/targets/Cloud_STM32L431_BearPi/Drivers/STM32L4xx_HAL_Driver/Src\stm32l4xx_hal_flash_ex.c ****       optr_reg_val |= (UserConfig & FLASH_OPTR_nRST_SHDW);
 1194              		.loc 1 848 0
 1195 008a 3B68     		ldr	r3, [r7]
 1196 008c 03F48043 		and	r3, r3, #16384
 1197 0090 7A69     		ldr	r2, [r7, #20]
 1198 0092 1343     		orrs	r3, r3, r2
 1199 0094 7B61     		str	r3, [r7, #20]
 849:D:/iot/felix2/targets/Cloud_STM32L431_BearPi/Drivers/STM32L4xx_HAL_Driver/Src\stm32l4xx_hal_flash_ex.c ****       optr_reg_mask |= FLASH_OPTR_nRST_SHDW;
 1200              		.loc 1 849 0
 1201 0096 3B69     		ldr	r3, [r7, #16]
 1202 0098 43F48043 		orr	r3, r3, #16384
 1203 009c 3B61     		str	r3, [r7, #16]
 1204              	.L75:
 850:D:/iot/felix2/targets/Cloud_STM32L431_BearPi/Drivers/STM32L4xx_HAL_Driver/Src\stm32l4xx_hal_flash_ex.c ****     }
 851:D:/iot/felix2/targets/Cloud_STM32L431_BearPi/Drivers/STM32L4xx_HAL_Driver/Src\stm32l4xx_hal_flash_ex.c **** 
 852:D:/iot/felix2/targets/Cloud_STM32L431_BearPi/Drivers/STM32L4xx_HAL_Driver/Src\stm32l4xx_hal_flash_ex.c ****     if((UserType & OB_USER_IWDG_SW) != 0U)
 1205              		.loc 1 852 0
 1206 009e 7B68     		ldr	r3, [r7, #4]
 1207 00a0 03F00803 		and	r3, r3, #8
 1208 00a4 002B     		cmp	r3, #0
 1209 00a6 09D0     		beq	.L76
 853:D:/iot/felix2/targets/Cloud_STM32L431_BearPi/Drivers/STM32L4xx_HAL_Driver/Src\stm32l4xx_hal_flash_ex.c ****     {
 854:D:/iot/felix2/targets/Cloud_STM32L431_BearPi/Drivers/STM32L4xx_HAL_Driver/Src\stm32l4xx_hal_flash_ex.c ****       /* IWDG_SW option byte should be modified */
 855:D:/iot/felix2/targets/Cloud_STM32L431_BearPi/Drivers/STM32L4xx_HAL_Driver/Src\stm32l4xx_hal_flash_ex.c ****       assert_param(IS_OB_USER_IWDG(UserConfig & FLASH_OPTR_IWDG_SW));
 856:D:/iot/felix2/targets/Cloud_STM32L431_BearPi/Drivers/STM32L4xx_HAL_Driver/Src\stm32l4xx_hal_flash_ex.c ****     
 857:D:/iot/felix2/targets/Cloud_STM32L431_BearPi/Drivers/STM32L4xx_HAL_Driver/Src\stm32l4xx_hal_flash_ex.c ****       /* Set value and mask for IWDG_SW option byte */
 858:D:/iot/felix2/targets/Cloud_STM32L431_BearPi/Drivers/STM32L4xx_HAL_Driver/Src\stm32l4xx_hal_flash_ex.c ****       optr_reg_val |= (UserConfig & FLASH_OPTR_IWDG_SW);
 1210              		.loc 1 858 0
 1211 00a8 3B68     		ldr	r3, [r7]
ARM GAS  C:\Users\91458\AppData\Local\Temp\cct4oxZw.s 			page 37


 1212 00aa 03F48033 		and	r3, r3, #65536
 1213 00ae 7A69     		ldr	r2, [r7, #20]
 1214 00b0 1343     		orrs	r3, r3, r2
 1215 00b2 7B61     		str	r3, [r7, #20]
 859:D:/iot/felix2/targets/Cloud_STM32L431_BearPi/Drivers/STM32L4xx_HAL_Driver/Src\stm32l4xx_hal_flash_ex.c ****       optr_reg_mask |= FLASH_OPTR_IWDG_SW;
 1216              		.loc 1 859 0
 1217 00b4 3B69     		ldr	r3, [r7, #16]
 1218 00b6 43F48033 		orr	r3, r3, #65536
 1219 00ba 3B61     		str	r3, [r7, #16]
 1220              	.L76:
 860:D:/iot/felix2/targets/Cloud_STM32L431_BearPi/Drivers/STM32L4xx_HAL_Driver/Src\stm32l4xx_hal_flash_ex.c ****     }
 861:D:/iot/felix2/targets/Cloud_STM32L431_BearPi/Drivers/STM32L4xx_HAL_Driver/Src\stm32l4xx_hal_flash_ex.c **** 
 862:D:/iot/felix2/targets/Cloud_STM32L431_BearPi/Drivers/STM32L4xx_HAL_Driver/Src\stm32l4xx_hal_flash_ex.c ****     if((UserType & OB_USER_IWDG_STOP) != 0U)
 1221              		.loc 1 862 0
 1222 00bc 7B68     		ldr	r3, [r7, #4]
 1223 00be 03F01003 		and	r3, r3, #16
 1224 00c2 002B     		cmp	r3, #0
 1225 00c4 09D0     		beq	.L77
 863:D:/iot/felix2/targets/Cloud_STM32L431_BearPi/Drivers/STM32L4xx_HAL_Driver/Src\stm32l4xx_hal_flash_ex.c ****     {
 864:D:/iot/felix2/targets/Cloud_STM32L431_BearPi/Drivers/STM32L4xx_HAL_Driver/Src\stm32l4xx_hal_flash_ex.c ****       /* IWDG_STOP option byte should be modified */
 865:D:/iot/felix2/targets/Cloud_STM32L431_BearPi/Drivers/STM32L4xx_HAL_Driver/Src\stm32l4xx_hal_flash_ex.c ****       assert_param(IS_OB_USER_IWDG_STOP(UserConfig & FLASH_OPTR_IWDG_STOP));
 866:D:/iot/felix2/targets/Cloud_STM32L431_BearPi/Drivers/STM32L4xx_HAL_Driver/Src\stm32l4xx_hal_flash_ex.c ****     
 867:D:/iot/felix2/targets/Cloud_STM32L431_BearPi/Drivers/STM32L4xx_HAL_Driver/Src\stm32l4xx_hal_flash_ex.c ****       /* Set value and mask for IWDG_STOP option byte */
 868:D:/iot/felix2/targets/Cloud_STM32L431_BearPi/Drivers/STM32L4xx_HAL_Driver/Src\stm32l4xx_hal_flash_ex.c ****       optr_reg_val |= (UserConfig & FLASH_OPTR_IWDG_STOP);
 1226              		.loc 1 868 0
 1227 00c6 3B68     		ldr	r3, [r7]
 1228 00c8 03F40033 		and	r3, r3, #131072
 1229 00cc 7A69     		ldr	r2, [r7, #20]
 1230 00ce 1343     		orrs	r3, r3, r2
 1231 00d0 7B61     		str	r3, [r7, #20]
 869:D:/iot/felix2/targets/Cloud_STM32L431_BearPi/Drivers/STM32L4xx_HAL_Driver/Src\stm32l4xx_hal_flash_ex.c ****       optr_reg_mask |= FLASH_OPTR_IWDG_STOP;
 1232              		.loc 1 869 0
 1233 00d2 3B69     		ldr	r3, [r7, #16]
 1234 00d4 43F40033 		orr	r3, r3, #131072
 1235 00d8 3B61     		str	r3, [r7, #16]
 1236              	.L77:
 870:D:/iot/felix2/targets/Cloud_STM32L431_BearPi/Drivers/STM32L4xx_HAL_Driver/Src\stm32l4xx_hal_flash_ex.c ****     }
 871:D:/iot/felix2/targets/Cloud_STM32L431_BearPi/Drivers/STM32L4xx_HAL_Driver/Src\stm32l4xx_hal_flash_ex.c **** 
 872:D:/iot/felix2/targets/Cloud_STM32L431_BearPi/Drivers/STM32L4xx_HAL_Driver/Src\stm32l4xx_hal_flash_ex.c ****     if((UserType & OB_USER_IWDG_STDBY) != 0U)
 1237              		.loc 1 872 0
 1238 00da 7B68     		ldr	r3, [r7, #4]
 1239 00dc 03F02003 		and	r3, r3, #32
 1240 00e0 002B     		cmp	r3, #0
 1241 00e2 09D0     		beq	.L78
 873:D:/iot/felix2/targets/Cloud_STM32L431_BearPi/Drivers/STM32L4xx_HAL_Driver/Src\stm32l4xx_hal_flash_ex.c ****     {
 874:D:/iot/felix2/targets/Cloud_STM32L431_BearPi/Drivers/STM32L4xx_HAL_Driver/Src\stm32l4xx_hal_flash_ex.c ****       /* IWDG_STDBY option byte should be modified */
 875:D:/iot/felix2/targets/Cloud_STM32L431_BearPi/Drivers/STM32L4xx_HAL_Driver/Src\stm32l4xx_hal_flash_ex.c ****       assert_param(IS_OB_USER_IWDG_STDBY(UserConfig & FLASH_OPTR_IWDG_STDBY));
 876:D:/iot/felix2/targets/Cloud_STM32L431_BearPi/Drivers/STM32L4xx_HAL_Driver/Src\stm32l4xx_hal_flash_ex.c ****     
 877:D:/iot/felix2/targets/Cloud_STM32L431_BearPi/Drivers/STM32L4xx_HAL_Driver/Src\stm32l4xx_hal_flash_ex.c ****       /* Set value and mask for IWDG_STDBY option byte */
 878:D:/iot/felix2/targets/Cloud_STM32L431_BearPi/Drivers/STM32L4xx_HAL_Driver/Src\stm32l4xx_hal_flash_ex.c ****       optr_reg_val |= (UserConfig & FLASH_OPTR_IWDG_STDBY);
 1242              		.loc 1 878 0
 1243 00e4 3B68     		ldr	r3, [r7]
 1244 00e6 03F48023 		and	r3, r3, #262144
 1245 00ea 7A69     		ldr	r2, [r7, #20]
 1246 00ec 1343     		orrs	r3, r3, r2
 1247 00ee 7B61     		str	r3, [r7, #20]
 879:D:/iot/felix2/targets/Cloud_STM32L431_BearPi/Drivers/STM32L4xx_HAL_Driver/Src\stm32l4xx_hal_flash_ex.c ****       optr_reg_mask |= FLASH_OPTR_IWDG_STDBY;
ARM GAS  C:\Users\91458\AppData\Local\Temp\cct4oxZw.s 			page 38


 1248              		.loc 1 879 0
 1249 00f0 3B69     		ldr	r3, [r7, #16]
 1250 00f2 43F48023 		orr	r3, r3, #262144
 1251 00f6 3B61     		str	r3, [r7, #16]
 1252              	.L78:
 880:D:/iot/felix2/targets/Cloud_STM32L431_BearPi/Drivers/STM32L4xx_HAL_Driver/Src\stm32l4xx_hal_flash_ex.c ****     }
 881:D:/iot/felix2/targets/Cloud_STM32L431_BearPi/Drivers/STM32L4xx_HAL_Driver/Src\stm32l4xx_hal_flash_ex.c **** 
 882:D:/iot/felix2/targets/Cloud_STM32L431_BearPi/Drivers/STM32L4xx_HAL_Driver/Src\stm32l4xx_hal_flash_ex.c ****     if((UserType & OB_USER_WWDG_SW) != 0U)
 1253              		.loc 1 882 0
 1254 00f8 7B68     		ldr	r3, [r7, #4]
 1255 00fa 03F04003 		and	r3, r3, #64
 1256 00fe 002B     		cmp	r3, #0
 1257 0100 09D0     		beq	.L79
 883:D:/iot/felix2/targets/Cloud_STM32L431_BearPi/Drivers/STM32L4xx_HAL_Driver/Src\stm32l4xx_hal_flash_ex.c ****     {
 884:D:/iot/felix2/targets/Cloud_STM32L431_BearPi/Drivers/STM32L4xx_HAL_Driver/Src\stm32l4xx_hal_flash_ex.c ****       /* WWDG_SW option byte should be modified */
 885:D:/iot/felix2/targets/Cloud_STM32L431_BearPi/Drivers/STM32L4xx_HAL_Driver/Src\stm32l4xx_hal_flash_ex.c ****       assert_param(IS_OB_USER_WWDG(UserConfig & FLASH_OPTR_WWDG_SW));
 886:D:/iot/felix2/targets/Cloud_STM32L431_BearPi/Drivers/STM32L4xx_HAL_Driver/Src\stm32l4xx_hal_flash_ex.c ****     
 887:D:/iot/felix2/targets/Cloud_STM32L431_BearPi/Drivers/STM32L4xx_HAL_Driver/Src\stm32l4xx_hal_flash_ex.c ****       /* Set value and mask for WWDG_SW option byte */
 888:D:/iot/felix2/targets/Cloud_STM32L431_BearPi/Drivers/STM32L4xx_HAL_Driver/Src\stm32l4xx_hal_flash_ex.c ****       optr_reg_val |= (UserConfig & FLASH_OPTR_WWDG_SW);
 1258              		.loc 1 888 0
 1259 0102 3B68     		ldr	r3, [r7]
 1260 0104 03F40023 		and	r3, r3, #524288
 1261 0108 7A69     		ldr	r2, [r7, #20]
 1262 010a 1343     		orrs	r3, r3, r2
 1263 010c 7B61     		str	r3, [r7, #20]
 889:D:/iot/felix2/targets/Cloud_STM32L431_BearPi/Drivers/STM32L4xx_HAL_Driver/Src\stm32l4xx_hal_flash_ex.c ****       optr_reg_mask |= FLASH_OPTR_WWDG_SW;
 1264              		.loc 1 889 0
 1265 010e 3B69     		ldr	r3, [r7, #16]
 1266 0110 43F40023 		orr	r3, r3, #524288
 1267 0114 3B61     		str	r3, [r7, #16]
 1268              	.L79:
 890:D:/iot/felix2/targets/Cloud_STM32L431_BearPi/Drivers/STM32L4xx_HAL_Driver/Src\stm32l4xx_hal_flash_ex.c ****     }
 891:D:/iot/felix2/targets/Cloud_STM32L431_BearPi/Drivers/STM32L4xx_HAL_Driver/Src\stm32l4xx_hal_flash_ex.c **** 
 892:D:/iot/felix2/targets/Cloud_STM32L431_BearPi/Drivers/STM32L4xx_HAL_Driver/Src\stm32l4xx_hal_flash_ex.c **** #if defined (STM32L471xx) || defined (STM32L475xx) || defined (STM32L476xx) || defined (STM32L485xx
 893:D:/iot/felix2/targets/Cloud_STM32L431_BearPi/Drivers/STM32L4xx_HAL_Driver/Src\stm32l4xx_hal_flash_ex.c ****     defined (STM32L496xx) || defined (STM32L4A6xx) || \
 894:D:/iot/felix2/targets/Cloud_STM32L431_BearPi/Drivers/STM32L4xx_HAL_Driver/Src\stm32l4xx_hal_flash_ex.c ****     defined (STM32L4R5xx) || defined (STM32L4R7xx) || defined (STM32L4R9xx) || defined (STM32L4S5xx
 895:D:/iot/felix2/targets/Cloud_STM32L431_BearPi/Drivers/STM32L4xx_HAL_Driver/Src\stm32l4xx_hal_flash_ex.c ****     if((UserType & OB_USER_BFB2) != 0U)
 896:D:/iot/felix2/targets/Cloud_STM32L431_BearPi/Drivers/STM32L4xx_HAL_Driver/Src\stm32l4xx_hal_flash_ex.c ****     {
 897:D:/iot/felix2/targets/Cloud_STM32L431_BearPi/Drivers/STM32L4xx_HAL_Driver/Src\stm32l4xx_hal_flash_ex.c ****       /* BFB2 option byte should be modified */
 898:D:/iot/felix2/targets/Cloud_STM32L431_BearPi/Drivers/STM32L4xx_HAL_Driver/Src\stm32l4xx_hal_flash_ex.c ****       assert_param(IS_OB_USER_BFB2(UserConfig & FLASH_OPTR_BFB2));
 899:D:/iot/felix2/targets/Cloud_STM32L431_BearPi/Drivers/STM32L4xx_HAL_Driver/Src\stm32l4xx_hal_flash_ex.c ****     
 900:D:/iot/felix2/targets/Cloud_STM32L431_BearPi/Drivers/STM32L4xx_HAL_Driver/Src\stm32l4xx_hal_flash_ex.c ****       /* Set value and mask for BFB2 option byte */
 901:D:/iot/felix2/targets/Cloud_STM32L431_BearPi/Drivers/STM32L4xx_HAL_Driver/Src\stm32l4xx_hal_flash_ex.c ****       optr_reg_val |= (UserConfig & FLASH_OPTR_BFB2);
 902:D:/iot/felix2/targets/Cloud_STM32L431_BearPi/Drivers/STM32L4xx_HAL_Driver/Src\stm32l4xx_hal_flash_ex.c ****       optr_reg_mask |= FLASH_OPTR_BFB2;
 903:D:/iot/felix2/targets/Cloud_STM32L431_BearPi/Drivers/STM32L4xx_HAL_Driver/Src\stm32l4xx_hal_flash_ex.c ****     }
 904:D:/iot/felix2/targets/Cloud_STM32L431_BearPi/Drivers/STM32L4xx_HAL_Driver/Src\stm32l4xx_hal_flash_ex.c **** 
 905:D:/iot/felix2/targets/Cloud_STM32L431_BearPi/Drivers/STM32L4xx_HAL_Driver/Src\stm32l4xx_hal_flash_ex.c ****     if((UserType & OB_USER_DUALBANK) != 0U)
 906:D:/iot/felix2/targets/Cloud_STM32L431_BearPi/Drivers/STM32L4xx_HAL_Driver/Src\stm32l4xx_hal_flash_ex.c ****     {
 907:D:/iot/felix2/targets/Cloud_STM32L431_BearPi/Drivers/STM32L4xx_HAL_Driver/Src\stm32l4xx_hal_flash_ex.c **** #if defined (STM32L4R5xx) || defined (STM32L4R7xx) || defined (STM32L4R9xx) || defined (STM32L4S5xx
 908:D:/iot/felix2/targets/Cloud_STM32L431_BearPi/Drivers/STM32L4xx_HAL_Driver/Src\stm32l4xx_hal_flash_ex.c ****       /* DUALBANK option byte should be modified */
 909:D:/iot/felix2/targets/Cloud_STM32L431_BearPi/Drivers/STM32L4xx_HAL_Driver/Src\stm32l4xx_hal_flash_ex.c ****       assert_param(IS_OB_USER_DUALBANK(UserConfig & FLASH_OPTR_DB1M));
 910:D:/iot/felix2/targets/Cloud_STM32L431_BearPi/Drivers/STM32L4xx_HAL_Driver/Src\stm32l4xx_hal_flash_ex.c ****     
 911:D:/iot/felix2/targets/Cloud_STM32L431_BearPi/Drivers/STM32L4xx_HAL_Driver/Src\stm32l4xx_hal_flash_ex.c ****       /* Set value and mask for DUALBANK option byte */
 912:D:/iot/felix2/targets/Cloud_STM32L431_BearPi/Drivers/STM32L4xx_HAL_Driver/Src\stm32l4xx_hal_flash_ex.c ****       optr_reg_val |= (UserConfig & FLASH_OPTR_DB1M);
 913:D:/iot/felix2/targets/Cloud_STM32L431_BearPi/Drivers/STM32L4xx_HAL_Driver/Src\stm32l4xx_hal_flash_ex.c ****       optr_reg_mask |= FLASH_OPTR_DB1M;
 914:D:/iot/felix2/targets/Cloud_STM32L431_BearPi/Drivers/STM32L4xx_HAL_Driver/Src\stm32l4xx_hal_flash_ex.c **** #else
 915:D:/iot/felix2/targets/Cloud_STM32L431_BearPi/Drivers/STM32L4xx_HAL_Driver/Src\stm32l4xx_hal_flash_ex.c ****       /* DUALBANK option byte should be modified */
ARM GAS  C:\Users\91458\AppData\Local\Temp\cct4oxZw.s 			page 39


 916:D:/iot/felix2/targets/Cloud_STM32L431_BearPi/Drivers/STM32L4xx_HAL_Driver/Src\stm32l4xx_hal_flash_ex.c ****       assert_param(IS_OB_USER_DUALBANK(UserConfig & FLASH_OPTR_DUALBANK));
 917:D:/iot/felix2/targets/Cloud_STM32L431_BearPi/Drivers/STM32L4xx_HAL_Driver/Src\stm32l4xx_hal_flash_ex.c ****     
 918:D:/iot/felix2/targets/Cloud_STM32L431_BearPi/Drivers/STM32L4xx_HAL_Driver/Src\stm32l4xx_hal_flash_ex.c ****       /* Set value and mask for DUALBANK option byte */
 919:D:/iot/felix2/targets/Cloud_STM32L431_BearPi/Drivers/STM32L4xx_HAL_Driver/Src\stm32l4xx_hal_flash_ex.c ****       optr_reg_val |= (UserConfig & FLASH_OPTR_DUALBANK);
 920:D:/iot/felix2/targets/Cloud_STM32L431_BearPi/Drivers/STM32L4xx_HAL_Driver/Src\stm32l4xx_hal_flash_ex.c ****       optr_reg_mask |= FLASH_OPTR_DUALBANK;
 921:D:/iot/felix2/targets/Cloud_STM32L431_BearPi/Drivers/STM32L4xx_HAL_Driver/Src\stm32l4xx_hal_flash_ex.c **** #endif
 922:D:/iot/felix2/targets/Cloud_STM32L431_BearPi/Drivers/STM32L4xx_HAL_Driver/Src\stm32l4xx_hal_flash_ex.c ****     }
 923:D:/iot/felix2/targets/Cloud_STM32L431_BearPi/Drivers/STM32L4xx_HAL_Driver/Src\stm32l4xx_hal_flash_ex.c **** #endif
 924:D:/iot/felix2/targets/Cloud_STM32L431_BearPi/Drivers/STM32L4xx_HAL_Driver/Src\stm32l4xx_hal_flash_ex.c ****     
 925:D:/iot/felix2/targets/Cloud_STM32L431_BearPi/Drivers/STM32L4xx_HAL_Driver/Src\stm32l4xx_hal_flash_ex.c ****     if((UserType & OB_USER_nBOOT1) != 0U)
 1269              		.loc 1 925 0
 1270 0116 7B68     		ldr	r3, [r7, #4]
 1271 0118 03F40073 		and	r3, r3, #512
 1272 011c 002B     		cmp	r3, #0
 1273 011e 09D0     		beq	.L80
 926:D:/iot/felix2/targets/Cloud_STM32L431_BearPi/Drivers/STM32L4xx_HAL_Driver/Src\stm32l4xx_hal_flash_ex.c ****     {
 927:D:/iot/felix2/targets/Cloud_STM32L431_BearPi/Drivers/STM32L4xx_HAL_Driver/Src\stm32l4xx_hal_flash_ex.c ****       /* nBOOT1 option byte should be modified */
 928:D:/iot/felix2/targets/Cloud_STM32L431_BearPi/Drivers/STM32L4xx_HAL_Driver/Src\stm32l4xx_hal_flash_ex.c ****       assert_param(IS_OB_USER_BOOT1(UserConfig & FLASH_OPTR_nBOOT1));
 929:D:/iot/felix2/targets/Cloud_STM32L431_BearPi/Drivers/STM32L4xx_HAL_Driver/Src\stm32l4xx_hal_flash_ex.c ****     
 930:D:/iot/felix2/targets/Cloud_STM32L431_BearPi/Drivers/STM32L4xx_HAL_Driver/Src\stm32l4xx_hal_flash_ex.c ****       /* Set value and mask for nBOOT1 option byte */
 931:D:/iot/felix2/targets/Cloud_STM32L431_BearPi/Drivers/STM32L4xx_HAL_Driver/Src\stm32l4xx_hal_flash_ex.c ****       optr_reg_val |= (UserConfig & FLASH_OPTR_nBOOT1);
 1274              		.loc 1 931 0
 1275 0120 3B68     		ldr	r3, [r7]
 1276 0122 03F40003 		and	r3, r3, #8388608
 1277 0126 7A69     		ldr	r2, [r7, #20]
 1278 0128 1343     		orrs	r3, r3, r2
 1279 012a 7B61     		str	r3, [r7, #20]
 932:D:/iot/felix2/targets/Cloud_STM32L431_BearPi/Drivers/STM32L4xx_HAL_Driver/Src\stm32l4xx_hal_flash_ex.c ****       optr_reg_mask |= FLASH_OPTR_nBOOT1;
 1280              		.loc 1 932 0
 1281 012c 3B69     		ldr	r3, [r7, #16]
 1282 012e 43F40003 		orr	r3, r3, #8388608
 1283 0132 3B61     		str	r3, [r7, #16]
 1284              	.L80:
 933:D:/iot/felix2/targets/Cloud_STM32L431_BearPi/Drivers/STM32L4xx_HAL_Driver/Src\stm32l4xx_hal_flash_ex.c ****     }
 934:D:/iot/felix2/targets/Cloud_STM32L431_BearPi/Drivers/STM32L4xx_HAL_Driver/Src\stm32l4xx_hal_flash_ex.c **** 
 935:D:/iot/felix2/targets/Cloud_STM32L431_BearPi/Drivers/STM32L4xx_HAL_Driver/Src\stm32l4xx_hal_flash_ex.c ****     if((UserType & OB_USER_SRAM2_PE) != 0U)
 1285              		.loc 1 935 0
 1286 0134 7B68     		ldr	r3, [r7, #4]
 1287 0136 03F48063 		and	r3, r3, #1024
 1288 013a 002B     		cmp	r3, #0
 1289 013c 09D0     		beq	.L81
 936:D:/iot/felix2/targets/Cloud_STM32L431_BearPi/Drivers/STM32L4xx_HAL_Driver/Src\stm32l4xx_hal_flash_ex.c ****     {
 937:D:/iot/felix2/targets/Cloud_STM32L431_BearPi/Drivers/STM32L4xx_HAL_Driver/Src\stm32l4xx_hal_flash_ex.c ****       /* SRAM2_PE option byte should be modified */
 938:D:/iot/felix2/targets/Cloud_STM32L431_BearPi/Drivers/STM32L4xx_HAL_Driver/Src\stm32l4xx_hal_flash_ex.c ****       assert_param(IS_OB_USER_SRAM2_PARITY(UserConfig & FLASH_OPTR_SRAM2_PE));
 939:D:/iot/felix2/targets/Cloud_STM32L431_BearPi/Drivers/STM32L4xx_HAL_Driver/Src\stm32l4xx_hal_flash_ex.c ****     
 940:D:/iot/felix2/targets/Cloud_STM32L431_BearPi/Drivers/STM32L4xx_HAL_Driver/Src\stm32l4xx_hal_flash_ex.c ****       /* Set value and mask for SRAM2_PE option byte */
 941:D:/iot/felix2/targets/Cloud_STM32L431_BearPi/Drivers/STM32L4xx_HAL_Driver/Src\stm32l4xx_hal_flash_ex.c ****       optr_reg_val |= (UserConfig & FLASH_OPTR_SRAM2_PE);
 1290              		.loc 1 941 0
 1291 013e 3B68     		ldr	r3, [r7]
 1292 0140 03F08073 		and	r3, r3, #16777216
 1293 0144 7A69     		ldr	r2, [r7, #20]
 1294 0146 1343     		orrs	r3, r3, r2
 1295 0148 7B61     		str	r3, [r7, #20]
 942:D:/iot/felix2/targets/Cloud_STM32L431_BearPi/Drivers/STM32L4xx_HAL_Driver/Src\stm32l4xx_hal_flash_ex.c ****       optr_reg_mask |= FLASH_OPTR_SRAM2_PE;
 1296              		.loc 1 942 0
 1297 014a 3B69     		ldr	r3, [r7, #16]
 1298 014c 43F08073 		orr	r3, r3, #16777216
ARM GAS  C:\Users\91458\AppData\Local\Temp\cct4oxZw.s 			page 40


 1299 0150 3B61     		str	r3, [r7, #16]
 1300              	.L81:
 943:D:/iot/felix2/targets/Cloud_STM32L431_BearPi/Drivers/STM32L4xx_HAL_Driver/Src\stm32l4xx_hal_flash_ex.c ****     }
 944:D:/iot/felix2/targets/Cloud_STM32L431_BearPi/Drivers/STM32L4xx_HAL_Driver/Src\stm32l4xx_hal_flash_ex.c **** 
 945:D:/iot/felix2/targets/Cloud_STM32L431_BearPi/Drivers/STM32L4xx_HAL_Driver/Src\stm32l4xx_hal_flash_ex.c ****     if((UserType & OB_USER_SRAM2_RST) != 0U)
 1301              		.loc 1 945 0
 1302 0152 7B68     		ldr	r3, [r7, #4]
 1303 0154 03F40063 		and	r3, r3, #2048
 1304 0158 002B     		cmp	r3, #0
 1305 015a 09D0     		beq	.L82
 946:D:/iot/felix2/targets/Cloud_STM32L431_BearPi/Drivers/STM32L4xx_HAL_Driver/Src\stm32l4xx_hal_flash_ex.c ****     {
 947:D:/iot/felix2/targets/Cloud_STM32L431_BearPi/Drivers/STM32L4xx_HAL_Driver/Src\stm32l4xx_hal_flash_ex.c ****       /* SRAM2_RST option byte should be modified */
 948:D:/iot/felix2/targets/Cloud_STM32L431_BearPi/Drivers/STM32L4xx_HAL_Driver/Src\stm32l4xx_hal_flash_ex.c ****       assert_param(IS_OB_USER_SRAM2_RST(UserConfig & FLASH_OPTR_SRAM2_RST));
 949:D:/iot/felix2/targets/Cloud_STM32L431_BearPi/Drivers/STM32L4xx_HAL_Driver/Src\stm32l4xx_hal_flash_ex.c ****     
 950:D:/iot/felix2/targets/Cloud_STM32L431_BearPi/Drivers/STM32L4xx_HAL_Driver/Src\stm32l4xx_hal_flash_ex.c ****       /* Set value and mask for SRAM2_RST option byte */
 951:D:/iot/felix2/targets/Cloud_STM32L431_BearPi/Drivers/STM32L4xx_HAL_Driver/Src\stm32l4xx_hal_flash_ex.c ****       optr_reg_val |= (UserConfig & FLASH_OPTR_SRAM2_RST);
 1306              		.loc 1 951 0
 1307 015c 3B68     		ldr	r3, [r7]
 1308 015e 03F00073 		and	r3, r3, #33554432
 1309 0162 7A69     		ldr	r2, [r7, #20]
 1310 0164 1343     		orrs	r3, r3, r2
 1311 0166 7B61     		str	r3, [r7, #20]
 952:D:/iot/felix2/targets/Cloud_STM32L431_BearPi/Drivers/STM32L4xx_HAL_Driver/Src\stm32l4xx_hal_flash_ex.c ****       optr_reg_mask |= FLASH_OPTR_SRAM2_RST;
 1312              		.loc 1 952 0
 1313 0168 3B69     		ldr	r3, [r7, #16]
 1314 016a 43F00073 		orr	r3, r3, #33554432
 1315 016e 3B61     		str	r3, [r7, #16]
 1316              	.L82:
 953:D:/iot/felix2/targets/Cloud_STM32L431_BearPi/Drivers/STM32L4xx_HAL_Driver/Src\stm32l4xx_hal_flash_ex.c ****     }
 954:D:/iot/felix2/targets/Cloud_STM32L431_BearPi/Drivers/STM32L4xx_HAL_Driver/Src\stm32l4xx_hal_flash_ex.c **** 
 955:D:/iot/felix2/targets/Cloud_STM32L431_BearPi/Drivers/STM32L4xx_HAL_Driver/Src\stm32l4xx_hal_flash_ex.c **** #if defined (STM32L431xx) || defined (STM32L432xx) || defined (STM32L433xx) || defined (STM32L442xx
 956:D:/iot/felix2/targets/Cloud_STM32L431_BearPi/Drivers/STM32L4xx_HAL_Driver/Src\stm32l4xx_hal_flash_ex.c ****     defined (STM32L443xx) || defined (STM32L451xx) || defined (STM32L452xx) || defined (STM32L462xx
 957:D:/iot/felix2/targets/Cloud_STM32L431_BearPi/Drivers/STM32L4xx_HAL_Driver/Src\stm32l4xx_hal_flash_ex.c ****     defined (STM32L496xx) || defined (STM32L4A6xx) || \
 958:D:/iot/felix2/targets/Cloud_STM32L431_BearPi/Drivers/STM32L4xx_HAL_Driver/Src\stm32l4xx_hal_flash_ex.c ****     defined (STM32L4R5xx) || defined (STM32L4R7xx) || defined (STM32L4R9xx) || defined (STM32L4S5xx
 959:D:/iot/felix2/targets/Cloud_STM32L431_BearPi/Drivers/STM32L4xx_HAL_Driver/Src\stm32l4xx_hal_flash_ex.c ****     if((UserType & OB_USER_nSWBOOT0) != 0U)
 1317              		.loc 1 959 0
 1318 0170 7B68     		ldr	r3, [r7, #4]
 1319 0172 03F40053 		and	r3, r3, #8192
 1320 0176 002B     		cmp	r3, #0
 1321 0178 09D0     		beq	.L83
 960:D:/iot/felix2/targets/Cloud_STM32L431_BearPi/Drivers/STM32L4xx_HAL_Driver/Src\stm32l4xx_hal_flash_ex.c ****     {
 961:D:/iot/felix2/targets/Cloud_STM32L431_BearPi/Drivers/STM32L4xx_HAL_Driver/Src\stm32l4xx_hal_flash_ex.c ****       /* nSWBOOT0 option byte should be modified */
 962:D:/iot/felix2/targets/Cloud_STM32L431_BearPi/Drivers/STM32L4xx_HAL_Driver/Src\stm32l4xx_hal_flash_ex.c ****       assert_param(IS_OB_USER_SWBOOT0(UserConfig & FLASH_OPTR_nSWBOOT0));
 963:D:/iot/felix2/targets/Cloud_STM32L431_BearPi/Drivers/STM32L4xx_HAL_Driver/Src\stm32l4xx_hal_flash_ex.c ****     
 964:D:/iot/felix2/targets/Cloud_STM32L431_BearPi/Drivers/STM32L4xx_HAL_Driver/Src\stm32l4xx_hal_flash_ex.c ****       /* Set value and mask for nSWBOOT0 option byte */
 965:D:/iot/felix2/targets/Cloud_STM32L431_BearPi/Drivers/STM32L4xx_HAL_Driver/Src\stm32l4xx_hal_flash_ex.c ****       optr_reg_val |= (UserConfig & FLASH_OPTR_nSWBOOT0);
 1322              		.loc 1 965 0
 1323 017a 3B68     		ldr	r3, [r7]
 1324 017c 03F08063 		and	r3, r3, #67108864
 1325 0180 7A69     		ldr	r2, [r7, #20]
 1326 0182 1343     		orrs	r3, r3, r2
 1327 0184 7B61     		str	r3, [r7, #20]
 966:D:/iot/felix2/targets/Cloud_STM32L431_BearPi/Drivers/STM32L4xx_HAL_Driver/Src\stm32l4xx_hal_flash_ex.c ****       optr_reg_mask |= FLASH_OPTR_nSWBOOT0;
 1328              		.loc 1 966 0
 1329 0186 3B69     		ldr	r3, [r7, #16]
 1330 0188 43F08063 		orr	r3, r3, #67108864
 1331 018c 3B61     		str	r3, [r7, #16]
ARM GAS  C:\Users\91458\AppData\Local\Temp\cct4oxZw.s 			page 41


 1332              	.L83:
 967:D:/iot/felix2/targets/Cloud_STM32L431_BearPi/Drivers/STM32L4xx_HAL_Driver/Src\stm32l4xx_hal_flash_ex.c ****     }
 968:D:/iot/felix2/targets/Cloud_STM32L431_BearPi/Drivers/STM32L4xx_HAL_Driver/Src\stm32l4xx_hal_flash_ex.c **** 
 969:D:/iot/felix2/targets/Cloud_STM32L431_BearPi/Drivers/STM32L4xx_HAL_Driver/Src\stm32l4xx_hal_flash_ex.c ****     if((UserType & OB_USER_nBOOT0) != 0U)
 1333              		.loc 1 969 0
 1334 018e 7B68     		ldr	r3, [r7, #4]
 1335 0190 03F48043 		and	r3, r3, #16384
 1336 0194 002B     		cmp	r3, #0
 1337 0196 09D0     		beq	.L84
 970:D:/iot/felix2/targets/Cloud_STM32L431_BearPi/Drivers/STM32L4xx_HAL_Driver/Src\stm32l4xx_hal_flash_ex.c ****     {
 971:D:/iot/felix2/targets/Cloud_STM32L431_BearPi/Drivers/STM32L4xx_HAL_Driver/Src\stm32l4xx_hal_flash_ex.c ****       /* nBOOT0 option byte should be modified */
 972:D:/iot/felix2/targets/Cloud_STM32L431_BearPi/Drivers/STM32L4xx_HAL_Driver/Src\stm32l4xx_hal_flash_ex.c ****       assert_param(IS_OB_USER_BOOT0(UserConfig & FLASH_OPTR_nBOOT0));
 973:D:/iot/felix2/targets/Cloud_STM32L431_BearPi/Drivers/STM32L4xx_HAL_Driver/Src\stm32l4xx_hal_flash_ex.c ****     
 974:D:/iot/felix2/targets/Cloud_STM32L431_BearPi/Drivers/STM32L4xx_HAL_Driver/Src\stm32l4xx_hal_flash_ex.c ****       /* Set value and mask for nBOOT0 option byte */
 975:D:/iot/felix2/targets/Cloud_STM32L431_BearPi/Drivers/STM32L4xx_HAL_Driver/Src\stm32l4xx_hal_flash_ex.c ****       optr_reg_val |= (UserConfig & FLASH_OPTR_nBOOT0);
 1338              		.loc 1 975 0
 1339 0198 3B68     		ldr	r3, [r7]
 1340 019a 03F00063 		and	r3, r3, #134217728
 1341 019e 7A69     		ldr	r2, [r7, #20]
 1342 01a0 1343     		orrs	r3, r3, r2
 1343 01a2 7B61     		str	r3, [r7, #20]
 976:D:/iot/felix2/targets/Cloud_STM32L431_BearPi/Drivers/STM32L4xx_HAL_Driver/Src\stm32l4xx_hal_flash_ex.c ****       optr_reg_mask |= FLASH_OPTR_nBOOT0;
 1344              		.loc 1 976 0
 1345 01a4 3B69     		ldr	r3, [r7, #16]
 1346 01a6 43F00063 		orr	r3, r3, #134217728
 1347 01aa 3B61     		str	r3, [r7, #16]
 1348              	.L84:
 977:D:/iot/felix2/targets/Cloud_STM32L431_BearPi/Drivers/STM32L4xx_HAL_Driver/Src\stm32l4xx_hal_flash_ex.c ****     }
 978:D:/iot/felix2/targets/Cloud_STM32L431_BearPi/Drivers/STM32L4xx_HAL_Driver/Src\stm32l4xx_hal_flash_ex.c **** #endif
 979:D:/iot/felix2/targets/Cloud_STM32L431_BearPi/Drivers/STM32L4xx_HAL_Driver/Src\stm32l4xx_hal_flash_ex.c ****     
 980:D:/iot/felix2/targets/Cloud_STM32L431_BearPi/Drivers/STM32L4xx_HAL_Driver/Src\stm32l4xx_hal_flash_ex.c ****     /* Configure the option bytes register */
 981:D:/iot/felix2/targets/Cloud_STM32L431_BearPi/Drivers/STM32L4xx_HAL_Driver/Src\stm32l4xx_hal_flash_ex.c ****     MODIFY_REG(FLASH->OPTR, optr_reg_mask, optr_reg_val);
 1349              		.loc 1 981 0
 1350 01ac 0F4B     		ldr	r3, .L86
 1351 01ae 1A6A     		ldr	r2, [r3, #32]
 1352 01b0 3B69     		ldr	r3, [r7, #16]
 1353 01b2 DB43     		mvns	r3, r3
 1354 01b4 1A40     		ands	r2, r2, r3
 1355 01b6 0D49     		ldr	r1, .L86
 1356 01b8 7B69     		ldr	r3, [r7, #20]
 1357 01ba 1343     		orrs	r3, r3, r2
 1358 01bc 0B62     		str	r3, [r1, #32]
 982:D:/iot/felix2/targets/Cloud_STM32L431_BearPi/Drivers/STM32L4xx_HAL_Driver/Src\stm32l4xx_hal_flash_ex.c ****     
 983:D:/iot/felix2/targets/Cloud_STM32L431_BearPi/Drivers/STM32L4xx_HAL_Driver/Src\stm32l4xx_hal_flash_ex.c ****     /* Set OPTSTRT Bit */
 984:D:/iot/felix2/targets/Cloud_STM32L431_BearPi/Drivers/STM32L4xx_HAL_Driver/Src\stm32l4xx_hal_flash_ex.c ****     SET_BIT(FLASH->CR, FLASH_CR_OPTSTRT);
 1359              		.loc 1 984 0
 1360 01be 0B4B     		ldr	r3, .L86
 1361 01c0 5B69     		ldr	r3, [r3, #20]
 1362 01c2 0A4A     		ldr	r2, .L86
 1363 01c4 43F40033 		orr	r3, r3, #131072
 1364 01c8 5361     		str	r3, [r2, #20]
 985:D:/iot/felix2/targets/Cloud_STM32L431_BearPi/Drivers/STM32L4xx_HAL_Driver/Src\stm32l4xx_hal_flash_ex.c ****     
 986:D:/iot/felix2/targets/Cloud_STM32L431_BearPi/Drivers/STM32L4xx_HAL_Driver/Src\stm32l4xx_hal_flash_ex.c ****     /* Wait for last operation to be completed */
 987:D:/iot/felix2/targets/Cloud_STM32L431_BearPi/Drivers/STM32L4xx_HAL_Driver/Src\stm32l4xx_hal_flash_ex.c ****     status = FLASH_WaitForLastOperation((uint32_t)FLASH_TIMEOUT_VALUE);
 1365              		.loc 1 987 0
 1366 01ca 4CF25030 		movw	r0, #50000
 1367 01ce FFF7FEFF 		bl	FLASH_WaitForLastOperation
ARM GAS  C:\Users\91458\AppData\Local\Temp\cct4oxZw.s 			page 42


 1368 01d2 0346     		mov	r3, r0
 1369 01d4 FB73     		strb	r3, [r7, #15]
 988:D:/iot/felix2/targets/Cloud_STM32L431_BearPi/Drivers/STM32L4xx_HAL_Driver/Src\stm32l4xx_hal_flash_ex.c **** 
 989:D:/iot/felix2/targets/Cloud_STM32L431_BearPi/Drivers/STM32L4xx_HAL_Driver/Src\stm32l4xx_hal_flash_ex.c ****     /* If the option byte program operation is completed, disable the OPTSTRT Bit */
 990:D:/iot/felix2/targets/Cloud_STM32L431_BearPi/Drivers/STM32L4xx_HAL_Driver/Src\stm32l4xx_hal_flash_ex.c ****     CLEAR_BIT(FLASH->CR, FLASH_CR_OPTSTRT);
 1370              		.loc 1 990 0
 1371 01d6 054B     		ldr	r3, .L86
 1372 01d8 5B69     		ldr	r3, [r3, #20]
 1373 01da 044A     		ldr	r2, .L86
 1374 01dc 23F40033 		bic	r3, r3, #131072
 1375 01e0 5361     		str	r3, [r2, #20]
 1376              	.L71:
 991:D:/iot/felix2/targets/Cloud_STM32L431_BearPi/Drivers/STM32L4xx_HAL_Driver/Src\stm32l4xx_hal_flash_ex.c ****   }
 992:D:/iot/felix2/targets/Cloud_STM32L431_BearPi/Drivers/STM32L4xx_HAL_Driver/Src\stm32l4xx_hal_flash_ex.c **** 
 993:D:/iot/felix2/targets/Cloud_STM32L431_BearPi/Drivers/STM32L4xx_HAL_Driver/Src\stm32l4xx_hal_flash_ex.c ****   return status;            
 1377              		.loc 1 993 0
 1378 01e2 FB7B     		ldrb	r3, [r7, #15]	@ zero_extendqisi2
 994:D:/iot/felix2/targets/Cloud_STM32L431_BearPi/Drivers/STM32L4xx_HAL_Driver/Src\stm32l4xx_hal_flash_ex.c **** }
 1379              		.loc 1 994 0
 1380 01e4 1846     		mov	r0, r3
 1381 01e6 1837     		adds	r7, r7, #24
 1382              	.LCFI51:
 1383              		.cfi_def_cfa_offset 8
 1384 01e8 BD46     		mov	sp, r7
 1385              	.LCFI52:
 1386              		.cfi_def_cfa_register 13
 1387              		@ sp needed
 1388 01ea 80BD     		pop	{r7, pc}
 1389              	.L87:
 1390              		.align	2
 1391              	.L86:
 1392 01ec 00200240 		.word	1073881088
 1393              		.cfi_endproc
 1394              	.LFE142:
 1396              		.section	.text.FLASH_OB_PCROPConfig,"ax",%progbits
 1397              		.align	1
 1398              		.syntax unified
 1399              		.thumb
 1400              		.thumb_func
 1401              		.fpu fpv4-sp-d16
 1403              	FLASH_OB_PCROPConfig:
 1404              	.LFB143:
 995:D:/iot/felix2/targets/Cloud_STM32L431_BearPi/Drivers/STM32L4xx_HAL_Driver/Src\stm32l4xx_hal_flash_ex.c **** 
 996:D:/iot/felix2/targets/Cloud_STM32L431_BearPi/Drivers/STM32L4xx_HAL_Driver/Src\stm32l4xx_hal_flash_ex.c **** /**
 997:D:/iot/felix2/targets/Cloud_STM32L431_BearPi/Drivers/STM32L4xx_HAL_Driver/Src\stm32l4xx_hal_flash_ex.c ****   * @brief  Configure the Proprietary code readout protection of the desired addresses.
 998:D:/iot/felix2/targets/Cloud_STM32L431_BearPi/Drivers/STM32L4xx_HAL_Driver/Src\stm32l4xx_hal_flash_ex.c ****   *
 999:D:/iot/felix2/targets/Cloud_STM32L431_BearPi/Drivers/STM32L4xx_HAL_Driver/Src\stm32l4xx_hal_flash_ex.c ****   * @note   To configure the PCROP options, the option lock bit OPTLOCK must be 
1000:D:/iot/felix2/targets/Cloud_STM32L431_BearPi/Drivers/STM32L4xx_HAL_Driver/Src\stm32l4xx_hal_flash_ex.c ****   *         cleared with the call of the HAL_FLASH_OB_Unlock() function.
1001:D:/iot/felix2/targets/Cloud_STM32L431_BearPi/Drivers/STM32L4xx_HAL_Driver/Src\stm32l4xx_hal_flash_ex.c ****   * @note   To validate the PCROP options, the option bytes must be reloaded 
1002:D:/iot/felix2/targets/Cloud_STM32L431_BearPi/Drivers/STM32L4xx_HAL_Driver/Src\stm32l4xx_hal_flash_ex.c ****   *         through the call of the HAL_FLASH_OB_Launch() function.
1003:D:/iot/felix2/targets/Cloud_STM32L431_BearPi/Drivers/STM32L4xx_HAL_Driver/Src\stm32l4xx_hal_flash_ex.c ****   *
1004:D:/iot/felix2/targets/Cloud_STM32L431_BearPi/Drivers/STM32L4xx_HAL_Driver/Src\stm32l4xx_hal_flash_ex.c ****   * @param  PCROPConfig: specifies the configuration (Bank to be configured and PCROP_RDP option).
1005:D:/iot/felix2/targets/Cloud_STM32L431_BearPi/Drivers/STM32L4xx_HAL_Driver/Src\stm32l4xx_hal_flash_ex.c ****   *          This parameter must be a combination of FLASH_BANK_1 or FLASH_BANK_2 
1006:D:/iot/felix2/targets/Cloud_STM32L431_BearPi/Drivers/STM32L4xx_HAL_Driver/Src\stm32l4xx_hal_flash_ex.c ****   *          with OB_PCROP_RDP_NOT_ERASE or OB_PCROP_RDP_ERASE
1007:D:/iot/felix2/targets/Cloud_STM32L431_BearPi/Drivers/STM32L4xx_HAL_Driver/Src\stm32l4xx_hal_flash_ex.c ****   *
1008:D:/iot/felix2/targets/Cloud_STM32L431_BearPi/Drivers/STM32L4xx_HAL_Driver/Src\stm32l4xx_hal_flash_ex.c ****   * @param  PCROPStartAddr: specifies the start address of the Proprietary code readout protection
1009:D:/iot/felix2/targets/Cloud_STM32L431_BearPi/Drivers/STM32L4xx_HAL_Driver/Src\stm32l4xx_hal_flash_ex.c ****   *          This parameter can be an address between begin and end of the bank 
ARM GAS  C:\Users\91458\AppData\Local\Temp\cct4oxZw.s 			page 43


1010:D:/iot/felix2/targets/Cloud_STM32L431_BearPi/Drivers/STM32L4xx_HAL_Driver/Src\stm32l4xx_hal_flash_ex.c ****   *
1011:D:/iot/felix2/targets/Cloud_STM32L431_BearPi/Drivers/STM32L4xx_HAL_Driver/Src\stm32l4xx_hal_flash_ex.c ****   * @param  PCROPEndAddr: specifies the end address of the Proprietary code readout protection
1012:D:/iot/felix2/targets/Cloud_STM32L431_BearPi/Drivers/STM32L4xx_HAL_Driver/Src\stm32l4xx_hal_flash_ex.c ****   *          This parameter can be an address between PCROPStartAddr and end of the bank 
1013:D:/iot/felix2/targets/Cloud_STM32L431_BearPi/Drivers/STM32L4xx_HAL_Driver/Src\stm32l4xx_hal_flash_ex.c ****   *
1014:D:/iot/felix2/targets/Cloud_STM32L431_BearPi/Drivers/STM32L4xx_HAL_Driver/Src\stm32l4xx_hal_flash_ex.c ****   * @retval HAL Status
1015:D:/iot/felix2/targets/Cloud_STM32L431_BearPi/Drivers/STM32L4xx_HAL_Driver/Src\stm32l4xx_hal_flash_ex.c ****   */
1016:D:/iot/felix2/targets/Cloud_STM32L431_BearPi/Drivers/STM32L4xx_HAL_Driver/Src\stm32l4xx_hal_flash_ex.c **** static HAL_StatusTypeDef FLASH_OB_PCROPConfig(uint32_t PCROPConfig, uint32_t PCROPStartAddr, uint32
1017:D:/iot/felix2/targets/Cloud_STM32L431_BearPi/Drivers/STM32L4xx_HAL_Driver/Src\stm32l4xx_hal_flash_ex.c **** {
 1405              		.loc 1 1017 0
 1406              		.cfi_startproc
 1407              		@ args = 0, pretend = 0, frame = 32
 1408              		@ frame_needed = 1, uses_anonymous_args = 0
 1409 0000 80B5     		push	{r7, lr}
 1410              	.LCFI53:
 1411              		.cfi_def_cfa_offset 8
 1412              		.cfi_offset 7, -8
 1413              		.cfi_offset 14, -4
 1414 0002 88B0     		sub	sp, sp, #32
 1415              	.LCFI54:
 1416              		.cfi_def_cfa_offset 40
 1417 0004 00AF     		add	r7, sp, #0
 1418              	.LCFI55:
 1419              		.cfi_def_cfa_register 7
 1420 0006 F860     		str	r0, [r7, #12]
 1421 0008 B960     		str	r1, [r7, #8]
 1422 000a 7A60     		str	r2, [r7, #4]
1018:D:/iot/felix2/targets/Cloud_STM32L431_BearPi/Drivers/STM32L4xx_HAL_Driver/Src\stm32l4xx_hal_flash_ex.c ****   HAL_StatusTypeDef status;
1019:D:/iot/felix2/targets/Cloud_STM32L431_BearPi/Drivers/STM32L4xx_HAL_Driver/Src\stm32l4xx_hal_flash_ex.c ****   uint32_t reg_value;
1020:D:/iot/felix2/targets/Cloud_STM32L431_BearPi/Drivers/STM32L4xx_HAL_Driver/Src\stm32l4xx_hal_flash_ex.c ****   uint32_t bank1_addr;
1021:D:/iot/felix2/targets/Cloud_STM32L431_BearPi/Drivers/STM32L4xx_HAL_Driver/Src\stm32l4xx_hal_flash_ex.c **** #if defined (STM32L471xx) || defined (STM32L475xx) || defined (STM32L476xx) || defined (STM32L485xx
1022:D:/iot/felix2/targets/Cloud_STM32L431_BearPi/Drivers/STM32L4xx_HAL_Driver/Src\stm32l4xx_hal_flash_ex.c ****     defined (STM32L496xx) || defined (STM32L4A6xx) || \
1023:D:/iot/felix2/targets/Cloud_STM32L431_BearPi/Drivers/STM32L4xx_HAL_Driver/Src\stm32l4xx_hal_flash_ex.c ****     defined (STM32L4R5xx) || defined (STM32L4R7xx) || defined (STM32L4R9xx) || defined (STM32L4S5xx
1024:D:/iot/felix2/targets/Cloud_STM32L431_BearPi/Drivers/STM32L4xx_HAL_Driver/Src\stm32l4xx_hal_flash_ex.c ****   uint32_t bank2_addr;
1025:D:/iot/felix2/targets/Cloud_STM32L431_BearPi/Drivers/STM32L4xx_HAL_Driver/Src\stm32l4xx_hal_flash_ex.c **** #endif
1026:D:/iot/felix2/targets/Cloud_STM32L431_BearPi/Drivers/STM32L4xx_HAL_Driver/Src\stm32l4xx_hal_flash_ex.c **** 
1027:D:/iot/felix2/targets/Cloud_STM32L431_BearPi/Drivers/STM32L4xx_HAL_Driver/Src\stm32l4xx_hal_flash_ex.c ****   /* Check the parameters */
1028:D:/iot/felix2/targets/Cloud_STM32L431_BearPi/Drivers/STM32L4xx_HAL_Driver/Src\stm32l4xx_hal_flash_ex.c ****   assert_param(IS_FLASH_BANK_EXCLUSIVE(PCROPConfig & FLASH_BANK_BOTH));
1029:D:/iot/felix2/targets/Cloud_STM32L431_BearPi/Drivers/STM32L4xx_HAL_Driver/Src\stm32l4xx_hal_flash_ex.c ****   assert_param(IS_OB_PCROP_RDP(PCROPConfig & FLASH_PCROP1ER_PCROP_RDP));
1030:D:/iot/felix2/targets/Cloud_STM32L431_BearPi/Drivers/STM32L4xx_HAL_Driver/Src\stm32l4xx_hal_flash_ex.c ****   assert_param(IS_FLASH_MAIN_MEM_ADDRESS(PCROPStartAddr));
1031:D:/iot/felix2/targets/Cloud_STM32L431_BearPi/Drivers/STM32L4xx_HAL_Driver/Src\stm32l4xx_hal_flash_ex.c ****   assert_param(IS_FLASH_MAIN_MEM_ADDRESS(PCROPEndAddr));
1032:D:/iot/felix2/targets/Cloud_STM32L431_BearPi/Drivers/STM32L4xx_HAL_Driver/Src\stm32l4xx_hal_flash_ex.c **** 
1033:D:/iot/felix2/targets/Cloud_STM32L431_BearPi/Drivers/STM32L4xx_HAL_Driver/Src\stm32l4xx_hal_flash_ex.c ****   /* Wait for last operation to be completed */
1034:D:/iot/felix2/targets/Cloud_STM32L431_BearPi/Drivers/STM32L4xx_HAL_Driver/Src\stm32l4xx_hal_flash_ex.c ****   status = FLASH_WaitForLastOperation((uint32_t)FLASH_TIMEOUT_VALUE);
 1423              		.loc 1 1034 0
 1424 000c 4CF25030 		movw	r0, #50000
 1425 0010 FFF7FEFF 		bl	FLASH_WaitForLastOperation
 1426 0014 0346     		mov	r3, r0
 1427 0016 FB77     		strb	r3, [r7, #31]
1035:D:/iot/felix2/targets/Cloud_STM32L431_BearPi/Drivers/STM32L4xx_HAL_Driver/Src\stm32l4xx_hal_flash_ex.c **** 
1036:D:/iot/felix2/targets/Cloud_STM32L431_BearPi/Drivers/STM32L4xx_HAL_Driver/Src\stm32l4xx_hal_flash_ex.c ****   if(status == HAL_OK)
 1428              		.loc 1 1036 0
 1429 0018 FB7F     		ldrb	r3, [r7, #31]	@ zero_extendqisi2
 1430 001a 002B     		cmp	r3, #0
 1431 001c 3DD1     		bne	.L89
1037:D:/iot/felix2/targets/Cloud_STM32L431_BearPi/Drivers/STM32L4xx_HAL_Driver/Src\stm32l4xx_hal_flash_ex.c ****   {
1038:D:/iot/felix2/targets/Cloud_STM32L431_BearPi/Drivers/STM32L4xx_HAL_Driver/Src\stm32l4xx_hal_flash_ex.c **** #if defined (STM32L471xx) || defined (STM32L475xx) || defined (STM32L476xx) || defined (STM32L485xx
1039:D:/iot/felix2/targets/Cloud_STM32L431_BearPi/Drivers/STM32L4xx_HAL_Driver/Src\stm32l4xx_hal_flash_ex.c ****     defined (STM32L496xx) || defined (STM32L4A6xx) || \
ARM GAS  C:\Users\91458\AppData\Local\Temp\cct4oxZw.s 			page 44


1040:D:/iot/felix2/targets/Cloud_STM32L431_BearPi/Drivers/STM32L4xx_HAL_Driver/Src\stm32l4xx_hal_flash_ex.c ****     defined (STM32L4R5xx) || defined (STM32L4R7xx) || defined (STM32L4R9xx) || defined (STM32L4S5xx
1041:D:/iot/felix2/targets/Cloud_STM32L431_BearPi/Drivers/STM32L4xx_HAL_Driver/Src\stm32l4xx_hal_flash_ex.c ****     /* Get the information about the bank swapping */
1042:D:/iot/felix2/targets/Cloud_STM32L431_BearPi/Drivers/STM32L4xx_HAL_Driver/Src\stm32l4xx_hal_flash_ex.c ****     if (READ_BIT(SYSCFG->MEMRMP, SYSCFG_MEMRMP_FB_MODE) == 0U)
1043:D:/iot/felix2/targets/Cloud_STM32L431_BearPi/Drivers/STM32L4xx_HAL_Driver/Src\stm32l4xx_hal_flash_ex.c ****     {
1044:D:/iot/felix2/targets/Cloud_STM32L431_BearPi/Drivers/STM32L4xx_HAL_Driver/Src\stm32l4xx_hal_flash_ex.c ****       bank1_addr = FLASH_BASE;
1045:D:/iot/felix2/targets/Cloud_STM32L431_BearPi/Drivers/STM32L4xx_HAL_Driver/Src\stm32l4xx_hal_flash_ex.c ****       bank2_addr = FLASH_BASE + FLASH_BANK_SIZE;
1046:D:/iot/felix2/targets/Cloud_STM32L431_BearPi/Drivers/STM32L4xx_HAL_Driver/Src\stm32l4xx_hal_flash_ex.c ****     }
1047:D:/iot/felix2/targets/Cloud_STM32L431_BearPi/Drivers/STM32L4xx_HAL_Driver/Src\stm32l4xx_hal_flash_ex.c ****     else
1048:D:/iot/felix2/targets/Cloud_STM32L431_BearPi/Drivers/STM32L4xx_HAL_Driver/Src\stm32l4xx_hal_flash_ex.c ****     {
1049:D:/iot/felix2/targets/Cloud_STM32L431_BearPi/Drivers/STM32L4xx_HAL_Driver/Src\stm32l4xx_hal_flash_ex.c ****       bank1_addr = FLASH_BASE + FLASH_BANK_SIZE;
1050:D:/iot/felix2/targets/Cloud_STM32L431_BearPi/Drivers/STM32L4xx_HAL_Driver/Src\stm32l4xx_hal_flash_ex.c ****       bank2_addr = FLASH_BASE;
1051:D:/iot/felix2/targets/Cloud_STM32L431_BearPi/Drivers/STM32L4xx_HAL_Driver/Src\stm32l4xx_hal_flash_ex.c ****     }
1052:D:/iot/felix2/targets/Cloud_STM32L431_BearPi/Drivers/STM32L4xx_HAL_Driver/Src\stm32l4xx_hal_flash_ex.c **** #else
1053:D:/iot/felix2/targets/Cloud_STM32L431_BearPi/Drivers/STM32L4xx_HAL_Driver/Src\stm32l4xx_hal_flash_ex.c ****     bank1_addr = FLASH_BASE;
 1432              		.loc 1 1053 0
 1433 001e 4FF00063 		mov	r3, #134217728
 1434 0022 BB61     		str	r3, [r7, #24]
1054:D:/iot/felix2/targets/Cloud_STM32L431_BearPi/Drivers/STM32L4xx_HAL_Driver/Src\stm32l4xx_hal_flash_ex.c **** #endif
1055:D:/iot/felix2/targets/Cloud_STM32L431_BearPi/Drivers/STM32L4xx_HAL_Driver/Src\stm32l4xx_hal_flash_ex.c ****     
1056:D:/iot/felix2/targets/Cloud_STM32L431_BearPi/Drivers/STM32L4xx_HAL_Driver/Src\stm32l4xx_hal_flash_ex.c **** #if defined (STM32L4R5xx) || defined (STM32L4R7xx) || defined (STM32L4R9xx) || defined (STM32L4S5xx
1057:D:/iot/felix2/targets/Cloud_STM32L431_BearPi/Drivers/STM32L4xx_HAL_Driver/Src\stm32l4xx_hal_flash_ex.c ****     if (READ_BIT(FLASH->OPTR, FLASH_OPTR_DBANK) == 0U)
1058:D:/iot/felix2/targets/Cloud_STM32L431_BearPi/Drivers/STM32L4xx_HAL_Driver/Src\stm32l4xx_hal_flash_ex.c ****     {
1059:D:/iot/felix2/targets/Cloud_STM32L431_BearPi/Drivers/STM32L4xx_HAL_Driver/Src\stm32l4xx_hal_flash_ex.c ****       /* Configure the Proprietary code readout protection */
1060:D:/iot/felix2/targets/Cloud_STM32L431_BearPi/Drivers/STM32L4xx_HAL_Driver/Src\stm32l4xx_hal_flash_ex.c ****       if((PCROPConfig & FLASH_BANK_BOTH) == FLASH_BANK_1)
1061:D:/iot/felix2/targets/Cloud_STM32L431_BearPi/Drivers/STM32L4xx_HAL_Driver/Src\stm32l4xx_hal_flash_ex.c ****       {
1062:D:/iot/felix2/targets/Cloud_STM32L431_BearPi/Drivers/STM32L4xx_HAL_Driver/Src\stm32l4xx_hal_flash_ex.c ****         reg_value = ((PCROPStartAddr - FLASH_BASE) >> 4);
1063:D:/iot/felix2/targets/Cloud_STM32L431_BearPi/Drivers/STM32L4xx_HAL_Driver/Src\stm32l4xx_hal_flash_ex.c ****         MODIFY_REG(FLASH->PCROP1SR, FLASH_PCROP1SR_PCROP1_STRT, reg_value);
1064:D:/iot/felix2/targets/Cloud_STM32L431_BearPi/Drivers/STM32L4xx_HAL_Driver/Src\stm32l4xx_hal_flash_ex.c ****         
1065:D:/iot/felix2/targets/Cloud_STM32L431_BearPi/Drivers/STM32L4xx_HAL_Driver/Src\stm32l4xx_hal_flash_ex.c ****         reg_value = ((PCROPEndAddr - FLASH_BASE) >> 4);
1066:D:/iot/felix2/targets/Cloud_STM32L431_BearPi/Drivers/STM32L4xx_HAL_Driver/Src\stm32l4xx_hal_flash_ex.c ****         MODIFY_REG(FLASH->PCROP1ER, FLASH_PCROP1ER_PCROP1_END, reg_value);
1067:D:/iot/felix2/targets/Cloud_STM32L431_BearPi/Drivers/STM32L4xx_HAL_Driver/Src\stm32l4xx_hal_flash_ex.c ****       }
1068:D:/iot/felix2/targets/Cloud_STM32L431_BearPi/Drivers/STM32L4xx_HAL_Driver/Src\stm32l4xx_hal_flash_ex.c ****       else if((PCROPConfig & FLASH_BANK_BOTH) == FLASH_BANK_2)
1069:D:/iot/felix2/targets/Cloud_STM32L431_BearPi/Drivers/STM32L4xx_HAL_Driver/Src\stm32l4xx_hal_flash_ex.c ****       {
1070:D:/iot/felix2/targets/Cloud_STM32L431_BearPi/Drivers/STM32L4xx_HAL_Driver/Src\stm32l4xx_hal_flash_ex.c ****         reg_value = ((PCROPStartAddr - FLASH_BASE) >> 4);
1071:D:/iot/felix2/targets/Cloud_STM32L431_BearPi/Drivers/STM32L4xx_HAL_Driver/Src\stm32l4xx_hal_flash_ex.c ****         MODIFY_REG(FLASH->PCROP2SR, FLASH_PCROP2SR_PCROP2_STRT, reg_value);
1072:D:/iot/felix2/targets/Cloud_STM32L431_BearPi/Drivers/STM32L4xx_HAL_Driver/Src\stm32l4xx_hal_flash_ex.c ****         
1073:D:/iot/felix2/targets/Cloud_STM32L431_BearPi/Drivers/STM32L4xx_HAL_Driver/Src\stm32l4xx_hal_flash_ex.c ****         reg_value = ((PCROPEndAddr - FLASH_BASE) >> 4);
1074:D:/iot/felix2/targets/Cloud_STM32L431_BearPi/Drivers/STM32L4xx_HAL_Driver/Src\stm32l4xx_hal_flash_ex.c ****         MODIFY_REG(FLASH->PCROP2ER, FLASH_PCROP2ER_PCROP2_END, reg_value);
1075:D:/iot/felix2/targets/Cloud_STM32L431_BearPi/Drivers/STM32L4xx_HAL_Driver/Src\stm32l4xx_hal_flash_ex.c ****       }
1076:D:/iot/felix2/targets/Cloud_STM32L431_BearPi/Drivers/STM32L4xx_HAL_Driver/Src\stm32l4xx_hal_flash_ex.c ****       else
1077:D:/iot/felix2/targets/Cloud_STM32L431_BearPi/Drivers/STM32L4xx_HAL_Driver/Src\stm32l4xx_hal_flash_ex.c ****       {
1078:D:/iot/felix2/targets/Cloud_STM32L431_BearPi/Drivers/STM32L4xx_HAL_Driver/Src\stm32l4xx_hal_flash_ex.c ****         /* Nothing to do */
1079:D:/iot/felix2/targets/Cloud_STM32L431_BearPi/Drivers/STM32L4xx_HAL_Driver/Src\stm32l4xx_hal_flash_ex.c ****       }
1080:D:/iot/felix2/targets/Cloud_STM32L431_BearPi/Drivers/STM32L4xx_HAL_Driver/Src\stm32l4xx_hal_flash_ex.c ****     }
1081:D:/iot/felix2/targets/Cloud_STM32L431_BearPi/Drivers/STM32L4xx_HAL_Driver/Src\stm32l4xx_hal_flash_ex.c ****     else
1082:D:/iot/felix2/targets/Cloud_STM32L431_BearPi/Drivers/STM32L4xx_HAL_Driver/Src\stm32l4xx_hal_flash_ex.c **** #endif
1083:D:/iot/felix2/targets/Cloud_STM32L431_BearPi/Drivers/STM32L4xx_HAL_Driver/Src\stm32l4xx_hal_flash_ex.c ****     {
1084:D:/iot/felix2/targets/Cloud_STM32L431_BearPi/Drivers/STM32L4xx_HAL_Driver/Src\stm32l4xx_hal_flash_ex.c ****       /* Configure the Proprietary code readout protection */
1085:D:/iot/felix2/targets/Cloud_STM32L431_BearPi/Drivers/STM32L4xx_HAL_Driver/Src\stm32l4xx_hal_flash_ex.c ****       if((PCROPConfig & FLASH_BANK_BOTH) == FLASH_BANK_1)
 1435              		.loc 1 1085 0
 1436 0024 FB68     		ldr	r3, [r7, #12]
 1437 0026 03F00103 		and	r3, r3, #1
 1438 002a 002B     		cmp	r3, #0
 1439 002c 19D0     		beq	.L90
1086:D:/iot/felix2/targets/Cloud_STM32L431_BearPi/Drivers/STM32L4xx_HAL_Driver/Src\stm32l4xx_hal_flash_ex.c ****       {
1087:D:/iot/felix2/targets/Cloud_STM32L431_BearPi/Drivers/STM32L4xx_HAL_Driver/Src\stm32l4xx_hal_flash_ex.c ****         reg_value = ((PCROPStartAddr - bank1_addr) >> 3);
 1440              		.loc 1 1087 0
ARM GAS  C:\Users\91458\AppData\Local\Temp\cct4oxZw.s 			page 45


 1441 002e BA68     		ldr	r2, [r7, #8]
 1442 0030 BB69     		ldr	r3, [r7, #24]
 1443 0032 D31A     		subs	r3, r2, r3
 1444 0034 DB08     		lsrs	r3, r3, #3
 1445 0036 7B61     		str	r3, [r7, #20]
1088:D:/iot/felix2/targets/Cloud_STM32L431_BearPi/Drivers/STM32L4xx_HAL_Driver/Src\stm32l4xx_hal_flash_ex.c ****         MODIFY_REG(FLASH->PCROP1SR, FLASH_PCROP1SR_PCROP1_STRT, reg_value);
 1446              		.loc 1 1088 0
 1447 0038 1A4B     		ldr	r3, .L92
 1448 003a 5B6A     		ldr	r3, [r3, #36]
 1449 003c 1B0C     		lsrs	r3, r3, #16
 1450 003e 1B04     		lsls	r3, r3, #16
 1451 0040 1849     		ldr	r1, .L92
 1452 0042 7A69     		ldr	r2, [r7, #20]
 1453 0044 1343     		orrs	r3, r3, r2
 1454 0046 4B62     		str	r3, [r1, #36]
1089:D:/iot/felix2/targets/Cloud_STM32L431_BearPi/Drivers/STM32L4xx_HAL_Driver/Src\stm32l4xx_hal_flash_ex.c ****         
1090:D:/iot/felix2/targets/Cloud_STM32L431_BearPi/Drivers/STM32L4xx_HAL_Driver/Src\stm32l4xx_hal_flash_ex.c ****         reg_value = ((PCROPEndAddr - bank1_addr) >> 3);
 1455              		.loc 1 1090 0
 1456 0048 7A68     		ldr	r2, [r7, #4]
 1457 004a BB69     		ldr	r3, [r7, #24]
 1458 004c D31A     		subs	r3, r2, r3
 1459 004e DB08     		lsrs	r3, r3, #3
 1460 0050 7B61     		str	r3, [r7, #20]
1091:D:/iot/felix2/targets/Cloud_STM32L431_BearPi/Drivers/STM32L4xx_HAL_Driver/Src\stm32l4xx_hal_flash_ex.c ****         MODIFY_REG(FLASH->PCROP1ER, FLASH_PCROP1ER_PCROP1_END, reg_value);
 1461              		.loc 1 1091 0
 1462 0052 144B     		ldr	r3, .L92
 1463 0054 9B6A     		ldr	r3, [r3, #40]
 1464 0056 1B0C     		lsrs	r3, r3, #16
 1465 0058 1B04     		lsls	r3, r3, #16
 1466 005a 1249     		ldr	r1, .L92
 1467 005c 7A69     		ldr	r2, [r7, #20]
 1468 005e 1343     		orrs	r3, r3, r2
 1469 0060 8B62     		str	r3, [r1, #40]
 1470              	.L90:
1092:D:/iot/felix2/targets/Cloud_STM32L431_BearPi/Drivers/STM32L4xx_HAL_Driver/Src\stm32l4xx_hal_flash_ex.c ****       }
1093:D:/iot/felix2/targets/Cloud_STM32L431_BearPi/Drivers/STM32L4xx_HAL_Driver/Src\stm32l4xx_hal_flash_ex.c **** #if defined (STM32L471xx) || defined (STM32L475xx) || defined (STM32L476xx) || defined (STM32L485xx
1094:D:/iot/felix2/targets/Cloud_STM32L431_BearPi/Drivers/STM32L4xx_HAL_Driver/Src\stm32l4xx_hal_flash_ex.c ****     defined (STM32L496xx) || defined (STM32L4A6xx) || \
1095:D:/iot/felix2/targets/Cloud_STM32L431_BearPi/Drivers/STM32L4xx_HAL_Driver/Src\stm32l4xx_hal_flash_ex.c ****     defined (STM32L4R5xx) || defined (STM32L4R7xx) || defined (STM32L4R9xx) || defined (STM32L4S5xx
1096:D:/iot/felix2/targets/Cloud_STM32L431_BearPi/Drivers/STM32L4xx_HAL_Driver/Src\stm32l4xx_hal_flash_ex.c ****       else if((PCROPConfig & FLASH_BANK_BOTH) == FLASH_BANK_2)
1097:D:/iot/felix2/targets/Cloud_STM32L431_BearPi/Drivers/STM32L4xx_HAL_Driver/Src\stm32l4xx_hal_flash_ex.c ****       {
1098:D:/iot/felix2/targets/Cloud_STM32L431_BearPi/Drivers/STM32L4xx_HAL_Driver/Src\stm32l4xx_hal_flash_ex.c ****         reg_value = ((PCROPStartAddr - bank2_addr) >> 3);
1099:D:/iot/felix2/targets/Cloud_STM32L431_BearPi/Drivers/STM32L4xx_HAL_Driver/Src\stm32l4xx_hal_flash_ex.c ****         MODIFY_REG(FLASH->PCROP2SR, FLASH_PCROP2SR_PCROP2_STRT, reg_value);
1100:D:/iot/felix2/targets/Cloud_STM32L431_BearPi/Drivers/STM32L4xx_HAL_Driver/Src\stm32l4xx_hal_flash_ex.c ****         
1101:D:/iot/felix2/targets/Cloud_STM32L431_BearPi/Drivers/STM32L4xx_HAL_Driver/Src\stm32l4xx_hal_flash_ex.c ****         reg_value = ((PCROPEndAddr - bank2_addr) >> 3);
1102:D:/iot/felix2/targets/Cloud_STM32L431_BearPi/Drivers/STM32L4xx_HAL_Driver/Src\stm32l4xx_hal_flash_ex.c ****         MODIFY_REG(FLASH->PCROP2ER, FLASH_PCROP2ER_PCROP2_END, reg_value);
1103:D:/iot/felix2/targets/Cloud_STM32L431_BearPi/Drivers/STM32L4xx_HAL_Driver/Src\stm32l4xx_hal_flash_ex.c ****       }
1104:D:/iot/felix2/targets/Cloud_STM32L431_BearPi/Drivers/STM32L4xx_HAL_Driver/Src\stm32l4xx_hal_flash_ex.c **** #endif
1105:D:/iot/felix2/targets/Cloud_STM32L431_BearPi/Drivers/STM32L4xx_HAL_Driver/Src\stm32l4xx_hal_flash_ex.c ****       else
1106:D:/iot/felix2/targets/Cloud_STM32L431_BearPi/Drivers/STM32L4xx_HAL_Driver/Src\stm32l4xx_hal_flash_ex.c ****       {
1107:D:/iot/felix2/targets/Cloud_STM32L431_BearPi/Drivers/STM32L4xx_HAL_Driver/Src\stm32l4xx_hal_flash_ex.c ****         /* Nothing to do */
1108:D:/iot/felix2/targets/Cloud_STM32L431_BearPi/Drivers/STM32L4xx_HAL_Driver/Src\stm32l4xx_hal_flash_ex.c ****       }
1109:D:/iot/felix2/targets/Cloud_STM32L431_BearPi/Drivers/STM32L4xx_HAL_Driver/Src\stm32l4xx_hal_flash_ex.c ****     }
1110:D:/iot/felix2/targets/Cloud_STM32L431_BearPi/Drivers/STM32L4xx_HAL_Driver/Src\stm32l4xx_hal_flash_ex.c ****     
1111:D:/iot/felix2/targets/Cloud_STM32L431_BearPi/Drivers/STM32L4xx_HAL_Driver/Src\stm32l4xx_hal_flash_ex.c ****     MODIFY_REG(FLASH->PCROP1ER, FLASH_PCROP1ER_PCROP_RDP, (PCROPConfig & FLASH_PCROP1ER_PCROP_RDP))
 1471              		.loc 1 1111 0
 1472 0062 104B     		ldr	r3, .L92
 1473 0064 9B6A     		ldr	r3, [r3, #40]
ARM GAS  C:\Users\91458\AppData\Local\Temp\cct4oxZw.s 			page 46


 1474 0066 23F00042 		bic	r2, r3, #-2147483648
 1475 006a FB68     		ldr	r3, [r7, #12]
 1476 006c 03F00043 		and	r3, r3, #-2147483648
 1477 0070 0C49     		ldr	r1, .L92
 1478 0072 1343     		orrs	r3, r3, r2
 1479 0074 8B62     		str	r3, [r1, #40]
1112:D:/iot/felix2/targets/Cloud_STM32L431_BearPi/Drivers/STM32L4xx_HAL_Driver/Src\stm32l4xx_hal_flash_ex.c ****     
1113:D:/iot/felix2/targets/Cloud_STM32L431_BearPi/Drivers/STM32L4xx_HAL_Driver/Src\stm32l4xx_hal_flash_ex.c ****     /* Set OPTSTRT Bit */
1114:D:/iot/felix2/targets/Cloud_STM32L431_BearPi/Drivers/STM32L4xx_HAL_Driver/Src\stm32l4xx_hal_flash_ex.c ****     SET_BIT(FLASH->CR, FLASH_CR_OPTSTRT);
 1480              		.loc 1 1114 0
 1481 0076 0B4B     		ldr	r3, .L92
 1482 0078 5B69     		ldr	r3, [r3, #20]
 1483 007a 0A4A     		ldr	r2, .L92
 1484 007c 43F40033 		orr	r3, r3, #131072
 1485 0080 5361     		str	r3, [r2, #20]
1115:D:/iot/felix2/targets/Cloud_STM32L431_BearPi/Drivers/STM32L4xx_HAL_Driver/Src\stm32l4xx_hal_flash_ex.c ****     
1116:D:/iot/felix2/targets/Cloud_STM32L431_BearPi/Drivers/STM32L4xx_HAL_Driver/Src\stm32l4xx_hal_flash_ex.c ****     /* Wait for last operation to be completed */
1117:D:/iot/felix2/targets/Cloud_STM32L431_BearPi/Drivers/STM32L4xx_HAL_Driver/Src\stm32l4xx_hal_flash_ex.c ****     status = FLASH_WaitForLastOperation((uint32_t)FLASH_TIMEOUT_VALUE);
 1486              		.loc 1 1117 0
 1487 0082 4CF25030 		movw	r0, #50000
 1488 0086 FFF7FEFF 		bl	FLASH_WaitForLastOperation
 1489 008a 0346     		mov	r3, r0
 1490 008c FB77     		strb	r3, [r7, #31]
1118:D:/iot/felix2/targets/Cloud_STM32L431_BearPi/Drivers/STM32L4xx_HAL_Driver/Src\stm32l4xx_hal_flash_ex.c **** 
1119:D:/iot/felix2/targets/Cloud_STM32L431_BearPi/Drivers/STM32L4xx_HAL_Driver/Src\stm32l4xx_hal_flash_ex.c ****     /* If the option byte program operation is completed, disable the OPTSTRT Bit */
1120:D:/iot/felix2/targets/Cloud_STM32L431_BearPi/Drivers/STM32L4xx_HAL_Driver/Src\stm32l4xx_hal_flash_ex.c ****     CLEAR_BIT(FLASH->CR, FLASH_CR_OPTSTRT);
 1491              		.loc 1 1120 0
 1492 008e 054B     		ldr	r3, .L92
 1493 0090 5B69     		ldr	r3, [r3, #20]
 1494 0092 044A     		ldr	r2, .L92
 1495 0094 23F40033 		bic	r3, r3, #131072
 1496 0098 5361     		str	r3, [r2, #20]
 1497              	.L89:
1121:D:/iot/felix2/targets/Cloud_STM32L431_BearPi/Drivers/STM32L4xx_HAL_Driver/Src\stm32l4xx_hal_flash_ex.c ****   }
1122:D:/iot/felix2/targets/Cloud_STM32L431_BearPi/Drivers/STM32L4xx_HAL_Driver/Src\stm32l4xx_hal_flash_ex.c ****   
1123:D:/iot/felix2/targets/Cloud_STM32L431_BearPi/Drivers/STM32L4xx_HAL_Driver/Src\stm32l4xx_hal_flash_ex.c ****   return status;
 1498              		.loc 1 1123 0
 1499 009a FB7F     		ldrb	r3, [r7, #31]	@ zero_extendqisi2
1124:D:/iot/felix2/targets/Cloud_STM32L431_BearPi/Drivers/STM32L4xx_HAL_Driver/Src\stm32l4xx_hal_flash_ex.c **** }
 1500              		.loc 1 1124 0
 1501 009c 1846     		mov	r0, r3
 1502 009e 2037     		adds	r7, r7, #32
 1503              	.LCFI56:
 1504              		.cfi_def_cfa_offset 8
 1505 00a0 BD46     		mov	sp, r7
 1506              	.LCFI57:
 1507              		.cfi_def_cfa_register 13
 1508              		@ sp needed
 1509 00a2 80BD     		pop	{r7, pc}
 1510              	.L93:
 1511              		.align	2
 1512              	.L92:
 1513 00a4 00200240 		.word	1073881088
 1514              		.cfi_endproc
 1515              	.LFE143:
 1517              		.section	.text.FLASH_OB_GetWRP,"ax",%progbits
 1518              		.align	1
ARM GAS  C:\Users\91458\AppData\Local\Temp\cct4oxZw.s 			page 47


 1519              		.syntax unified
 1520              		.thumb
 1521              		.thumb_func
 1522              		.fpu fpv4-sp-d16
 1524              	FLASH_OB_GetWRP:
 1525              	.LFB144:
1125:D:/iot/felix2/targets/Cloud_STM32L431_BearPi/Drivers/STM32L4xx_HAL_Driver/Src\stm32l4xx_hal_flash_ex.c **** 
1126:D:/iot/felix2/targets/Cloud_STM32L431_BearPi/Drivers/STM32L4xx_HAL_Driver/Src\stm32l4xx_hal_flash_ex.c **** /**
1127:D:/iot/felix2/targets/Cloud_STM32L431_BearPi/Drivers/STM32L4xx_HAL_Driver/Src\stm32l4xx_hal_flash_ex.c ****   * @brief  Return the FLASH Write Protection Option Bytes value.
1128:D:/iot/felix2/targets/Cloud_STM32L431_BearPi/Drivers/STM32L4xx_HAL_Driver/Src\stm32l4xx_hal_flash_ex.c ****   *
1129:D:/iot/felix2/targets/Cloud_STM32L431_BearPi/Drivers/STM32L4xx_HAL_Driver/Src\stm32l4xx_hal_flash_ex.c ****   * @param[in]  WRPArea: specifies the area to be returned.
1130:D:/iot/felix2/targets/Cloud_STM32L431_BearPi/Drivers/STM32L4xx_HAL_Driver/Src\stm32l4xx_hal_flash_ex.c ****   *          This parameter can be one of the following values:
1131:D:/iot/felix2/targets/Cloud_STM32L431_BearPi/Drivers/STM32L4xx_HAL_Driver/Src\stm32l4xx_hal_flash_ex.c ****   *            @arg OB_WRPAREA_BANK1_AREAA: Flash Bank 1 Area A                      
1132:D:/iot/felix2/targets/Cloud_STM32L431_BearPi/Drivers/STM32L4xx_HAL_Driver/Src\stm32l4xx_hal_flash_ex.c ****   *            @arg OB_WRPAREA_BANK1_AREAB: Flash Bank 1 Area B                      
1133:D:/iot/felix2/targets/Cloud_STM32L431_BearPi/Drivers/STM32L4xx_HAL_Driver/Src\stm32l4xx_hal_flash_ex.c ****   *            @arg OB_WRPAREA_BANK2_AREAA: Flash Bank 2 Area A (don't apply to STM32L43x/STM32L44x
1134:D:/iot/felix2/targets/Cloud_STM32L431_BearPi/Drivers/STM32L4xx_HAL_Driver/Src\stm32l4xx_hal_flash_ex.c ****   *            @arg OB_WRPAREA_BANK2_AREAB: Flash Bank 2 Area B (don't apply to STM32L43x/STM32L44x
1135:D:/iot/felix2/targets/Cloud_STM32L431_BearPi/Drivers/STM32L4xx_HAL_Driver/Src\stm32l4xx_hal_flash_ex.c ****   *
1136:D:/iot/felix2/targets/Cloud_STM32L431_BearPi/Drivers/STM32L4xx_HAL_Driver/Src\stm32l4xx_hal_flash_ex.c ****   * @param[out]  WRPStartOffset: specifies the address where to copied the start page 
1137:D:/iot/felix2/targets/Cloud_STM32L431_BearPi/Drivers/STM32L4xx_HAL_Driver/Src\stm32l4xx_hal_flash_ex.c ****   *                         of the write protected area
1138:D:/iot/felix2/targets/Cloud_STM32L431_BearPi/Drivers/STM32L4xx_HAL_Driver/Src\stm32l4xx_hal_flash_ex.c ****   *
1139:D:/iot/felix2/targets/Cloud_STM32L431_BearPi/Drivers/STM32L4xx_HAL_Driver/Src\stm32l4xx_hal_flash_ex.c ****   * @param[out]  WRDPEndOffset: specifies the address where to copied the end page of 
1140:D:/iot/felix2/targets/Cloud_STM32L431_BearPi/Drivers/STM32L4xx_HAL_Driver/Src\stm32l4xx_hal_flash_ex.c ****   *                        the write protected area
1141:D:/iot/felix2/targets/Cloud_STM32L431_BearPi/Drivers/STM32L4xx_HAL_Driver/Src\stm32l4xx_hal_flash_ex.c ****   *
1142:D:/iot/felix2/targets/Cloud_STM32L431_BearPi/Drivers/STM32L4xx_HAL_Driver/Src\stm32l4xx_hal_flash_ex.c ****   * @retval None
1143:D:/iot/felix2/targets/Cloud_STM32L431_BearPi/Drivers/STM32L4xx_HAL_Driver/Src\stm32l4xx_hal_flash_ex.c ****   */
1144:D:/iot/felix2/targets/Cloud_STM32L431_BearPi/Drivers/STM32L4xx_HAL_Driver/Src\stm32l4xx_hal_flash_ex.c **** static void FLASH_OB_GetWRP(uint32_t WRPArea, uint32_t * WRPStartOffset, uint32_t * WRDPEndOffset)
1145:D:/iot/felix2/targets/Cloud_STM32L431_BearPi/Drivers/STM32L4xx_HAL_Driver/Src\stm32l4xx_hal_flash_ex.c **** {
 1526              		.loc 1 1145 0
 1527              		.cfi_startproc
 1528              		@ args = 0, pretend = 0, frame = 16
 1529              		@ frame_needed = 1, uses_anonymous_args = 0
 1530              		@ link register save eliminated.
 1531 0000 80B4     		push	{r7}
 1532              	.LCFI58:
 1533              		.cfi_def_cfa_offset 4
 1534              		.cfi_offset 7, -4
 1535 0002 85B0     		sub	sp, sp, #20
 1536              	.LCFI59:
 1537              		.cfi_def_cfa_offset 24
 1538 0004 00AF     		add	r7, sp, #0
 1539              	.LCFI60:
 1540              		.cfi_def_cfa_register 7
 1541 0006 F860     		str	r0, [r7, #12]
 1542 0008 B960     		str	r1, [r7, #8]
 1543 000a 7A60     		str	r2, [r7, #4]
1146:D:/iot/felix2/targets/Cloud_STM32L431_BearPi/Drivers/STM32L4xx_HAL_Driver/Src\stm32l4xx_hal_flash_ex.c ****   /* Get the configuration of the write protected area */
1147:D:/iot/felix2/targets/Cloud_STM32L431_BearPi/Drivers/STM32L4xx_HAL_Driver/Src\stm32l4xx_hal_flash_ex.c ****   if(WRPArea == OB_WRPAREA_BANK1_AREAA)
 1544              		.loc 1 1147 0
 1545 000c FB68     		ldr	r3, [r7, #12]
 1546 000e 002B     		cmp	r3, #0
 1547 0010 0BD1     		bne	.L95
1148:D:/iot/felix2/targets/Cloud_STM32L431_BearPi/Drivers/STM32L4xx_HAL_Driver/Src\stm32l4xx_hal_flash_ex.c ****   {
1149:D:/iot/felix2/targets/Cloud_STM32L431_BearPi/Drivers/STM32L4xx_HAL_Driver/Src\stm32l4xx_hal_flash_ex.c ****     *WRPStartOffset = READ_BIT(FLASH->WRP1AR, FLASH_WRP1AR_WRP1A_STRT);
 1548              		.loc 1 1149 0
 1549 0012 104B     		ldr	r3, .L98
 1550 0014 DB6A     		ldr	r3, [r3, #44]
 1551 0016 DAB2     		uxtb	r2, r3
ARM GAS  C:\Users\91458\AppData\Local\Temp\cct4oxZw.s 			page 48


 1552 0018 BB68     		ldr	r3, [r7, #8]
 1553 001a 1A60     		str	r2, [r3]
1150:D:/iot/felix2/targets/Cloud_STM32L431_BearPi/Drivers/STM32L4xx_HAL_Driver/Src\stm32l4xx_hal_flash_ex.c ****     *WRDPEndOffset = (READ_BIT(FLASH->WRP1AR, FLASH_WRP1AR_WRP1A_END) >> 16);
 1554              		.loc 1 1150 0
 1555 001c 0D4B     		ldr	r3, .L98
 1556 001e DB6A     		ldr	r3, [r3, #44]
 1557 0020 1B0C     		lsrs	r3, r3, #16
 1558 0022 DAB2     		uxtb	r2, r3
 1559 0024 7B68     		ldr	r3, [r7, #4]
 1560 0026 1A60     		str	r2, [r3]
1151:D:/iot/felix2/targets/Cloud_STM32L431_BearPi/Drivers/STM32L4xx_HAL_Driver/Src\stm32l4xx_hal_flash_ex.c ****   }
1152:D:/iot/felix2/targets/Cloud_STM32L431_BearPi/Drivers/STM32L4xx_HAL_Driver/Src\stm32l4xx_hal_flash_ex.c ****   else if(WRPArea == OB_WRPAREA_BANK1_AREAB)
1153:D:/iot/felix2/targets/Cloud_STM32L431_BearPi/Drivers/STM32L4xx_HAL_Driver/Src\stm32l4xx_hal_flash_ex.c ****   {
1154:D:/iot/felix2/targets/Cloud_STM32L431_BearPi/Drivers/STM32L4xx_HAL_Driver/Src\stm32l4xx_hal_flash_ex.c ****     *WRPStartOffset = READ_BIT(FLASH->WRP1BR, FLASH_WRP1BR_WRP1B_STRT);
1155:D:/iot/felix2/targets/Cloud_STM32L431_BearPi/Drivers/STM32L4xx_HAL_Driver/Src\stm32l4xx_hal_flash_ex.c ****     *WRDPEndOffset = (READ_BIT(FLASH->WRP1BR, FLASH_WRP1BR_WRP1B_END) >> 16);
1156:D:/iot/felix2/targets/Cloud_STM32L431_BearPi/Drivers/STM32L4xx_HAL_Driver/Src\stm32l4xx_hal_flash_ex.c ****   }
1157:D:/iot/felix2/targets/Cloud_STM32L431_BearPi/Drivers/STM32L4xx_HAL_Driver/Src\stm32l4xx_hal_flash_ex.c **** #if defined (STM32L471xx) || defined (STM32L475xx) || defined (STM32L476xx) || defined (STM32L485xx
1158:D:/iot/felix2/targets/Cloud_STM32L431_BearPi/Drivers/STM32L4xx_HAL_Driver/Src\stm32l4xx_hal_flash_ex.c ****     defined (STM32L496xx) || defined (STM32L4A6xx) || \
1159:D:/iot/felix2/targets/Cloud_STM32L431_BearPi/Drivers/STM32L4xx_HAL_Driver/Src\stm32l4xx_hal_flash_ex.c ****     defined (STM32L4R5xx) || defined (STM32L4R7xx) || defined (STM32L4R9xx) || defined (STM32L4S5xx
1160:D:/iot/felix2/targets/Cloud_STM32L431_BearPi/Drivers/STM32L4xx_HAL_Driver/Src\stm32l4xx_hal_flash_ex.c ****   else if(WRPArea == OB_WRPAREA_BANK2_AREAA)
1161:D:/iot/felix2/targets/Cloud_STM32L431_BearPi/Drivers/STM32L4xx_HAL_Driver/Src\stm32l4xx_hal_flash_ex.c ****   {
1162:D:/iot/felix2/targets/Cloud_STM32L431_BearPi/Drivers/STM32L4xx_HAL_Driver/Src\stm32l4xx_hal_flash_ex.c ****     *WRPStartOffset = READ_BIT(FLASH->WRP2AR, FLASH_WRP2AR_WRP2A_STRT);
1163:D:/iot/felix2/targets/Cloud_STM32L431_BearPi/Drivers/STM32L4xx_HAL_Driver/Src\stm32l4xx_hal_flash_ex.c ****     *WRDPEndOffset = (READ_BIT(FLASH->WRP2AR, FLASH_WRP2AR_WRP2A_END) >> 16);
1164:D:/iot/felix2/targets/Cloud_STM32L431_BearPi/Drivers/STM32L4xx_HAL_Driver/Src\stm32l4xx_hal_flash_ex.c ****   }
1165:D:/iot/felix2/targets/Cloud_STM32L431_BearPi/Drivers/STM32L4xx_HAL_Driver/Src\stm32l4xx_hal_flash_ex.c ****   else if(WRPArea == OB_WRPAREA_BANK2_AREAB)
1166:D:/iot/felix2/targets/Cloud_STM32L431_BearPi/Drivers/STM32L4xx_HAL_Driver/Src\stm32l4xx_hal_flash_ex.c ****   {
1167:D:/iot/felix2/targets/Cloud_STM32L431_BearPi/Drivers/STM32L4xx_HAL_Driver/Src\stm32l4xx_hal_flash_ex.c ****     *WRPStartOffset = READ_BIT(FLASH->WRP2BR, FLASH_WRP2BR_WRP2B_STRT);
1168:D:/iot/felix2/targets/Cloud_STM32L431_BearPi/Drivers/STM32L4xx_HAL_Driver/Src\stm32l4xx_hal_flash_ex.c ****     *WRDPEndOffset = (READ_BIT(FLASH->WRP2BR, FLASH_WRP2BR_WRP2B_END) >> 16);
1169:D:/iot/felix2/targets/Cloud_STM32L431_BearPi/Drivers/STM32L4xx_HAL_Driver/Src\stm32l4xx_hal_flash_ex.c ****   }
1170:D:/iot/felix2/targets/Cloud_STM32L431_BearPi/Drivers/STM32L4xx_HAL_Driver/Src\stm32l4xx_hal_flash_ex.c **** #endif
1171:D:/iot/felix2/targets/Cloud_STM32L431_BearPi/Drivers/STM32L4xx_HAL_Driver/Src\stm32l4xx_hal_flash_ex.c ****   else
1172:D:/iot/felix2/targets/Cloud_STM32L431_BearPi/Drivers/STM32L4xx_HAL_Driver/Src\stm32l4xx_hal_flash_ex.c ****   {
1173:D:/iot/felix2/targets/Cloud_STM32L431_BearPi/Drivers/STM32L4xx_HAL_Driver/Src\stm32l4xx_hal_flash_ex.c ****     /* Nothing to do */
1174:D:/iot/felix2/targets/Cloud_STM32L431_BearPi/Drivers/STM32L4xx_HAL_Driver/Src\stm32l4xx_hal_flash_ex.c ****   }
1175:D:/iot/felix2/targets/Cloud_STM32L431_BearPi/Drivers/STM32L4xx_HAL_Driver/Src\stm32l4xx_hal_flash_ex.c **** }
 1561              		.loc 1 1175 0
 1562 0028 0DE0     		b	.L97
 1563              	.L95:
1152:D:/iot/felix2/targets/Cloud_STM32L431_BearPi/Drivers/STM32L4xx_HAL_Driver/Src\stm32l4xx_hal_flash_ex.c ****   {
 1564              		.loc 1 1152 0
 1565 002a FB68     		ldr	r3, [r7, #12]
 1566 002c 012B     		cmp	r3, #1
 1567 002e 0AD1     		bne	.L97
1154:D:/iot/felix2/targets/Cloud_STM32L431_BearPi/Drivers/STM32L4xx_HAL_Driver/Src\stm32l4xx_hal_flash_ex.c ****     *WRDPEndOffset = (READ_BIT(FLASH->WRP1BR, FLASH_WRP1BR_WRP1B_END) >> 16);
 1568              		.loc 1 1154 0
 1569 0030 084B     		ldr	r3, .L98
 1570 0032 1B6B     		ldr	r3, [r3, #48]
 1571 0034 DAB2     		uxtb	r2, r3
 1572 0036 BB68     		ldr	r3, [r7, #8]
 1573 0038 1A60     		str	r2, [r3]
1155:D:/iot/felix2/targets/Cloud_STM32L431_BearPi/Drivers/STM32L4xx_HAL_Driver/Src\stm32l4xx_hal_flash_ex.c ****   }
 1574              		.loc 1 1155 0
 1575 003a 064B     		ldr	r3, .L98
 1576 003c 1B6B     		ldr	r3, [r3, #48]
 1577 003e 1B0C     		lsrs	r3, r3, #16
 1578 0040 DAB2     		uxtb	r2, r3
 1579 0042 7B68     		ldr	r3, [r7, #4]
ARM GAS  C:\Users\91458\AppData\Local\Temp\cct4oxZw.s 			page 49


 1580 0044 1A60     		str	r2, [r3]
 1581              	.L97:
 1582              		.loc 1 1175 0
 1583 0046 00BF     		nop
 1584 0048 1437     		adds	r7, r7, #20
 1585              	.LCFI61:
 1586              		.cfi_def_cfa_offset 4
 1587 004a BD46     		mov	sp, r7
 1588              	.LCFI62:
 1589              		.cfi_def_cfa_register 13
 1590              		@ sp needed
 1591 004c 5DF8047B 		ldr	r7, [sp], #4
 1592              	.LCFI63:
 1593              		.cfi_restore 7
 1594              		.cfi_def_cfa_offset 0
 1595 0050 7047     		bx	lr
 1596              	.L99:
 1597 0052 00BF     		.align	2
 1598              	.L98:
 1599 0054 00200240 		.word	1073881088
 1600              		.cfi_endproc
 1601              	.LFE144:
 1603              		.section	.text.FLASH_OB_GetRDP,"ax",%progbits
 1604              		.align	1
 1605              		.syntax unified
 1606              		.thumb
 1607              		.thumb_func
 1608              		.fpu fpv4-sp-d16
 1610              	FLASH_OB_GetRDP:
 1611              	.LFB145:
1176:D:/iot/felix2/targets/Cloud_STM32L431_BearPi/Drivers/STM32L4xx_HAL_Driver/Src\stm32l4xx_hal_flash_ex.c **** 
1177:D:/iot/felix2/targets/Cloud_STM32L431_BearPi/Drivers/STM32L4xx_HAL_Driver/Src\stm32l4xx_hal_flash_ex.c **** /**
1178:D:/iot/felix2/targets/Cloud_STM32L431_BearPi/Drivers/STM32L4xx_HAL_Driver/Src\stm32l4xx_hal_flash_ex.c ****   * @brief  Return the FLASH Read Protection level.
1179:D:/iot/felix2/targets/Cloud_STM32L431_BearPi/Drivers/STM32L4xx_HAL_Driver/Src\stm32l4xx_hal_flash_ex.c ****   * @retval FLASH ReadOut Protection Status:
1180:D:/iot/felix2/targets/Cloud_STM32L431_BearPi/Drivers/STM32L4xx_HAL_Driver/Src\stm32l4xx_hal_flash_ex.c ****   *         This return value can be one of the following values:
1181:D:/iot/felix2/targets/Cloud_STM32L431_BearPi/Drivers/STM32L4xx_HAL_Driver/Src\stm32l4xx_hal_flash_ex.c ****   *            @arg OB_RDP_LEVEL_0: No protection
1182:D:/iot/felix2/targets/Cloud_STM32L431_BearPi/Drivers/STM32L4xx_HAL_Driver/Src\stm32l4xx_hal_flash_ex.c ****   *            @arg OB_RDP_LEVEL_1: Read protection of the memory
1183:D:/iot/felix2/targets/Cloud_STM32L431_BearPi/Drivers/STM32L4xx_HAL_Driver/Src\stm32l4xx_hal_flash_ex.c ****   *            @arg OB_RDP_LEVEL_2: Full chip protection
1184:D:/iot/felix2/targets/Cloud_STM32L431_BearPi/Drivers/STM32L4xx_HAL_Driver/Src\stm32l4xx_hal_flash_ex.c ****   */
1185:D:/iot/felix2/targets/Cloud_STM32L431_BearPi/Drivers/STM32L4xx_HAL_Driver/Src\stm32l4xx_hal_flash_ex.c **** static uint32_t FLASH_OB_GetRDP(void)
1186:D:/iot/felix2/targets/Cloud_STM32L431_BearPi/Drivers/STM32L4xx_HAL_Driver/Src\stm32l4xx_hal_flash_ex.c **** {
 1612              		.loc 1 1186 0
 1613              		.cfi_startproc
 1614              		@ args = 0, pretend = 0, frame = 8
 1615              		@ frame_needed = 1, uses_anonymous_args = 0
 1616              		@ link register save eliminated.
 1617 0000 80B4     		push	{r7}
 1618              	.LCFI64:
 1619              		.cfi_def_cfa_offset 4
 1620              		.cfi_offset 7, -4
 1621 0002 83B0     		sub	sp, sp, #12
 1622              	.LCFI65:
 1623              		.cfi_def_cfa_offset 16
 1624 0004 00AF     		add	r7, sp, #0
 1625              	.LCFI66:
 1626              		.cfi_def_cfa_register 7
1187:D:/iot/felix2/targets/Cloud_STM32L431_BearPi/Drivers/STM32L4xx_HAL_Driver/Src\stm32l4xx_hal_flash_ex.c ****   uint32_t rdp_level = READ_BIT(FLASH->OPTR, FLASH_OPTR_RDP);
ARM GAS  C:\Users\91458\AppData\Local\Temp\cct4oxZw.s 			page 50


 1627              		.loc 1 1187 0
 1628 0006 0A4B     		ldr	r3, .L103
 1629 0008 1B6A     		ldr	r3, [r3, #32]
 1630 000a DBB2     		uxtb	r3, r3
 1631 000c 7B60     		str	r3, [r7, #4]
1188:D:/iot/felix2/targets/Cloud_STM32L431_BearPi/Drivers/STM32L4xx_HAL_Driver/Src\stm32l4xx_hal_flash_ex.c **** 
1189:D:/iot/felix2/targets/Cloud_STM32L431_BearPi/Drivers/STM32L4xx_HAL_Driver/Src\stm32l4xx_hal_flash_ex.c ****   if ((rdp_level != OB_RDP_LEVEL_0) && (rdp_level != OB_RDP_LEVEL_2))
 1632              		.loc 1 1189 0
 1633 000e 7B68     		ldr	r3, [r7, #4]
 1634 0010 AA2B     		cmp	r3, #170
 1635 0012 04D0     		beq	.L101
 1636              		.loc 1 1189 0 is_stmt 0 discriminator 1
 1637 0014 7B68     		ldr	r3, [r7, #4]
 1638 0016 CC2B     		cmp	r3, #204
 1639 0018 01D0     		beq	.L101
1190:D:/iot/felix2/targets/Cloud_STM32L431_BearPi/Drivers/STM32L4xx_HAL_Driver/Src\stm32l4xx_hal_flash_ex.c ****   {
1191:D:/iot/felix2/targets/Cloud_STM32L431_BearPi/Drivers/STM32L4xx_HAL_Driver/Src\stm32l4xx_hal_flash_ex.c ****     return (OB_RDP_LEVEL_1);
 1640              		.loc 1 1191 0 is_stmt 1
 1641 001a BB23     		movs	r3, #187
 1642 001c 02E0     		b	.L102
 1643              	.L101:
1192:D:/iot/felix2/targets/Cloud_STM32L431_BearPi/Drivers/STM32L4xx_HAL_Driver/Src\stm32l4xx_hal_flash_ex.c ****   }
1193:D:/iot/felix2/targets/Cloud_STM32L431_BearPi/Drivers/STM32L4xx_HAL_Driver/Src\stm32l4xx_hal_flash_ex.c ****   else
1194:D:/iot/felix2/targets/Cloud_STM32L431_BearPi/Drivers/STM32L4xx_HAL_Driver/Src\stm32l4xx_hal_flash_ex.c ****   {
1195:D:/iot/felix2/targets/Cloud_STM32L431_BearPi/Drivers/STM32L4xx_HAL_Driver/Src\stm32l4xx_hal_flash_ex.c ****     return (READ_BIT(FLASH->OPTR, FLASH_OPTR_RDP));
 1644              		.loc 1 1195 0
 1645 001e 044B     		ldr	r3, .L103
 1646 0020 1B6A     		ldr	r3, [r3, #32]
 1647 0022 DBB2     		uxtb	r3, r3
 1648              	.L102:
1196:D:/iot/felix2/targets/Cloud_STM32L431_BearPi/Drivers/STM32L4xx_HAL_Driver/Src\stm32l4xx_hal_flash_ex.c ****   }
1197:D:/iot/felix2/targets/Cloud_STM32L431_BearPi/Drivers/STM32L4xx_HAL_Driver/Src\stm32l4xx_hal_flash_ex.c **** }
 1649              		.loc 1 1197 0
 1650 0024 1846     		mov	r0, r3
 1651 0026 0C37     		adds	r7, r7, #12
 1652              	.LCFI67:
 1653              		.cfi_def_cfa_offset 4
 1654 0028 BD46     		mov	sp, r7
 1655              	.LCFI68:
 1656              		.cfi_def_cfa_register 13
 1657              		@ sp needed
 1658 002a 5DF8047B 		ldr	r7, [sp], #4
 1659              	.LCFI69:
 1660              		.cfi_restore 7
 1661              		.cfi_def_cfa_offset 0
 1662 002e 7047     		bx	lr
 1663              	.L104:
 1664              		.align	2
 1665              	.L103:
 1666 0030 00200240 		.word	1073881088
 1667              		.cfi_endproc
 1668              	.LFE145:
 1670              		.section	.text.FLASH_OB_GetUser,"ax",%progbits
 1671              		.align	1
 1672              		.syntax unified
 1673              		.thumb
 1674              		.thumb_func
ARM GAS  C:\Users\91458\AppData\Local\Temp\cct4oxZw.s 			page 51


 1675              		.fpu fpv4-sp-d16
 1677              	FLASH_OB_GetUser:
 1678              	.LFB146:
1198:D:/iot/felix2/targets/Cloud_STM32L431_BearPi/Drivers/STM32L4xx_HAL_Driver/Src\stm32l4xx_hal_flash_ex.c **** 
1199:D:/iot/felix2/targets/Cloud_STM32L431_BearPi/Drivers/STM32L4xx_HAL_Driver/Src\stm32l4xx_hal_flash_ex.c **** /**
1200:D:/iot/felix2/targets/Cloud_STM32L431_BearPi/Drivers/STM32L4xx_HAL_Driver/Src\stm32l4xx_hal_flash_ex.c ****   * @brief  Return the FLASH User Option Byte value.
1201:D:/iot/felix2/targets/Cloud_STM32L431_BearPi/Drivers/STM32L4xx_HAL_Driver/Src\stm32l4xx_hal_flash_ex.c ****   * @retval The FLASH User Option Bytes values: 
1202:D:/iot/felix2/targets/Cloud_STM32L431_BearPi/Drivers/STM32L4xx_HAL_Driver/Src\stm32l4xx_hal_flash_ex.c ****   *      For STM32L47x/STM32L48x devices :
1203:D:/iot/felix2/targets/Cloud_STM32L431_BearPi/Drivers/STM32L4xx_HAL_Driver/Src\stm32l4xx_hal_flash_ex.c ****   *         BOR_LEV(Bit8-10), nRST_STOP(Bit12), nRST_STDBY(Bit13), nRST_SHDW(Bit14), 
1204:D:/iot/felix2/targets/Cloud_STM32L431_BearPi/Drivers/STM32L4xx_HAL_Driver/Src\stm32l4xx_hal_flash_ex.c ****   *         IWDG_SW(Bit16), IWDG_STOP(Bit17), IWDG_STDBY(Bit18), WWDG_SW(Bit19),  
1205:D:/iot/felix2/targets/Cloud_STM32L431_BearPi/Drivers/STM32L4xx_HAL_Driver/Src\stm32l4xx_hal_flash_ex.c ****   *         BFB2(Bit20), DUALBANK(Bit21), nBOOT1(Bit23), SRAM2_PE(Bit24) and SRAM2_RST(Bit25). 
1206:D:/iot/felix2/targets/Cloud_STM32L431_BearPi/Drivers/STM32L4xx_HAL_Driver/Src\stm32l4xx_hal_flash_ex.c ****   *      For STM32L43x/STM32L44x devices :
1207:D:/iot/felix2/targets/Cloud_STM32L431_BearPi/Drivers/STM32L4xx_HAL_Driver/Src\stm32l4xx_hal_flash_ex.c ****   *         BOR_LEV(Bit8-10), nRST_STOP(Bit12), nRST_STDBY(Bit13), nRST_SHDW(Bit14),
1208:D:/iot/felix2/targets/Cloud_STM32L431_BearPi/Drivers/STM32L4xx_HAL_Driver/Src\stm32l4xx_hal_flash_ex.c ****   *         IWDG_SW(Bit16), IWDG_STOP(Bit17), IWDG_STDBY(Bit18), WWDG_SW(Bit19),  
1209:D:/iot/felix2/targets/Cloud_STM32L431_BearPi/Drivers/STM32L4xx_HAL_Driver/Src\stm32l4xx_hal_flash_ex.c ****   *         nBOOT1(Bit23), SRAM2_PE(Bit24), SRAM2_RST(Bit25), nSWBOOT0(Bit26) and nBOOT0(Bit27). 
1210:D:/iot/felix2/targets/Cloud_STM32L431_BearPi/Drivers/STM32L4xx_HAL_Driver/Src\stm32l4xx_hal_flash_ex.c ****   */
1211:D:/iot/felix2/targets/Cloud_STM32L431_BearPi/Drivers/STM32L4xx_HAL_Driver/Src\stm32l4xx_hal_flash_ex.c **** static uint32_t FLASH_OB_GetUser(void)
1212:D:/iot/felix2/targets/Cloud_STM32L431_BearPi/Drivers/STM32L4xx_HAL_Driver/Src\stm32l4xx_hal_flash_ex.c **** {
 1679              		.loc 1 1212 0
 1680              		.cfi_startproc
 1681              		@ args = 0, pretend = 0, frame = 8
 1682              		@ frame_needed = 1, uses_anonymous_args = 0
 1683              		@ link register save eliminated.
 1684 0000 80B4     		push	{r7}
 1685              	.LCFI70:
 1686              		.cfi_def_cfa_offset 4
 1687              		.cfi_offset 7, -4
 1688 0002 83B0     		sub	sp, sp, #12
 1689              	.LCFI71:
 1690              		.cfi_def_cfa_offset 16
 1691 0004 00AF     		add	r7, sp, #0
 1692              	.LCFI72:
 1693              		.cfi_def_cfa_register 7
1213:D:/iot/felix2/targets/Cloud_STM32L431_BearPi/Drivers/STM32L4xx_HAL_Driver/Src\stm32l4xx_hal_flash_ex.c ****   uint32_t user_config = READ_REG(FLASH->OPTR);
 1694              		.loc 1 1213 0
 1695 0006 074B     		ldr	r3, .L107
 1696 0008 1B6A     		ldr	r3, [r3, #32]
 1697 000a 7B60     		str	r3, [r7, #4]
1214:D:/iot/felix2/targets/Cloud_STM32L431_BearPi/Drivers/STM32L4xx_HAL_Driver/Src\stm32l4xx_hal_flash_ex.c ****   CLEAR_BIT(user_config, FLASH_OPTR_RDP);
 1698              		.loc 1 1214 0
 1699 000c 7B68     		ldr	r3, [r7, #4]
 1700 000e 23F0FF03 		bic	r3, r3, #255
 1701 0012 7B60     		str	r3, [r7, #4]
1215:D:/iot/felix2/targets/Cloud_STM32L431_BearPi/Drivers/STM32L4xx_HAL_Driver/Src\stm32l4xx_hal_flash_ex.c ****   
1216:D:/iot/felix2/targets/Cloud_STM32L431_BearPi/Drivers/STM32L4xx_HAL_Driver/Src\stm32l4xx_hal_flash_ex.c ****   return user_config;
 1702              		.loc 1 1216 0
 1703 0014 7B68     		ldr	r3, [r7, #4]
1217:D:/iot/felix2/targets/Cloud_STM32L431_BearPi/Drivers/STM32L4xx_HAL_Driver/Src\stm32l4xx_hal_flash_ex.c **** }
 1704              		.loc 1 1217 0
 1705 0016 1846     		mov	r0, r3
 1706 0018 0C37     		adds	r7, r7, #12
 1707              	.LCFI73:
 1708              		.cfi_def_cfa_offset 4
