ARM GAS  C:\Users\91458\AppData\Local\Temp\ccrpKNIe.s 			page 1


   1              		.cpu cortex-m4
   2              		.eabi_attribute 27, 1
   3              		.eabi_attribute 28, 1
   4              		.eabi_attribute 20, 1
   5              		.eabi_attribute 21, 1
   6              		.eabi_attribute 23, 3
   7              		.eabi_attribute 24, 1
   8              		.eabi_attribute 25, 1
   9              		.eabi_attribute 26, 1
  10              		.eabi_attribute 30, 6
  11              		.eabi_attribute 34, 1
  12              		.eabi_attribute 18, 4
  13              		.file	"stm32l4xx_hal_uart.c"
  14              		.text
  15              	.Ltext0:
  16              		.cfi_sections	.debug_frame
  17              		.section	.text.HAL_UART_Init,"ax",%progbits
  18              		.align	1
  19              		.global	HAL_UART_Init
  20              		.syntax unified
  21              		.thumb
  22              		.thumb_func
  23              		.fpu fpv4-sp-d16
  25              	HAL_UART_Init:
  26              	.LFB133:
  27              		.file 1 "D:/iot/felix2/targets/Cloud_STM32L431_BearPi/Drivers/STM32L4xx_HAL_Driver/Src/stm32l4xx_h
   1:D:/iot/felix2/targets/Cloud_STM32L431_BearPi/Drivers/STM32L4xx_HAL_Driver/Src\stm32l4xx_hal_uart.c **** /**
   2:D:/iot/felix2/targets/Cloud_STM32L431_BearPi/Drivers/STM32L4xx_HAL_Driver/Src\stm32l4xx_hal_uart.c ****   ******************************************************************************
   3:D:/iot/felix2/targets/Cloud_STM32L431_BearPi/Drivers/STM32L4xx_HAL_Driver/Src\stm32l4xx_hal_uart.c ****   * @file    stm32l4xx_hal_uart.c
   4:D:/iot/felix2/targets/Cloud_STM32L431_BearPi/Drivers/STM32L4xx_HAL_Driver/Src\stm32l4xx_hal_uart.c ****   * @author  MCD Application Team
   5:D:/iot/felix2/targets/Cloud_STM32L431_BearPi/Drivers/STM32L4xx_HAL_Driver/Src\stm32l4xx_hal_uart.c ****   * @brief   UART HAL module driver.
   6:D:/iot/felix2/targets/Cloud_STM32L431_BearPi/Drivers/STM32L4xx_HAL_Driver/Src\stm32l4xx_hal_uart.c ****   *          This file provides firmware functions to manage the following
   7:D:/iot/felix2/targets/Cloud_STM32L431_BearPi/Drivers/STM32L4xx_HAL_Driver/Src\stm32l4xx_hal_uart.c ****   *          functionalities of the Universal Asynchronous Receiver Transmitter Peripheral (UART).
   8:D:/iot/felix2/targets/Cloud_STM32L431_BearPi/Drivers/STM32L4xx_HAL_Driver/Src\stm32l4xx_hal_uart.c ****   *           + Initialization and de-initialization functions
   9:D:/iot/felix2/targets/Cloud_STM32L431_BearPi/Drivers/STM32L4xx_HAL_Driver/Src\stm32l4xx_hal_uart.c ****   *           + IO operation functions
  10:D:/iot/felix2/targets/Cloud_STM32L431_BearPi/Drivers/STM32L4xx_HAL_Driver/Src\stm32l4xx_hal_uart.c ****   *           + Peripheral Control functions
  11:D:/iot/felix2/targets/Cloud_STM32L431_BearPi/Drivers/STM32L4xx_HAL_Driver/Src\stm32l4xx_hal_uart.c ****   *
  12:D:/iot/felix2/targets/Cloud_STM32L431_BearPi/Drivers/STM32L4xx_HAL_Driver/Src\stm32l4xx_hal_uart.c ****   *
  13:D:/iot/felix2/targets/Cloud_STM32L431_BearPi/Drivers/STM32L4xx_HAL_Driver/Src\stm32l4xx_hal_uart.c ****   @verbatim
  14:D:/iot/felix2/targets/Cloud_STM32L431_BearPi/Drivers/STM32L4xx_HAL_Driver/Src\stm32l4xx_hal_uart.c ****  ===============================================================================
  15:D:/iot/felix2/targets/Cloud_STM32L431_BearPi/Drivers/STM32L4xx_HAL_Driver/Src\stm32l4xx_hal_uart.c ****                         ##### How to use this driver #####
  16:D:/iot/felix2/targets/Cloud_STM32L431_BearPi/Drivers/STM32L4xx_HAL_Driver/Src\stm32l4xx_hal_uart.c ****  ===============================================================================
  17:D:/iot/felix2/targets/Cloud_STM32L431_BearPi/Drivers/STM32L4xx_HAL_Driver/Src\stm32l4xx_hal_uart.c ****   [..]
  18:D:/iot/felix2/targets/Cloud_STM32L431_BearPi/Drivers/STM32L4xx_HAL_Driver/Src\stm32l4xx_hal_uart.c ****     The UART HAL driver can be used as follows:
  19:D:/iot/felix2/targets/Cloud_STM32L431_BearPi/Drivers/STM32L4xx_HAL_Driver/Src\stm32l4xx_hal_uart.c **** 
  20:D:/iot/felix2/targets/Cloud_STM32L431_BearPi/Drivers/STM32L4xx_HAL_Driver/Src\stm32l4xx_hal_uart.c ****     (#) Declare a UART_HandleTypeDef handle structure (eg. UART_HandleTypeDef huart).
  21:D:/iot/felix2/targets/Cloud_STM32L431_BearPi/Drivers/STM32L4xx_HAL_Driver/Src\stm32l4xx_hal_uart.c ****     (#) Initialize the UART low level resources by implementing the HAL_UART_MspInit() API:
  22:D:/iot/felix2/targets/Cloud_STM32L431_BearPi/Drivers/STM32L4xx_HAL_Driver/Src\stm32l4xx_hal_uart.c ****         (++) Enable the USARTx interface clock.
  23:D:/iot/felix2/targets/Cloud_STM32L431_BearPi/Drivers/STM32L4xx_HAL_Driver/Src\stm32l4xx_hal_uart.c ****         (++) UART pins configuration:
  24:D:/iot/felix2/targets/Cloud_STM32L431_BearPi/Drivers/STM32L4xx_HAL_Driver/Src\stm32l4xx_hal_uart.c ****             (+++) Enable the clock for the UART GPIOs.
  25:D:/iot/felix2/targets/Cloud_STM32L431_BearPi/Drivers/STM32L4xx_HAL_Driver/Src\stm32l4xx_hal_uart.c ****             (+++) Configure these UART pins as alternate function pull-up.
  26:D:/iot/felix2/targets/Cloud_STM32L431_BearPi/Drivers/STM32L4xx_HAL_Driver/Src\stm32l4xx_hal_uart.c ****         (++) NVIC configuration if you need to use interrupt process (HAL_UART_Transmit_IT()
  27:D:/iot/felix2/targets/Cloud_STM32L431_BearPi/Drivers/STM32L4xx_HAL_Driver/Src\stm32l4xx_hal_uart.c ****              and HAL_UART_Receive_IT() APIs):
  28:D:/iot/felix2/targets/Cloud_STM32L431_BearPi/Drivers/STM32L4xx_HAL_Driver/Src\stm32l4xx_hal_uart.c ****             (+++) Configure the USARTx interrupt priority.
  29:D:/iot/felix2/targets/Cloud_STM32L431_BearPi/Drivers/STM32L4xx_HAL_Driver/Src\stm32l4xx_hal_uart.c ****             (+++) Enable the NVIC USART IRQ handle.
  30:D:/iot/felix2/targets/Cloud_STM32L431_BearPi/Drivers/STM32L4xx_HAL_Driver/Src\stm32l4xx_hal_uart.c ****         (++) UART interrupts handling:
  31:D:/iot/felix2/targets/Cloud_STM32L431_BearPi/Drivers/STM32L4xx_HAL_Driver/Src\stm32l4xx_hal_uart.c ****               -@@-  The specific UART interrupts (Transmission complete interrupt,
ARM GAS  C:\Users\91458\AppData\Local\Temp\ccrpKNIe.s 			page 2


  32:D:/iot/felix2/targets/Cloud_STM32L431_BearPi/Drivers/STM32L4xx_HAL_Driver/Src\stm32l4xx_hal_uart.c ****                 RXNE interrupt, RX/TX FIFOs related interrupts and Error Interrupts)
  33:D:/iot/felix2/targets/Cloud_STM32L431_BearPi/Drivers/STM32L4xx_HAL_Driver/Src\stm32l4xx_hal_uart.c ****                 are managed using the macros __HAL_UART_ENABLE_IT() and __HAL_UART_DISABLE_IT()
  34:D:/iot/felix2/targets/Cloud_STM32L431_BearPi/Drivers/STM32L4xx_HAL_Driver/Src\stm32l4xx_hal_uart.c ****                 inside the transmit and receive processes.
  35:D:/iot/felix2/targets/Cloud_STM32L431_BearPi/Drivers/STM32L4xx_HAL_Driver/Src\stm32l4xx_hal_uart.c ****         (++) DMA Configuration if you need to use DMA process (HAL_UART_Transmit_DMA()
  36:D:/iot/felix2/targets/Cloud_STM32L431_BearPi/Drivers/STM32L4xx_HAL_Driver/Src\stm32l4xx_hal_uart.c ****              and HAL_UART_Receive_DMA() APIs):
  37:D:/iot/felix2/targets/Cloud_STM32L431_BearPi/Drivers/STM32L4xx_HAL_Driver/Src\stm32l4xx_hal_uart.c ****             (+++) Declare a DMA handle structure for the Tx/Rx channel.
  38:D:/iot/felix2/targets/Cloud_STM32L431_BearPi/Drivers/STM32L4xx_HAL_Driver/Src\stm32l4xx_hal_uart.c ****             (+++) Enable the DMAx interface clock.
  39:D:/iot/felix2/targets/Cloud_STM32L431_BearPi/Drivers/STM32L4xx_HAL_Driver/Src\stm32l4xx_hal_uart.c ****             (+++) Configure the declared DMA handle structure with the required Tx/Rx parameters.
  40:D:/iot/felix2/targets/Cloud_STM32L431_BearPi/Drivers/STM32L4xx_HAL_Driver/Src\stm32l4xx_hal_uart.c ****             (+++) Configure the DMA Tx/Rx channel.
  41:D:/iot/felix2/targets/Cloud_STM32L431_BearPi/Drivers/STM32L4xx_HAL_Driver/Src\stm32l4xx_hal_uart.c ****             (+++) Associate the initialized DMA handle to the UART DMA Tx/Rx handle.
  42:D:/iot/felix2/targets/Cloud_STM32L431_BearPi/Drivers/STM32L4xx_HAL_Driver/Src\stm32l4xx_hal_uart.c ****             (+++) Configure the priority and enable the NVIC for the transfer complete interrupt on
  43:D:/iot/felix2/targets/Cloud_STM32L431_BearPi/Drivers/STM32L4xx_HAL_Driver/Src\stm32l4xx_hal_uart.c **** 
  44:D:/iot/felix2/targets/Cloud_STM32L431_BearPi/Drivers/STM32L4xx_HAL_Driver/Src\stm32l4xx_hal_uart.c ****     (#) Program the Baud Rate, Word Length, Stop Bit, Parity, Prescaler value , Hardware
  45:D:/iot/felix2/targets/Cloud_STM32L431_BearPi/Drivers/STM32L4xx_HAL_Driver/Src\stm32l4xx_hal_uart.c ****         flow control and Mode (Receiver/Transmitter) in the huart handle Init structure.
  46:D:/iot/felix2/targets/Cloud_STM32L431_BearPi/Drivers/STM32L4xx_HAL_Driver/Src\stm32l4xx_hal_uart.c **** 
  47:D:/iot/felix2/targets/Cloud_STM32L431_BearPi/Drivers/STM32L4xx_HAL_Driver/Src\stm32l4xx_hal_uart.c ****     (#) If required, program UART advanced features (TX/RX pins swap, auto Baud rate detection,...)
  48:D:/iot/felix2/targets/Cloud_STM32L431_BearPi/Drivers/STM32L4xx_HAL_Driver/Src\stm32l4xx_hal_uart.c ****         in the huart handle AdvancedInit structure.
  49:D:/iot/felix2/targets/Cloud_STM32L431_BearPi/Drivers/STM32L4xx_HAL_Driver/Src\stm32l4xx_hal_uart.c **** 
  50:D:/iot/felix2/targets/Cloud_STM32L431_BearPi/Drivers/STM32L4xx_HAL_Driver/Src\stm32l4xx_hal_uart.c ****     (#) For the UART asynchronous mode, initialize the UART registers by calling
  51:D:/iot/felix2/targets/Cloud_STM32L431_BearPi/Drivers/STM32L4xx_HAL_Driver/Src\stm32l4xx_hal_uart.c ****         the HAL_UART_Init() API.
  52:D:/iot/felix2/targets/Cloud_STM32L431_BearPi/Drivers/STM32L4xx_HAL_Driver/Src\stm32l4xx_hal_uart.c **** 
  53:D:/iot/felix2/targets/Cloud_STM32L431_BearPi/Drivers/STM32L4xx_HAL_Driver/Src\stm32l4xx_hal_uart.c ****     (#) For the UART Half duplex mode, initialize the UART registers by calling
  54:D:/iot/felix2/targets/Cloud_STM32L431_BearPi/Drivers/STM32L4xx_HAL_Driver/Src\stm32l4xx_hal_uart.c ****         the HAL_HalfDuplex_Init() API.
  55:D:/iot/felix2/targets/Cloud_STM32L431_BearPi/Drivers/STM32L4xx_HAL_Driver/Src\stm32l4xx_hal_uart.c **** 
  56:D:/iot/felix2/targets/Cloud_STM32L431_BearPi/Drivers/STM32L4xx_HAL_Driver/Src\stm32l4xx_hal_uart.c ****     (#) For the UART LIN (Local Interconnection Network) mode, initialize the UART registers
  57:D:/iot/felix2/targets/Cloud_STM32L431_BearPi/Drivers/STM32L4xx_HAL_Driver/Src\stm32l4xx_hal_uart.c ****         by calling the HAL_LIN_Init() API.
  58:D:/iot/felix2/targets/Cloud_STM32L431_BearPi/Drivers/STM32L4xx_HAL_Driver/Src\stm32l4xx_hal_uart.c **** 
  59:D:/iot/felix2/targets/Cloud_STM32L431_BearPi/Drivers/STM32L4xx_HAL_Driver/Src\stm32l4xx_hal_uart.c ****     (#) For the UART Multiprocessor mode, initialize the UART registers
  60:D:/iot/felix2/targets/Cloud_STM32L431_BearPi/Drivers/STM32L4xx_HAL_Driver/Src\stm32l4xx_hal_uart.c ****         by calling the HAL_MultiProcessor_Init() API.
  61:D:/iot/felix2/targets/Cloud_STM32L431_BearPi/Drivers/STM32L4xx_HAL_Driver/Src\stm32l4xx_hal_uart.c **** 
  62:D:/iot/felix2/targets/Cloud_STM32L431_BearPi/Drivers/STM32L4xx_HAL_Driver/Src\stm32l4xx_hal_uart.c ****     (#) For the UART RS485 Driver Enabled mode, initialize the UART registers
  63:D:/iot/felix2/targets/Cloud_STM32L431_BearPi/Drivers/STM32L4xx_HAL_Driver/Src\stm32l4xx_hal_uart.c ****         by calling the HAL_RS485Ex_Init() API.
  64:D:/iot/felix2/targets/Cloud_STM32L431_BearPi/Drivers/STM32L4xx_HAL_Driver/Src\stm32l4xx_hal_uart.c **** 
  65:D:/iot/felix2/targets/Cloud_STM32L431_BearPi/Drivers/STM32L4xx_HAL_Driver/Src\stm32l4xx_hal_uart.c ****     [..]
  66:D:/iot/felix2/targets/Cloud_STM32L431_BearPi/Drivers/STM32L4xx_HAL_Driver/Src\stm32l4xx_hal_uart.c ****     (@) These API's (HAL_UART_Init(), HAL_HalfDuplex_Init(), HAL_LIN_Init(), HAL_MultiProcessor_Ini
  67:D:/iot/felix2/targets/Cloud_STM32L431_BearPi/Drivers/STM32L4xx_HAL_Driver/Src\stm32l4xx_hal_uart.c ****         also configure the low level Hardware GPIO, CLOCK, CORTEX...etc) by
  68:D:/iot/felix2/targets/Cloud_STM32L431_BearPi/Drivers/STM32L4xx_HAL_Driver/Src\stm32l4xx_hal_uart.c ****         calling the customized HAL_UART_MspInit() API.
  69:D:/iot/felix2/targets/Cloud_STM32L431_BearPi/Drivers/STM32L4xx_HAL_Driver/Src\stm32l4xx_hal_uart.c **** 
  70:D:/iot/felix2/targets/Cloud_STM32L431_BearPi/Drivers/STM32L4xx_HAL_Driver/Src\stm32l4xx_hal_uart.c ****     ##### Callback registration #####
  71:D:/iot/felix2/targets/Cloud_STM32L431_BearPi/Drivers/STM32L4xx_HAL_Driver/Src\stm32l4xx_hal_uart.c ****     ==================================
  72:D:/iot/felix2/targets/Cloud_STM32L431_BearPi/Drivers/STM32L4xx_HAL_Driver/Src\stm32l4xx_hal_uart.c **** 
  73:D:/iot/felix2/targets/Cloud_STM32L431_BearPi/Drivers/STM32L4xx_HAL_Driver/Src\stm32l4xx_hal_uart.c ****     [..]
  74:D:/iot/felix2/targets/Cloud_STM32L431_BearPi/Drivers/STM32L4xx_HAL_Driver/Src\stm32l4xx_hal_uart.c ****     The compilation define USE_HAL_UART_REGISTER_CALLBACKS when set to 1
  75:D:/iot/felix2/targets/Cloud_STM32L431_BearPi/Drivers/STM32L4xx_HAL_Driver/Src\stm32l4xx_hal_uart.c ****     allows the user to configure dynamically the driver callbacks.
  76:D:/iot/felix2/targets/Cloud_STM32L431_BearPi/Drivers/STM32L4xx_HAL_Driver/Src\stm32l4xx_hal_uart.c **** 
  77:D:/iot/felix2/targets/Cloud_STM32L431_BearPi/Drivers/STM32L4xx_HAL_Driver/Src\stm32l4xx_hal_uart.c ****     [..]
  78:D:/iot/felix2/targets/Cloud_STM32L431_BearPi/Drivers/STM32L4xx_HAL_Driver/Src\stm32l4xx_hal_uart.c ****     Use Function @ref HAL_UART_RegisterCallback() to register a user callback.
  79:D:/iot/felix2/targets/Cloud_STM32L431_BearPi/Drivers/STM32L4xx_HAL_Driver/Src\stm32l4xx_hal_uart.c ****     Function @ref HAL_UART_RegisterCallback() allows to register following callbacks:
  80:D:/iot/felix2/targets/Cloud_STM32L431_BearPi/Drivers/STM32L4xx_HAL_Driver/Src\stm32l4xx_hal_uart.c ****     (+) TxHalfCpltCallback        : Tx Half Complete Callback.
  81:D:/iot/felix2/targets/Cloud_STM32L431_BearPi/Drivers/STM32L4xx_HAL_Driver/Src\stm32l4xx_hal_uart.c ****     (+) TxCpltCallback            : Tx Complete Callback.
  82:D:/iot/felix2/targets/Cloud_STM32L431_BearPi/Drivers/STM32L4xx_HAL_Driver/Src\stm32l4xx_hal_uart.c ****     (+) RxHalfCpltCallback        : Rx Half Complete Callback.
  83:D:/iot/felix2/targets/Cloud_STM32L431_BearPi/Drivers/STM32L4xx_HAL_Driver/Src\stm32l4xx_hal_uart.c ****     (+) RxCpltCallback            : Rx Complete Callback.
  84:D:/iot/felix2/targets/Cloud_STM32L431_BearPi/Drivers/STM32L4xx_HAL_Driver/Src\stm32l4xx_hal_uart.c ****     (+) ErrorCallback             : Error Callback.
  85:D:/iot/felix2/targets/Cloud_STM32L431_BearPi/Drivers/STM32L4xx_HAL_Driver/Src\stm32l4xx_hal_uart.c ****     (+) AbortCpltCallback         : Abort Complete Callback.
  86:D:/iot/felix2/targets/Cloud_STM32L431_BearPi/Drivers/STM32L4xx_HAL_Driver/Src\stm32l4xx_hal_uart.c ****     (+) AbortTransmitCpltCallback : Abort Transmit Complete Callback.
  87:D:/iot/felix2/targets/Cloud_STM32L431_BearPi/Drivers/STM32L4xx_HAL_Driver/Src\stm32l4xx_hal_uart.c ****     (+) AbortReceiveCpltCallback  : Abort Receive Complete Callback.
  88:D:/iot/felix2/targets/Cloud_STM32L431_BearPi/Drivers/STM32L4xx_HAL_Driver/Src\stm32l4xx_hal_uart.c ****     (+) WakeupCallback            : Wakeup Callback.
ARM GAS  C:\Users\91458\AppData\Local\Temp\ccrpKNIe.s 			page 3


  89:D:/iot/felix2/targets/Cloud_STM32L431_BearPi/Drivers/STM32L4xx_HAL_Driver/Src\stm32l4xx_hal_uart.c ****     (+) RxFifoFullCallback        : Rx Fifo Full Callback.
  90:D:/iot/felix2/targets/Cloud_STM32L431_BearPi/Drivers/STM32L4xx_HAL_Driver/Src\stm32l4xx_hal_uart.c ****     (+) TxFifoEmptyCallback       : Tx Fifo Empty Callback.
  91:D:/iot/felix2/targets/Cloud_STM32L431_BearPi/Drivers/STM32L4xx_HAL_Driver/Src\stm32l4xx_hal_uart.c ****     (+) MspInitCallback           : UART MspInit.
  92:D:/iot/felix2/targets/Cloud_STM32L431_BearPi/Drivers/STM32L4xx_HAL_Driver/Src\stm32l4xx_hal_uart.c ****     (+) MspDeInitCallback         : UART MspDeInit.
  93:D:/iot/felix2/targets/Cloud_STM32L431_BearPi/Drivers/STM32L4xx_HAL_Driver/Src\stm32l4xx_hal_uart.c ****     This function takes as parameters the HAL peripheral handle, the Callback ID
  94:D:/iot/felix2/targets/Cloud_STM32L431_BearPi/Drivers/STM32L4xx_HAL_Driver/Src\stm32l4xx_hal_uart.c ****     and a pointer to the user callback function.
  95:D:/iot/felix2/targets/Cloud_STM32L431_BearPi/Drivers/STM32L4xx_HAL_Driver/Src\stm32l4xx_hal_uart.c **** 
  96:D:/iot/felix2/targets/Cloud_STM32L431_BearPi/Drivers/STM32L4xx_HAL_Driver/Src\stm32l4xx_hal_uart.c ****     [..]
  97:D:/iot/felix2/targets/Cloud_STM32L431_BearPi/Drivers/STM32L4xx_HAL_Driver/Src\stm32l4xx_hal_uart.c ****     Use function @ref HAL_UART_UnRegisterCallback() to reset a callback to the default
  98:D:/iot/felix2/targets/Cloud_STM32L431_BearPi/Drivers/STM32L4xx_HAL_Driver/Src\stm32l4xx_hal_uart.c ****     weak (surcharged) function.
  99:D:/iot/felix2/targets/Cloud_STM32L431_BearPi/Drivers/STM32L4xx_HAL_Driver/Src\stm32l4xx_hal_uart.c ****     @ref HAL_UART_UnRegisterCallback() takes as parameters the HAL peripheral handle,
 100:D:/iot/felix2/targets/Cloud_STM32L431_BearPi/Drivers/STM32L4xx_HAL_Driver/Src\stm32l4xx_hal_uart.c ****     and the Callback ID.
 101:D:/iot/felix2/targets/Cloud_STM32L431_BearPi/Drivers/STM32L4xx_HAL_Driver/Src\stm32l4xx_hal_uart.c ****     This function allows to reset following callbacks:
 102:D:/iot/felix2/targets/Cloud_STM32L431_BearPi/Drivers/STM32L4xx_HAL_Driver/Src\stm32l4xx_hal_uart.c ****     (+) TxHalfCpltCallback        : Tx Half Complete Callback.
 103:D:/iot/felix2/targets/Cloud_STM32L431_BearPi/Drivers/STM32L4xx_HAL_Driver/Src\stm32l4xx_hal_uart.c ****     (+) TxCpltCallback            : Tx Complete Callback.
 104:D:/iot/felix2/targets/Cloud_STM32L431_BearPi/Drivers/STM32L4xx_HAL_Driver/Src\stm32l4xx_hal_uart.c ****     (+) RxHalfCpltCallback        : Rx Half Complete Callback.
 105:D:/iot/felix2/targets/Cloud_STM32L431_BearPi/Drivers/STM32L4xx_HAL_Driver/Src\stm32l4xx_hal_uart.c ****     (+) RxCpltCallback            : Rx Complete Callback.
 106:D:/iot/felix2/targets/Cloud_STM32L431_BearPi/Drivers/STM32L4xx_HAL_Driver/Src\stm32l4xx_hal_uart.c ****     (+) ErrorCallback             : Error Callback.
 107:D:/iot/felix2/targets/Cloud_STM32L431_BearPi/Drivers/STM32L4xx_HAL_Driver/Src\stm32l4xx_hal_uart.c ****     (+) AbortCpltCallback         : Abort Complete Callback.
 108:D:/iot/felix2/targets/Cloud_STM32L431_BearPi/Drivers/STM32L4xx_HAL_Driver/Src\stm32l4xx_hal_uart.c ****     (+) AbortTransmitCpltCallback : Abort Transmit Complete Callback.
 109:D:/iot/felix2/targets/Cloud_STM32L431_BearPi/Drivers/STM32L4xx_HAL_Driver/Src\stm32l4xx_hal_uart.c ****     (+) AbortReceiveCpltCallback  : Abort Receive Complete Callback.
 110:D:/iot/felix2/targets/Cloud_STM32L431_BearPi/Drivers/STM32L4xx_HAL_Driver/Src\stm32l4xx_hal_uart.c ****     (+) WakeupCallback            : Wakeup Callback.
 111:D:/iot/felix2/targets/Cloud_STM32L431_BearPi/Drivers/STM32L4xx_HAL_Driver/Src\stm32l4xx_hal_uart.c ****     (+) RxFifoFullCallback        : Rx Fifo Full Callback.
 112:D:/iot/felix2/targets/Cloud_STM32L431_BearPi/Drivers/STM32L4xx_HAL_Driver/Src\stm32l4xx_hal_uart.c ****     (+) TxFifoEmptyCallback       : Tx Fifo Empty Callback.
 113:D:/iot/felix2/targets/Cloud_STM32L431_BearPi/Drivers/STM32L4xx_HAL_Driver/Src\stm32l4xx_hal_uart.c ****     (+) MspInitCallback           : UART MspInit.
 114:D:/iot/felix2/targets/Cloud_STM32L431_BearPi/Drivers/STM32L4xx_HAL_Driver/Src\stm32l4xx_hal_uart.c ****     (+) MspDeInitCallback         : UART MspDeInit.
 115:D:/iot/felix2/targets/Cloud_STM32L431_BearPi/Drivers/STM32L4xx_HAL_Driver/Src\stm32l4xx_hal_uart.c **** 
 116:D:/iot/felix2/targets/Cloud_STM32L431_BearPi/Drivers/STM32L4xx_HAL_Driver/Src\stm32l4xx_hal_uart.c ****     [..]
 117:D:/iot/felix2/targets/Cloud_STM32L431_BearPi/Drivers/STM32L4xx_HAL_Driver/Src\stm32l4xx_hal_uart.c ****     By default, after the @ref HAL_UART_Init() and when the state is HAL_UART_STATE_RESET
 118:D:/iot/felix2/targets/Cloud_STM32L431_BearPi/Drivers/STM32L4xx_HAL_Driver/Src\stm32l4xx_hal_uart.c ****     all callbacks are set to the corresponding weak (surcharged) functions:
 119:D:/iot/felix2/targets/Cloud_STM32L431_BearPi/Drivers/STM32L4xx_HAL_Driver/Src\stm32l4xx_hal_uart.c ****     examples @ref HAL_UART_TxCpltCallback(), @ref HAL_UART_RxHalfCpltCallback().
 120:D:/iot/felix2/targets/Cloud_STM32L431_BearPi/Drivers/STM32L4xx_HAL_Driver/Src\stm32l4xx_hal_uart.c ****     Exception done for MspInit and MspDeInit functions that are respectively
 121:D:/iot/felix2/targets/Cloud_STM32L431_BearPi/Drivers/STM32L4xx_HAL_Driver/Src\stm32l4xx_hal_uart.c ****     reset to the legacy weak (surcharged) functions in the @ref HAL_UART_Init()
 122:D:/iot/felix2/targets/Cloud_STM32L431_BearPi/Drivers/STM32L4xx_HAL_Driver/Src\stm32l4xx_hal_uart.c ****     and @ref HAL_UART_DeInit() only when these callbacks are null (not registered beforehand).
 123:D:/iot/felix2/targets/Cloud_STM32L431_BearPi/Drivers/STM32L4xx_HAL_Driver/Src\stm32l4xx_hal_uart.c ****     If not, MspInit or MspDeInit are not null, the @ref HAL_UART_Init() and @ref HAL_UART_DeInit()
 124:D:/iot/felix2/targets/Cloud_STM32L431_BearPi/Drivers/STM32L4xx_HAL_Driver/Src\stm32l4xx_hal_uart.c ****     keep and use the user MspInit/MspDeInit callbacks (registered beforehand).
 125:D:/iot/felix2/targets/Cloud_STM32L431_BearPi/Drivers/STM32L4xx_HAL_Driver/Src\stm32l4xx_hal_uart.c **** 
 126:D:/iot/felix2/targets/Cloud_STM32L431_BearPi/Drivers/STM32L4xx_HAL_Driver/Src\stm32l4xx_hal_uart.c ****     [..]
 127:D:/iot/felix2/targets/Cloud_STM32L431_BearPi/Drivers/STM32L4xx_HAL_Driver/Src\stm32l4xx_hal_uart.c ****     Callbacks can be registered/unregistered in HAL_UART_STATE_READY state only.
 128:D:/iot/felix2/targets/Cloud_STM32L431_BearPi/Drivers/STM32L4xx_HAL_Driver/Src\stm32l4xx_hal_uart.c ****     Exception done MspInit/MspDeInit that can be registered/unregistered
 129:D:/iot/felix2/targets/Cloud_STM32L431_BearPi/Drivers/STM32L4xx_HAL_Driver/Src\stm32l4xx_hal_uart.c ****     in HAL_UART_STATE_READY or HAL_UART_STATE_RESET state, thus registered (user)
 130:D:/iot/felix2/targets/Cloud_STM32L431_BearPi/Drivers/STM32L4xx_HAL_Driver/Src\stm32l4xx_hal_uart.c ****     MspInit/DeInit callbacks can be used during the Init/DeInit.
 131:D:/iot/felix2/targets/Cloud_STM32L431_BearPi/Drivers/STM32L4xx_HAL_Driver/Src\stm32l4xx_hal_uart.c ****     In that case first register the MspInit/MspDeInit user callbacks
 132:D:/iot/felix2/targets/Cloud_STM32L431_BearPi/Drivers/STM32L4xx_HAL_Driver/Src\stm32l4xx_hal_uart.c ****     using @ref HAL_UART_RegisterCallback() before calling @ref HAL_UART_DeInit()
 133:D:/iot/felix2/targets/Cloud_STM32L431_BearPi/Drivers/STM32L4xx_HAL_Driver/Src\stm32l4xx_hal_uart.c ****     or @ref HAL_UART_Init() function.
 134:D:/iot/felix2/targets/Cloud_STM32L431_BearPi/Drivers/STM32L4xx_HAL_Driver/Src\stm32l4xx_hal_uart.c **** 
 135:D:/iot/felix2/targets/Cloud_STM32L431_BearPi/Drivers/STM32L4xx_HAL_Driver/Src\stm32l4xx_hal_uart.c ****     [..]
 136:D:/iot/felix2/targets/Cloud_STM32L431_BearPi/Drivers/STM32L4xx_HAL_Driver/Src\stm32l4xx_hal_uart.c ****     When The compilation define USE_HAL_UART_REGISTER_CALLBACKS is set to 0 or
 137:D:/iot/felix2/targets/Cloud_STM32L431_BearPi/Drivers/STM32L4xx_HAL_Driver/Src\stm32l4xx_hal_uart.c ****     not defined, the callback registration feature is not available
 138:D:/iot/felix2/targets/Cloud_STM32L431_BearPi/Drivers/STM32L4xx_HAL_Driver/Src\stm32l4xx_hal_uart.c ****     and weak (surcharged) callbacks are used.
 139:D:/iot/felix2/targets/Cloud_STM32L431_BearPi/Drivers/STM32L4xx_HAL_Driver/Src\stm32l4xx_hal_uart.c **** 
 140:D:/iot/felix2/targets/Cloud_STM32L431_BearPi/Drivers/STM32L4xx_HAL_Driver/Src\stm32l4xx_hal_uart.c **** 
 141:D:/iot/felix2/targets/Cloud_STM32L431_BearPi/Drivers/STM32L4xx_HAL_Driver/Src\stm32l4xx_hal_uart.c ****   @endverbatim
 142:D:/iot/felix2/targets/Cloud_STM32L431_BearPi/Drivers/STM32L4xx_HAL_Driver/Src\stm32l4xx_hal_uart.c ****   ******************************************************************************
 143:D:/iot/felix2/targets/Cloud_STM32L431_BearPi/Drivers/STM32L4xx_HAL_Driver/Src\stm32l4xx_hal_uart.c ****   * @attention
 144:D:/iot/felix2/targets/Cloud_STM32L431_BearPi/Drivers/STM32L4xx_HAL_Driver/Src\stm32l4xx_hal_uart.c ****   *
 145:D:/iot/felix2/targets/Cloud_STM32L431_BearPi/Drivers/STM32L4xx_HAL_Driver/Src\stm32l4xx_hal_uart.c ****   * <h2><center>&copy; COPYRIGHT(c) 2017 STMicroelectronics</center></h2>
ARM GAS  C:\Users\91458\AppData\Local\Temp\ccrpKNIe.s 			page 4


 146:D:/iot/felix2/targets/Cloud_STM32L431_BearPi/Drivers/STM32L4xx_HAL_Driver/Src\stm32l4xx_hal_uart.c ****   *
 147:D:/iot/felix2/targets/Cloud_STM32L431_BearPi/Drivers/STM32L4xx_HAL_Driver/Src\stm32l4xx_hal_uart.c ****   * Redistribution and use in source and binary forms, with or without modification,
 148:D:/iot/felix2/targets/Cloud_STM32L431_BearPi/Drivers/STM32L4xx_HAL_Driver/Src\stm32l4xx_hal_uart.c ****   * are permitted provided that the following conditions are met:
 149:D:/iot/felix2/targets/Cloud_STM32L431_BearPi/Drivers/STM32L4xx_HAL_Driver/Src\stm32l4xx_hal_uart.c ****   *   1. Redistributions of source code must retain the above copyright notice,
 150:D:/iot/felix2/targets/Cloud_STM32L431_BearPi/Drivers/STM32L4xx_HAL_Driver/Src\stm32l4xx_hal_uart.c ****   *      this list of conditions and the following disclaimer.
 151:D:/iot/felix2/targets/Cloud_STM32L431_BearPi/Drivers/STM32L4xx_HAL_Driver/Src\stm32l4xx_hal_uart.c ****   *   2. Redistributions in binary form must reproduce the above copyright notice,
 152:D:/iot/felix2/targets/Cloud_STM32L431_BearPi/Drivers/STM32L4xx_HAL_Driver/Src\stm32l4xx_hal_uart.c ****   *      this list of conditions and the following disclaimer in the documentation
 153:D:/iot/felix2/targets/Cloud_STM32L431_BearPi/Drivers/STM32L4xx_HAL_Driver/Src\stm32l4xx_hal_uart.c ****   *      and/or other materials provided with the distribution.
 154:D:/iot/felix2/targets/Cloud_STM32L431_BearPi/Drivers/STM32L4xx_HAL_Driver/Src\stm32l4xx_hal_uart.c ****   *   3. Neither the name of STMicroelectronics nor the names of its contributors
 155:D:/iot/felix2/targets/Cloud_STM32L431_BearPi/Drivers/STM32L4xx_HAL_Driver/Src\stm32l4xx_hal_uart.c ****   *      may be used to endorse or promote products derived from this software
 156:D:/iot/felix2/targets/Cloud_STM32L431_BearPi/Drivers/STM32L4xx_HAL_Driver/Src\stm32l4xx_hal_uart.c ****   *      without specific prior written permission.
 157:D:/iot/felix2/targets/Cloud_STM32L431_BearPi/Drivers/STM32L4xx_HAL_Driver/Src\stm32l4xx_hal_uart.c ****   *
 158:D:/iot/felix2/targets/Cloud_STM32L431_BearPi/Drivers/STM32L4xx_HAL_Driver/Src\stm32l4xx_hal_uart.c ****   * THIS SOFTWARE IS PROVIDED BY THE COPYRIGHT HOLDERS AND CONTRIBUTORS "AS IS"
 159:D:/iot/felix2/targets/Cloud_STM32L431_BearPi/Drivers/STM32L4xx_HAL_Driver/Src\stm32l4xx_hal_uart.c ****   * AND ANY EXPRESS OR IMPLIED WARRANTIES, INCLUDING, BUT NOT LIMITED TO, THE
 160:D:/iot/felix2/targets/Cloud_STM32L431_BearPi/Drivers/STM32L4xx_HAL_Driver/Src\stm32l4xx_hal_uart.c ****   * IMPLIED WARRANTIES OF MERCHANTABILITY AND FITNESS FOR A PARTICULAR PURPOSE ARE
 161:D:/iot/felix2/targets/Cloud_STM32L431_BearPi/Drivers/STM32L4xx_HAL_Driver/Src\stm32l4xx_hal_uart.c ****   * DISCLAIMED. IN NO EVENT SHALL THE COPYRIGHT HOLDER OR CONTRIBUTORS BE LIABLE
 162:D:/iot/felix2/targets/Cloud_STM32L431_BearPi/Drivers/STM32L4xx_HAL_Driver/Src\stm32l4xx_hal_uart.c ****   * FOR ANY DIRECT, INDIRECT, INCIDENTAL, SPECIAL, EXEMPLARY, OR CONSEQUENTIAL
 163:D:/iot/felix2/targets/Cloud_STM32L431_BearPi/Drivers/STM32L4xx_HAL_Driver/Src\stm32l4xx_hal_uart.c ****   * DAMAGES (INCLUDING, BUT NOT LIMITED TO, PROCUREMENT OF SUBSTITUTE GOODS OR
 164:D:/iot/felix2/targets/Cloud_STM32L431_BearPi/Drivers/STM32L4xx_HAL_Driver/Src\stm32l4xx_hal_uart.c ****   * SERVICES; LOSS OF USE, DATA, OR PROFITS; OR BUSINESS INTERRUPTION) HOWEVER
 165:D:/iot/felix2/targets/Cloud_STM32L431_BearPi/Drivers/STM32L4xx_HAL_Driver/Src\stm32l4xx_hal_uart.c ****   * CAUSED AND ON ANY THEORY OF LIABILITY, WHETHER IN CONTRACT, STRICT LIABILITY,
 166:D:/iot/felix2/targets/Cloud_STM32L431_BearPi/Drivers/STM32L4xx_HAL_Driver/Src\stm32l4xx_hal_uart.c ****   * OR TORT (INCLUDING NEGLIGENCE OR OTHERWISE) ARISING IN ANY WAY OUT OF THE USE
 167:D:/iot/felix2/targets/Cloud_STM32L431_BearPi/Drivers/STM32L4xx_HAL_Driver/Src\stm32l4xx_hal_uart.c ****   * OF THIS SOFTWARE, EVEN IF ADVISED OF THE POSSIBILITY OF SUCH DAMAGE.
 168:D:/iot/felix2/targets/Cloud_STM32L431_BearPi/Drivers/STM32L4xx_HAL_Driver/Src\stm32l4xx_hal_uart.c ****   *
 169:D:/iot/felix2/targets/Cloud_STM32L431_BearPi/Drivers/STM32L4xx_HAL_Driver/Src\stm32l4xx_hal_uart.c ****   ******************************************************************************
 170:D:/iot/felix2/targets/Cloud_STM32L431_BearPi/Drivers/STM32L4xx_HAL_Driver/Src\stm32l4xx_hal_uart.c ****   */
 171:D:/iot/felix2/targets/Cloud_STM32L431_BearPi/Drivers/STM32L4xx_HAL_Driver/Src\stm32l4xx_hal_uart.c **** 
 172:D:/iot/felix2/targets/Cloud_STM32L431_BearPi/Drivers/STM32L4xx_HAL_Driver/Src\stm32l4xx_hal_uart.c **** /* Includes ------------------------------------------------------------------*/
 173:D:/iot/felix2/targets/Cloud_STM32L431_BearPi/Drivers/STM32L4xx_HAL_Driver/Src\stm32l4xx_hal_uart.c **** #include "stm32l4xx_hal.h"
 174:D:/iot/felix2/targets/Cloud_STM32L431_BearPi/Drivers/STM32L4xx_HAL_Driver/Src\stm32l4xx_hal_uart.c **** 
 175:D:/iot/felix2/targets/Cloud_STM32L431_BearPi/Drivers/STM32L4xx_HAL_Driver/Src\stm32l4xx_hal_uart.c **** /** @addtogroup STM32L4xx_HAL_Driver
 176:D:/iot/felix2/targets/Cloud_STM32L431_BearPi/Drivers/STM32L4xx_HAL_Driver/Src\stm32l4xx_hal_uart.c ****   * @{
 177:D:/iot/felix2/targets/Cloud_STM32L431_BearPi/Drivers/STM32L4xx_HAL_Driver/Src\stm32l4xx_hal_uart.c ****   */
 178:D:/iot/felix2/targets/Cloud_STM32L431_BearPi/Drivers/STM32L4xx_HAL_Driver/Src\stm32l4xx_hal_uart.c **** 
 179:D:/iot/felix2/targets/Cloud_STM32L431_BearPi/Drivers/STM32L4xx_HAL_Driver/Src\stm32l4xx_hal_uart.c **** /** @defgroup UART UART
 180:D:/iot/felix2/targets/Cloud_STM32L431_BearPi/Drivers/STM32L4xx_HAL_Driver/Src\stm32l4xx_hal_uart.c ****   * @brief HAL UART module driver
 181:D:/iot/felix2/targets/Cloud_STM32L431_BearPi/Drivers/STM32L4xx_HAL_Driver/Src\stm32l4xx_hal_uart.c ****   * @{
 182:D:/iot/felix2/targets/Cloud_STM32L431_BearPi/Drivers/STM32L4xx_HAL_Driver/Src\stm32l4xx_hal_uart.c ****   */
 183:D:/iot/felix2/targets/Cloud_STM32L431_BearPi/Drivers/STM32L4xx_HAL_Driver/Src\stm32l4xx_hal_uart.c **** 
 184:D:/iot/felix2/targets/Cloud_STM32L431_BearPi/Drivers/STM32L4xx_HAL_Driver/Src\stm32l4xx_hal_uart.c **** #ifdef HAL_UART_MODULE_ENABLED
 185:D:/iot/felix2/targets/Cloud_STM32L431_BearPi/Drivers/STM32L4xx_HAL_Driver/Src\stm32l4xx_hal_uart.c **** 
 186:D:/iot/felix2/targets/Cloud_STM32L431_BearPi/Drivers/STM32L4xx_HAL_Driver/Src\stm32l4xx_hal_uart.c **** /* Private typedef -----------------------------------------------------------*/
 187:D:/iot/felix2/targets/Cloud_STM32L431_BearPi/Drivers/STM32L4xx_HAL_Driver/Src\stm32l4xx_hal_uart.c **** /* Private define ------------------------------------------------------------*/
 188:D:/iot/felix2/targets/Cloud_STM32L431_BearPi/Drivers/STM32L4xx_HAL_Driver/Src\stm32l4xx_hal_uart.c **** /** @defgroup UART_Private_Constants UART Private Constants
 189:D:/iot/felix2/targets/Cloud_STM32L431_BearPi/Drivers/STM32L4xx_HAL_Driver/Src\stm32l4xx_hal_uart.c ****   * @{
 190:D:/iot/felix2/targets/Cloud_STM32L431_BearPi/Drivers/STM32L4xx_HAL_Driver/Src\stm32l4xx_hal_uart.c ****   */
 191:D:/iot/felix2/targets/Cloud_STM32L431_BearPi/Drivers/STM32L4xx_HAL_Driver/Src\stm32l4xx_hal_uart.c **** #if defined(USART_CR1_FIFOEN)
 192:D:/iot/felix2/targets/Cloud_STM32L431_BearPi/Drivers/STM32L4xx_HAL_Driver/Src\stm32l4xx_hal_uart.c **** #define USART_CR1_FIELDS  ((uint32_t)(USART_CR1_M | USART_CR1_PCE | USART_CR1_PS | \
 193:D:/iot/felix2/targets/Cloud_STM32L431_BearPi/Drivers/STM32L4xx_HAL_Driver/Src\stm32l4xx_hal_uart.c ****                                       USART_CR1_TE | USART_CR1_RE | USART_CR1_OVER8| \
 194:D:/iot/felix2/targets/Cloud_STM32L431_BearPi/Drivers/STM32L4xx_HAL_Driver/Src\stm32l4xx_hal_uart.c ****                                       USART_CR1_FIFOEN ))                      /*!< UART or USART C
 195:D:/iot/felix2/targets/Cloud_STM32L431_BearPi/Drivers/STM32L4xx_HAL_Driver/Src\stm32l4xx_hal_uart.c **** #else
 196:D:/iot/felix2/targets/Cloud_STM32L431_BearPi/Drivers/STM32L4xx_HAL_Driver/Src\stm32l4xx_hal_uart.c **** #define USART_CR1_FIELDS  ((uint32_t)(USART_CR1_M | USART_CR1_PCE | USART_CR1_PS | \
 197:D:/iot/felix2/targets/Cloud_STM32L431_BearPi/Drivers/STM32L4xx_HAL_Driver/Src\stm32l4xx_hal_uart.c ****                                       USART_CR1_TE | USART_CR1_RE | USART_CR1_OVER8 )) /*!< UART or
 198:D:/iot/felix2/targets/Cloud_STM32L431_BearPi/Drivers/STM32L4xx_HAL_Driver/Src\stm32l4xx_hal_uart.c **** #endif
 199:D:/iot/felix2/targets/Cloud_STM32L431_BearPi/Drivers/STM32L4xx_HAL_Driver/Src\stm32l4xx_hal_uart.c **** 
 200:D:/iot/felix2/targets/Cloud_STM32L431_BearPi/Drivers/STM32L4xx_HAL_Driver/Src\stm32l4xx_hal_uart.c **** #if defined(USART_CR1_FIFOEN)
 201:D:/iot/felix2/targets/Cloud_STM32L431_BearPi/Drivers/STM32L4xx_HAL_Driver/Src\stm32l4xx_hal_uart.c **** #define USART_CR3_FIELDS  ((uint32_t)(USART_CR3_RTSE | USART_CR3_CTSE | USART_CR3_ONEBIT| \
 202:D:/iot/felix2/targets/Cloud_STM32L431_BearPi/Drivers/STM32L4xx_HAL_Driver/Src\stm32l4xx_hal_uart.c ****                                       USART_CR3_TXFTCFG | USART_CR3_RXFTCFG ))  /*!< UART or USART 
ARM GAS  C:\Users\91458\AppData\Local\Temp\ccrpKNIe.s 			page 5


 203:D:/iot/felix2/targets/Cloud_STM32L431_BearPi/Drivers/STM32L4xx_HAL_Driver/Src\stm32l4xx_hal_uart.c **** #else
 204:D:/iot/felix2/targets/Cloud_STM32L431_BearPi/Drivers/STM32L4xx_HAL_Driver/Src\stm32l4xx_hal_uart.c **** #define USART_CR3_FIELDS  ((uint32_t)(USART_CR3_RTSE | USART_CR3_CTSE | USART_CR3_ONEBIT))  /*!< UA
 205:D:/iot/felix2/targets/Cloud_STM32L431_BearPi/Drivers/STM32L4xx_HAL_Driver/Src\stm32l4xx_hal_uart.c **** #endif
 206:D:/iot/felix2/targets/Cloud_STM32L431_BearPi/Drivers/STM32L4xx_HAL_Driver/Src\stm32l4xx_hal_uart.c **** 
 207:D:/iot/felix2/targets/Cloud_STM32L431_BearPi/Drivers/STM32L4xx_HAL_Driver/Src\stm32l4xx_hal_uart.c **** #define LPUART_BRR_MIN  0x00000300U  /* LPUART BRR minimum authorized value */
 208:D:/iot/felix2/targets/Cloud_STM32L431_BearPi/Drivers/STM32L4xx_HAL_Driver/Src\stm32l4xx_hal_uart.c **** #define LPUART_BRR_MAX  0x000FFFFFU  /* LPUART BRR maximum authorized value */
 209:D:/iot/felix2/targets/Cloud_STM32L431_BearPi/Drivers/STM32L4xx_HAL_Driver/Src\stm32l4xx_hal_uart.c **** 
 210:D:/iot/felix2/targets/Cloud_STM32L431_BearPi/Drivers/STM32L4xx_HAL_Driver/Src\stm32l4xx_hal_uart.c **** #define UART_BRR_MIN    0x10U        /* UART BRR minimum authorized value */
 211:D:/iot/felix2/targets/Cloud_STM32L431_BearPi/Drivers/STM32L4xx_HAL_Driver/Src\stm32l4xx_hal_uart.c **** #define UART_BRR_MAX    0x0000FFFFU  /* UART BRR maximum authorized value */
 212:D:/iot/felix2/targets/Cloud_STM32L431_BearPi/Drivers/STM32L4xx_HAL_Driver/Src\stm32l4xx_hal_uart.c **** 
 213:D:/iot/felix2/targets/Cloud_STM32L431_BearPi/Drivers/STM32L4xx_HAL_Driver/Src\stm32l4xx_hal_uart.c **** /**
 214:D:/iot/felix2/targets/Cloud_STM32L431_BearPi/Drivers/STM32L4xx_HAL_Driver/Src\stm32l4xx_hal_uart.c ****   * @}
 215:D:/iot/felix2/targets/Cloud_STM32L431_BearPi/Drivers/STM32L4xx_HAL_Driver/Src\stm32l4xx_hal_uart.c ****   */
 216:D:/iot/felix2/targets/Cloud_STM32L431_BearPi/Drivers/STM32L4xx_HAL_Driver/Src\stm32l4xx_hal_uart.c **** 
 217:D:/iot/felix2/targets/Cloud_STM32L431_BearPi/Drivers/STM32L4xx_HAL_Driver/Src\stm32l4xx_hal_uart.c **** /* Private macros ------------------------------------------------------------*/
 218:D:/iot/felix2/targets/Cloud_STM32L431_BearPi/Drivers/STM32L4xx_HAL_Driver/Src\stm32l4xx_hal_uart.c **** /* Private variables ---------------------------------------------------------*/
 219:D:/iot/felix2/targets/Cloud_STM32L431_BearPi/Drivers/STM32L4xx_HAL_Driver/Src\stm32l4xx_hal_uart.c **** /* Private function prototypes -----------------------------------------------*/
 220:D:/iot/felix2/targets/Cloud_STM32L431_BearPi/Drivers/STM32L4xx_HAL_Driver/Src\stm32l4xx_hal_uart.c **** /** @addtogroup UART_Private_Functions
 221:D:/iot/felix2/targets/Cloud_STM32L431_BearPi/Drivers/STM32L4xx_HAL_Driver/Src\stm32l4xx_hal_uart.c ****   * @{
 222:D:/iot/felix2/targets/Cloud_STM32L431_BearPi/Drivers/STM32L4xx_HAL_Driver/Src\stm32l4xx_hal_uart.c ****   */
 223:D:/iot/felix2/targets/Cloud_STM32L431_BearPi/Drivers/STM32L4xx_HAL_Driver/Src\stm32l4xx_hal_uart.c **** #if (USE_HAL_UART_REGISTER_CALLBACKS == 1)
 224:D:/iot/felix2/targets/Cloud_STM32L431_BearPi/Drivers/STM32L4xx_HAL_Driver/Src\stm32l4xx_hal_uart.c **** void UART_InitCallbacksToDefault(UART_HandleTypeDef *huart);
 225:D:/iot/felix2/targets/Cloud_STM32L431_BearPi/Drivers/STM32L4xx_HAL_Driver/Src\stm32l4xx_hal_uart.c **** #endif /* USE_HAL_UART_REGISTER_CALLBACKS */
 226:D:/iot/felix2/targets/Cloud_STM32L431_BearPi/Drivers/STM32L4xx_HAL_Driver/Src\stm32l4xx_hal_uart.c **** static void UART_EndTxTransfer(UART_HandleTypeDef *huart);
 227:D:/iot/felix2/targets/Cloud_STM32L431_BearPi/Drivers/STM32L4xx_HAL_Driver/Src\stm32l4xx_hal_uart.c **** static void UART_EndRxTransfer(UART_HandleTypeDef *huart);
 228:D:/iot/felix2/targets/Cloud_STM32L431_BearPi/Drivers/STM32L4xx_HAL_Driver/Src\stm32l4xx_hal_uart.c **** static void UART_DMATransmitCplt(DMA_HandleTypeDef *hdma);
 229:D:/iot/felix2/targets/Cloud_STM32L431_BearPi/Drivers/STM32L4xx_HAL_Driver/Src\stm32l4xx_hal_uart.c **** static void UART_DMAReceiveCplt(DMA_HandleTypeDef *hdma);
 230:D:/iot/felix2/targets/Cloud_STM32L431_BearPi/Drivers/STM32L4xx_HAL_Driver/Src\stm32l4xx_hal_uart.c **** static void UART_DMARxHalfCplt(DMA_HandleTypeDef *hdma);
 231:D:/iot/felix2/targets/Cloud_STM32L431_BearPi/Drivers/STM32L4xx_HAL_Driver/Src\stm32l4xx_hal_uart.c **** static void UART_DMATxHalfCplt(DMA_HandleTypeDef *hdma);
 232:D:/iot/felix2/targets/Cloud_STM32L431_BearPi/Drivers/STM32L4xx_HAL_Driver/Src\stm32l4xx_hal_uart.c **** static void UART_DMAError(DMA_HandleTypeDef *hdma);
 233:D:/iot/felix2/targets/Cloud_STM32L431_BearPi/Drivers/STM32L4xx_HAL_Driver/Src\stm32l4xx_hal_uart.c **** static void UART_DMAAbortOnError(DMA_HandleTypeDef *hdma);
 234:D:/iot/felix2/targets/Cloud_STM32L431_BearPi/Drivers/STM32L4xx_HAL_Driver/Src\stm32l4xx_hal_uart.c **** static void UART_DMATxAbortCallback(DMA_HandleTypeDef *hdma);
 235:D:/iot/felix2/targets/Cloud_STM32L431_BearPi/Drivers/STM32L4xx_HAL_Driver/Src\stm32l4xx_hal_uart.c **** static void UART_DMARxAbortCallback(DMA_HandleTypeDef *hdma);
 236:D:/iot/felix2/targets/Cloud_STM32L431_BearPi/Drivers/STM32L4xx_HAL_Driver/Src\stm32l4xx_hal_uart.c **** static void UART_DMATxOnlyAbortCallback(DMA_HandleTypeDef *hdma);
 237:D:/iot/felix2/targets/Cloud_STM32L431_BearPi/Drivers/STM32L4xx_HAL_Driver/Src\stm32l4xx_hal_uart.c **** static void UART_DMARxOnlyAbortCallback(DMA_HandleTypeDef *hdma);
 238:D:/iot/felix2/targets/Cloud_STM32L431_BearPi/Drivers/STM32L4xx_HAL_Driver/Src\stm32l4xx_hal_uart.c **** static void UART_TxISR_8BIT(UART_HandleTypeDef *huart);
 239:D:/iot/felix2/targets/Cloud_STM32L431_BearPi/Drivers/STM32L4xx_HAL_Driver/Src\stm32l4xx_hal_uart.c **** static void UART_TxISR_16BIT(UART_HandleTypeDef *huart);
 240:D:/iot/felix2/targets/Cloud_STM32L431_BearPi/Drivers/STM32L4xx_HAL_Driver/Src\stm32l4xx_hal_uart.c **** #if defined(USART_CR1_FIFOEN)
 241:D:/iot/felix2/targets/Cloud_STM32L431_BearPi/Drivers/STM32L4xx_HAL_Driver/Src\stm32l4xx_hal_uart.c **** static void UART_TxISR_8BIT_FIFOEN(UART_HandleTypeDef *huart);
 242:D:/iot/felix2/targets/Cloud_STM32L431_BearPi/Drivers/STM32L4xx_HAL_Driver/Src\stm32l4xx_hal_uart.c **** static void UART_TxISR_16BIT_FIFOEN(UART_HandleTypeDef *huart);
 243:D:/iot/felix2/targets/Cloud_STM32L431_BearPi/Drivers/STM32L4xx_HAL_Driver/Src\stm32l4xx_hal_uart.c **** #endif
 244:D:/iot/felix2/targets/Cloud_STM32L431_BearPi/Drivers/STM32L4xx_HAL_Driver/Src\stm32l4xx_hal_uart.c **** static void UART_EndTransmit_IT(UART_HandleTypeDef *huart);
 245:D:/iot/felix2/targets/Cloud_STM32L431_BearPi/Drivers/STM32L4xx_HAL_Driver/Src\stm32l4xx_hal_uart.c **** static void UART_RxISR_8BIT(UART_HandleTypeDef *huart);
 246:D:/iot/felix2/targets/Cloud_STM32L431_BearPi/Drivers/STM32L4xx_HAL_Driver/Src\stm32l4xx_hal_uart.c **** static void UART_RxISR_16BIT(UART_HandleTypeDef *huart);
 247:D:/iot/felix2/targets/Cloud_STM32L431_BearPi/Drivers/STM32L4xx_HAL_Driver/Src\stm32l4xx_hal_uart.c **** #if defined(USART_CR1_FIFOEN)
 248:D:/iot/felix2/targets/Cloud_STM32L431_BearPi/Drivers/STM32L4xx_HAL_Driver/Src\stm32l4xx_hal_uart.c **** static void UART_RxISR_8BIT_FIFOEN(UART_HandleTypeDef *huart);
 249:D:/iot/felix2/targets/Cloud_STM32L431_BearPi/Drivers/STM32L4xx_HAL_Driver/Src\stm32l4xx_hal_uart.c **** static void UART_RxISR_16BIT_FIFOEN(UART_HandleTypeDef *huart);
 250:D:/iot/felix2/targets/Cloud_STM32L431_BearPi/Drivers/STM32L4xx_HAL_Driver/Src\stm32l4xx_hal_uart.c **** #endif
 251:D:/iot/felix2/targets/Cloud_STM32L431_BearPi/Drivers/STM32L4xx_HAL_Driver/Src\stm32l4xx_hal_uart.c **** /**
 252:D:/iot/felix2/targets/Cloud_STM32L431_BearPi/Drivers/STM32L4xx_HAL_Driver/Src\stm32l4xx_hal_uart.c ****   * @}
 253:D:/iot/felix2/targets/Cloud_STM32L431_BearPi/Drivers/STM32L4xx_HAL_Driver/Src\stm32l4xx_hal_uart.c ****   */
 254:D:/iot/felix2/targets/Cloud_STM32L431_BearPi/Drivers/STM32L4xx_HAL_Driver/Src\stm32l4xx_hal_uart.c **** 
 255:D:/iot/felix2/targets/Cloud_STM32L431_BearPi/Drivers/STM32L4xx_HAL_Driver/Src\stm32l4xx_hal_uart.c **** /* Exported functions --------------------------------------------------------*/
 256:D:/iot/felix2/targets/Cloud_STM32L431_BearPi/Drivers/STM32L4xx_HAL_Driver/Src\stm32l4xx_hal_uart.c **** 
 257:D:/iot/felix2/targets/Cloud_STM32L431_BearPi/Drivers/STM32L4xx_HAL_Driver/Src\stm32l4xx_hal_uart.c **** /** @defgroup UART_Exported_Functions UART Exported Functions
 258:D:/iot/felix2/targets/Cloud_STM32L431_BearPi/Drivers/STM32L4xx_HAL_Driver/Src\stm32l4xx_hal_uart.c ****   * @{
 259:D:/iot/felix2/targets/Cloud_STM32L431_BearPi/Drivers/STM32L4xx_HAL_Driver/Src\stm32l4xx_hal_uart.c ****   */
ARM GAS  C:\Users\91458\AppData\Local\Temp\ccrpKNIe.s 			page 6


 260:D:/iot/felix2/targets/Cloud_STM32L431_BearPi/Drivers/STM32L4xx_HAL_Driver/Src\stm32l4xx_hal_uart.c **** 
 261:D:/iot/felix2/targets/Cloud_STM32L431_BearPi/Drivers/STM32L4xx_HAL_Driver/Src\stm32l4xx_hal_uart.c **** /** @defgroup UART_Exported_Functions_Group1 Initialization and de-initialization functions
 262:D:/iot/felix2/targets/Cloud_STM32L431_BearPi/Drivers/STM32L4xx_HAL_Driver/Src\stm32l4xx_hal_uart.c ****   *  @brief    Initialization and Configuration functions
 263:D:/iot/felix2/targets/Cloud_STM32L431_BearPi/Drivers/STM32L4xx_HAL_Driver/Src\stm32l4xx_hal_uart.c ****   *
 264:D:/iot/felix2/targets/Cloud_STM32L431_BearPi/Drivers/STM32L4xx_HAL_Driver/Src\stm32l4xx_hal_uart.c **** @verbatim
 265:D:/iot/felix2/targets/Cloud_STM32L431_BearPi/Drivers/STM32L4xx_HAL_Driver/Src\stm32l4xx_hal_uart.c **** ===============================================================================
 266:D:/iot/felix2/targets/Cloud_STM32L431_BearPi/Drivers/STM32L4xx_HAL_Driver/Src\stm32l4xx_hal_uart.c ****             ##### Initialization and Configuration functions #####
 267:D:/iot/felix2/targets/Cloud_STM32L431_BearPi/Drivers/STM32L4xx_HAL_Driver/Src\stm32l4xx_hal_uart.c ****  ===============================================================================
 268:D:/iot/felix2/targets/Cloud_STM32L431_BearPi/Drivers/STM32L4xx_HAL_Driver/Src\stm32l4xx_hal_uart.c ****     [..]
 269:D:/iot/felix2/targets/Cloud_STM32L431_BearPi/Drivers/STM32L4xx_HAL_Driver/Src\stm32l4xx_hal_uart.c ****     This subsection provides a set of functions allowing to initialize the USARTx or the UARTy
 270:D:/iot/felix2/targets/Cloud_STM32L431_BearPi/Drivers/STM32L4xx_HAL_Driver/Src\stm32l4xx_hal_uart.c ****     in asynchronous mode.
 271:D:/iot/felix2/targets/Cloud_STM32L431_BearPi/Drivers/STM32L4xx_HAL_Driver/Src\stm32l4xx_hal_uart.c ****       (+) For the asynchronous mode the parameters below can be configured:
 272:D:/iot/felix2/targets/Cloud_STM32L431_BearPi/Drivers/STM32L4xx_HAL_Driver/Src\stm32l4xx_hal_uart.c ****         (++) Baud Rate
 273:D:/iot/felix2/targets/Cloud_STM32L431_BearPi/Drivers/STM32L4xx_HAL_Driver/Src\stm32l4xx_hal_uart.c ****         (++) Word Length
 274:D:/iot/felix2/targets/Cloud_STM32L431_BearPi/Drivers/STM32L4xx_HAL_Driver/Src\stm32l4xx_hal_uart.c ****         (++) Stop Bit
 275:D:/iot/felix2/targets/Cloud_STM32L431_BearPi/Drivers/STM32L4xx_HAL_Driver/Src\stm32l4xx_hal_uart.c ****         (++) Parity: If the parity is enabled, then the MSB bit of the data written
 276:D:/iot/felix2/targets/Cloud_STM32L431_BearPi/Drivers/STM32L4xx_HAL_Driver/Src\stm32l4xx_hal_uart.c ****              in the data register is transmitted but is changed by the parity bit.
 277:D:/iot/felix2/targets/Cloud_STM32L431_BearPi/Drivers/STM32L4xx_HAL_Driver/Src\stm32l4xx_hal_uart.c ****         (++) Hardware flow control
 278:D:/iot/felix2/targets/Cloud_STM32L431_BearPi/Drivers/STM32L4xx_HAL_Driver/Src\stm32l4xx_hal_uart.c ****         (++) Receiver/transmitter modes
 279:D:/iot/felix2/targets/Cloud_STM32L431_BearPi/Drivers/STM32L4xx_HAL_Driver/Src\stm32l4xx_hal_uart.c ****         (++) Over Sampling Method
 280:D:/iot/felix2/targets/Cloud_STM32L431_BearPi/Drivers/STM32L4xx_HAL_Driver/Src\stm32l4xx_hal_uart.c ****         (++) One-Bit Sampling Method
 281:D:/iot/felix2/targets/Cloud_STM32L431_BearPi/Drivers/STM32L4xx_HAL_Driver/Src\stm32l4xx_hal_uart.c ****       (+) For the asynchronous mode, the following advanced features can be configured as well:
 282:D:/iot/felix2/targets/Cloud_STM32L431_BearPi/Drivers/STM32L4xx_HAL_Driver/Src\stm32l4xx_hal_uart.c ****         (++) TX and/or RX pin level inversion
 283:D:/iot/felix2/targets/Cloud_STM32L431_BearPi/Drivers/STM32L4xx_HAL_Driver/Src\stm32l4xx_hal_uart.c ****         (++) data logical level inversion
 284:D:/iot/felix2/targets/Cloud_STM32L431_BearPi/Drivers/STM32L4xx_HAL_Driver/Src\stm32l4xx_hal_uart.c ****         (++) RX and TX pins swap
 285:D:/iot/felix2/targets/Cloud_STM32L431_BearPi/Drivers/STM32L4xx_HAL_Driver/Src\stm32l4xx_hal_uart.c ****         (++) RX overrun detection disabling
 286:D:/iot/felix2/targets/Cloud_STM32L431_BearPi/Drivers/STM32L4xx_HAL_Driver/Src\stm32l4xx_hal_uart.c ****         (++) DMA disabling on RX error
 287:D:/iot/felix2/targets/Cloud_STM32L431_BearPi/Drivers/STM32L4xx_HAL_Driver/Src\stm32l4xx_hal_uart.c ****         (++) MSB first on communication line
 288:D:/iot/felix2/targets/Cloud_STM32L431_BearPi/Drivers/STM32L4xx_HAL_Driver/Src\stm32l4xx_hal_uart.c ****         (++) auto Baud rate detection
 289:D:/iot/felix2/targets/Cloud_STM32L431_BearPi/Drivers/STM32L4xx_HAL_Driver/Src\stm32l4xx_hal_uart.c ****     [..]
 290:D:/iot/felix2/targets/Cloud_STM32L431_BearPi/Drivers/STM32L4xx_HAL_Driver/Src\stm32l4xx_hal_uart.c ****     The HAL_UART_Init(), HAL_HalfDuplex_Init(), HAL_LIN_Init()and HAL_MultiProcessor_Init()API
 291:D:/iot/felix2/targets/Cloud_STM32L431_BearPi/Drivers/STM32L4xx_HAL_Driver/Src\stm32l4xx_hal_uart.c ****     follow respectively the UART asynchronous, UART Half duplex, UART LIN mode
 292:D:/iot/felix2/targets/Cloud_STM32L431_BearPi/Drivers/STM32L4xx_HAL_Driver/Src\stm32l4xx_hal_uart.c ****     and UART multiprocessor mode configuration procedures (details for the procedures
 293:D:/iot/felix2/targets/Cloud_STM32L431_BearPi/Drivers/STM32L4xx_HAL_Driver/Src\stm32l4xx_hal_uart.c ****     are available in reference manual).
 294:D:/iot/felix2/targets/Cloud_STM32L431_BearPi/Drivers/STM32L4xx_HAL_Driver/Src\stm32l4xx_hal_uart.c **** 
 295:D:/iot/felix2/targets/Cloud_STM32L431_BearPi/Drivers/STM32L4xx_HAL_Driver/Src\stm32l4xx_hal_uart.c **** @endverbatim
 296:D:/iot/felix2/targets/Cloud_STM32L431_BearPi/Drivers/STM32L4xx_HAL_Driver/Src\stm32l4xx_hal_uart.c **** 
 297:D:/iot/felix2/targets/Cloud_STM32L431_BearPi/Drivers/STM32L4xx_HAL_Driver/Src\stm32l4xx_hal_uart.c ****   Depending on the frame length defined by the M1 and M0 bits (7-bit,
 298:D:/iot/felix2/targets/Cloud_STM32L431_BearPi/Drivers/STM32L4xx_HAL_Driver/Src\stm32l4xx_hal_uart.c ****   8-bit or 9-bit), the possible UART formats are listed in the
 299:D:/iot/felix2/targets/Cloud_STM32L431_BearPi/Drivers/STM32L4xx_HAL_Driver/Src\stm32l4xx_hal_uart.c ****   following table.
 300:D:/iot/felix2/targets/Cloud_STM32L431_BearPi/Drivers/STM32L4xx_HAL_Driver/Src\stm32l4xx_hal_uart.c **** 
 301:D:/iot/felix2/targets/Cloud_STM32L431_BearPi/Drivers/STM32L4xx_HAL_Driver/Src\stm32l4xx_hal_uart.c ****   Table 1. UART frame format.
 302:D:/iot/felix2/targets/Cloud_STM32L431_BearPi/Drivers/STM32L4xx_HAL_Driver/Src\stm32l4xx_hal_uart.c ****     +-----------------------------------------------------------------------+
 303:D:/iot/felix2/targets/Cloud_STM32L431_BearPi/Drivers/STM32L4xx_HAL_Driver/Src\stm32l4xx_hal_uart.c ****     |  M1 bit |  M0 bit |  PCE bit  |             UART frame                |
 304:D:/iot/felix2/targets/Cloud_STM32L431_BearPi/Drivers/STM32L4xx_HAL_Driver/Src\stm32l4xx_hal_uart.c ****     |---------|---------|-----------|---------------------------------------|
 305:D:/iot/felix2/targets/Cloud_STM32L431_BearPi/Drivers/STM32L4xx_HAL_Driver/Src\stm32l4xx_hal_uart.c ****     |    0    |    0    |    0      |    | SB |    8 bit data   | STB |     |
 306:D:/iot/felix2/targets/Cloud_STM32L431_BearPi/Drivers/STM32L4xx_HAL_Driver/Src\stm32l4xx_hal_uart.c ****     |---------|---------|-----------|---------------------------------------|
 307:D:/iot/felix2/targets/Cloud_STM32L431_BearPi/Drivers/STM32L4xx_HAL_Driver/Src\stm32l4xx_hal_uart.c ****     |    0    |    0    |    1      |    | SB | 7 bit data | PB | STB |     |
 308:D:/iot/felix2/targets/Cloud_STM32L431_BearPi/Drivers/STM32L4xx_HAL_Driver/Src\stm32l4xx_hal_uart.c ****     |---------|---------|-----------|---------------------------------------|
 309:D:/iot/felix2/targets/Cloud_STM32L431_BearPi/Drivers/STM32L4xx_HAL_Driver/Src\stm32l4xx_hal_uart.c ****     |    0    |    1    |    0      |    | SB |    9 bit data   | STB |     |
 310:D:/iot/felix2/targets/Cloud_STM32L431_BearPi/Drivers/STM32L4xx_HAL_Driver/Src\stm32l4xx_hal_uart.c ****     |---------|---------|-----------|---------------------------------------|
 311:D:/iot/felix2/targets/Cloud_STM32L431_BearPi/Drivers/STM32L4xx_HAL_Driver/Src\stm32l4xx_hal_uart.c ****     |    0    |    1    |    1      |    | SB | 8 bit data | PB | STB |     |
 312:D:/iot/felix2/targets/Cloud_STM32L431_BearPi/Drivers/STM32L4xx_HAL_Driver/Src\stm32l4xx_hal_uart.c ****     |---------|---------|-----------|---------------------------------------|
 313:D:/iot/felix2/targets/Cloud_STM32L431_BearPi/Drivers/STM32L4xx_HAL_Driver/Src\stm32l4xx_hal_uart.c ****     |    1    |    0    |    0      |    | SB |    7 bit data   | STB |     |
 314:D:/iot/felix2/targets/Cloud_STM32L431_BearPi/Drivers/STM32L4xx_HAL_Driver/Src\stm32l4xx_hal_uart.c ****     |---------|---------|-----------|---------------------------------------|
 315:D:/iot/felix2/targets/Cloud_STM32L431_BearPi/Drivers/STM32L4xx_HAL_Driver/Src\stm32l4xx_hal_uart.c ****     |    1    |    0    |    1      |    | SB | 6 bit data | PB | STB |     |
 316:D:/iot/felix2/targets/Cloud_STM32L431_BearPi/Drivers/STM32L4xx_HAL_Driver/Src\stm32l4xx_hal_uart.c ****     +-----------------------------------------------------------------------+
ARM GAS  C:\Users\91458\AppData\Local\Temp\ccrpKNIe.s 			page 7


 317:D:/iot/felix2/targets/Cloud_STM32L431_BearPi/Drivers/STM32L4xx_HAL_Driver/Src\stm32l4xx_hal_uart.c **** 
 318:D:/iot/felix2/targets/Cloud_STM32L431_BearPi/Drivers/STM32L4xx_HAL_Driver/Src\stm32l4xx_hal_uart.c ****   * @{
 319:D:/iot/felix2/targets/Cloud_STM32L431_BearPi/Drivers/STM32L4xx_HAL_Driver/Src\stm32l4xx_hal_uart.c ****   */
 320:D:/iot/felix2/targets/Cloud_STM32L431_BearPi/Drivers/STM32L4xx_HAL_Driver/Src\stm32l4xx_hal_uart.c **** 
 321:D:/iot/felix2/targets/Cloud_STM32L431_BearPi/Drivers/STM32L4xx_HAL_Driver/Src\stm32l4xx_hal_uart.c **** /**
 322:D:/iot/felix2/targets/Cloud_STM32L431_BearPi/Drivers/STM32L4xx_HAL_Driver/Src\stm32l4xx_hal_uart.c ****   * @brief Initialize the UART mode according to the specified
 323:D:/iot/felix2/targets/Cloud_STM32L431_BearPi/Drivers/STM32L4xx_HAL_Driver/Src\stm32l4xx_hal_uart.c ****   *        parameters in the UART_InitTypeDef and initialize the associated handle.
 324:D:/iot/felix2/targets/Cloud_STM32L431_BearPi/Drivers/STM32L4xx_HAL_Driver/Src\stm32l4xx_hal_uart.c ****   * @param huart UART handle.
 325:D:/iot/felix2/targets/Cloud_STM32L431_BearPi/Drivers/STM32L4xx_HAL_Driver/Src\stm32l4xx_hal_uart.c ****   * @retval HAL status
 326:D:/iot/felix2/targets/Cloud_STM32L431_BearPi/Drivers/STM32L4xx_HAL_Driver/Src\stm32l4xx_hal_uart.c ****   */
 327:D:/iot/felix2/targets/Cloud_STM32L431_BearPi/Drivers/STM32L4xx_HAL_Driver/Src\stm32l4xx_hal_uart.c **** HAL_StatusTypeDef HAL_UART_Init(UART_HandleTypeDef *huart)
 328:D:/iot/felix2/targets/Cloud_STM32L431_BearPi/Drivers/STM32L4xx_HAL_Driver/Src\stm32l4xx_hal_uart.c **** {
  28              		.loc 1 328 0
  29              		.cfi_startproc
  30              		@ args = 0, pretend = 0, frame = 8
  31              		@ frame_needed = 1, uses_anonymous_args = 0
  32 0000 80B5     		push	{r7, lr}
  33              	.LCFI0:
  34              		.cfi_def_cfa_offset 8
  35              		.cfi_offset 7, -8
  36              		.cfi_offset 14, -4
  37 0002 82B0     		sub	sp, sp, #8
  38              	.LCFI1:
  39              		.cfi_def_cfa_offset 16
  40 0004 00AF     		add	r7, sp, #0
  41              	.LCFI2:
  42              		.cfi_def_cfa_register 7
  43 0006 7860     		str	r0, [r7, #4]
 329:D:/iot/felix2/targets/Cloud_STM32L431_BearPi/Drivers/STM32L4xx_HAL_Driver/Src\stm32l4xx_hal_uart.c ****   /* Check the UART handle allocation */
 330:D:/iot/felix2/targets/Cloud_STM32L431_BearPi/Drivers/STM32L4xx_HAL_Driver/Src\stm32l4xx_hal_uart.c ****   if (huart == NULL)
  44              		.loc 1 330 0
  45 0008 7B68     		ldr	r3, [r7, #4]
  46 000a 002B     		cmp	r3, #0
  47 000c 01D1     		bne	.L2
 331:D:/iot/felix2/targets/Cloud_STM32L431_BearPi/Drivers/STM32L4xx_HAL_Driver/Src\stm32l4xx_hal_uart.c ****   {
 332:D:/iot/felix2/targets/Cloud_STM32L431_BearPi/Drivers/STM32L4xx_HAL_Driver/Src\stm32l4xx_hal_uart.c ****     return HAL_ERROR;
  48              		.loc 1 332 0
  49 000e 0123     		movs	r3, #1
  50 0010 43E0     		b	.L3
  51              	.L2:
 333:D:/iot/felix2/targets/Cloud_STM32L431_BearPi/Drivers/STM32L4xx_HAL_Driver/Src\stm32l4xx_hal_uart.c ****   }
 334:D:/iot/felix2/targets/Cloud_STM32L431_BearPi/Drivers/STM32L4xx_HAL_Driver/Src\stm32l4xx_hal_uart.c **** 
 335:D:/iot/felix2/targets/Cloud_STM32L431_BearPi/Drivers/STM32L4xx_HAL_Driver/Src\stm32l4xx_hal_uart.c ****   if (huart->Init.HwFlowCtl != UART_HWCONTROL_NONE)
 336:D:/iot/felix2/targets/Cloud_STM32L431_BearPi/Drivers/STM32L4xx_HAL_Driver/Src\stm32l4xx_hal_uart.c ****   {
 337:D:/iot/felix2/targets/Cloud_STM32L431_BearPi/Drivers/STM32L4xx_HAL_Driver/Src\stm32l4xx_hal_uart.c ****     /* Check the parameters */
 338:D:/iot/felix2/targets/Cloud_STM32L431_BearPi/Drivers/STM32L4xx_HAL_Driver/Src\stm32l4xx_hal_uart.c ****     assert_param(IS_UART_HWFLOW_INSTANCE(huart->Instance));
 339:D:/iot/felix2/targets/Cloud_STM32L431_BearPi/Drivers/STM32L4xx_HAL_Driver/Src\stm32l4xx_hal_uart.c ****   }
 340:D:/iot/felix2/targets/Cloud_STM32L431_BearPi/Drivers/STM32L4xx_HAL_Driver/Src\stm32l4xx_hal_uart.c ****   else
 341:D:/iot/felix2/targets/Cloud_STM32L431_BearPi/Drivers/STM32L4xx_HAL_Driver/Src\stm32l4xx_hal_uart.c ****   {
 342:D:/iot/felix2/targets/Cloud_STM32L431_BearPi/Drivers/STM32L4xx_HAL_Driver/Src\stm32l4xx_hal_uart.c ****     /* Check the parameters */
 343:D:/iot/felix2/targets/Cloud_STM32L431_BearPi/Drivers/STM32L4xx_HAL_Driver/Src\stm32l4xx_hal_uart.c ****     assert_param((IS_UART_INSTANCE(huart->Instance)) || (IS_LPUART_INSTANCE(huart->Instance)));
 344:D:/iot/felix2/targets/Cloud_STM32L431_BearPi/Drivers/STM32L4xx_HAL_Driver/Src\stm32l4xx_hal_uart.c ****   }
 345:D:/iot/felix2/targets/Cloud_STM32L431_BearPi/Drivers/STM32L4xx_HAL_Driver/Src\stm32l4xx_hal_uart.c **** 
 346:D:/iot/felix2/targets/Cloud_STM32L431_BearPi/Drivers/STM32L4xx_HAL_Driver/Src\stm32l4xx_hal_uart.c ****   if (huart->gState == HAL_UART_STATE_RESET)
  52              		.loc 1 346 0
  53 0012 7B68     		ldr	r3, [r7, #4]
  54 0014 93F87130 		ldrb	r3, [r3, #113]
ARM GAS  C:\Users\91458\AppData\Local\Temp\ccrpKNIe.s 			page 8


  55 0018 DBB2     		uxtb	r3, r3
  56 001a 002B     		cmp	r3, #0
  57 001c 06D1     		bne	.L4
 347:D:/iot/felix2/targets/Cloud_STM32L431_BearPi/Drivers/STM32L4xx_HAL_Driver/Src\stm32l4xx_hal_uart.c ****   {
 348:D:/iot/felix2/targets/Cloud_STM32L431_BearPi/Drivers/STM32L4xx_HAL_Driver/Src\stm32l4xx_hal_uart.c ****     /* Allocate lock resource and initialize it */
 349:D:/iot/felix2/targets/Cloud_STM32L431_BearPi/Drivers/STM32L4xx_HAL_Driver/Src\stm32l4xx_hal_uart.c ****     huart->Lock = HAL_UNLOCKED;
  58              		.loc 1 349 0
  59 001e 7B68     		ldr	r3, [r7, #4]
  60 0020 0022     		movs	r2, #0
  61 0022 83F87020 		strb	r2, [r3, #112]
 350:D:/iot/felix2/targets/Cloud_STM32L431_BearPi/Drivers/STM32L4xx_HAL_Driver/Src\stm32l4xx_hal_uart.c **** 
 351:D:/iot/felix2/targets/Cloud_STM32L431_BearPi/Drivers/STM32L4xx_HAL_Driver/Src\stm32l4xx_hal_uart.c **** #if (USE_HAL_UART_REGISTER_CALLBACKS == 1)
 352:D:/iot/felix2/targets/Cloud_STM32L431_BearPi/Drivers/STM32L4xx_HAL_Driver/Src\stm32l4xx_hal_uart.c ****     UART_InitCallbacksToDefault(huart);
 353:D:/iot/felix2/targets/Cloud_STM32L431_BearPi/Drivers/STM32L4xx_HAL_Driver/Src\stm32l4xx_hal_uart.c **** 
 354:D:/iot/felix2/targets/Cloud_STM32L431_BearPi/Drivers/STM32L4xx_HAL_Driver/Src\stm32l4xx_hal_uart.c ****     if (huart->MspInitCallback == NULL)
 355:D:/iot/felix2/targets/Cloud_STM32L431_BearPi/Drivers/STM32L4xx_HAL_Driver/Src\stm32l4xx_hal_uart.c ****     {
 356:D:/iot/felix2/targets/Cloud_STM32L431_BearPi/Drivers/STM32L4xx_HAL_Driver/Src\stm32l4xx_hal_uart.c ****       huart->MspInitCallback = HAL_UART_MspInit;
 357:D:/iot/felix2/targets/Cloud_STM32L431_BearPi/Drivers/STM32L4xx_HAL_Driver/Src\stm32l4xx_hal_uart.c ****     }
 358:D:/iot/felix2/targets/Cloud_STM32L431_BearPi/Drivers/STM32L4xx_HAL_Driver/Src\stm32l4xx_hal_uart.c **** 
 359:D:/iot/felix2/targets/Cloud_STM32L431_BearPi/Drivers/STM32L4xx_HAL_Driver/Src\stm32l4xx_hal_uart.c ****     /* Init the low level hardware */
 360:D:/iot/felix2/targets/Cloud_STM32L431_BearPi/Drivers/STM32L4xx_HAL_Driver/Src\stm32l4xx_hal_uart.c ****     huart->MspInitCallback(huart);
 361:D:/iot/felix2/targets/Cloud_STM32L431_BearPi/Drivers/STM32L4xx_HAL_Driver/Src\stm32l4xx_hal_uart.c **** #else
 362:D:/iot/felix2/targets/Cloud_STM32L431_BearPi/Drivers/STM32L4xx_HAL_Driver/Src\stm32l4xx_hal_uart.c ****     /* Init the low level hardware : GPIO, CLOCK */
 363:D:/iot/felix2/targets/Cloud_STM32L431_BearPi/Drivers/STM32L4xx_HAL_Driver/Src\stm32l4xx_hal_uart.c ****     HAL_UART_MspInit(huart);
  62              		.loc 1 363 0
  63 0026 7868     		ldr	r0, [r7, #4]
  64 0028 FFF7FEFF 		bl	HAL_UART_MspInit
  65              	.L4:
 364:D:/iot/felix2/targets/Cloud_STM32L431_BearPi/Drivers/STM32L4xx_HAL_Driver/Src\stm32l4xx_hal_uart.c **** #endif /* (USE_HAL_UART_REGISTER_CALLBACKS) */
 365:D:/iot/felix2/targets/Cloud_STM32L431_BearPi/Drivers/STM32L4xx_HAL_Driver/Src\stm32l4xx_hal_uart.c ****   }
 366:D:/iot/felix2/targets/Cloud_STM32L431_BearPi/Drivers/STM32L4xx_HAL_Driver/Src\stm32l4xx_hal_uart.c **** 
 367:D:/iot/felix2/targets/Cloud_STM32L431_BearPi/Drivers/STM32L4xx_HAL_Driver/Src\stm32l4xx_hal_uart.c ****   huart->gState = HAL_UART_STATE_BUSY;
  66              		.loc 1 367 0
  67 002c 7B68     		ldr	r3, [r7, #4]
  68 002e 2422     		movs	r2, #36
  69 0030 83F87120 		strb	r2, [r3, #113]
 368:D:/iot/felix2/targets/Cloud_STM32L431_BearPi/Drivers/STM32L4xx_HAL_Driver/Src\stm32l4xx_hal_uart.c **** 
 369:D:/iot/felix2/targets/Cloud_STM32L431_BearPi/Drivers/STM32L4xx_HAL_Driver/Src\stm32l4xx_hal_uart.c ****   /* Disable the Peripheral */
 370:D:/iot/felix2/targets/Cloud_STM32L431_BearPi/Drivers/STM32L4xx_HAL_Driver/Src\stm32l4xx_hal_uart.c ****   __HAL_UART_DISABLE(huart);
  70              		.loc 1 370 0
  71 0034 7B68     		ldr	r3, [r7, #4]
  72 0036 1B68     		ldr	r3, [r3]
  73 0038 1A68     		ldr	r2, [r3]
  74 003a 7B68     		ldr	r3, [r7, #4]
  75 003c 1B68     		ldr	r3, [r3]
  76 003e 22F00102 		bic	r2, r2, #1
  77 0042 1A60     		str	r2, [r3]
 371:D:/iot/felix2/targets/Cloud_STM32L431_BearPi/Drivers/STM32L4xx_HAL_Driver/Src\stm32l4xx_hal_uart.c **** 
 372:D:/iot/felix2/targets/Cloud_STM32L431_BearPi/Drivers/STM32L4xx_HAL_Driver/Src\stm32l4xx_hal_uart.c ****   /* Set the UART Communication parameters */
 373:D:/iot/felix2/targets/Cloud_STM32L431_BearPi/Drivers/STM32L4xx_HAL_Driver/Src\stm32l4xx_hal_uart.c ****   if (UART_SetConfig(huart) == HAL_ERROR)
  78              		.loc 1 373 0
  79 0044 7868     		ldr	r0, [r7, #4]
  80 0046 FFF7FEFF 		bl	UART_SetConfig
  81 004a 0346     		mov	r3, r0
  82 004c 012B     		cmp	r3, #1
  83 004e 01D1     		bne	.L5
 374:D:/iot/felix2/targets/Cloud_STM32L431_BearPi/Drivers/STM32L4xx_HAL_Driver/Src\stm32l4xx_hal_uart.c ****   {
ARM GAS  C:\Users\91458\AppData\Local\Temp\ccrpKNIe.s 			page 9


 375:D:/iot/felix2/targets/Cloud_STM32L431_BearPi/Drivers/STM32L4xx_HAL_Driver/Src\stm32l4xx_hal_uart.c ****     return HAL_ERROR;
  84              		.loc 1 375 0
  85 0050 0123     		movs	r3, #1
  86 0052 22E0     		b	.L3
  87              	.L5:
 376:D:/iot/felix2/targets/Cloud_STM32L431_BearPi/Drivers/STM32L4xx_HAL_Driver/Src\stm32l4xx_hal_uart.c ****   }
 377:D:/iot/felix2/targets/Cloud_STM32L431_BearPi/Drivers/STM32L4xx_HAL_Driver/Src\stm32l4xx_hal_uart.c **** 
 378:D:/iot/felix2/targets/Cloud_STM32L431_BearPi/Drivers/STM32L4xx_HAL_Driver/Src\stm32l4xx_hal_uart.c ****   if (huart->AdvancedInit.AdvFeatureInit != UART_ADVFEATURE_NO_INIT)
  88              		.loc 1 378 0
  89 0054 7B68     		ldr	r3, [r7, #4]
  90 0056 5B6A     		ldr	r3, [r3, #36]
  91 0058 002B     		cmp	r3, #0
  92 005a 02D0     		beq	.L6
 379:D:/iot/felix2/targets/Cloud_STM32L431_BearPi/Drivers/STM32L4xx_HAL_Driver/Src\stm32l4xx_hal_uart.c ****   {
 380:D:/iot/felix2/targets/Cloud_STM32L431_BearPi/Drivers/STM32L4xx_HAL_Driver/Src\stm32l4xx_hal_uart.c ****     UART_AdvFeatureConfig(huart);
  93              		.loc 1 380 0
  94 005c 7868     		ldr	r0, [r7, #4]
  95 005e FFF7FEFF 		bl	UART_AdvFeatureConfig
  96              	.L6:
 381:D:/iot/felix2/targets/Cloud_STM32L431_BearPi/Drivers/STM32L4xx_HAL_Driver/Src\stm32l4xx_hal_uart.c ****   }
 382:D:/iot/felix2/targets/Cloud_STM32L431_BearPi/Drivers/STM32L4xx_HAL_Driver/Src\stm32l4xx_hal_uart.c **** 
 383:D:/iot/felix2/targets/Cloud_STM32L431_BearPi/Drivers/STM32L4xx_HAL_Driver/Src\stm32l4xx_hal_uart.c ****   /* In asynchronous mode, the following bits must be kept cleared:
 384:D:/iot/felix2/targets/Cloud_STM32L431_BearPi/Drivers/STM32L4xx_HAL_Driver/Src\stm32l4xx_hal_uart.c ****   - LINEN and CLKEN bits in the USART_CR2 register,
 385:D:/iot/felix2/targets/Cloud_STM32L431_BearPi/Drivers/STM32L4xx_HAL_Driver/Src\stm32l4xx_hal_uart.c ****   - SCEN, HDSEL and IREN  bits in the USART_CR3 register.*/
 386:D:/iot/felix2/targets/Cloud_STM32L431_BearPi/Drivers/STM32L4xx_HAL_Driver/Src\stm32l4xx_hal_uart.c ****   CLEAR_BIT(huart->Instance->CR2, (USART_CR2_LINEN | USART_CR2_CLKEN));
  97              		.loc 1 386 0
  98 0062 7B68     		ldr	r3, [r7, #4]
  99 0064 1B68     		ldr	r3, [r3]
 100 0066 5A68     		ldr	r2, [r3, #4]
 101 0068 7B68     		ldr	r3, [r7, #4]
 102 006a 1B68     		ldr	r3, [r3]
 103 006c 22F49042 		bic	r2, r2, #18432
 104 0070 5A60     		str	r2, [r3, #4]
 387:D:/iot/felix2/targets/Cloud_STM32L431_BearPi/Drivers/STM32L4xx_HAL_Driver/Src\stm32l4xx_hal_uart.c ****   CLEAR_BIT(huart->Instance->CR3, (USART_CR3_SCEN | USART_CR3_HDSEL | USART_CR3_IREN));
 105              		.loc 1 387 0
 106 0072 7B68     		ldr	r3, [r7, #4]
 107 0074 1B68     		ldr	r3, [r3]
 108 0076 9A68     		ldr	r2, [r3, #8]
 109 0078 7B68     		ldr	r3, [r7, #4]
 110 007a 1B68     		ldr	r3, [r3]
 111 007c 22F02A02 		bic	r2, r2, #42
 112 0080 9A60     		str	r2, [r3, #8]
 388:D:/iot/felix2/targets/Cloud_STM32L431_BearPi/Drivers/STM32L4xx_HAL_Driver/Src\stm32l4xx_hal_uart.c **** 
 389:D:/iot/felix2/targets/Cloud_STM32L431_BearPi/Drivers/STM32L4xx_HAL_Driver/Src\stm32l4xx_hal_uart.c ****   /* Enable the Peripheral */
 390:D:/iot/felix2/targets/Cloud_STM32L431_BearPi/Drivers/STM32L4xx_HAL_Driver/Src\stm32l4xx_hal_uart.c ****   __HAL_UART_ENABLE(huart);
 113              		.loc 1 390 0
 114 0082 7B68     		ldr	r3, [r7, #4]
 115 0084 1B68     		ldr	r3, [r3]
 116 0086 1A68     		ldr	r2, [r3]
 117 0088 7B68     		ldr	r3, [r7, #4]
 118 008a 1B68     		ldr	r3, [r3]
 119 008c 42F00102 		orr	r2, r2, #1
 120 0090 1A60     		str	r2, [r3]
 391:D:/iot/felix2/targets/Cloud_STM32L431_BearPi/Drivers/STM32L4xx_HAL_Driver/Src\stm32l4xx_hal_uart.c **** 
 392:D:/iot/felix2/targets/Cloud_STM32L431_BearPi/Drivers/STM32L4xx_HAL_Driver/Src\stm32l4xx_hal_uart.c ****   /* TEACK and/or REACK to check before moving huart->gState and huart->RxState to Ready */
 393:D:/iot/felix2/targets/Cloud_STM32L431_BearPi/Drivers/STM32L4xx_HAL_Driver/Src\stm32l4xx_hal_uart.c ****   return (UART_CheckIdleState(huart));
 121              		.loc 1 393 0
ARM GAS  C:\Users\91458\AppData\Local\Temp\ccrpKNIe.s 			page 10


 122 0092 7868     		ldr	r0, [r7, #4]
 123 0094 FFF7FEFF 		bl	UART_CheckIdleState
 124 0098 0346     		mov	r3, r0
 125              	.L3:
 394:D:/iot/felix2/targets/Cloud_STM32L431_BearPi/Drivers/STM32L4xx_HAL_Driver/Src\stm32l4xx_hal_uart.c **** }
 126              		.loc 1 394 0
 127 009a 1846     		mov	r0, r3
 128 009c 0837     		adds	r7, r7, #8
 129              	.LCFI3:
 130              		.cfi_def_cfa_offset 8
 131 009e BD46     		mov	sp, r7
 132              	.LCFI4:
 133              		.cfi_def_cfa_register 13
 134              		@ sp needed
 135 00a0 80BD     		pop	{r7, pc}
 136              		.cfi_endproc
 137              	.LFE133:
 139              		.section	.text.HAL_HalfDuplex_Init,"ax",%progbits
 140              		.align	1
 141              		.global	HAL_HalfDuplex_Init
 142              		.syntax unified
 143              		.thumb
 144              		.thumb_func
 145              		.fpu fpv4-sp-d16
 147              	HAL_HalfDuplex_Init:
 148              	.LFB134:
 395:D:/iot/felix2/targets/Cloud_STM32L431_BearPi/Drivers/STM32L4xx_HAL_Driver/Src\stm32l4xx_hal_uart.c **** 
 396:D:/iot/felix2/targets/Cloud_STM32L431_BearPi/Drivers/STM32L4xx_HAL_Driver/Src\stm32l4xx_hal_uart.c **** /**
 397:D:/iot/felix2/targets/Cloud_STM32L431_BearPi/Drivers/STM32L4xx_HAL_Driver/Src\stm32l4xx_hal_uart.c ****   * @brief Initialize the half-duplex mode according to the specified
 398:D:/iot/felix2/targets/Cloud_STM32L431_BearPi/Drivers/STM32L4xx_HAL_Driver/Src\stm32l4xx_hal_uart.c ****   *        parameters in the UART_InitTypeDef and creates the associated handle.
 399:D:/iot/felix2/targets/Cloud_STM32L431_BearPi/Drivers/STM32L4xx_HAL_Driver/Src\stm32l4xx_hal_uart.c ****   * @param huart UART handle.
 400:D:/iot/felix2/targets/Cloud_STM32L431_BearPi/Drivers/STM32L4xx_HAL_Driver/Src\stm32l4xx_hal_uart.c ****   * @retval HAL status
 401:D:/iot/felix2/targets/Cloud_STM32L431_BearPi/Drivers/STM32L4xx_HAL_Driver/Src\stm32l4xx_hal_uart.c ****   */
 402:D:/iot/felix2/targets/Cloud_STM32L431_BearPi/Drivers/STM32L4xx_HAL_Driver/Src\stm32l4xx_hal_uart.c **** HAL_StatusTypeDef HAL_HalfDuplex_Init(UART_HandleTypeDef *huart)
 403:D:/iot/felix2/targets/Cloud_STM32L431_BearPi/Drivers/STM32L4xx_HAL_Driver/Src\stm32l4xx_hal_uart.c **** {
 149              		.loc 1 403 0
 150              		.cfi_startproc
 151              		@ args = 0, pretend = 0, frame = 8
 152              		@ frame_needed = 1, uses_anonymous_args = 0
 153 0000 80B5     		push	{r7, lr}
 154              	.LCFI5:
 155              		.cfi_def_cfa_offset 8
 156              		.cfi_offset 7, -8
 157              		.cfi_offset 14, -4
 158 0002 82B0     		sub	sp, sp, #8
 159              	.LCFI6:
 160              		.cfi_def_cfa_offset 16
 161 0004 00AF     		add	r7, sp, #0
 162              	.LCFI7:
 163              		.cfi_def_cfa_register 7
 164 0006 7860     		str	r0, [r7, #4]
 404:D:/iot/felix2/targets/Cloud_STM32L431_BearPi/Drivers/STM32L4xx_HAL_Driver/Src\stm32l4xx_hal_uart.c ****   /* Check the UART handle allocation */
 405:D:/iot/felix2/targets/Cloud_STM32L431_BearPi/Drivers/STM32L4xx_HAL_Driver/Src\stm32l4xx_hal_uart.c ****   if (huart == NULL)
 165              		.loc 1 405 0
 166 0008 7B68     		ldr	r3, [r7, #4]
 167 000a 002B     		cmp	r3, #0
 168 000c 01D1     		bne	.L8
ARM GAS  C:\Users\91458\AppData\Local\Temp\ccrpKNIe.s 			page 11


 406:D:/iot/felix2/targets/Cloud_STM32L431_BearPi/Drivers/STM32L4xx_HAL_Driver/Src\stm32l4xx_hal_uart.c ****   {
 407:D:/iot/felix2/targets/Cloud_STM32L431_BearPi/Drivers/STM32L4xx_HAL_Driver/Src\stm32l4xx_hal_uart.c ****     return HAL_ERROR;
 169              		.loc 1 407 0
 170 000e 0123     		movs	r3, #1
 171 0010 4BE0     		b	.L9
 172              	.L8:
 408:D:/iot/felix2/targets/Cloud_STM32L431_BearPi/Drivers/STM32L4xx_HAL_Driver/Src\stm32l4xx_hal_uart.c ****   }
 409:D:/iot/felix2/targets/Cloud_STM32L431_BearPi/Drivers/STM32L4xx_HAL_Driver/Src\stm32l4xx_hal_uart.c **** 
 410:D:/iot/felix2/targets/Cloud_STM32L431_BearPi/Drivers/STM32L4xx_HAL_Driver/Src\stm32l4xx_hal_uart.c ****   /* Check UART instance */
 411:D:/iot/felix2/targets/Cloud_STM32L431_BearPi/Drivers/STM32L4xx_HAL_Driver/Src\stm32l4xx_hal_uart.c ****   assert_param(IS_UART_HALFDUPLEX_INSTANCE(huart->Instance));
 412:D:/iot/felix2/targets/Cloud_STM32L431_BearPi/Drivers/STM32L4xx_HAL_Driver/Src\stm32l4xx_hal_uart.c **** 
 413:D:/iot/felix2/targets/Cloud_STM32L431_BearPi/Drivers/STM32L4xx_HAL_Driver/Src\stm32l4xx_hal_uart.c ****   if (huart->gState == HAL_UART_STATE_RESET)
 173              		.loc 1 413 0
 174 0012 7B68     		ldr	r3, [r7, #4]
 175 0014 93F87130 		ldrb	r3, [r3, #113]
 176 0018 DBB2     		uxtb	r3, r3
 177 001a 002B     		cmp	r3, #0
 178 001c 06D1     		bne	.L10
 414:D:/iot/felix2/targets/Cloud_STM32L431_BearPi/Drivers/STM32L4xx_HAL_Driver/Src\stm32l4xx_hal_uart.c ****   {
 415:D:/iot/felix2/targets/Cloud_STM32L431_BearPi/Drivers/STM32L4xx_HAL_Driver/Src\stm32l4xx_hal_uart.c ****     /* Allocate lock resource and initialize it */
 416:D:/iot/felix2/targets/Cloud_STM32L431_BearPi/Drivers/STM32L4xx_HAL_Driver/Src\stm32l4xx_hal_uart.c ****     huart->Lock = HAL_UNLOCKED;
 179              		.loc 1 416 0
 180 001e 7B68     		ldr	r3, [r7, #4]
 181 0020 0022     		movs	r2, #0
 182 0022 83F87020 		strb	r2, [r3, #112]
 417:D:/iot/felix2/targets/Cloud_STM32L431_BearPi/Drivers/STM32L4xx_HAL_Driver/Src\stm32l4xx_hal_uart.c **** 
 418:D:/iot/felix2/targets/Cloud_STM32L431_BearPi/Drivers/STM32L4xx_HAL_Driver/Src\stm32l4xx_hal_uart.c **** #if (USE_HAL_UART_REGISTER_CALLBACKS == 1)
 419:D:/iot/felix2/targets/Cloud_STM32L431_BearPi/Drivers/STM32L4xx_HAL_Driver/Src\stm32l4xx_hal_uart.c ****     UART_InitCallbacksToDefault(huart);
 420:D:/iot/felix2/targets/Cloud_STM32L431_BearPi/Drivers/STM32L4xx_HAL_Driver/Src\stm32l4xx_hal_uart.c **** 
 421:D:/iot/felix2/targets/Cloud_STM32L431_BearPi/Drivers/STM32L4xx_HAL_Driver/Src\stm32l4xx_hal_uart.c ****     if (huart->MspInitCallback == NULL)
 422:D:/iot/felix2/targets/Cloud_STM32L431_BearPi/Drivers/STM32L4xx_HAL_Driver/Src\stm32l4xx_hal_uart.c ****     {
 423:D:/iot/felix2/targets/Cloud_STM32L431_BearPi/Drivers/STM32L4xx_HAL_Driver/Src\stm32l4xx_hal_uart.c ****       huart->MspInitCallback = HAL_UART_MspInit;
 424:D:/iot/felix2/targets/Cloud_STM32L431_BearPi/Drivers/STM32L4xx_HAL_Driver/Src\stm32l4xx_hal_uart.c ****     }
 425:D:/iot/felix2/targets/Cloud_STM32L431_BearPi/Drivers/STM32L4xx_HAL_Driver/Src\stm32l4xx_hal_uart.c **** 
 426:D:/iot/felix2/targets/Cloud_STM32L431_BearPi/Drivers/STM32L4xx_HAL_Driver/Src\stm32l4xx_hal_uart.c ****     /* Init the low level hardware */
 427:D:/iot/felix2/targets/Cloud_STM32L431_BearPi/Drivers/STM32L4xx_HAL_Driver/Src\stm32l4xx_hal_uart.c ****     huart->MspInitCallback(huart);
 428:D:/iot/felix2/targets/Cloud_STM32L431_BearPi/Drivers/STM32L4xx_HAL_Driver/Src\stm32l4xx_hal_uart.c **** #else
 429:D:/iot/felix2/targets/Cloud_STM32L431_BearPi/Drivers/STM32L4xx_HAL_Driver/Src\stm32l4xx_hal_uart.c ****     /* Init the low level hardware : GPIO, CLOCK */
 430:D:/iot/felix2/targets/Cloud_STM32L431_BearPi/Drivers/STM32L4xx_HAL_Driver/Src\stm32l4xx_hal_uart.c ****     HAL_UART_MspInit(huart);
 183              		.loc 1 430 0
 184 0026 7868     		ldr	r0, [r7, #4]
 185 0028 FFF7FEFF 		bl	HAL_UART_MspInit
 186              	.L10:
 431:D:/iot/felix2/targets/Cloud_STM32L431_BearPi/Drivers/STM32L4xx_HAL_Driver/Src\stm32l4xx_hal_uart.c **** #endif /* (USE_HAL_UART_REGISTER_CALLBACKS) */
 432:D:/iot/felix2/targets/Cloud_STM32L431_BearPi/Drivers/STM32L4xx_HAL_Driver/Src\stm32l4xx_hal_uart.c ****   }
 433:D:/iot/felix2/targets/Cloud_STM32L431_BearPi/Drivers/STM32L4xx_HAL_Driver/Src\stm32l4xx_hal_uart.c **** 
 434:D:/iot/felix2/targets/Cloud_STM32L431_BearPi/Drivers/STM32L4xx_HAL_Driver/Src\stm32l4xx_hal_uart.c ****   huart->gState = HAL_UART_STATE_BUSY;
 187              		.loc 1 434 0
 188 002c 7B68     		ldr	r3, [r7, #4]
 189 002e 2422     		movs	r2, #36
 190 0030 83F87120 		strb	r2, [r3, #113]
 435:D:/iot/felix2/targets/Cloud_STM32L431_BearPi/Drivers/STM32L4xx_HAL_Driver/Src\stm32l4xx_hal_uart.c **** 
 436:D:/iot/felix2/targets/Cloud_STM32L431_BearPi/Drivers/STM32L4xx_HAL_Driver/Src\stm32l4xx_hal_uart.c ****   /* Disable the Peripheral */
 437:D:/iot/felix2/targets/Cloud_STM32L431_BearPi/Drivers/STM32L4xx_HAL_Driver/Src\stm32l4xx_hal_uart.c ****   __HAL_UART_DISABLE(huart);
 191              		.loc 1 437 0
 192 0034 7B68     		ldr	r3, [r7, #4]
 193 0036 1B68     		ldr	r3, [r3]
ARM GAS  C:\Users\91458\AppData\Local\Temp\ccrpKNIe.s 			page 12


 194 0038 1A68     		ldr	r2, [r3]
 195 003a 7B68     		ldr	r3, [r7, #4]
 196 003c 1B68     		ldr	r3, [r3]
 197 003e 22F00102 		bic	r2, r2, #1
 198 0042 1A60     		str	r2, [r3]
 438:D:/iot/felix2/targets/Cloud_STM32L431_BearPi/Drivers/STM32L4xx_HAL_Driver/Src\stm32l4xx_hal_uart.c **** 
 439:D:/iot/felix2/targets/Cloud_STM32L431_BearPi/Drivers/STM32L4xx_HAL_Driver/Src\stm32l4xx_hal_uart.c ****   /* Set the UART Communication parameters */
 440:D:/iot/felix2/targets/Cloud_STM32L431_BearPi/Drivers/STM32L4xx_HAL_Driver/Src\stm32l4xx_hal_uart.c ****   if (UART_SetConfig(huart) == HAL_ERROR)
 199              		.loc 1 440 0
 200 0044 7868     		ldr	r0, [r7, #4]
 201 0046 FFF7FEFF 		bl	UART_SetConfig
 202 004a 0346     		mov	r3, r0
 203 004c 012B     		cmp	r3, #1
 204 004e 01D1     		bne	.L11
 441:D:/iot/felix2/targets/Cloud_STM32L431_BearPi/Drivers/STM32L4xx_HAL_Driver/Src\stm32l4xx_hal_uart.c ****   {
 442:D:/iot/felix2/targets/Cloud_STM32L431_BearPi/Drivers/STM32L4xx_HAL_Driver/Src\stm32l4xx_hal_uart.c ****     return HAL_ERROR;
 205              		.loc 1 442 0
 206 0050 0123     		movs	r3, #1
 207 0052 2AE0     		b	.L9
 208              	.L11:
 443:D:/iot/felix2/targets/Cloud_STM32L431_BearPi/Drivers/STM32L4xx_HAL_Driver/Src\stm32l4xx_hal_uart.c ****   }
 444:D:/iot/felix2/targets/Cloud_STM32L431_BearPi/Drivers/STM32L4xx_HAL_Driver/Src\stm32l4xx_hal_uart.c **** 
 445:D:/iot/felix2/targets/Cloud_STM32L431_BearPi/Drivers/STM32L4xx_HAL_Driver/Src\stm32l4xx_hal_uart.c ****   if (huart->AdvancedInit.AdvFeatureInit != UART_ADVFEATURE_NO_INIT)
 209              		.loc 1 445 0
 210 0054 7B68     		ldr	r3, [r7, #4]
 211 0056 5B6A     		ldr	r3, [r3, #36]
 212 0058 002B     		cmp	r3, #0
 213 005a 02D0     		beq	.L12
 446:D:/iot/felix2/targets/Cloud_STM32L431_BearPi/Drivers/STM32L4xx_HAL_Driver/Src\stm32l4xx_hal_uart.c ****   {
 447:D:/iot/felix2/targets/Cloud_STM32L431_BearPi/Drivers/STM32L4xx_HAL_Driver/Src\stm32l4xx_hal_uart.c ****     UART_AdvFeatureConfig(huart);
 214              		.loc 1 447 0
 215 005c 7868     		ldr	r0, [r7, #4]
 216 005e FFF7FEFF 		bl	UART_AdvFeatureConfig
 217              	.L12:
 448:D:/iot/felix2/targets/Cloud_STM32L431_BearPi/Drivers/STM32L4xx_HAL_Driver/Src\stm32l4xx_hal_uart.c ****   }
 449:D:/iot/felix2/targets/Cloud_STM32L431_BearPi/Drivers/STM32L4xx_HAL_Driver/Src\stm32l4xx_hal_uart.c **** 
 450:D:/iot/felix2/targets/Cloud_STM32L431_BearPi/Drivers/STM32L4xx_HAL_Driver/Src\stm32l4xx_hal_uart.c ****   /* In half-duplex mode, the following bits must be kept cleared:
 451:D:/iot/felix2/targets/Cloud_STM32L431_BearPi/Drivers/STM32L4xx_HAL_Driver/Src\stm32l4xx_hal_uart.c ****   - LINEN and CLKEN bits in the USART_CR2 register,
 452:D:/iot/felix2/targets/Cloud_STM32L431_BearPi/Drivers/STM32L4xx_HAL_Driver/Src\stm32l4xx_hal_uart.c ****   - SCEN and IREN bits in the USART_CR3 register.*/
 453:D:/iot/felix2/targets/Cloud_STM32L431_BearPi/Drivers/STM32L4xx_HAL_Driver/Src\stm32l4xx_hal_uart.c ****   CLEAR_BIT(huart->Instance->CR2, (USART_CR2_LINEN | USART_CR2_CLKEN));
 218              		.loc 1 453 0
 219 0062 7B68     		ldr	r3, [r7, #4]
 220 0064 1B68     		ldr	r3, [r3]
 221 0066 5A68     		ldr	r2, [r3, #4]
 222 0068 7B68     		ldr	r3, [r7, #4]
 223 006a 1B68     		ldr	r3, [r3]
 224 006c 22F49042 		bic	r2, r2, #18432
 225 0070 5A60     		str	r2, [r3, #4]
 454:D:/iot/felix2/targets/Cloud_STM32L431_BearPi/Drivers/STM32L4xx_HAL_Driver/Src\stm32l4xx_hal_uart.c ****   CLEAR_BIT(huart->Instance->CR3, (USART_CR3_IREN | USART_CR3_SCEN));
 226              		.loc 1 454 0
 227 0072 7B68     		ldr	r3, [r7, #4]
 228 0074 1B68     		ldr	r3, [r3]
 229 0076 9A68     		ldr	r2, [r3, #8]
 230 0078 7B68     		ldr	r3, [r7, #4]
 231 007a 1B68     		ldr	r3, [r3]
 232 007c 22F02202 		bic	r2, r2, #34
 233 0080 9A60     		str	r2, [r3, #8]
ARM GAS  C:\Users\91458\AppData\Local\Temp\ccrpKNIe.s 			page 13


 455:D:/iot/felix2/targets/Cloud_STM32L431_BearPi/Drivers/STM32L4xx_HAL_Driver/Src\stm32l4xx_hal_uart.c **** 
 456:D:/iot/felix2/targets/Cloud_STM32L431_BearPi/Drivers/STM32L4xx_HAL_Driver/Src\stm32l4xx_hal_uart.c ****   /* Enable the Half-Duplex mode by setting the HDSEL bit in the CR3 register */
 457:D:/iot/felix2/targets/Cloud_STM32L431_BearPi/Drivers/STM32L4xx_HAL_Driver/Src\stm32l4xx_hal_uart.c ****   SET_BIT(huart->Instance->CR3, USART_CR3_HDSEL);
 234              		.loc 1 457 0
 235 0082 7B68     		ldr	r3, [r7, #4]
 236 0084 1B68     		ldr	r3, [r3]
 237 0086 9A68     		ldr	r2, [r3, #8]
 238 0088 7B68     		ldr	r3, [r7, #4]
 239 008a 1B68     		ldr	r3, [r3]
 240 008c 42F00802 		orr	r2, r2, #8
 241 0090 9A60     		str	r2, [r3, #8]
 458:D:/iot/felix2/targets/Cloud_STM32L431_BearPi/Drivers/STM32L4xx_HAL_Driver/Src\stm32l4xx_hal_uart.c **** 
 459:D:/iot/felix2/targets/Cloud_STM32L431_BearPi/Drivers/STM32L4xx_HAL_Driver/Src\stm32l4xx_hal_uart.c ****   /* Enable the Peripheral */
 460:D:/iot/felix2/targets/Cloud_STM32L431_BearPi/Drivers/STM32L4xx_HAL_Driver/Src\stm32l4xx_hal_uart.c ****   __HAL_UART_ENABLE(huart);
 242              		.loc 1 460 0
 243 0092 7B68     		ldr	r3, [r7, #4]
 244 0094 1B68     		ldr	r3, [r3]
 245 0096 1A68     		ldr	r2, [r3]
 246 0098 7B68     		ldr	r3, [r7, #4]
 247 009a 1B68     		ldr	r3, [r3]
 248 009c 42F00102 		orr	r2, r2, #1
 249 00a0 1A60     		str	r2, [r3]
 461:D:/iot/felix2/targets/Cloud_STM32L431_BearPi/Drivers/STM32L4xx_HAL_Driver/Src\stm32l4xx_hal_uart.c **** 
 462:D:/iot/felix2/targets/Cloud_STM32L431_BearPi/Drivers/STM32L4xx_HAL_Driver/Src\stm32l4xx_hal_uart.c ****   /* TEACK and/or REACK to check before moving huart->gState and huart->RxState to Ready */
 463:D:/iot/felix2/targets/Cloud_STM32L431_BearPi/Drivers/STM32L4xx_HAL_Driver/Src\stm32l4xx_hal_uart.c ****   return (UART_CheckIdleState(huart));
 250              		.loc 1 463 0
 251 00a2 7868     		ldr	r0, [r7, #4]
 252 00a4 FFF7FEFF 		bl	UART_CheckIdleState
 253 00a8 0346     		mov	r3, r0
 254              	.L9:
 464:D:/iot/felix2/targets/Cloud_STM32L431_BearPi/Drivers/STM32L4xx_HAL_Driver/Src\stm32l4xx_hal_uart.c **** }
 255              		.loc 1 464 0
 256 00aa 1846     		mov	r0, r3
 257 00ac 0837     		adds	r7, r7, #8
 258              	.LCFI8:
 259              		.cfi_def_cfa_offset 8
 260 00ae BD46     		mov	sp, r7
 261              	.LCFI9:
 262              		.cfi_def_cfa_register 13
 263              		@ sp needed
 264 00b0 80BD     		pop	{r7, pc}
 265              		.cfi_endproc
 266              	.LFE134:
 268              		.section	.text.HAL_LIN_Init,"ax",%progbits
 269              		.align	1
 270              		.global	HAL_LIN_Init
 271              		.syntax unified
 272              		.thumb
 273              		.thumb_func
 274              		.fpu fpv4-sp-d16
 276              	HAL_LIN_Init:
 277              	.LFB135:
 465:D:/iot/felix2/targets/Cloud_STM32L431_BearPi/Drivers/STM32L4xx_HAL_Driver/Src\stm32l4xx_hal_uart.c **** 
 466:D:/iot/felix2/targets/Cloud_STM32L431_BearPi/Drivers/STM32L4xx_HAL_Driver/Src\stm32l4xx_hal_uart.c **** 
 467:D:/iot/felix2/targets/Cloud_STM32L431_BearPi/Drivers/STM32L4xx_HAL_Driver/Src\stm32l4xx_hal_uart.c **** /**
 468:D:/iot/felix2/targets/Cloud_STM32L431_BearPi/Drivers/STM32L4xx_HAL_Driver/Src\stm32l4xx_hal_uart.c ****   * @brief Initialize the LIN mode according to the specified
 469:D:/iot/felix2/targets/Cloud_STM32L431_BearPi/Drivers/STM32L4xx_HAL_Driver/Src\stm32l4xx_hal_uart.c ****   *        parameters in the UART_InitTypeDef and creates the associated handle .
ARM GAS  C:\Users\91458\AppData\Local\Temp\ccrpKNIe.s 			page 14


 470:D:/iot/felix2/targets/Cloud_STM32L431_BearPi/Drivers/STM32L4xx_HAL_Driver/Src\stm32l4xx_hal_uart.c ****   * @param huart             UART handle.
 471:D:/iot/felix2/targets/Cloud_STM32L431_BearPi/Drivers/STM32L4xx_HAL_Driver/Src\stm32l4xx_hal_uart.c ****   * @param BreakDetectLength Specifies the LIN break detection length.
 472:D:/iot/felix2/targets/Cloud_STM32L431_BearPi/Drivers/STM32L4xx_HAL_Driver/Src\stm32l4xx_hal_uart.c ****   *        This parameter can be one of the following values:
 473:D:/iot/felix2/targets/Cloud_STM32L431_BearPi/Drivers/STM32L4xx_HAL_Driver/Src\stm32l4xx_hal_uart.c ****   *          @arg @ref UART_LINBREAKDETECTLENGTH_10B 10-bit break detection
 474:D:/iot/felix2/targets/Cloud_STM32L431_BearPi/Drivers/STM32L4xx_HAL_Driver/Src\stm32l4xx_hal_uart.c ****   *          @arg @ref UART_LINBREAKDETECTLENGTH_11B 11-bit break detection
 475:D:/iot/felix2/targets/Cloud_STM32L431_BearPi/Drivers/STM32L4xx_HAL_Driver/Src\stm32l4xx_hal_uart.c ****   * @retval HAL status
 476:D:/iot/felix2/targets/Cloud_STM32L431_BearPi/Drivers/STM32L4xx_HAL_Driver/Src\stm32l4xx_hal_uart.c ****   */
 477:D:/iot/felix2/targets/Cloud_STM32L431_BearPi/Drivers/STM32L4xx_HAL_Driver/Src\stm32l4xx_hal_uart.c **** HAL_StatusTypeDef HAL_LIN_Init(UART_HandleTypeDef *huart, uint32_t BreakDetectLength)
 478:D:/iot/felix2/targets/Cloud_STM32L431_BearPi/Drivers/STM32L4xx_HAL_Driver/Src\stm32l4xx_hal_uart.c **** {
 278              		.loc 1 478 0
 279              		.cfi_startproc
 280              		@ args = 0, pretend = 0, frame = 8
 281              		@ frame_needed = 1, uses_anonymous_args = 0
 282 0000 80B5     		push	{r7, lr}
 283              	.LCFI10:
 284              		.cfi_def_cfa_offset 8
 285              		.cfi_offset 7, -8
 286              		.cfi_offset 14, -4
 287 0002 82B0     		sub	sp, sp, #8
 288              	.LCFI11:
 289              		.cfi_def_cfa_offset 16
 290 0004 00AF     		add	r7, sp, #0
 291              	.LCFI12:
 292              		.cfi_def_cfa_register 7
 293 0006 7860     		str	r0, [r7, #4]
 294 0008 3960     		str	r1, [r7]
 479:D:/iot/felix2/targets/Cloud_STM32L431_BearPi/Drivers/STM32L4xx_HAL_Driver/Src\stm32l4xx_hal_uart.c ****   /* Check the UART handle allocation */
 480:D:/iot/felix2/targets/Cloud_STM32L431_BearPi/Drivers/STM32L4xx_HAL_Driver/Src\stm32l4xx_hal_uart.c ****   if (huart == NULL)
 295              		.loc 1 480 0
 296 000a 7B68     		ldr	r3, [r7, #4]
 297 000c 002B     		cmp	r3, #0
 298 000e 01D1     		bne	.L14
 481:D:/iot/felix2/targets/Cloud_STM32L431_BearPi/Drivers/STM32L4xx_HAL_Driver/Src\stm32l4xx_hal_uart.c ****   {
 482:D:/iot/felix2/targets/Cloud_STM32L431_BearPi/Drivers/STM32L4xx_HAL_Driver/Src\stm32l4xx_hal_uart.c ****     return HAL_ERROR;
 299              		.loc 1 482 0
 300 0010 0123     		movs	r3, #1
 301 0012 62E0     		b	.L15
 302              	.L14:
 483:D:/iot/felix2/targets/Cloud_STM32L431_BearPi/Drivers/STM32L4xx_HAL_Driver/Src\stm32l4xx_hal_uart.c ****   }
 484:D:/iot/felix2/targets/Cloud_STM32L431_BearPi/Drivers/STM32L4xx_HAL_Driver/Src\stm32l4xx_hal_uart.c **** 
 485:D:/iot/felix2/targets/Cloud_STM32L431_BearPi/Drivers/STM32L4xx_HAL_Driver/Src\stm32l4xx_hal_uart.c ****   /* Check the LIN UART instance */
 486:D:/iot/felix2/targets/Cloud_STM32L431_BearPi/Drivers/STM32L4xx_HAL_Driver/Src\stm32l4xx_hal_uart.c ****   assert_param(IS_UART_LIN_INSTANCE(huart->Instance));
 487:D:/iot/felix2/targets/Cloud_STM32L431_BearPi/Drivers/STM32L4xx_HAL_Driver/Src\stm32l4xx_hal_uart.c ****   /* Check the Break detection length parameter */
 488:D:/iot/felix2/targets/Cloud_STM32L431_BearPi/Drivers/STM32L4xx_HAL_Driver/Src\stm32l4xx_hal_uart.c ****   assert_param(IS_UART_LIN_BREAK_DETECT_LENGTH(BreakDetectLength));
 489:D:/iot/felix2/targets/Cloud_STM32L431_BearPi/Drivers/STM32L4xx_HAL_Driver/Src\stm32l4xx_hal_uart.c **** 
 490:D:/iot/felix2/targets/Cloud_STM32L431_BearPi/Drivers/STM32L4xx_HAL_Driver/Src\stm32l4xx_hal_uart.c ****   /* LIN mode limited to 16-bit oversampling only */
 491:D:/iot/felix2/targets/Cloud_STM32L431_BearPi/Drivers/STM32L4xx_HAL_Driver/Src\stm32l4xx_hal_uart.c ****   if (huart->Init.OverSampling == UART_OVERSAMPLING_8)
 303              		.loc 1 491 0
 304 0014 7B68     		ldr	r3, [r7, #4]
 305 0016 DB69     		ldr	r3, [r3, #28]
 306 0018 B3F5004F 		cmp	r3, #32768
 307 001c 01D1     		bne	.L16
 492:D:/iot/felix2/targets/Cloud_STM32L431_BearPi/Drivers/STM32L4xx_HAL_Driver/Src\stm32l4xx_hal_uart.c ****   {
 493:D:/iot/felix2/targets/Cloud_STM32L431_BearPi/Drivers/STM32L4xx_HAL_Driver/Src\stm32l4xx_hal_uart.c ****     return HAL_ERROR;
 308              		.loc 1 493 0
 309 001e 0123     		movs	r3, #1
 310 0020 5BE0     		b	.L15
ARM GAS  C:\Users\91458\AppData\Local\Temp\ccrpKNIe.s 			page 15


 311              	.L16:
 494:D:/iot/felix2/targets/Cloud_STM32L431_BearPi/Drivers/STM32L4xx_HAL_Driver/Src\stm32l4xx_hal_uart.c ****   }
 495:D:/iot/felix2/targets/Cloud_STM32L431_BearPi/Drivers/STM32L4xx_HAL_Driver/Src\stm32l4xx_hal_uart.c ****   /* LIN mode limited to 8-bit data length */
 496:D:/iot/felix2/targets/Cloud_STM32L431_BearPi/Drivers/STM32L4xx_HAL_Driver/Src\stm32l4xx_hal_uart.c ****   if (huart->Init.WordLength != UART_WORDLENGTH_8B)
 312              		.loc 1 496 0
 313 0022 7B68     		ldr	r3, [r7, #4]
 314 0024 9B68     		ldr	r3, [r3, #8]
 315 0026 002B     		cmp	r3, #0
 316 0028 01D0     		beq	.L17
 497:D:/iot/felix2/targets/Cloud_STM32L431_BearPi/Drivers/STM32L4xx_HAL_Driver/Src\stm32l4xx_hal_uart.c ****   {
 498:D:/iot/felix2/targets/Cloud_STM32L431_BearPi/Drivers/STM32L4xx_HAL_Driver/Src\stm32l4xx_hal_uart.c ****     return HAL_ERROR;
 317              		.loc 1 498 0
 318 002a 0123     		movs	r3, #1
 319 002c 55E0     		b	.L15
 320              	.L17:
 499:D:/iot/felix2/targets/Cloud_STM32L431_BearPi/Drivers/STM32L4xx_HAL_Driver/Src\stm32l4xx_hal_uart.c ****   }
 500:D:/iot/felix2/targets/Cloud_STM32L431_BearPi/Drivers/STM32L4xx_HAL_Driver/Src\stm32l4xx_hal_uart.c **** 
 501:D:/iot/felix2/targets/Cloud_STM32L431_BearPi/Drivers/STM32L4xx_HAL_Driver/Src\stm32l4xx_hal_uart.c ****   if (huart->gState == HAL_UART_STATE_RESET)
 321              		.loc 1 501 0
 322 002e 7B68     		ldr	r3, [r7, #4]
 323 0030 93F87130 		ldrb	r3, [r3, #113]
 324 0034 DBB2     		uxtb	r3, r3
 325 0036 002B     		cmp	r3, #0
 326 0038 06D1     		bne	.L18
 502:D:/iot/felix2/targets/Cloud_STM32L431_BearPi/Drivers/STM32L4xx_HAL_Driver/Src\stm32l4xx_hal_uart.c ****   {
 503:D:/iot/felix2/targets/Cloud_STM32L431_BearPi/Drivers/STM32L4xx_HAL_Driver/Src\stm32l4xx_hal_uart.c ****     /* Allocate lock resource and initialize it */
 504:D:/iot/felix2/targets/Cloud_STM32L431_BearPi/Drivers/STM32L4xx_HAL_Driver/Src\stm32l4xx_hal_uart.c ****     huart->Lock = HAL_UNLOCKED;
 327              		.loc 1 504 0
 328 003a 7B68     		ldr	r3, [r7, #4]
 329 003c 0022     		movs	r2, #0
 330 003e 83F87020 		strb	r2, [r3, #112]
 505:D:/iot/felix2/targets/Cloud_STM32L431_BearPi/Drivers/STM32L4xx_HAL_Driver/Src\stm32l4xx_hal_uart.c **** 
 506:D:/iot/felix2/targets/Cloud_STM32L431_BearPi/Drivers/STM32L4xx_HAL_Driver/Src\stm32l4xx_hal_uart.c **** #if (USE_HAL_UART_REGISTER_CALLBACKS == 1)
 507:D:/iot/felix2/targets/Cloud_STM32L431_BearPi/Drivers/STM32L4xx_HAL_Driver/Src\stm32l4xx_hal_uart.c ****     UART_InitCallbacksToDefault(huart);
 508:D:/iot/felix2/targets/Cloud_STM32L431_BearPi/Drivers/STM32L4xx_HAL_Driver/Src\stm32l4xx_hal_uart.c **** 
 509:D:/iot/felix2/targets/Cloud_STM32L431_BearPi/Drivers/STM32L4xx_HAL_Driver/Src\stm32l4xx_hal_uart.c ****     if (huart->MspInitCallback == NULL)
 510:D:/iot/felix2/targets/Cloud_STM32L431_BearPi/Drivers/STM32L4xx_HAL_Driver/Src\stm32l4xx_hal_uart.c ****     {
 511:D:/iot/felix2/targets/Cloud_STM32L431_BearPi/Drivers/STM32L4xx_HAL_Driver/Src\stm32l4xx_hal_uart.c ****       huart->MspInitCallback = HAL_UART_MspInit;
 512:D:/iot/felix2/targets/Cloud_STM32L431_BearPi/Drivers/STM32L4xx_HAL_Driver/Src\stm32l4xx_hal_uart.c ****     }
 513:D:/iot/felix2/targets/Cloud_STM32L431_BearPi/Drivers/STM32L4xx_HAL_Driver/Src\stm32l4xx_hal_uart.c **** 
 514:D:/iot/felix2/targets/Cloud_STM32L431_BearPi/Drivers/STM32L4xx_HAL_Driver/Src\stm32l4xx_hal_uart.c ****     /* Init the low level hardware */
 515:D:/iot/felix2/targets/Cloud_STM32L431_BearPi/Drivers/STM32L4xx_HAL_Driver/Src\stm32l4xx_hal_uart.c ****     huart->MspInitCallback(huart);
 516:D:/iot/felix2/targets/Cloud_STM32L431_BearPi/Drivers/STM32L4xx_HAL_Driver/Src\stm32l4xx_hal_uart.c **** #else
 517:D:/iot/felix2/targets/Cloud_STM32L431_BearPi/Drivers/STM32L4xx_HAL_Driver/Src\stm32l4xx_hal_uart.c ****     /* Init the low level hardware : GPIO, CLOCK */
 518:D:/iot/felix2/targets/Cloud_STM32L431_BearPi/Drivers/STM32L4xx_HAL_Driver/Src\stm32l4xx_hal_uart.c ****     HAL_UART_MspInit(huart);
 331              		.loc 1 518 0
 332 0042 7868     		ldr	r0, [r7, #4]
 333 0044 FFF7FEFF 		bl	HAL_UART_MspInit
 334              	.L18:
 519:D:/iot/felix2/targets/Cloud_STM32L431_BearPi/Drivers/STM32L4xx_HAL_Driver/Src\stm32l4xx_hal_uart.c **** #endif /* (USE_HAL_UART_REGISTER_CALLBACKS) */
 520:D:/iot/felix2/targets/Cloud_STM32L431_BearPi/Drivers/STM32L4xx_HAL_Driver/Src\stm32l4xx_hal_uart.c ****   }
 521:D:/iot/felix2/targets/Cloud_STM32L431_BearPi/Drivers/STM32L4xx_HAL_Driver/Src\stm32l4xx_hal_uart.c **** 
 522:D:/iot/felix2/targets/Cloud_STM32L431_BearPi/Drivers/STM32L4xx_HAL_Driver/Src\stm32l4xx_hal_uart.c ****   huart->gState = HAL_UART_STATE_BUSY;
 335              		.loc 1 522 0
 336 0048 7B68     		ldr	r3, [r7, #4]
 337 004a 2422     		movs	r2, #36
 338 004c 83F87120 		strb	r2, [r3, #113]
ARM GAS  C:\Users\91458\AppData\Local\Temp\ccrpKNIe.s 			page 16


 523:D:/iot/felix2/targets/Cloud_STM32L431_BearPi/Drivers/STM32L4xx_HAL_Driver/Src\stm32l4xx_hal_uart.c **** 
 524:D:/iot/felix2/targets/Cloud_STM32L431_BearPi/Drivers/STM32L4xx_HAL_Driver/Src\stm32l4xx_hal_uart.c ****   /* Disable the Peripheral */
 525:D:/iot/felix2/targets/Cloud_STM32L431_BearPi/Drivers/STM32L4xx_HAL_Driver/Src\stm32l4xx_hal_uart.c ****   __HAL_UART_DISABLE(huart);
 339              		.loc 1 525 0
 340 0050 7B68     		ldr	r3, [r7, #4]
 341 0052 1B68     		ldr	r3, [r3]
 342 0054 1A68     		ldr	r2, [r3]
 343 0056 7B68     		ldr	r3, [r7, #4]
 344 0058 1B68     		ldr	r3, [r3]
 345 005a 22F00102 		bic	r2, r2, #1
 346 005e 1A60     		str	r2, [r3]
 526:D:/iot/felix2/targets/Cloud_STM32L431_BearPi/Drivers/STM32L4xx_HAL_Driver/Src\stm32l4xx_hal_uart.c **** 
 527:D:/iot/felix2/targets/Cloud_STM32L431_BearPi/Drivers/STM32L4xx_HAL_Driver/Src\stm32l4xx_hal_uart.c ****   /* Set the UART Communication parameters */
 528:D:/iot/felix2/targets/Cloud_STM32L431_BearPi/Drivers/STM32L4xx_HAL_Driver/Src\stm32l4xx_hal_uart.c ****   if (UART_SetConfig(huart) == HAL_ERROR)
 347              		.loc 1 528 0
 348 0060 7868     		ldr	r0, [r7, #4]
 349 0062 FFF7FEFF 		bl	UART_SetConfig
 350 0066 0346     		mov	r3, r0
 351 0068 012B     		cmp	r3, #1
 352 006a 01D1     		bne	.L19
 529:D:/iot/felix2/targets/Cloud_STM32L431_BearPi/Drivers/STM32L4xx_HAL_Driver/Src\stm32l4xx_hal_uart.c ****   {
 530:D:/iot/felix2/targets/Cloud_STM32L431_BearPi/Drivers/STM32L4xx_HAL_Driver/Src\stm32l4xx_hal_uart.c ****     return HAL_ERROR;
 353              		.loc 1 530 0
 354 006c 0123     		movs	r3, #1
 355 006e 34E0     		b	.L15
 356              	.L19:
 531:D:/iot/felix2/targets/Cloud_STM32L431_BearPi/Drivers/STM32L4xx_HAL_Driver/Src\stm32l4xx_hal_uart.c ****   }
 532:D:/iot/felix2/targets/Cloud_STM32L431_BearPi/Drivers/STM32L4xx_HAL_Driver/Src\stm32l4xx_hal_uart.c **** 
 533:D:/iot/felix2/targets/Cloud_STM32L431_BearPi/Drivers/STM32L4xx_HAL_Driver/Src\stm32l4xx_hal_uart.c ****   if (huart->AdvancedInit.AdvFeatureInit != UART_ADVFEATURE_NO_INIT)
 357              		.loc 1 533 0
 358 0070 7B68     		ldr	r3, [r7, #4]
 359 0072 5B6A     		ldr	r3, [r3, #36]
 360 0074 002B     		cmp	r3, #0
 361 0076 02D0     		beq	.L20
 534:D:/iot/felix2/targets/Cloud_STM32L431_BearPi/Drivers/STM32L4xx_HAL_Driver/Src\stm32l4xx_hal_uart.c ****   {
 535:D:/iot/felix2/targets/Cloud_STM32L431_BearPi/Drivers/STM32L4xx_HAL_Driver/Src\stm32l4xx_hal_uart.c ****     UART_AdvFeatureConfig(huart);
 362              		.loc 1 535 0
 363 0078 7868     		ldr	r0, [r7, #4]
 364 007a FFF7FEFF 		bl	UART_AdvFeatureConfig
 365              	.L20:
 536:D:/iot/felix2/targets/Cloud_STM32L431_BearPi/Drivers/STM32L4xx_HAL_Driver/Src\stm32l4xx_hal_uart.c ****   }
 537:D:/iot/felix2/targets/Cloud_STM32L431_BearPi/Drivers/STM32L4xx_HAL_Driver/Src\stm32l4xx_hal_uart.c **** 
 538:D:/iot/felix2/targets/Cloud_STM32L431_BearPi/Drivers/STM32L4xx_HAL_Driver/Src\stm32l4xx_hal_uart.c ****   /* In LIN mode, the following bits must be kept cleared:
 539:D:/iot/felix2/targets/Cloud_STM32L431_BearPi/Drivers/STM32L4xx_HAL_Driver/Src\stm32l4xx_hal_uart.c ****   - LINEN and CLKEN bits in the USART_CR2 register,
 540:D:/iot/felix2/targets/Cloud_STM32L431_BearPi/Drivers/STM32L4xx_HAL_Driver/Src\stm32l4xx_hal_uart.c ****   - SCEN and IREN bits in the USART_CR3 register.*/
 541:D:/iot/felix2/targets/Cloud_STM32L431_BearPi/Drivers/STM32L4xx_HAL_Driver/Src\stm32l4xx_hal_uart.c ****   CLEAR_BIT(huart->Instance->CR2, USART_CR2_CLKEN);
 366              		.loc 1 541 0
 367 007e 7B68     		ldr	r3, [r7, #4]
 368 0080 1B68     		ldr	r3, [r3]
 369 0082 5A68     		ldr	r2, [r3, #4]
 370 0084 7B68     		ldr	r3, [r7, #4]
 371 0086 1B68     		ldr	r3, [r3]
 372 0088 22F40062 		bic	r2, r2, #2048
 373 008c 5A60     		str	r2, [r3, #4]
 542:D:/iot/felix2/targets/Cloud_STM32L431_BearPi/Drivers/STM32L4xx_HAL_Driver/Src\stm32l4xx_hal_uart.c ****   CLEAR_BIT(huart->Instance->CR3, (USART_CR3_HDSEL | USART_CR3_IREN | USART_CR3_SCEN));
 374              		.loc 1 542 0
 375 008e 7B68     		ldr	r3, [r7, #4]
ARM GAS  C:\Users\91458\AppData\Local\Temp\ccrpKNIe.s 			page 17


 376 0090 1B68     		ldr	r3, [r3]
 377 0092 9A68     		ldr	r2, [r3, #8]
 378 0094 7B68     		ldr	r3, [r7, #4]
 379 0096 1B68     		ldr	r3, [r3]
 380 0098 22F02A02 		bic	r2, r2, #42
 381 009c 9A60     		str	r2, [r3, #8]
 543:D:/iot/felix2/targets/Cloud_STM32L431_BearPi/Drivers/STM32L4xx_HAL_Driver/Src\stm32l4xx_hal_uart.c **** 
 544:D:/iot/felix2/targets/Cloud_STM32L431_BearPi/Drivers/STM32L4xx_HAL_Driver/Src\stm32l4xx_hal_uart.c ****   /* Enable the LIN mode by setting the LINEN bit in the CR2 register */
 545:D:/iot/felix2/targets/Cloud_STM32L431_BearPi/Drivers/STM32L4xx_HAL_Driver/Src\stm32l4xx_hal_uart.c ****   SET_BIT(huart->Instance->CR2, USART_CR2_LINEN);
 382              		.loc 1 545 0
 383 009e 7B68     		ldr	r3, [r7, #4]
 384 00a0 1B68     		ldr	r3, [r3]
 385 00a2 5A68     		ldr	r2, [r3, #4]
 386 00a4 7B68     		ldr	r3, [r7, #4]
 387 00a6 1B68     		ldr	r3, [r3]
 388 00a8 42F48042 		orr	r2, r2, #16384
 389 00ac 5A60     		str	r2, [r3, #4]
 546:D:/iot/felix2/targets/Cloud_STM32L431_BearPi/Drivers/STM32L4xx_HAL_Driver/Src\stm32l4xx_hal_uart.c **** 
 547:D:/iot/felix2/targets/Cloud_STM32L431_BearPi/Drivers/STM32L4xx_HAL_Driver/Src\stm32l4xx_hal_uart.c ****   /* Set the USART LIN Break detection length. */
 548:D:/iot/felix2/targets/Cloud_STM32L431_BearPi/Drivers/STM32L4xx_HAL_Driver/Src\stm32l4xx_hal_uart.c ****   MODIFY_REG(huart->Instance->CR2, USART_CR2_LBDL, BreakDetectLength);
 390              		.loc 1 548 0
 391 00ae 7B68     		ldr	r3, [r7, #4]
 392 00b0 1B68     		ldr	r3, [r3]
 393 00b2 5B68     		ldr	r3, [r3, #4]
 394 00b4 23F02001 		bic	r1, r3, #32
 395 00b8 7B68     		ldr	r3, [r7, #4]
 396 00ba 1B68     		ldr	r3, [r3]
 397 00bc 3A68     		ldr	r2, [r7]
 398 00be 0A43     		orrs	r2, r2, r1
 399 00c0 5A60     		str	r2, [r3, #4]
 549:D:/iot/felix2/targets/Cloud_STM32L431_BearPi/Drivers/STM32L4xx_HAL_Driver/Src\stm32l4xx_hal_uart.c **** 
 550:D:/iot/felix2/targets/Cloud_STM32L431_BearPi/Drivers/STM32L4xx_HAL_Driver/Src\stm32l4xx_hal_uart.c ****   /* Enable the Peripheral */
 551:D:/iot/felix2/targets/Cloud_STM32L431_BearPi/Drivers/STM32L4xx_HAL_Driver/Src\stm32l4xx_hal_uart.c ****   __HAL_UART_ENABLE(huart);
 400              		.loc 1 551 0
 401 00c2 7B68     		ldr	r3, [r7, #4]
 402 00c4 1B68     		ldr	r3, [r3]
 403 00c6 1A68     		ldr	r2, [r3]
 404 00c8 7B68     		ldr	r3, [r7, #4]
 405 00ca 1B68     		ldr	r3, [r3]
 406 00cc 42F00102 		orr	r2, r2, #1
 407 00d0 1A60     		str	r2, [r3]
 552:D:/iot/felix2/targets/Cloud_STM32L431_BearPi/Drivers/STM32L4xx_HAL_Driver/Src\stm32l4xx_hal_uart.c **** 
 553:D:/iot/felix2/targets/Cloud_STM32L431_BearPi/Drivers/STM32L4xx_HAL_Driver/Src\stm32l4xx_hal_uart.c ****   /* TEACK and/or REACK to check before moving huart->gState and huart->RxState to Ready */
 554:D:/iot/felix2/targets/Cloud_STM32L431_BearPi/Drivers/STM32L4xx_HAL_Driver/Src\stm32l4xx_hal_uart.c ****   return (UART_CheckIdleState(huart));
 408              		.loc 1 554 0
 409 00d2 7868     		ldr	r0, [r7, #4]
 410 00d4 FFF7FEFF 		bl	UART_CheckIdleState
 411 00d8 0346     		mov	r3, r0
 412              	.L15:
 555:D:/iot/felix2/targets/Cloud_STM32L431_BearPi/Drivers/STM32L4xx_HAL_Driver/Src\stm32l4xx_hal_uart.c **** }
 413              		.loc 1 555 0
 414 00da 1846     		mov	r0, r3
 415 00dc 0837     		adds	r7, r7, #8
 416              	.LCFI13:
 417              		.cfi_def_cfa_offset 8
 418 00de BD46     		mov	sp, r7
 419              	.LCFI14:
ARM GAS  C:\Users\91458\AppData\Local\Temp\ccrpKNIe.s 			page 18


 420              		.cfi_def_cfa_register 13
 421              		@ sp needed
 422 00e0 80BD     		pop	{r7, pc}
 423              		.cfi_endproc
 424              	.LFE135:
 426              		.section	.text.HAL_MultiProcessor_Init,"ax",%progbits
 427              		.align	1
 428              		.global	HAL_MultiProcessor_Init
 429              		.syntax unified
 430              		.thumb
 431              		.thumb_func
 432              		.fpu fpv4-sp-d16
 434              	HAL_MultiProcessor_Init:
 435              	.LFB136:
 556:D:/iot/felix2/targets/Cloud_STM32L431_BearPi/Drivers/STM32L4xx_HAL_Driver/Src\stm32l4xx_hal_uart.c **** 
 557:D:/iot/felix2/targets/Cloud_STM32L431_BearPi/Drivers/STM32L4xx_HAL_Driver/Src\stm32l4xx_hal_uart.c **** 
 558:D:/iot/felix2/targets/Cloud_STM32L431_BearPi/Drivers/STM32L4xx_HAL_Driver/Src\stm32l4xx_hal_uart.c **** /**
 559:D:/iot/felix2/targets/Cloud_STM32L431_BearPi/Drivers/STM32L4xx_HAL_Driver/Src\stm32l4xx_hal_uart.c ****   * @brief Initialize the multiprocessor mode according to the specified
 560:D:/iot/felix2/targets/Cloud_STM32L431_BearPi/Drivers/STM32L4xx_HAL_Driver/Src\stm32l4xx_hal_uart.c ****   *        parameters in the UART_InitTypeDef and initialize the associated handle.
 561:D:/iot/felix2/targets/Cloud_STM32L431_BearPi/Drivers/STM32L4xx_HAL_Driver/Src\stm32l4xx_hal_uart.c ****   * @param huart        UART handle.
 562:D:/iot/felix2/targets/Cloud_STM32L431_BearPi/Drivers/STM32L4xx_HAL_Driver/Src\stm32l4xx_hal_uart.c ****   * @param Address      UART node address (4-, 6-, 7- or 8-bit long).
 563:D:/iot/felix2/targets/Cloud_STM32L431_BearPi/Drivers/STM32L4xx_HAL_Driver/Src\stm32l4xx_hal_uart.c ****   * @param WakeUpMethod Specifies the UART wakeup method.
 564:D:/iot/felix2/targets/Cloud_STM32L431_BearPi/Drivers/STM32L4xx_HAL_Driver/Src\stm32l4xx_hal_uart.c ****   *        This parameter can be one of the following values:
 565:D:/iot/felix2/targets/Cloud_STM32L431_BearPi/Drivers/STM32L4xx_HAL_Driver/Src\stm32l4xx_hal_uart.c ****   *          @arg @ref UART_WAKEUPMETHOD_IDLELINE WakeUp by an idle line detection
 566:D:/iot/felix2/targets/Cloud_STM32L431_BearPi/Drivers/STM32L4xx_HAL_Driver/Src\stm32l4xx_hal_uart.c ****   *          @arg @ref UART_WAKEUPMETHOD_ADDRESSMARK WakeUp by an address mark
 567:D:/iot/felix2/targets/Cloud_STM32L431_BearPi/Drivers/STM32L4xx_HAL_Driver/Src\stm32l4xx_hal_uart.c ****   * @note  If the user resorts to idle line detection wake up, the Address parameter
 568:D:/iot/felix2/targets/Cloud_STM32L431_BearPi/Drivers/STM32L4xx_HAL_Driver/Src\stm32l4xx_hal_uart.c ****   *        is useless and ignored by the initialization function.
 569:D:/iot/felix2/targets/Cloud_STM32L431_BearPi/Drivers/STM32L4xx_HAL_Driver/Src\stm32l4xx_hal_uart.c ****   * @note  If the user resorts to address mark wake up, the address length detection
 570:D:/iot/felix2/targets/Cloud_STM32L431_BearPi/Drivers/STM32L4xx_HAL_Driver/Src\stm32l4xx_hal_uart.c ****   *        is configured by default to 4 bits only. For the UART to be able to
 571:D:/iot/felix2/targets/Cloud_STM32L431_BearPi/Drivers/STM32L4xx_HAL_Driver/Src\stm32l4xx_hal_uart.c ****   *        manage 6-, 7- or 8-bit long addresses detection, the API
 572:D:/iot/felix2/targets/Cloud_STM32L431_BearPi/Drivers/STM32L4xx_HAL_Driver/Src\stm32l4xx_hal_uart.c ****   *        HAL_MultiProcessorEx_AddressLength_Set() must be called after
 573:D:/iot/felix2/targets/Cloud_STM32L431_BearPi/Drivers/STM32L4xx_HAL_Driver/Src\stm32l4xx_hal_uart.c ****   *        HAL_MultiProcessor_Init().
 574:D:/iot/felix2/targets/Cloud_STM32L431_BearPi/Drivers/STM32L4xx_HAL_Driver/Src\stm32l4xx_hal_uart.c ****   * @retval HAL status
 575:D:/iot/felix2/targets/Cloud_STM32L431_BearPi/Drivers/STM32L4xx_HAL_Driver/Src\stm32l4xx_hal_uart.c ****   */
 576:D:/iot/felix2/targets/Cloud_STM32L431_BearPi/Drivers/STM32L4xx_HAL_Driver/Src\stm32l4xx_hal_uart.c **** HAL_StatusTypeDef HAL_MultiProcessor_Init(UART_HandleTypeDef *huart, uint8_t Address, uint32_t Wake
 577:D:/iot/felix2/targets/Cloud_STM32L431_BearPi/Drivers/STM32L4xx_HAL_Driver/Src\stm32l4xx_hal_uart.c **** {
 436              		.loc 1 577 0
 437              		.cfi_startproc
 438              		@ args = 0, pretend = 0, frame = 16
 439              		@ frame_needed = 1, uses_anonymous_args = 0
 440 0000 80B5     		push	{r7, lr}
 441              	.LCFI15:
 442              		.cfi_def_cfa_offset 8
 443              		.cfi_offset 7, -8
 444              		.cfi_offset 14, -4
 445 0002 84B0     		sub	sp, sp, #16
 446              	.LCFI16:
 447              		.cfi_def_cfa_offset 24
 448 0004 00AF     		add	r7, sp, #0
 449              	.LCFI17:
 450              		.cfi_def_cfa_register 7
 451 0006 F860     		str	r0, [r7, #12]
 452 0008 0B46     		mov	r3, r1
 453 000a 7A60     		str	r2, [r7, #4]
 454 000c FB72     		strb	r3, [r7, #11]
 578:D:/iot/felix2/targets/Cloud_STM32L431_BearPi/Drivers/STM32L4xx_HAL_Driver/Src\stm32l4xx_hal_uart.c ****   /* Check the UART handle allocation */
 579:D:/iot/felix2/targets/Cloud_STM32L431_BearPi/Drivers/STM32L4xx_HAL_Driver/Src\stm32l4xx_hal_uart.c ****   if (huart == NULL)
ARM GAS  C:\Users\91458\AppData\Local\Temp\ccrpKNIe.s 			page 19


 455              		.loc 1 579 0
 456 000e FB68     		ldr	r3, [r7, #12]
 457 0010 002B     		cmp	r3, #0
 458 0012 01D1     		bne	.L22
 580:D:/iot/felix2/targets/Cloud_STM32L431_BearPi/Drivers/STM32L4xx_HAL_Driver/Src\stm32l4xx_hal_uart.c ****   {
 581:D:/iot/felix2/targets/Cloud_STM32L431_BearPi/Drivers/STM32L4xx_HAL_Driver/Src\stm32l4xx_hal_uart.c ****     return HAL_ERROR;
 459              		.loc 1 581 0
 460 0014 0123     		movs	r3, #1
 461 0016 5CE0     		b	.L23
 462              	.L22:
 582:D:/iot/felix2/targets/Cloud_STM32L431_BearPi/Drivers/STM32L4xx_HAL_Driver/Src\stm32l4xx_hal_uart.c ****   }
 583:D:/iot/felix2/targets/Cloud_STM32L431_BearPi/Drivers/STM32L4xx_HAL_Driver/Src\stm32l4xx_hal_uart.c **** 
 584:D:/iot/felix2/targets/Cloud_STM32L431_BearPi/Drivers/STM32L4xx_HAL_Driver/Src\stm32l4xx_hal_uart.c ****   /* Check the wake up method parameter */
 585:D:/iot/felix2/targets/Cloud_STM32L431_BearPi/Drivers/STM32L4xx_HAL_Driver/Src\stm32l4xx_hal_uart.c ****   assert_param(IS_UART_WAKEUPMETHOD(WakeUpMethod));
 586:D:/iot/felix2/targets/Cloud_STM32L431_BearPi/Drivers/STM32L4xx_HAL_Driver/Src\stm32l4xx_hal_uart.c **** 
 587:D:/iot/felix2/targets/Cloud_STM32L431_BearPi/Drivers/STM32L4xx_HAL_Driver/Src\stm32l4xx_hal_uart.c ****   if (huart->gState == HAL_UART_STATE_RESET)
 463              		.loc 1 587 0
 464 0018 FB68     		ldr	r3, [r7, #12]
 465 001a 93F87130 		ldrb	r3, [r3, #113]
 466 001e DBB2     		uxtb	r3, r3
 467 0020 002B     		cmp	r3, #0
 468 0022 06D1     		bne	.L24
 588:D:/iot/felix2/targets/Cloud_STM32L431_BearPi/Drivers/STM32L4xx_HAL_Driver/Src\stm32l4xx_hal_uart.c ****   {
 589:D:/iot/felix2/targets/Cloud_STM32L431_BearPi/Drivers/STM32L4xx_HAL_Driver/Src\stm32l4xx_hal_uart.c ****     /* Allocate lock resource and initialize it */
 590:D:/iot/felix2/targets/Cloud_STM32L431_BearPi/Drivers/STM32L4xx_HAL_Driver/Src\stm32l4xx_hal_uart.c ****     huart->Lock = HAL_UNLOCKED;
 469              		.loc 1 590 0
 470 0024 FB68     		ldr	r3, [r7, #12]
 471 0026 0022     		movs	r2, #0
 472 0028 83F87020 		strb	r2, [r3, #112]
 591:D:/iot/felix2/targets/Cloud_STM32L431_BearPi/Drivers/STM32L4xx_HAL_Driver/Src\stm32l4xx_hal_uart.c **** 
 592:D:/iot/felix2/targets/Cloud_STM32L431_BearPi/Drivers/STM32L4xx_HAL_Driver/Src\stm32l4xx_hal_uart.c **** #if (USE_HAL_UART_REGISTER_CALLBACKS == 1)
 593:D:/iot/felix2/targets/Cloud_STM32L431_BearPi/Drivers/STM32L4xx_HAL_Driver/Src\stm32l4xx_hal_uart.c ****     UART_InitCallbacksToDefault(huart);
 594:D:/iot/felix2/targets/Cloud_STM32L431_BearPi/Drivers/STM32L4xx_HAL_Driver/Src\stm32l4xx_hal_uart.c **** 
 595:D:/iot/felix2/targets/Cloud_STM32L431_BearPi/Drivers/STM32L4xx_HAL_Driver/Src\stm32l4xx_hal_uart.c ****     if (huart->MspInitCallback == NULL)
 596:D:/iot/felix2/targets/Cloud_STM32L431_BearPi/Drivers/STM32L4xx_HAL_Driver/Src\stm32l4xx_hal_uart.c ****     {
 597:D:/iot/felix2/targets/Cloud_STM32L431_BearPi/Drivers/STM32L4xx_HAL_Driver/Src\stm32l4xx_hal_uart.c ****       huart->MspInitCallback = HAL_UART_MspInit;
 598:D:/iot/felix2/targets/Cloud_STM32L431_BearPi/Drivers/STM32L4xx_HAL_Driver/Src\stm32l4xx_hal_uart.c ****     }
 599:D:/iot/felix2/targets/Cloud_STM32L431_BearPi/Drivers/STM32L4xx_HAL_Driver/Src\stm32l4xx_hal_uart.c **** 
 600:D:/iot/felix2/targets/Cloud_STM32L431_BearPi/Drivers/STM32L4xx_HAL_Driver/Src\stm32l4xx_hal_uart.c ****     /* Init the low level hardware */
 601:D:/iot/felix2/targets/Cloud_STM32L431_BearPi/Drivers/STM32L4xx_HAL_Driver/Src\stm32l4xx_hal_uart.c ****     huart->MspInitCallback(huart);
 602:D:/iot/felix2/targets/Cloud_STM32L431_BearPi/Drivers/STM32L4xx_HAL_Driver/Src\stm32l4xx_hal_uart.c **** #else
 603:D:/iot/felix2/targets/Cloud_STM32L431_BearPi/Drivers/STM32L4xx_HAL_Driver/Src\stm32l4xx_hal_uart.c ****     /* Init the low level hardware : GPIO, CLOCK */
 604:D:/iot/felix2/targets/Cloud_STM32L431_BearPi/Drivers/STM32L4xx_HAL_Driver/Src\stm32l4xx_hal_uart.c ****     HAL_UART_MspInit(huart);
 473              		.loc 1 604 0
 474 002c F868     		ldr	r0, [r7, #12]
 475 002e FFF7FEFF 		bl	HAL_UART_MspInit
 476              	.L24:
 605:D:/iot/felix2/targets/Cloud_STM32L431_BearPi/Drivers/STM32L4xx_HAL_Driver/Src\stm32l4xx_hal_uart.c **** #endif /* (USE_HAL_UART_REGISTER_CALLBACKS) */
 606:D:/iot/felix2/targets/Cloud_STM32L431_BearPi/Drivers/STM32L4xx_HAL_Driver/Src\stm32l4xx_hal_uart.c ****   }
 607:D:/iot/felix2/targets/Cloud_STM32L431_BearPi/Drivers/STM32L4xx_HAL_Driver/Src\stm32l4xx_hal_uart.c **** 
 608:D:/iot/felix2/targets/Cloud_STM32L431_BearPi/Drivers/STM32L4xx_HAL_Driver/Src\stm32l4xx_hal_uart.c ****   huart->gState = HAL_UART_STATE_BUSY;
 477              		.loc 1 608 0
 478 0032 FB68     		ldr	r3, [r7, #12]
 479 0034 2422     		movs	r2, #36
 480 0036 83F87120 		strb	r2, [r3, #113]
 609:D:/iot/felix2/targets/Cloud_STM32L431_BearPi/Drivers/STM32L4xx_HAL_Driver/Src\stm32l4xx_hal_uart.c **** 
 610:D:/iot/felix2/targets/Cloud_STM32L431_BearPi/Drivers/STM32L4xx_HAL_Driver/Src\stm32l4xx_hal_uart.c ****   /* Disable the Peripheral */
ARM GAS  C:\Users\91458\AppData\Local\Temp\ccrpKNIe.s 			page 20


 611:D:/iot/felix2/targets/Cloud_STM32L431_BearPi/Drivers/STM32L4xx_HAL_Driver/Src\stm32l4xx_hal_uart.c ****   __HAL_UART_DISABLE(huart);
 481              		.loc 1 611 0
 482 003a FB68     		ldr	r3, [r7, #12]
 483 003c 1B68     		ldr	r3, [r3]
 484 003e 1A68     		ldr	r2, [r3]
 485 0040 FB68     		ldr	r3, [r7, #12]
 486 0042 1B68     		ldr	r3, [r3]
 487 0044 22F00102 		bic	r2, r2, #1
 488 0048 1A60     		str	r2, [r3]
 612:D:/iot/felix2/targets/Cloud_STM32L431_BearPi/Drivers/STM32L4xx_HAL_Driver/Src\stm32l4xx_hal_uart.c **** 
 613:D:/iot/felix2/targets/Cloud_STM32L431_BearPi/Drivers/STM32L4xx_HAL_Driver/Src\stm32l4xx_hal_uart.c ****   /* Set the UART Communication parameters */
 614:D:/iot/felix2/targets/Cloud_STM32L431_BearPi/Drivers/STM32L4xx_HAL_Driver/Src\stm32l4xx_hal_uart.c ****   if (UART_SetConfig(huart) == HAL_ERROR)
 489              		.loc 1 614 0
 490 004a F868     		ldr	r0, [r7, #12]
 491 004c FFF7FEFF 		bl	UART_SetConfig
 492 0050 0346     		mov	r3, r0
 493 0052 012B     		cmp	r3, #1
 494 0054 01D1     		bne	.L25
 615:D:/iot/felix2/targets/Cloud_STM32L431_BearPi/Drivers/STM32L4xx_HAL_Driver/Src\stm32l4xx_hal_uart.c ****   {
 616:D:/iot/felix2/targets/Cloud_STM32L431_BearPi/Drivers/STM32L4xx_HAL_Driver/Src\stm32l4xx_hal_uart.c ****     return HAL_ERROR;
 495              		.loc 1 616 0
 496 0056 0123     		movs	r3, #1
 497 0058 3BE0     		b	.L23
 498              	.L25:
 617:D:/iot/felix2/targets/Cloud_STM32L431_BearPi/Drivers/STM32L4xx_HAL_Driver/Src\stm32l4xx_hal_uart.c ****   }
 618:D:/iot/felix2/targets/Cloud_STM32L431_BearPi/Drivers/STM32L4xx_HAL_Driver/Src\stm32l4xx_hal_uart.c **** 
 619:D:/iot/felix2/targets/Cloud_STM32L431_BearPi/Drivers/STM32L4xx_HAL_Driver/Src\stm32l4xx_hal_uart.c ****   if (huart->AdvancedInit.AdvFeatureInit != UART_ADVFEATURE_NO_INIT)
 499              		.loc 1 619 0
 500 005a FB68     		ldr	r3, [r7, #12]
 501 005c 5B6A     		ldr	r3, [r3, #36]
 502 005e 002B     		cmp	r3, #0
 503 0060 02D0     		beq	.L26
 620:D:/iot/felix2/targets/Cloud_STM32L431_BearPi/Drivers/STM32L4xx_HAL_Driver/Src\stm32l4xx_hal_uart.c ****   {
 621:D:/iot/felix2/targets/Cloud_STM32L431_BearPi/Drivers/STM32L4xx_HAL_Driver/Src\stm32l4xx_hal_uart.c ****     UART_AdvFeatureConfig(huart);
 504              		.loc 1 621 0
 505 0062 F868     		ldr	r0, [r7, #12]
 506 0064 FFF7FEFF 		bl	UART_AdvFeatureConfig
 507              	.L26:
 622:D:/iot/felix2/targets/Cloud_STM32L431_BearPi/Drivers/STM32L4xx_HAL_Driver/Src\stm32l4xx_hal_uart.c ****   }
 623:D:/iot/felix2/targets/Cloud_STM32L431_BearPi/Drivers/STM32L4xx_HAL_Driver/Src\stm32l4xx_hal_uart.c **** 
 624:D:/iot/felix2/targets/Cloud_STM32L431_BearPi/Drivers/STM32L4xx_HAL_Driver/Src\stm32l4xx_hal_uart.c ****   /* In multiprocessor mode, the following bits must be kept cleared:
 625:D:/iot/felix2/targets/Cloud_STM32L431_BearPi/Drivers/STM32L4xx_HAL_Driver/Src\stm32l4xx_hal_uart.c ****   - LINEN and CLKEN bits in the USART_CR2 register,
 626:D:/iot/felix2/targets/Cloud_STM32L431_BearPi/Drivers/STM32L4xx_HAL_Driver/Src\stm32l4xx_hal_uart.c ****   - SCEN, HDSEL and IREN  bits in the USART_CR3 register. */
 627:D:/iot/felix2/targets/Cloud_STM32L431_BearPi/Drivers/STM32L4xx_HAL_Driver/Src\stm32l4xx_hal_uart.c ****   CLEAR_BIT(huart->Instance->CR2, (USART_CR2_LINEN | USART_CR2_CLKEN));
 508              		.loc 1 627 0
 509 0068 FB68     		ldr	r3, [r7, #12]
 510 006a 1B68     		ldr	r3, [r3]
 511 006c 5A68     		ldr	r2, [r3, #4]
 512 006e FB68     		ldr	r3, [r7, #12]
 513 0070 1B68     		ldr	r3, [r3]
 514 0072 22F49042 		bic	r2, r2, #18432
 515 0076 5A60     		str	r2, [r3, #4]
 628:D:/iot/felix2/targets/Cloud_STM32L431_BearPi/Drivers/STM32L4xx_HAL_Driver/Src\stm32l4xx_hal_uart.c ****   CLEAR_BIT(huart->Instance->CR3, (USART_CR3_SCEN | USART_CR3_HDSEL | USART_CR3_IREN));
 516              		.loc 1 628 0
 517 0078 FB68     		ldr	r3, [r7, #12]
 518 007a 1B68     		ldr	r3, [r3]
 519 007c 9A68     		ldr	r2, [r3, #8]
ARM GAS  C:\Users\91458\AppData\Local\Temp\ccrpKNIe.s 			page 21


 520 007e FB68     		ldr	r3, [r7, #12]
 521 0080 1B68     		ldr	r3, [r3]
 522 0082 22F02A02 		bic	r2, r2, #42
 523 0086 9A60     		str	r2, [r3, #8]
 629:D:/iot/felix2/targets/Cloud_STM32L431_BearPi/Drivers/STM32L4xx_HAL_Driver/Src\stm32l4xx_hal_uart.c **** 
 630:D:/iot/felix2/targets/Cloud_STM32L431_BearPi/Drivers/STM32L4xx_HAL_Driver/Src\stm32l4xx_hal_uart.c ****   if (WakeUpMethod == UART_WAKEUPMETHOD_ADDRESSMARK)
 524              		.loc 1 630 0
 525 0088 7B68     		ldr	r3, [r7, #4]
 526 008a B3F5006F 		cmp	r3, #2048
 527 008e 0AD1     		bne	.L27
 631:D:/iot/felix2/targets/Cloud_STM32L431_BearPi/Drivers/STM32L4xx_HAL_Driver/Src\stm32l4xx_hal_uart.c ****   {
 632:D:/iot/felix2/targets/Cloud_STM32L431_BearPi/Drivers/STM32L4xx_HAL_Driver/Src\stm32l4xx_hal_uart.c ****     /* If address mark wake up method is chosen, set the USART address node */
 633:D:/iot/felix2/targets/Cloud_STM32L431_BearPi/Drivers/STM32L4xx_HAL_Driver/Src\stm32l4xx_hal_uart.c ****     MODIFY_REG(huart->Instance->CR2, USART_CR2_ADD, ((uint32_t)Address << UART_CR2_ADDRESS_LSB_POS)
 528              		.loc 1 633 0
 529 0090 FB68     		ldr	r3, [r7, #12]
 530 0092 1B68     		ldr	r3, [r3]
 531 0094 5B68     		ldr	r3, [r3, #4]
 532 0096 23F07F41 		bic	r1, r3, #-16777216
 533 009a FB7A     		ldrb	r3, [r7, #11]	@ zero_extendqisi2
 534 009c 1A06     		lsls	r2, r3, #24
 535 009e FB68     		ldr	r3, [r7, #12]
 536 00a0 1B68     		ldr	r3, [r3]
 537 00a2 0A43     		orrs	r2, r2, r1
 538 00a4 5A60     		str	r2, [r3, #4]
 539              	.L27:
 634:D:/iot/felix2/targets/Cloud_STM32L431_BearPi/Drivers/STM32L4xx_HAL_Driver/Src\stm32l4xx_hal_uart.c ****   }
 635:D:/iot/felix2/targets/Cloud_STM32L431_BearPi/Drivers/STM32L4xx_HAL_Driver/Src\stm32l4xx_hal_uart.c **** 
 636:D:/iot/felix2/targets/Cloud_STM32L431_BearPi/Drivers/STM32L4xx_HAL_Driver/Src\stm32l4xx_hal_uart.c ****   /* Set the wake up method by setting the WAKE bit in the CR1 register */
 637:D:/iot/felix2/targets/Cloud_STM32L431_BearPi/Drivers/STM32L4xx_HAL_Driver/Src\stm32l4xx_hal_uart.c ****   MODIFY_REG(huart->Instance->CR1, USART_CR1_WAKE, WakeUpMethod);
 540              		.loc 1 637 0
 541 00a6 FB68     		ldr	r3, [r7, #12]
 542 00a8 1B68     		ldr	r3, [r3]
 543 00aa 1B68     		ldr	r3, [r3]
 544 00ac 23F40061 		bic	r1, r3, #2048
 545 00b0 FB68     		ldr	r3, [r7, #12]
 546 00b2 1B68     		ldr	r3, [r3]
 547 00b4 7A68     		ldr	r2, [r7, #4]
 548 00b6 0A43     		orrs	r2, r2, r1
 549 00b8 1A60     		str	r2, [r3]
 638:D:/iot/felix2/targets/Cloud_STM32L431_BearPi/Drivers/STM32L4xx_HAL_Driver/Src\stm32l4xx_hal_uart.c **** 
 639:D:/iot/felix2/targets/Cloud_STM32L431_BearPi/Drivers/STM32L4xx_HAL_Driver/Src\stm32l4xx_hal_uart.c ****   /* Enable the Peripheral */
 640:D:/iot/felix2/targets/Cloud_STM32L431_BearPi/Drivers/STM32L4xx_HAL_Driver/Src\stm32l4xx_hal_uart.c ****   __HAL_UART_ENABLE(huart);
 550              		.loc 1 640 0
 551 00ba FB68     		ldr	r3, [r7, #12]
 552 00bc 1B68     		ldr	r3, [r3]
 553 00be 1A68     		ldr	r2, [r3]
 554 00c0 FB68     		ldr	r3, [r7, #12]
 555 00c2 1B68     		ldr	r3, [r3]
 556 00c4 42F00102 		orr	r2, r2, #1
 557 00c8 1A60     		str	r2, [r3]
 641:D:/iot/felix2/targets/Cloud_STM32L431_BearPi/Drivers/STM32L4xx_HAL_Driver/Src\stm32l4xx_hal_uart.c **** 
 642:D:/iot/felix2/targets/Cloud_STM32L431_BearPi/Drivers/STM32L4xx_HAL_Driver/Src\stm32l4xx_hal_uart.c ****   /* TEACK and/or REACK to check before moving huart->gState and huart->RxState to Ready */
 643:D:/iot/felix2/targets/Cloud_STM32L431_BearPi/Drivers/STM32L4xx_HAL_Driver/Src\stm32l4xx_hal_uart.c ****   return (UART_CheckIdleState(huart));
 558              		.loc 1 643 0
 559 00ca F868     		ldr	r0, [r7, #12]
 560 00cc FFF7FEFF 		bl	UART_CheckIdleState
 561 00d0 0346     		mov	r3, r0
ARM GAS  C:\Users\91458\AppData\Local\Temp\ccrpKNIe.s 			page 22


 562              	.L23:
 644:D:/iot/felix2/targets/Cloud_STM32L431_BearPi/Drivers/STM32L4xx_HAL_Driver/Src\stm32l4xx_hal_uart.c **** }
 563              		.loc 1 644 0
 564 00d2 1846     		mov	r0, r3
 565 00d4 1037     		adds	r7, r7, #16
 566              	.LCFI18:
 567              		.cfi_def_cfa_offset 8
 568 00d6 BD46     		mov	sp, r7
 569              	.LCFI19:
 570              		.cfi_def_cfa_register 13
 571              		@ sp needed
 572 00d8 80BD     		pop	{r7, pc}
 573              		.cfi_endproc
 574              	.LFE136:
 576              		.section	.text.HAL_UART_DeInit,"ax",%progbits
 577              		.align	1
 578              		.global	HAL_UART_DeInit
 579              		.syntax unified
 580              		.thumb
 581              		.thumb_func
 582              		.fpu fpv4-sp-d16
 584              	HAL_UART_DeInit:
 585              	.LFB137:
 645:D:/iot/felix2/targets/Cloud_STM32L431_BearPi/Drivers/STM32L4xx_HAL_Driver/Src\stm32l4xx_hal_uart.c **** 
 646:D:/iot/felix2/targets/Cloud_STM32L431_BearPi/Drivers/STM32L4xx_HAL_Driver/Src\stm32l4xx_hal_uart.c **** 
 647:D:/iot/felix2/targets/Cloud_STM32L431_BearPi/Drivers/STM32L4xx_HAL_Driver/Src\stm32l4xx_hal_uart.c **** /**
 648:D:/iot/felix2/targets/Cloud_STM32L431_BearPi/Drivers/STM32L4xx_HAL_Driver/Src\stm32l4xx_hal_uart.c ****   * @brief DeInitialize the UART peripheral.
 649:D:/iot/felix2/targets/Cloud_STM32L431_BearPi/Drivers/STM32L4xx_HAL_Driver/Src\stm32l4xx_hal_uart.c ****   * @param huart UART handle.
 650:D:/iot/felix2/targets/Cloud_STM32L431_BearPi/Drivers/STM32L4xx_HAL_Driver/Src\stm32l4xx_hal_uart.c ****   * @retval HAL status
 651:D:/iot/felix2/targets/Cloud_STM32L431_BearPi/Drivers/STM32L4xx_HAL_Driver/Src\stm32l4xx_hal_uart.c ****   */
 652:D:/iot/felix2/targets/Cloud_STM32L431_BearPi/Drivers/STM32L4xx_HAL_Driver/Src\stm32l4xx_hal_uart.c **** HAL_StatusTypeDef HAL_UART_DeInit(UART_HandleTypeDef *huart)
 653:D:/iot/felix2/targets/Cloud_STM32L431_BearPi/Drivers/STM32L4xx_HAL_Driver/Src\stm32l4xx_hal_uart.c **** {
 586              		.loc 1 653 0
 587              		.cfi_startproc
 588              		@ args = 0, pretend = 0, frame = 8
 589              		@ frame_needed = 1, uses_anonymous_args = 0
 590 0000 80B5     		push	{r7, lr}
 591              	.LCFI20:
 592              		.cfi_def_cfa_offset 8
 593              		.cfi_offset 7, -8
 594              		.cfi_offset 14, -4
 595 0002 82B0     		sub	sp, sp, #8
 596              	.LCFI21:
 597              		.cfi_def_cfa_offset 16
 598 0004 00AF     		add	r7, sp, #0
 599              	.LCFI22:
 600              		.cfi_def_cfa_register 7
 601 0006 7860     		str	r0, [r7, #4]
 654:D:/iot/felix2/targets/Cloud_STM32L431_BearPi/Drivers/STM32L4xx_HAL_Driver/Src\stm32l4xx_hal_uart.c ****   /* Check the UART handle allocation */
 655:D:/iot/felix2/targets/Cloud_STM32L431_BearPi/Drivers/STM32L4xx_HAL_Driver/Src\stm32l4xx_hal_uart.c ****   if (huart == NULL)
 602              		.loc 1 655 0
 603 0008 7B68     		ldr	r3, [r7, #4]
 604 000a 002B     		cmp	r3, #0
 605 000c 01D1     		bne	.L29
 656:D:/iot/felix2/targets/Cloud_STM32L431_BearPi/Drivers/STM32L4xx_HAL_Driver/Src\stm32l4xx_hal_uart.c ****   {
 657:D:/iot/felix2/targets/Cloud_STM32L431_BearPi/Drivers/STM32L4xx_HAL_Driver/Src\stm32l4xx_hal_uart.c ****     return HAL_ERROR;
 606              		.loc 1 657 0
ARM GAS  C:\Users\91458\AppData\Local\Temp\ccrpKNIe.s 			page 23


 607 000e 0123     		movs	r3, #1
 608 0010 2AE0     		b	.L30
 609              	.L29:
 658:D:/iot/felix2/targets/Cloud_STM32L431_BearPi/Drivers/STM32L4xx_HAL_Driver/Src\stm32l4xx_hal_uart.c ****   }
 659:D:/iot/felix2/targets/Cloud_STM32L431_BearPi/Drivers/STM32L4xx_HAL_Driver/Src\stm32l4xx_hal_uart.c **** 
 660:D:/iot/felix2/targets/Cloud_STM32L431_BearPi/Drivers/STM32L4xx_HAL_Driver/Src\stm32l4xx_hal_uart.c ****   /* Check the parameters */
 661:D:/iot/felix2/targets/Cloud_STM32L431_BearPi/Drivers/STM32L4xx_HAL_Driver/Src\stm32l4xx_hal_uart.c ****   assert_param((IS_UART_INSTANCE(huart->Instance)) || (IS_LPUART_INSTANCE(huart->Instance)));
 662:D:/iot/felix2/targets/Cloud_STM32L431_BearPi/Drivers/STM32L4xx_HAL_Driver/Src\stm32l4xx_hal_uart.c **** 
 663:D:/iot/felix2/targets/Cloud_STM32L431_BearPi/Drivers/STM32L4xx_HAL_Driver/Src\stm32l4xx_hal_uart.c ****   huart->gState = HAL_UART_STATE_BUSY;
 610              		.loc 1 663 0
 611 0012 7B68     		ldr	r3, [r7, #4]
 612 0014 2422     		movs	r2, #36
 613 0016 83F87120 		strb	r2, [r3, #113]
 664:D:/iot/felix2/targets/Cloud_STM32L431_BearPi/Drivers/STM32L4xx_HAL_Driver/Src\stm32l4xx_hal_uart.c **** 
 665:D:/iot/felix2/targets/Cloud_STM32L431_BearPi/Drivers/STM32L4xx_HAL_Driver/Src\stm32l4xx_hal_uart.c ****   /* Disable the Peripheral */
 666:D:/iot/felix2/targets/Cloud_STM32L431_BearPi/Drivers/STM32L4xx_HAL_Driver/Src\stm32l4xx_hal_uart.c ****   __HAL_UART_DISABLE(huart);
 614              		.loc 1 666 0
 615 001a 7B68     		ldr	r3, [r7, #4]
 616 001c 1B68     		ldr	r3, [r3]
 617 001e 1A68     		ldr	r2, [r3]
 618 0020 7B68     		ldr	r3, [r7, #4]
 619 0022 1B68     		ldr	r3, [r3]
 620 0024 22F00102 		bic	r2, r2, #1
 621 0028 1A60     		str	r2, [r3]
 667:D:/iot/felix2/targets/Cloud_STM32L431_BearPi/Drivers/STM32L4xx_HAL_Driver/Src\stm32l4xx_hal_uart.c **** 
 668:D:/iot/felix2/targets/Cloud_STM32L431_BearPi/Drivers/STM32L4xx_HAL_Driver/Src\stm32l4xx_hal_uart.c ****   huart->Instance->CR1 = 0x0U;
 622              		.loc 1 668 0
 623 002a 7B68     		ldr	r3, [r7, #4]
 624 002c 1B68     		ldr	r3, [r3]
 625 002e 0022     		movs	r2, #0
 626 0030 1A60     		str	r2, [r3]
 669:D:/iot/felix2/targets/Cloud_STM32L431_BearPi/Drivers/STM32L4xx_HAL_Driver/Src\stm32l4xx_hal_uart.c ****   huart->Instance->CR2 = 0x0U;
 627              		.loc 1 669 0
 628 0032 7B68     		ldr	r3, [r7, #4]
 629 0034 1B68     		ldr	r3, [r3]
 630 0036 0022     		movs	r2, #0
 631 0038 5A60     		str	r2, [r3, #4]
 670:D:/iot/felix2/targets/Cloud_STM32L431_BearPi/Drivers/STM32L4xx_HAL_Driver/Src\stm32l4xx_hal_uart.c ****   huart->Instance->CR3 = 0x0U;
 632              		.loc 1 670 0
 633 003a 7B68     		ldr	r3, [r7, #4]
 634 003c 1B68     		ldr	r3, [r3]
 635 003e 0022     		movs	r2, #0
 636 0040 9A60     		str	r2, [r3, #8]
 671:D:/iot/felix2/targets/Cloud_STM32L431_BearPi/Drivers/STM32L4xx_HAL_Driver/Src\stm32l4xx_hal_uart.c **** 
 672:D:/iot/felix2/targets/Cloud_STM32L431_BearPi/Drivers/STM32L4xx_HAL_Driver/Src\stm32l4xx_hal_uart.c **** #if (USE_HAL_UART_REGISTER_CALLBACKS == 1)
 673:D:/iot/felix2/targets/Cloud_STM32L431_BearPi/Drivers/STM32L4xx_HAL_Driver/Src\stm32l4xx_hal_uart.c ****   if (huart->MspDeInitCallback == NULL)
 674:D:/iot/felix2/targets/Cloud_STM32L431_BearPi/Drivers/STM32L4xx_HAL_Driver/Src\stm32l4xx_hal_uart.c ****   {
 675:D:/iot/felix2/targets/Cloud_STM32L431_BearPi/Drivers/STM32L4xx_HAL_Driver/Src\stm32l4xx_hal_uart.c ****     huart->MspDeInitCallback = HAL_UART_MspDeInit;
 676:D:/iot/felix2/targets/Cloud_STM32L431_BearPi/Drivers/STM32L4xx_HAL_Driver/Src\stm32l4xx_hal_uart.c ****   }
 677:D:/iot/felix2/targets/Cloud_STM32L431_BearPi/Drivers/STM32L4xx_HAL_Driver/Src\stm32l4xx_hal_uart.c ****   /* DeInit the low level hardware */
 678:D:/iot/felix2/targets/Cloud_STM32L431_BearPi/Drivers/STM32L4xx_HAL_Driver/Src\stm32l4xx_hal_uart.c ****   huart->MspDeInitCallback(huart);
 679:D:/iot/felix2/targets/Cloud_STM32L431_BearPi/Drivers/STM32L4xx_HAL_Driver/Src\stm32l4xx_hal_uart.c **** #else
 680:D:/iot/felix2/targets/Cloud_STM32L431_BearPi/Drivers/STM32L4xx_HAL_Driver/Src\stm32l4xx_hal_uart.c ****   /* DeInit the low level hardware */
 681:D:/iot/felix2/targets/Cloud_STM32L431_BearPi/Drivers/STM32L4xx_HAL_Driver/Src\stm32l4xx_hal_uart.c ****   HAL_UART_MspDeInit(huart);
 637              		.loc 1 681 0
 638 0042 7868     		ldr	r0, [r7, #4]
 639 0044 FFF7FEFF 		bl	HAL_UART_MspDeInit
ARM GAS  C:\Users\91458\AppData\Local\Temp\ccrpKNIe.s 			page 24


 682:D:/iot/felix2/targets/Cloud_STM32L431_BearPi/Drivers/STM32L4xx_HAL_Driver/Src\stm32l4xx_hal_uart.c **** #endif /* (USE_HAL_UART_REGISTER_CALLBACKS) */
 683:D:/iot/felix2/targets/Cloud_STM32L431_BearPi/Drivers/STM32L4xx_HAL_Driver/Src\stm32l4xx_hal_uart.c **** 
 684:D:/iot/felix2/targets/Cloud_STM32L431_BearPi/Drivers/STM32L4xx_HAL_Driver/Src\stm32l4xx_hal_uart.c ****   huart->ErrorCode = HAL_UART_ERROR_NONE;
 640              		.loc 1 684 0
 641 0048 7B68     		ldr	r3, [r7, #4]
 642 004a 0022     		movs	r2, #0
 643 004c 5A67     		str	r2, [r3, #116]
 685:D:/iot/felix2/targets/Cloud_STM32L431_BearPi/Drivers/STM32L4xx_HAL_Driver/Src\stm32l4xx_hal_uart.c ****   huart->gState = HAL_UART_STATE_RESET;
 644              		.loc 1 685 0
 645 004e 7B68     		ldr	r3, [r7, #4]
 646 0050 0022     		movs	r2, #0
 647 0052 83F87120 		strb	r2, [r3, #113]
 686:D:/iot/felix2/targets/Cloud_STM32L431_BearPi/Drivers/STM32L4xx_HAL_Driver/Src\stm32l4xx_hal_uart.c ****   huart->RxState = HAL_UART_STATE_RESET;
 648              		.loc 1 686 0
 649 0056 7B68     		ldr	r3, [r7, #4]
 650 0058 0022     		movs	r2, #0
 651 005a 83F87220 		strb	r2, [r3, #114]
 687:D:/iot/felix2/targets/Cloud_STM32L431_BearPi/Drivers/STM32L4xx_HAL_Driver/Src\stm32l4xx_hal_uart.c **** 
 688:D:/iot/felix2/targets/Cloud_STM32L431_BearPi/Drivers/STM32L4xx_HAL_Driver/Src\stm32l4xx_hal_uart.c ****   /* Process Unlock */
 689:D:/iot/felix2/targets/Cloud_STM32L431_BearPi/Drivers/STM32L4xx_HAL_Driver/Src\stm32l4xx_hal_uart.c ****   __HAL_UNLOCK(huart);
 652              		.loc 1 689 0
 653 005e 7B68     		ldr	r3, [r7, #4]
 654 0060 0022     		movs	r2, #0
 655 0062 83F87020 		strb	r2, [r3, #112]
 690:D:/iot/felix2/targets/Cloud_STM32L431_BearPi/Drivers/STM32L4xx_HAL_Driver/Src\stm32l4xx_hal_uart.c **** 
 691:D:/iot/felix2/targets/Cloud_STM32L431_BearPi/Drivers/STM32L4xx_HAL_Driver/Src\stm32l4xx_hal_uart.c ****   return HAL_OK;
 656              		.loc 1 691 0
 657 0066 0023     		movs	r3, #0
 658              	.L30:
 692:D:/iot/felix2/targets/Cloud_STM32L431_BearPi/Drivers/STM32L4xx_HAL_Driver/Src\stm32l4xx_hal_uart.c **** }
 659              		.loc 1 692 0
 660 0068 1846     		mov	r0, r3
 661 006a 0837     		adds	r7, r7, #8
 662              	.LCFI23:
 663              		.cfi_def_cfa_offset 8
 664 006c BD46     		mov	sp, r7
 665              	.LCFI24:
 666              		.cfi_def_cfa_register 13
 667              		@ sp needed
 668 006e 80BD     		pop	{r7, pc}
 669              		.cfi_endproc
 670              	.LFE137:
 672              		.section	.text.HAL_UART_MspInit,"ax",%progbits
 673              		.align	1
 674              		.weak	HAL_UART_MspInit
 675              		.syntax unified
 676              		.thumb
 677              		.thumb_func
 678              		.fpu fpv4-sp-d16
 680              	HAL_UART_MspInit:
 681              	.LFB138:
 693:D:/iot/felix2/targets/Cloud_STM32L431_BearPi/Drivers/STM32L4xx_HAL_Driver/Src\stm32l4xx_hal_uart.c **** 
 694:D:/iot/felix2/targets/Cloud_STM32L431_BearPi/Drivers/STM32L4xx_HAL_Driver/Src\stm32l4xx_hal_uart.c **** /**
 695:D:/iot/felix2/targets/Cloud_STM32L431_BearPi/Drivers/STM32L4xx_HAL_Driver/Src\stm32l4xx_hal_uart.c ****   * @brief Initialize the UART MSP.
 696:D:/iot/felix2/targets/Cloud_STM32L431_BearPi/Drivers/STM32L4xx_HAL_Driver/Src\stm32l4xx_hal_uart.c ****   * @param huart UART handle.
 697:D:/iot/felix2/targets/Cloud_STM32L431_BearPi/Drivers/STM32L4xx_HAL_Driver/Src\stm32l4xx_hal_uart.c ****   * @retval None
 698:D:/iot/felix2/targets/Cloud_STM32L431_BearPi/Drivers/STM32L4xx_HAL_Driver/Src\stm32l4xx_hal_uart.c ****   */
ARM GAS  C:\Users\91458\AppData\Local\Temp\ccrpKNIe.s 			page 25


 699:D:/iot/felix2/targets/Cloud_STM32L431_BearPi/Drivers/STM32L4xx_HAL_Driver/Src\stm32l4xx_hal_uart.c **** __weak void HAL_UART_MspInit(UART_HandleTypeDef *huart)
 700:D:/iot/felix2/targets/Cloud_STM32L431_BearPi/Drivers/STM32L4xx_HAL_Driver/Src\stm32l4xx_hal_uart.c **** {
 682              		.loc 1 700 0
 683              		.cfi_startproc
 684              		@ args = 0, pretend = 0, frame = 8
 685              		@ frame_needed = 1, uses_anonymous_args = 0
 686              		@ link register save eliminated.
 687 0000 80B4     		push	{r7}
 688              	.LCFI25:
 689              		.cfi_def_cfa_offset 4
 690              		.cfi_offset 7, -4
 691 0002 83B0     		sub	sp, sp, #12
 692              	.LCFI26:
 693              		.cfi_def_cfa_offset 16
 694 0004 00AF     		add	r7, sp, #0
 695              	.LCFI27:
 696              		.cfi_def_cfa_register 7
 697 0006 7860     		str	r0, [r7, #4]
 701:D:/iot/felix2/targets/Cloud_STM32L431_BearPi/Drivers/STM32L4xx_HAL_Driver/Src\stm32l4xx_hal_uart.c ****   /* Prevent unused argument(s) compilation warning */
 702:D:/iot/felix2/targets/Cloud_STM32L431_BearPi/Drivers/STM32L4xx_HAL_Driver/Src\stm32l4xx_hal_uart.c ****   UNUSED(huart);
 703:D:/iot/felix2/targets/Cloud_STM32L431_BearPi/Drivers/STM32L4xx_HAL_Driver/Src\stm32l4xx_hal_uart.c **** 
 704:D:/iot/felix2/targets/Cloud_STM32L431_BearPi/Drivers/STM32L4xx_HAL_Driver/Src\stm32l4xx_hal_uart.c ****   /* NOTE : This function should not be modified, when the callback is needed,
 705:D:/iot/felix2/targets/Cloud_STM32L431_BearPi/Drivers/STM32L4xx_HAL_Driver/Src\stm32l4xx_hal_uart.c ****             the HAL_UART_MspInit can be implemented in the user file
 706:D:/iot/felix2/targets/Cloud_STM32L431_BearPi/Drivers/STM32L4xx_HAL_Driver/Src\stm32l4xx_hal_uart.c ****    */
 707:D:/iot/felix2/targets/Cloud_STM32L431_BearPi/Drivers/STM32L4xx_HAL_Driver/Src\stm32l4xx_hal_uart.c **** }
 698              		.loc 1 707 0
 699 0008 00BF     		nop
 700 000a 0C37     		adds	r7, r7, #12
 701              	.LCFI28:
 702              		.cfi_def_cfa_offset 4
 703 000c BD46     		mov	sp, r7
 704              	.LCFI29:
 705              		.cfi_def_cfa_register 13
 706              		@ sp needed
 707 000e 5DF8047B 		ldr	r7, [sp], #4
 708              	.LCFI30:
 709              		.cfi_restore 7
 710              		.cfi_def_cfa_offset 0
 711 0012 7047     		bx	lr
 712              		.cfi_endproc
 713              	.LFE138:
 715              		.section	.text.HAL_UART_MspDeInit,"ax",%progbits
 716              		.align	1
 717              		.weak	HAL_UART_MspDeInit
 718              		.syntax unified
 719              		.thumb
 720              		.thumb_func
 721              		.fpu fpv4-sp-d16
 723              	HAL_UART_MspDeInit:
 724              	.LFB139:
 708:D:/iot/felix2/targets/Cloud_STM32L431_BearPi/Drivers/STM32L4xx_HAL_Driver/Src\stm32l4xx_hal_uart.c **** 
 709:D:/iot/felix2/targets/Cloud_STM32L431_BearPi/Drivers/STM32L4xx_HAL_Driver/Src\stm32l4xx_hal_uart.c **** /**
 710:D:/iot/felix2/targets/Cloud_STM32L431_BearPi/Drivers/STM32L4xx_HAL_Driver/Src\stm32l4xx_hal_uart.c ****   * @brief DeInitialize the UART MSP.
 711:D:/iot/felix2/targets/Cloud_STM32L431_BearPi/Drivers/STM32L4xx_HAL_Driver/Src\stm32l4xx_hal_uart.c ****   * @param huart UART handle.
 712:D:/iot/felix2/targets/Cloud_STM32L431_BearPi/Drivers/STM32L4xx_HAL_Driver/Src\stm32l4xx_hal_uart.c ****   * @retval None
 713:D:/iot/felix2/targets/Cloud_STM32L431_BearPi/Drivers/STM32L4xx_HAL_Driver/Src\stm32l4xx_hal_uart.c ****   */
 714:D:/iot/felix2/targets/Cloud_STM32L431_BearPi/Drivers/STM32L4xx_HAL_Driver/Src\stm32l4xx_hal_uart.c **** __weak void HAL_UART_MspDeInit(UART_HandleTypeDef *huart)
ARM GAS  C:\Users\91458\AppData\Local\Temp\ccrpKNIe.s 			page 26


 715:D:/iot/felix2/targets/Cloud_STM32L431_BearPi/Drivers/STM32L4xx_HAL_Driver/Src\stm32l4xx_hal_uart.c **** {
 725              		.loc 1 715 0
 726              		.cfi_startproc
 727              		@ args = 0, pretend = 0, frame = 8
 728              		@ frame_needed = 1, uses_anonymous_args = 0
 729              		@ link register save eliminated.
 730 0000 80B4     		push	{r7}
 731              	.LCFI31:
 732              		.cfi_def_cfa_offset 4
 733              		.cfi_offset 7, -4
 734 0002 83B0     		sub	sp, sp, #12
 735              	.LCFI32:
 736              		.cfi_def_cfa_offset 16
 737 0004 00AF     		add	r7, sp, #0
 738              	.LCFI33:
 739              		.cfi_def_cfa_register 7
 740 0006 7860     		str	r0, [r7, #4]
 716:D:/iot/felix2/targets/Cloud_STM32L431_BearPi/Drivers/STM32L4xx_HAL_Driver/Src\stm32l4xx_hal_uart.c ****   /* Prevent unused argument(s) compilation warning */
 717:D:/iot/felix2/targets/Cloud_STM32L431_BearPi/Drivers/STM32L4xx_HAL_Driver/Src\stm32l4xx_hal_uart.c ****   UNUSED(huart);
 718:D:/iot/felix2/targets/Cloud_STM32L431_BearPi/Drivers/STM32L4xx_HAL_Driver/Src\stm32l4xx_hal_uart.c **** 
 719:D:/iot/felix2/targets/Cloud_STM32L431_BearPi/Drivers/STM32L4xx_HAL_Driver/Src\stm32l4xx_hal_uart.c ****   /* NOTE : This function should not be modified, when the callback is needed,
 720:D:/iot/felix2/targets/Cloud_STM32L431_BearPi/Drivers/STM32L4xx_HAL_Driver/Src\stm32l4xx_hal_uart.c ****             the HAL_UART_MspDeInit can be implemented in the user file
 721:D:/iot/felix2/targets/Cloud_STM32L431_BearPi/Drivers/STM32L4xx_HAL_Driver/Src\stm32l4xx_hal_uart.c ****    */
 722:D:/iot/felix2/targets/Cloud_STM32L431_BearPi/Drivers/STM32L4xx_HAL_Driver/Src\stm32l4xx_hal_uart.c **** }
 741              		.loc 1 722 0
 742 0008 00BF     		nop
 743 000a 0C37     		adds	r7, r7, #12
 744              	.LCFI34:
 745              		.cfi_def_cfa_offset 4
 746 000c BD46     		mov	sp, r7
 747              	.LCFI35:
 748              		.cfi_def_cfa_register 13
 749              		@ sp needed
 750 000e 5DF8047B 		ldr	r7, [sp], #4
 751              	.LCFI36:
 752              		.cfi_restore 7
 753              		.cfi_def_cfa_offset 0
 754 0012 7047     		bx	lr
 755              		.cfi_endproc
 756              	.LFE139:
 758              		.section	.text.HAL_UART_Transmit,"ax",%progbits
 759              		.align	1
 760              		.global	HAL_UART_Transmit
 761              		.syntax unified
 762              		.thumb
 763              		.thumb_func
 764              		.fpu fpv4-sp-d16
 766              	HAL_UART_Transmit:
 767              	.LFB140:
 723:D:/iot/felix2/targets/Cloud_STM32L431_BearPi/Drivers/STM32L4xx_HAL_Driver/Src\stm32l4xx_hal_uart.c **** 
 724:D:/iot/felix2/targets/Cloud_STM32L431_BearPi/Drivers/STM32L4xx_HAL_Driver/Src\stm32l4xx_hal_uart.c **** #if (USE_HAL_UART_REGISTER_CALLBACKS == 1)
 725:D:/iot/felix2/targets/Cloud_STM32L431_BearPi/Drivers/STM32L4xx_HAL_Driver/Src\stm32l4xx_hal_uart.c **** /**
 726:D:/iot/felix2/targets/Cloud_STM32L431_BearPi/Drivers/STM32L4xx_HAL_Driver/Src\stm32l4xx_hal_uart.c ****   * @brief  Register a User UART Callback
 727:D:/iot/felix2/targets/Cloud_STM32L431_BearPi/Drivers/STM32L4xx_HAL_Driver/Src\stm32l4xx_hal_uart.c ****   *         To be used instead of the weak predefined callback
 728:D:/iot/felix2/targets/Cloud_STM32L431_BearPi/Drivers/STM32L4xx_HAL_Driver/Src\stm32l4xx_hal_uart.c ****   * @param  huart uart handle
 729:D:/iot/felix2/targets/Cloud_STM32L431_BearPi/Drivers/STM32L4xx_HAL_Driver/Src\stm32l4xx_hal_uart.c ****   * @param  CallbackID ID of the callback to be registered
 730:D:/iot/felix2/targets/Cloud_STM32L431_BearPi/Drivers/STM32L4xx_HAL_Driver/Src\stm32l4xx_hal_uart.c ****   *         This parameter can be one of the following values:
ARM GAS  C:\Users\91458\AppData\Local\Temp\ccrpKNIe.s 			page 27


 731:D:/iot/felix2/targets/Cloud_STM32L431_BearPi/Drivers/STM32L4xx_HAL_Driver/Src\stm32l4xx_hal_uart.c ****   *           @arg @ref HAL_UART_TX_HALFCOMPLETE_CB_ID Tx Half Complete Callback ID
 732:D:/iot/felix2/targets/Cloud_STM32L431_BearPi/Drivers/STM32L4xx_HAL_Driver/Src\stm32l4xx_hal_uart.c ****   *           @arg @ref HAL_UART_TX_COMPLETE_CB_ID Tx Complete Callback ID
 733:D:/iot/felix2/targets/Cloud_STM32L431_BearPi/Drivers/STM32L4xx_HAL_Driver/Src\stm32l4xx_hal_uart.c ****   *           @arg @ref HAL_UART_RX_HALFCOMPLETE_CB_ID Rx Half Complete Callback ID
 734:D:/iot/felix2/targets/Cloud_STM32L431_BearPi/Drivers/STM32L4xx_HAL_Driver/Src\stm32l4xx_hal_uart.c ****   *           @arg @ref HAL_UART_RX_COMPLETE_CB_ID Rx Complete Callback ID
 735:D:/iot/felix2/targets/Cloud_STM32L431_BearPi/Drivers/STM32L4xx_HAL_Driver/Src\stm32l4xx_hal_uart.c ****   *           @arg @ref HAL_UART_ERROR_CB_ID Error Callback ID
 736:D:/iot/felix2/targets/Cloud_STM32L431_BearPi/Drivers/STM32L4xx_HAL_Driver/Src\stm32l4xx_hal_uart.c ****   *           @arg @ref HAL_UART_ABORT_COMPLETE_CB_ID Abort Complete Callback ID
 737:D:/iot/felix2/targets/Cloud_STM32L431_BearPi/Drivers/STM32L4xx_HAL_Driver/Src\stm32l4xx_hal_uart.c ****   *           @arg @ref HAL_UART_ABORT_TRANSMIT_COMPLETE_CB_ID Abort Transmit Complete Callback ID
 738:D:/iot/felix2/targets/Cloud_STM32L431_BearPi/Drivers/STM32L4xx_HAL_Driver/Src\stm32l4xx_hal_uart.c ****   *           @arg @ref HAL_UART_ABORT_RECEIVE_COMPLETE_CB_ID Abort Receive Complete Callback ID
 739:D:/iot/felix2/targets/Cloud_STM32L431_BearPi/Drivers/STM32L4xx_HAL_Driver/Src\stm32l4xx_hal_uart.c ****   *           @arg @ref HAL_UART_WAKEUP_CB_ID Wakeup Callback ID
 740:D:/iot/felix2/targets/Cloud_STM32L431_BearPi/Drivers/STM32L4xx_HAL_Driver/Src\stm32l4xx_hal_uart.c ****   *           @arg @ref HAL_UART_RX_FIFO_FULL_CB_ID Rx Fifo Full Callback ID
 741:D:/iot/felix2/targets/Cloud_STM32L431_BearPi/Drivers/STM32L4xx_HAL_Driver/Src\stm32l4xx_hal_uart.c ****   *           @arg @ref HAL_UART_TX_FIFO_EMPTY_CB_ID Tx Fifo Empty Callback ID
 742:D:/iot/felix2/targets/Cloud_STM32L431_BearPi/Drivers/STM32L4xx_HAL_Driver/Src\stm32l4xx_hal_uart.c ****   *           @arg @ref HAL_UART_MSPINIT_CB_ID MspInit Callback ID
 743:D:/iot/felix2/targets/Cloud_STM32L431_BearPi/Drivers/STM32L4xx_HAL_Driver/Src\stm32l4xx_hal_uart.c ****   *           @arg @ref HAL_UART_MSPDEINIT_CB_ID MspDeInit Callback ID
 744:D:/iot/felix2/targets/Cloud_STM32L431_BearPi/Drivers/STM32L4xx_HAL_Driver/Src\stm32l4xx_hal_uart.c ****   * @param  pCallback pointer to the Callback function
 745:D:/iot/felix2/targets/Cloud_STM32L431_BearPi/Drivers/STM32L4xx_HAL_Driver/Src\stm32l4xx_hal_uart.c ****   * @retval HAL status
 746:D:/iot/felix2/targets/Cloud_STM32L431_BearPi/Drivers/STM32L4xx_HAL_Driver/Src\stm32l4xx_hal_uart.c ****   */
 747:D:/iot/felix2/targets/Cloud_STM32L431_BearPi/Drivers/STM32L4xx_HAL_Driver/Src\stm32l4xx_hal_uart.c **** HAL_StatusTypeDef HAL_UART_RegisterCallback(UART_HandleTypeDef *huart, HAL_UART_CallbackIDTypeDef C
 748:D:/iot/felix2/targets/Cloud_STM32L431_BearPi/Drivers/STM32L4xx_HAL_Driver/Src\stm32l4xx_hal_uart.c **** {
 749:D:/iot/felix2/targets/Cloud_STM32L431_BearPi/Drivers/STM32L4xx_HAL_Driver/Src\stm32l4xx_hal_uart.c ****   HAL_StatusTypeDef status = HAL_OK;
 750:D:/iot/felix2/targets/Cloud_STM32L431_BearPi/Drivers/STM32L4xx_HAL_Driver/Src\stm32l4xx_hal_uart.c **** 
 751:D:/iot/felix2/targets/Cloud_STM32L431_BearPi/Drivers/STM32L4xx_HAL_Driver/Src\stm32l4xx_hal_uart.c ****   if (pCallback == NULL)
 752:D:/iot/felix2/targets/Cloud_STM32L431_BearPi/Drivers/STM32L4xx_HAL_Driver/Src\stm32l4xx_hal_uart.c ****   {
 753:D:/iot/felix2/targets/Cloud_STM32L431_BearPi/Drivers/STM32L4xx_HAL_Driver/Src\stm32l4xx_hal_uart.c ****     /* Update the error code */
 754:D:/iot/felix2/targets/Cloud_STM32L431_BearPi/Drivers/STM32L4xx_HAL_Driver/Src\stm32l4xx_hal_uart.c ****     huart->ErrorCode |= HAL_UART_ERROR_INVALID_CALLBACK;
 755:D:/iot/felix2/targets/Cloud_STM32L431_BearPi/Drivers/STM32L4xx_HAL_Driver/Src\stm32l4xx_hal_uart.c **** 
 756:D:/iot/felix2/targets/Cloud_STM32L431_BearPi/Drivers/STM32L4xx_HAL_Driver/Src\stm32l4xx_hal_uart.c ****     return HAL_ERROR;
 757:D:/iot/felix2/targets/Cloud_STM32L431_BearPi/Drivers/STM32L4xx_HAL_Driver/Src\stm32l4xx_hal_uart.c ****   }
 758:D:/iot/felix2/targets/Cloud_STM32L431_BearPi/Drivers/STM32L4xx_HAL_Driver/Src\stm32l4xx_hal_uart.c ****   /* Process locked */
 759:D:/iot/felix2/targets/Cloud_STM32L431_BearPi/Drivers/STM32L4xx_HAL_Driver/Src\stm32l4xx_hal_uart.c ****   __HAL_LOCK(huart);
 760:D:/iot/felix2/targets/Cloud_STM32L431_BearPi/Drivers/STM32L4xx_HAL_Driver/Src\stm32l4xx_hal_uart.c **** 
 761:D:/iot/felix2/targets/Cloud_STM32L431_BearPi/Drivers/STM32L4xx_HAL_Driver/Src\stm32l4xx_hal_uart.c ****   if (huart->gState == HAL_UART_STATE_READY)
 762:D:/iot/felix2/targets/Cloud_STM32L431_BearPi/Drivers/STM32L4xx_HAL_Driver/Src\stm32l4xx_hal_uart.c ****   {
 763:D:/iot/felix2/targets/Cloud_STM32L431_BearPi/Drivers/STM32L4xx_HAL_Driver/Src\stm32l4xx_hal_uart.c ****     switch (CallbackID)
 764:D:/iot/felix2/targets/Cloud_STM32L431_BearPi/Drivers/STM32L4xx_HAL_Driver/Src\stm32l4xx_hal_uart.c ****     {
 765:D:/iot/felix2/targets/Cloud_STM32L431_BearPi/Drivers/STM32L4xx_HAL_Driver/Src\stm32l4xx_hal_uart.c ****       case HAL_UART_TX_HALFCOMPLETE_CB_ID :
 766:D:/iot/felix2/targets/Cloud_STM32L431_BearPi/Drivers/STM32L4xx_HAL_Driver/Src\stm32l4xx_hal_uart.c ****         huart->TxHalfCpltCallback = pCallback;
 767:D:/iot/felix2/targets/Cloud_STM32L431_BearPi/Drivers/STM32L4xx_HAL_Driver/Src\stm32l4xx_hal_uart.c ****         break;
 768:D:/iot/felix2/targets/Cloud_STM32L431_BearPi/Drivers/STM32L4xx_HAL_Driver/Src\stm32l4xx_hal_uart.c **** 
 769:D:/iot/felix2/targets/Cloud_STM32L431_BearPi/Drivers/STM32L4xx_HAL_Driver/Src\stm32l4xx_hal_uart.c ****       case HAL_UART_TX_COMPLETE_CB_ID :
 770:D:/iot/felix2/targets/Cloud_STM32L431_BearPi/Drivers/STM32L4xx_HAL_Driver/Src\stm32l4xx_hal_uart.c ****         huart->TxCpltCallback = pCallback;
 771:D:/iot/felix2/targets/Cloud_STM32L431_BearPi/Drivers/STM32L4xx_HAL_Driver/Src\stm32l4xx_hal_uart.c ****         break;
 772:D:/iot/felix2/targets/Cloud_STM32L431_BearPi/Drivers/STM32L4xx_HAL_Driver/Src\stm32l4xx_hal_uart.c **** 
 773:D:/iot/felix2/targets/Cloud_STM32L431_BearPi/Drivers/STM32L4xx_HAL_Driver/Src\stm32l4xx_hal_uart.c ****       case HAL_UART_RX_HALFCOMPLETE_CB_ID :
 774:D:/iot/felix2/targets/Cloud_STM32L431_BearPi/Drivers/STM32L4xx_HAL_Driver/Src\stm32l4xx_hal_uart.c ****         huart->RxHalfCpltCallback = pCallback;
 775:D:/iot/felix2/targets/Cloud_STM32L431_BearPi/Drivers/STM32L4xx_HAL_Driver/Src\stm32l4xx_hal_uart.c ****         break;
 776:D:/iot/felix2/targets/Cloud_STM32L431_BearPi/Drivers/STM32L4xx_HAL_Driver/Src\stm32l4xx_hal_uart.c **** 
 777:D:/iot/felix2/targets/Cloud_STM32L431_BearPi/Drivers/STM32L4xx_HAL_Driver/Src\stm32l4xx_hal_uart.c ****       case HAL_UART_RX_COMPLETE_CB_ID :
 778:D:/iot/felix2/targets/Cloud_STM32L431_BearPi/Drivers/STM32L4xx_HAL_Driver/Src\stm32l4xx_hal_uart.c ****         huart->RxCpltCallback = pCallback;
 779:D:/iot/felix2/targets/Cloud_STM32L431_BearPi/Drivers/STM32L4xx_HAL_Driver/Src\stm32l4xx_hal_uart.c ****         break;
 780:D:/iot/felix2/targets/Cloud_STM32L431_BearPi/Drivers/STM32L4xx_HAL_Driver/Src\stm32l4xx_hal_uart.c **** 
 781:D:/iot/felix2/targets/Cloud_STM32L431_BearPi/Drivers/STM32L4xx_HAL_Driver/Src\stm32l4xx_hal_uart.c ****       case HAL_UART_ERROR_CB_ID :
 782:D:/iot/felix2/targets/Cloud_STM32L431_BearPi/Drivers/STM32L4xx_HAL_Driver/Src\stm32l4xx_hal_uart.c ****         huart->ErrorCallback = pCallback;
 783:D:/iot/felix2/targets/Cloud_STM32L431_BearPi/Drivers/STM32L4xx_HAL_Driver/Src\stm32l4xx_hal_uart.c ****         break;
 784:D:/iot/felix2/targets/Cloud_STM32L431_BearPi/Drivers/STM32L4xx_HAL_Driver/Src\stm32l4xx_hal_uart.c **** 
 785:D:/iot/felix2/targets/Cloud_STM32L431_BearPi/Drivers/STM32L4xx_HAL_Driver/Src\stm32l4xx_hal_uart.c ****       case HAL_UART_ABORT_COMPLETE_CB_ID :
 786:D:/iot/felix2/targets/Cloud_STM32L431_BearPi/Drivers/STM32L4xx_HAL_Driver/Src\stm32l4xx_hal_uart.c ****         huart->AbortCpltCallback = pCallback;
 787:D:/iot/felix2/targets/Cloud_STM32L431_BearPi/Drivers/STM32L4xx_HAL_Driver/Src\stm32l4xx_hal_uart.c ****         break;
ARM GAS  C:\Users\91458\AppData\Local\Temp\ccrpKNIe.s 			page 28


 788:D:/iot/felix2/targets/Cloud_STM32L431_BearPi/Drivers/STM32L4xx_HAL_Driver/Src\stm32l4xx_hal_uart.c **** 
 789:D:/iot/felix2/targets/Cloud_STM32L431_BearPi/Drivers/STM32L4xx_HAL_Driver/Src\stm32l4xx_hal_uart.c ****       case HAL_UART_ABORT_TRANSMIT_COMPLETE_CB_ID :
 790:D:/iot/felix2/targets/Cloud_STM32L431_BearPi/Drivers/STM32L4xx_HAL_Driver/Src\stm32l4xx_hal_uart.c ****         huart->AbortTransmitCpltCallback = pCallback;
 791:D:/iot/felix2/targets/Cloud_STM32L431_BearPi/Drivers/STM32L4xx_HAL_Driver/Src\stm32l4xx_hal_uart.c ****         break;
 792:D:/iot/felix2/targets/Cloud_STM32L431_BearPi/Drivers/STM32L4xx_HAL_Driver/Src\stm32l4xx_hal_uart.c **** 
 793:D:/iot/felix2/targets/Cloud_STM32L431_BearPi/Drivers/STM32L4xx_HAL_Driver/Src\stm32l4xx_hal_uart.c ****       case HAL_UART_ABORT_RECEIVE_COMPLETE_CB_ID :
 794:D:/iot/felix2/targets/Cloud_STM32L431_BearPi/Drivers/STM32L4xx_HAL_Driver/Src\stm32l4xx_hal_uart.c ****         huart->AbortReceiveCpltCallback = pCallback;
 795:D:/iot/felix2/targets/Cloud_STM32L431_BearPi/Drivers/STM32L4xx_HAL_Driver/Src\stm32l4xx_hal_uart.c ****         break;
 796:D:/iot/felix2/targets/Cloud_STM32L431_BearPi/Drivers/STM32L4xx_HAL_Driver/Src\stm32l4xx_hal_uart.c **** 
 797:D:/iot/felix2/targets/Cloud_STM32L431_BearPi/Drivers/STM32L4xx_HAL_Driver/Src\stm32l4xx_hal_uart.c ****       case HAL_UART_WAKEUP_CB_ID :
 798:D:/iot/felix2/targets/Cloud_STM32L431_BearPi/Drivers/STM32L4xx_HAL_Driver/Src\stm32l4xx_hal_uart.c ****         huart->WakeupCallback = pCallback;
 799:D:/iot/felix2/targets/Cloud_STM32L431_BearPi/Drivers/STM32L4xx_HAL_Driver/Src\stm32l4xx_hal_uart.c ****         break;
 800:D:/iot/felix2/targets/Cloud_STM32L431_BearPi/Drivers/STM32L4xx_HAL_Driver/Src\stm32l4xx_hal_uart.c **** 
 801:D:/iot/felix2/targets/Cloud_STM32L431_BearPi/Drivers/STM32L4xx_HAL_Driver/Src\stm32l4xx_hal_uart.c **** #if defined(USART_CR1_FIFOEN)
 802:D:/iot/felix2/targets/Cloud_STM32L431_BearPi/Drivers/STM32L4xx_HAL_Driver/Src\stm32l4xx_hal_uart.c ****       case HAL_UART_RX_FIFO_FULL_CB_ID :
 803:D:/iot/felix2/targets/Cloud_STM32L431_BearPi/Drivers/STM32L4xx_HAL_Driver/Src\stm32l4xx_hal_uart.c ****         huart->RxFifoFullCallback = pCallback;
 804:D:/iot/felix2/targets/Cloud_STM32L431_BearPi/Drivers/STM32L4xx_HAL_Driver/Src\stm32l4xx_hal_uart.c ****         break;
 805:D:/iot/felix2/targets/Cloud_STM32L431_BearPi/Drivers/STM32L4xx_HAL_Driver/Src\stm32l4xx_hal_uart.c **** 
 806:D:/iot/felix2/targets/Cloud_STM32L431_BearPi/Drivers/STM32L4xx_HAL_Driver/Src\stm32l4xx_hal_uart.c ****       case HAL_UART_TX_FIFO_EMPTY_CB_ID :
 807:D:/iot/felix2/targets/Cloud_STM32L431_BearPi/Drivers/STM32L4xx_HAL_Driver/Src\stm32l4xx_hal_uart.c ****         huart->TxFifoEmptyCallback = pCallback;
 808:D:/iot/felix2/targets/Cloud_STM32L431_BearPi/Drivers/STM32L4xx_HAL_Driver/Src\stm32l4xx_hal_uart.c ****         break;
 809:D:/iot/felix2/targets/Cloud_STM32L431_BearPi/Drivers/STM32L4xx_HAL_Driver/Src\stm32l4xx_hal_uart.c **** #endif
 810:D:/iot/felix2/targets/Cloud_STM32L431_BearPi/Drivers/STM32L4xx_HAL_Driver/Src\stm32l4xx_hal_uart.c **** 
 811:D:/iot/felix2/targets/Cloud_STM32L431_BearPi/Drivers/STM32L4xx_HAL_Driver/Src\stm32l4xx_hal_uart.c ****       case HAL_UART_MSPINIT_CB_ID :
 812:D:/iot/felix2/targets/Cloud_STM32L431_BearPi/Drivers/STM32L4xx_HAL_Driver/Src\stm32l4xx_hal_uart.c ****         huart->MspInitCallback = pCallback;
 813:D:/iot/felix2/targets/Cloud_STM32L431_BearPi/Drivers/STM32L4xx_HAL_Driver/Src\stm32l4xx_hal_uart.c ****         break;
 814:D:/iot/felix2/targets/Cloud_STM32L431_BearPi/Drivers/STM32L4xx_HAL_Driver/Src\stm32l4xx_hal_uart.c **** 
 815:D:/iot/felix2/targets/Cloud_STM32L431_BearPi/Drivers/STM32L4xx_HAL_Driver/Src\stm32l4xx_hal_uart.c ****       case HAL_UART_MSPDEINIT_CB_ID :
 816:D:/iot/felix2/targets/Cloud_STM32L431_BearPi/Drivers/STM32L4xx_HAL_Driver/Src\stm32l4xx_hal_uart.c ****         huart->MspDeInitCallback = pCallback;
 817:D:/iot/felix2/targets/Cloud_STM32L431_BearPi/Drivers/STM32L4xx_HAL_Driver/Src\stm32l4xx_hal_uart.c ****         break;
 818:D:/iot/felix2/targets/Cloud_STM32L431_BearPi/Drivers/STM32L4xx_HAL_Driver/Src\stm32l4xx_hal_uart.c **** 
 819:D:/iot/felix2/targets/Cloud_STM32L431_BearPi/Drivers/STM32L4xx_HAL_Driver/Src\stm32l4xx_hal_uart.c ****       default :
 820:D:/iot/felix2/targets/Cloud_STM32L431_BearPi/Drivers/STM32L4xx_HAL_Driver/Src\stm32l4xx_hal_uart.c ****         /* Update the error code */
 821:D:/iot/felix2/targets/Cloud_STM32L431_BearPi/Drivers/STM32L4xx_HAL_Driver/Src\stm32l4xx_hal_uart.c ****         huart->ErrorCode |= HAL_UART_ERROR_INVALID_CALLBACK;
 822:D:/iot/felix2/targets/Cloud_STM32L431_BearPi/Drivers/STM32L4xx_HAL_Driver/Src\stm32l4xx_hal_uart.c **** 
 823:D:/iot/felix2/targets/Cloud_STM32L431_BearPi/Drivers/STM32L4xx_HAL_Driver/Src\stm32l4xx_hal_uart.c ****         /* Return error status */
 824:D:/iot/felix2/targets/Cloud_STM32L431_BearPi/Drivers/STM32L4xx_HAL_Driver/Src\stm32l4xx_hal_uart.c ****         status =  HAL_ERROR;
 825:D:/iot/felix2/targets/Cloud_STM32L431_BearPi/Drivers/STM32L4xx_HAL_Driver/Src\stm32l4xx_hal_uart.c ****         break;
 826:D:/iot/felix2/targets/Cloud_STM32L431_BearPi/Drivers/STM32L4xx_HAL_Driver/Src\stm32l4xx_hal_uart.c ****     }
 827:D:/iot/felix2/targets/Cloud_STM32L431_BearPi/Drivers/STM32L4xx_HAL_Driver/Src\stm32l4xx_hal_uart.c ****   }
 828:D:/iot/felix2/targets/Cloud_STM32L431_BearPi/Drivers/STM32L4xx_HAL_Driver/Src\stm32l4xx_hal_uart.c ****   else if (huart->gState == HAL_UART_STATE_RESET)
 829:D:/iot/felix2/targets/Cloud_STM32L431_BearPi/Drivers/STM32L4xx_HAL_Driver/Src\stm32l4xx_hal_uart.c ****   {
 830:D:/iot/felix2/targets/Cloud_STM32L431_BearPi/Drivers/STM32L4xx_HAL_Driver/Src\stm32l4xx_hal_uart.c ****     switch (CallbackID)
 831:D:/iot/felix2/targets/Cloud_STM32L431_BearPi/Drivers/STM32L4xx_HAL_Driver/Src\stm32l4xx_hal_uart.c ****     {
 832:D:/iot/felix2/targets/Cloud_STM32L431_BearPi/Drivers/STM32L4xx_HAL_Driver/Src\stm32l4xx_hal_uart.c ****       case HAL_UART_MSPINIT_CB_ID :
 833:D:/iot/felix2/targets/Cloud_STM32L431_BearPi/Drivers/STM32L4xx_HAL_Driver/Src\stm32l4xx_hal_uart.c ****         huart->MspInitCallback = pCallback;
 834:D:/iot/felix2/targets/Cloud_STM32L431_BearPi/Drivers/STM32L4xx_HAL_Driver/Src\stm32l4xx_hal_uart.c ****         break;
 835:D:/iot/felix2/targets/Cloud_STM32L431_BearPi/Drivers/STM32L4xx_HAL_Driver/Src\stm32l4xx_hal_uart.c **** 
 836:D:/iot/felix2/targets/Cloud_STM32L431_BearPi/Drivers/STM32L4xx_HAL_Driver/Src\stm32l4xx_hal_uart.c ****       case HAL_UART_MSPDEINIT_CB_ID :
 837:D:/iot/felix2/targets/Cloud_STM32L431_BearPi/Drivers/STM32L4xx_HAL_Driver/Src\stm32l4xx_hal_uart.c ****         huart->MspDeInitCallback = pCallback;
 838:D:/iot/felix2/targets/Cloud_STM32L431_BearPi/Drivers/STM32L4xx_HAL_Driver/Src\stm32l4xx_hal_uart.c ****         break;
 839:D:/iot/felix2/targets/Cloud_STM32L431_BearPi/Drivers/STM32L4xx_HAL_Driver/Src\stm32l4xx_hal_uart.c **** 
 840:D:/iot/felix2/targets/Cloud_STM32L431_BearPi/Drivers/STM32L4xx_HAL_Driver/Src\stm32l4xx_hal_uart.c ****       default :
 841:D:/iot/felix2/targets/Cloud_STM32L431_BearPi/Drivers/STM32L4xx_HAL_Driver/Src\stm32l4xx_hal_uart.c ****         /* Update the error code */
 842:D:/iot/felix2/targets/Cloud_STM32L431_BearPi/Drivers/STM32L4xx_HAL_Driver/Src\stm32l4xx_hal_uart.c ****         huart->ErrorCode |= HAL_UART_ERROR_INVALID_CALLBACK;
 843:D:/iot/felix2/targets/Cloud_STM32L431_BearPi/Drivers/STM32L4xx_HAL_Driver/Src\stm32l4xx_hal_uart.c **** 
 844:D:/iot/felix2/targets/Cloud_STM32L431_BearPi/Drivers/STM32L4xx_HAL_Driver/Src\stm32l4xx_hal_uart.c ****         /* Return error status */
ARM GAS  C:\Users\91458\AppData\Local\Temp\ccrpKNIe.s 			page 29


 845:D:/iot/felix2/targets/Cloud_STM32L431_BearPi/Drivers/STM32L4xx_HAL_Driver/Src\stm32l4xx_hal_uart.c ****         status =  HAL_ERROR;
 846:D:/iot/felix2/targets/Cloud_STM32L431_BearPi/Drivers/STM32L4xx_HAL_Driver/Src\stm32l4xx_hal_uart.c ****         break;
 847:D:/iot/felix2/targets/Cloud_STM32L431_BearPi/Drivers/STM32L4xx_HAL_Driver/Src\stm32l4xx_hal_uart.c ****     }
 848:D:/iot/felix2/targets/Cloud_STM32L431_BearPi/Drivers/STM32L4xx_HAL_Driver/Src\stm32l4xx_hal_uart.c ****   }
 849:D:/iot/felix2/targets/Cloud_STM32L431_BearPi/Drivers/STM32L4xx_HAL_Driver/Src\stm32l4xx_hal_uart.c ****   else
 850:D:/iot/felix2/targets/Cloud_STM32L431_BearPi/Drivers/STM32L4xx_HAL_Driver/Src\stm32l4xx_hal_uart.c ****   {
 851:D:/iot/felix2/targets/Cloud_STM32L431_BearPi/Drivers/STM32L4xx_HAL_Driver/Src\stm32l4xx_hal_uart.c ****     /* Update the error code */
 852:D:/iot/felix2/targets/Cloud_STM32L431_BearPi/Drivers/STM32L4xx_HAL_Driver/Src\stm32l4xx_hal_uart.c ****     huart->ErrorCode |= HAL_UART_ERROR_INVALID_CALLBACK;
 853:D:/iot/felix2/targets/Cloud_STM32L431_BearPi/Drivers/STM32L4xx_HAL_Driver/Src\stm32l4xx_hal_uart.c **** 
 854:D:/iot/felix2/targets/Cloud_STM32L431_BearPi/Drivers/STM32L4xx_HAL_Driver/Src\stm32l4xx_hal_uart.c ****     /* Return error status */
 855:D:/iot/felix2/targets/Cloud_STM32L431_BearPi/Drivers/STM32L4xx_HAL_Driver/Src\stm32l4xx_hal_uart.c ****     status =  HAL_ERROR;
 856:D:/iot/felix2/targets/Cloud_STM32L431_BearPi/Drivers/STM32L4xx_HAL_Driver/Src\stm32l4xx_hal_uart.c ****   }
 857:D:/iot/felix2/targets/Cloud_STM32L431_BearPi/Drivers/STM32L4xx_HAL_Driver/Src\stm32l4xx_hal_uart.c **** 
 858:D:/iot/felix2/targets/Cloud_STM32L431_BearPi/Drivers/STM32L4xx_HAL_Driver/Src\stm32l4xx_hal_uart.c ****   /* Release Lock */
 859:D:/iot/felix2/targets/Cloud_STM32L431_BearPi/Drivers/STM32L4xx_HAL_Driver/Src\stm32l4xx_hal_uart.c ****   __HAL_UNLOCK(huart);
 860:D:/iot/felix2/targets/Cloud_STM32L431_BearPi/Drivers/STM32L4xx_HAL_Driver/Src\stm32l4xx_hal_uart.c **** 
 861:D:/iot/felix2/targets/Cloud_STM32L431_BearPi/Drivers/STM32L4xx_HAL_Driver/Src\stm32l4xx_hal_uart.c ****   return status;
 862:D:/iot/felix2/targets/Cloud_STM32L431_BearPi/Drivers/STM32L4xx_HAL_Driver/Src\stm32l4xx_hal_uart.c **** }
 863:D:/iot/felix2/targets/Cloud_STM32L431_BearPi/Drivers/STM32L4xx_HAL_Driver/Src\stm32l4xx_hal_uart.c **** 
 864:D:/iot/felix2/targets/Cloud_STM32L431_BearPi/Drivers/STM32L4xx_HAL_Driver/Src\stm32l4xx_hal_uart.c **** /**
 865:D:/iot/felix2/targets/Cloud_STM32L431_BearPi/Drivers/STM32L4xx_HAL_Driver/Src\stm32l4xx_hal_uart.c ****   * @brief  Unregister an UART Callback
 866:D:/iot/felix2/targets/Cloud_STM32L431_BearPi/Drivers/STM32L4xx_HAL_Driver/Src\stm32l4xx_hal_uart.c ****   *         UART callaback is redirected to the weak predefined callback
 867:D:/iot/felix2/targets/Cloud_STM32L431_BearPi/Drivers/STM32L4xx_HAL_Driver/Src\stm32l4xx_hal_uart.c ****   * @param  huart uart handle
 868:D:/iot/felix2/targets/Cloud_STM32L431_BearPi/Drivers/STM32L4xx_HAL_Driver/Src\stm32l4xx_hal_uart.c ****   * @param  CallbackID ID of the callback to be unregistered
 869:D:/iot/felix2/targets/Cloud_STM32L431_BearPi/Drivers/STM32L4xx_HAL_Driver/Src\stm32l4xx_hal_uart.c ****   *         This parameter can be one of the following values:
 870:D:/iot/felix2/targets/Cloud_STM32L431_BearPi/Drivers/STM32L4xx_HAL_Driver/Src\stm32l4xx_hal_uart.c ****   *           @arg @ref HAL_UART_TX_HALFCOMPLETE_CB_ID Tx Half Complete Callback ID
 871:D:/iot/felix2/targets/Cloud_STM32L431_BearPi/Drivers/STM32L4xx_HAL_Driver/Src\stm32l4xx_hal_uart.c ****   *           @arg @ref HAL_UART_TX_COMPLETE_CB_ID Tx Complete Callback ID
 872:D:/iot/felix2/targets/Cloud_STM32L431_BearPi/Drivers/STM32L4xx_HAL_Driver/Src\stm32l4xx_hal_uart.c ****   *           @arg @ref HAL_UART_RX_HALFCOMPLETE_CB_ID Rx Half Complete Callback ID
 873:D:/iot/felix2/targets/Cloud_STM32L431_BearPi/Drivers/STM32L4xx_HAL_Driver/Src\stm32l4xx_hal_uart.c ****   *           @arg @ref HAL_UART_RX_COMPLETE_CB_ID Rx Complete Callback ID
 874:D:/iot/felix2/targets/Cloud_STM32L431_BearPi/Drivers/STM32L4xx_HAL_Driver/Src\stm32l4xx_hal_uart.c ****   *           @arg @ref HAL_UART_ERROR_CB_ID Error Callback ID
 875:D:/iot/felix2/targets/Cloud_STM32L431_BearPi/Drivers/STM32L4xx_HAL_Driver/Src\stm32l4xx_hal_uart.c ****   *           @arg @ref HAL_UART_ABORT_COMPLETE_CB_ID Abort Complete Callback ID
 876:D:/iot/felix2/targets/Cloud_STM32L431_BearPi/Drivers/STM32L4xx_HAL_Driver/Src\stm32l4xx_hal_uart.c ****   *           @arg @ref HAL_UART_ABORT_TRANSMIT_COMPLETE_CB_ID Abort Transmit Complete Callback ID
 877:D:/iot/felix2/targets/Cloud_STM32L431_BearPi/Drivers/STM32L4xx_HAL_Driver/Src\stm32l4xx_hal_uart.c ****   *           @arg @ref HAL_UART_ABORT_RECEIVE_COMPLETE_CB_ID Abort Receive Complete Callback ID
 878:D:/iot/felix2/targets/Cloud_STM32L431_BearPi/Drivers/STM32L4xx_HAL_Driver/Src\stm32l4xx_hal_uart.c ****   *           @arg @ref HAL_UART_WAKEUP_CB_ID Wakeup Callback ID
 879:D:/iot/felix2/targets/Cloud_STM32L431_BearPi/Drivers/STM32L4xx_HAL_Driver/Src\stm32l4xx_hal_uart.c ****   *           @arg @ref HAL_UART_RX_FIFO_FULL_CB_ID Rx Fifo Full Callback ID
 880:D:/iot/felix2/targets/Cloud_STM32L431_BearPi/Drivers/STM32L4xx_HAL_Driver/Src\stm32l4xx_hal_uart.c ****   *           @arg @ref HAL_UART_TX_FIFO_EMPTY_CB_ID Tx Fifo Empty Callback ID
 881:D:/iot/felix2/targets/Cloud_STM32L431_BearPi/Drivers/STM32L4xx_HAL_Driver/Src\stm32l4xx_hal_uart.c ****   *           @arg @ref HAL_UART_MSPINIT_CB_ID MspInit Callback ID
 882:D:/iot/felix2/targets/Cloud_STM32L431_BearPi/Drivers/STM32L4xx_HAL_Driver/Src\stm32l4xx_hal_uart.c ****   *           @arg @ref HAL_UART_MSPDEINIT_CB_ID MspDeInit Callback ID
 883:D:/iot/felix2/targets/Cloud_STM32L431_BearPi/Drivers/STM32L4xx_HAL_Driver/Src\stm32l4xx_hal_uart.c ****   * @retval HAL status
 884:D:/iot/felix2/targets/Cloud_STM32L431_BearPi/Drivers/STM32L4xx_HAL_Driver/Src\stm32l4xx_hal_uart.c ****   */
 885:D:/iot/felix2/targets/Cloud_STM32L431_BearPi/Drivers/STM32L4xx_HAL_Driver/Src\stm32l4xx_hal_uart.c **** HAL_StatusTypeDef HAL_UART_UnRegisterCallback(UART_HandleTypeDef *huart, HAL_UART_CallbackIDTypeDef
 886:D:/iot/felix2/targets/Cloud_STM32L431_BearPi/Drivers/STM32L4xx_HAL_Driver/Src\stm32l4xx_hal_uart.c **** {
 887:D:/iot/felix2/targets/Cloud_STM32L431_BearPi/Drivers/STM32L4xx_HAL_Driver/Src\stm32l4xx_hal_uart.c ****   HAL_StatusTypeDef status = HAL_OK;
 888:D:/iot/felix2/targets/Cloud_STM32L431_BearPi/Drivers/STM32L4xx_HAL_Driver/Src\stm32l4xx_hal_uart.c **** 
 889:D:/iot/felix2/targets/Cloud_STM32L431_BearPi/Drivers/STM32L4xx_HAL_Driver/Src\stm32l4xx_hal_uart.c ****   /* Process locked */
 890:D:/iot/felix2/targets/Cloud_STM32L431_BearPi/Drivers/STM32L4xx_HAL_Driver/Src\stm32l4xx_hal_uart.c ****   __HAL_LOCK(huart);
 891:D:/iot/felix2/targets/Cloud_STM32L431_BearPi/Drivers/STM32L4xx_HAL_Driver/Src\stm32l4xx_hal_uart.c **** 
 892:D:/iot/felix2/targets/Cloud_STM32L431_BearPi/Drivers/STM32L4xx_HAL_Driver/Src\stm32l4xx_hal_uart.c ****   if (HAL_UART_STATE_READY == huart->gState)
 893:D:/iot/felix2/targets/Cloud_STM32L431_BearPi/Drivers/STM32L4xx_HAL_Driver/Src\stm32l4xx_hal_uart.c ****   {
 894:D:/iot/felix2/targets/Cloud_STM32L431_BearPi/Drivers/STM32L4xx_HAL_Driver/Src\stm32l4xx_hal_uart.c ****     switch (CallbackID)
 895:D:/iot/felix2/targets/Cloud_STM32L431_BearPi/Drivers/STM32L4xx_HAL_Driver/Src\stm32l4xx_hal_uart.c ****     {
 896:D:/iot/felix2/targets/Cloud_STM32L431_BearPi/Drivers/STM32L4xx_HAL_Driver/Src\stm32l4xx_hal_uart.c ****       case HAL_UART_TX_HALFCOMPLETE_CB_ID :
 897:D:/iot/felix2/targets/Cloud_STM32L431_BearPi/Drivers/STM32L4xx_HAL_Driver/Src\stm32l4xx_hal_uart.c ****         huart->TxHalfCpltCallback = HAL_UART_TxHalfCpltCallback;               /* Legacy weak  TxHa
 898:D:/iot/felix2/targets/Cloud_STM32L431_BearPi/Drivers/STM32L4xx_HAL_Driver/Src\stm32l4xx_hal_uart.c ****         break;
 899:D:/iot/felix2/targets/Cloud_STM32L431_BearPi/Drivers/STM32L4xx_HAL_Driver/Src\stm32l4xx_hal_uart.c **** 
 900:D:/iot/felix2/targets/Cloud_STM32L431_BearPi/Drivers/STM32L4xx_HAL_Driver/Src\stm32l4xx_hal_uart.c ****       case HAL_UART_TX_COMPLETE_CB_ID :
 901:D:/iot/felix2/targets/Cloud_STM32L431_BearPi/Drivers/STM32L4xx_HAL_Driver/Src\stm32l4xx_hal_uart.c ****         huart->TxCpltCallback = HAL_UART_TxCpltCallback;                       /* Legacy weak TxCpl
ARM GAS  C:\Users\91458\AppData\Local\Temp\ccrpKNIe.s 			page 30


 902:D:/iot/felix2/targets/Cloud_STM32L431_BearPi/Drivers/STM32L4xx_HAL_Driver/Src\stm32l4xx_hal_uart.c ****         break;
 903:D:/iot/felix2/targets/Cloud_STM32L431_BearPi/Drivers/STM32L4xx_HAL_Driver/Src\stm32l4xx_hal_uart.c **** 
 904:D:/iot/felix2/targets/Cloud_STM32L431_BearPi/Drivers/STM32L4xx_HAL_Driver/Src\stm32l4xx_hal_uart.c ****       case HAL_UART_RX_HALFCOMPLETE_CB_ID :
 905:D:/iot/felix2/targets/Cloud_STM32L431_BearPi/Drivers/STM32L4xx_HAL_Driver/Src\stm32l4xx_hal_uart.c ****         huart->RxHalfCpltCallback = HAL_UART_RxHalfCpltCallback;               /* Legacy weak RxHal
 906:D:/iot/felix2/targets/Cloud_STM32L431_BearPi/Drivers/STM32L4xx_HAL_Driver/Src\stm32l4xx_hal_uart.c ****         break;
 907:D:/iot/felix2/targets/Cloud_STM32L431_BearPi/Drivers/STM32L4xx_HAL_Driver/Src\stm32l4xx_hal_uart.c **** 
 908:D:/iot/felix2/targets/Cloud_STM32L431_BearPi/Drivers/STM32L4xx_HAL_Driver/Src\stm32l4xx_hal_uart.c ****       case HAL_UART_RX_COMPLETE_CB_ID :
 909:D:/iot/felix2/targets/Cloud_STM32L431_BearPi/Drivers/STM32L4xx_HAL_Driver/Src\stm32l4xx_hal_uart.c ****         huart->RxCpltCallback = HAL_UART_RxCpltCallback;                       /* Legacy weak RxCpl
 910:D:/iot/felix2/targets/Cloud_STM32L431_BearPi/Drivers/STM32L4xx_HAL_Driver/Src\stm32l4xx_hal_uart.c ****         break;
 911:D:/iot/felix2/targets/Cloud_STM32L431_BearPi/Drivers/STM32L4xx_HAL_Driver/Src\stm32l4xx_hal_uart.c **** 
 912:D:/iot/felix2/targets/Cloud_STM32L431_BearPi/Drivers/STM32L4xx_HAL_Driver/Src\stm32l4xx_hal_uart.c ****       case HAL_UART_ERROR_CB_ID :
 913:D:/iot/felix2/targets/Cloud_STM32L431_BearPi/Drivers/STM32L4xx_HAL_Driver/Src\stm32l4xx_hal_uart.c ****         huart->ErrorCallback = HAL_UART_ErrorCallback;                         /* Legacy weak Error
 914:D:/iot/felix2/targets/Cloud_STM32L431_BearPi/Drivers/STM32L4xx_HAL_Driver/Src\stm32l4xx_hal_uart.c ****         break;
 915:D:/iot/felix2/targets/Cloud_STM32L431_BearPi/Drivers/STM32L4xx_HAL_Driver/Src\stm32l4xx_hal_uart.c **** 
 916:D:/iot/felix2/targets/Cloud_STM32L431_BearPi/Drivers/STM32L4xx_HAL_Driver/Src\stm32l4xx_hal_uart.c ****       case HAL_UART_ABORT_COMPLETE_CB_ID :
 917:D:/iot/felix2/targets/Cloud_STM32L431_BearPi/Drivers/STM32L4xx_HAL_Driver/Src\stm32l4xx_hal_uart.c ****         huart->AbortCpltCallback = HAL_UART_AbortCpltCallback;                 /* Legacy weak Abort
 918:D:/iot/felix2/targets/Cloud_STM32L431_BearPi/Drivers/STM32L4xx_HAL_Driver/Src\stm32l4xx_hal_uart.c ****         break;
 919:D:/iot/felix2/targets/Cloud_STM32L431_BearPi/Drivers/STM32L4xx_HAL_Driver/Src\stm32l4xx_hal_uart.c **** 
 920:D:/iot/felix2/targets/Cloud_STM32L431_BearPi/Drivers/STM32L4xx_HAL_Driver/Src\stm32l4xx_hal_uart.c ****       case HAL_UART_ABORT_TRANSMIT_COMPLETE_CB_ID :
 921:D:/iot/felix2/targets/Cloud_STM32L431_BearPi/Drivers/STM32L4xx_HAL_Driver/Src\stm32l4xx_hal_uart.c ****         huart->AbortTransmitCpltCallback = HAL_UART_AbortTransmitCpltCallback; /* Legacy weak Abort
 922:D:/iot/felix2/targets/Cloud_STM32L431_BearPi/Drivers/STM32L4xx_HAL_Driver/Src\stm32l4xx_hal_uart.c ****         break;
 923:D:/iot/felix2/targets/Cloud_STM32L431_BearPi/Drivers/STM32L4xx_HAL_Driver/Src\stm32l4xx_hal_uart.c **** 
 924:D:/iot/felix2/targets/Cloud_STM32L431_BearPi/Drivers/STM32L4xx_HAL_Driver/Src\stm32l4xx_hal_uart.c ****       case HAL_UART_ABORT_RECEIVE_COMPLETE_CB_ID :
 925:D:/iot/felix2/targets/Cloud_STM32L431_BearPi/Drivers/STM32L4xx_HAL_Driver/Src\stm32l4xx_hal_uart.c ****         huart->AbortReceiveCpltCallback = HAL_UART_AbortReceiveCpltCallback;   /* Legacy weak Abort
 926:D:/iot/felix2/targets/Cloud_STM32L431_BearPi/Drivers/STM32L4xx_HAL_Driver/Src\stm32l4xx_hal_uart.c ****         break;
 927:D:/iot/felix2/targets/Cloud_STM32L431_BearPi/Drivers/STM32L4xx_HAL_Driver/Src\stm32l4xx_hal_uart.c **** 
 928:D:/iot/felix2/targets/Cloud_STM32L431_BearPi/Drivers/STM32L4xx_HAL_Driver/Src\stm32l4xx_hal_uart.c ****       case HAL_UART_WAKEUP_CB_ID :
 929:D:/iot/felix2/targets/Cloud_STM32L431_BearPi/Drivers/STM32L4xx_HAL_Driver/Src\stm32l4xx_hal_uart.c ****         huart->WakeupCallback = HAL_UARTEx_WakeupCallback;                     /* Legacy weak Wakeu
 930:D:/iot/felix2/targets/Cloud_STM32L431_BearPi/Drivers/STM32L4xx_HAL_Driver/Src\stm32l4xx_hal_uart.c ****         break;
 931:D:/iot/felix2/targets/Cloud_STM32L431_BearPi/Drivers/STM32L4xx_HAL_Driver/Src\stm32l4xx_hal_uart.c **** 
 932:D:/iot/felix2/targets/Cloud_STM32L431_BearPi/Drivers/STM32L4xx_HAL_Driver/Src\stm32l4xx_hal_uart.c **** #if defined(USART_CR1_FIFOEN)
 933:D:/iot/felix2/targets/Cloud_STM32L431_BearPi/Drivers/STM32L4xx_HAL_Driver/Src\stm32l4xx_hal_uart.c ****       case HAL_UART_RX_FIFO_FULL_CB_ID :
 934:D:/iot/felix2/targets/Cloud_STM32L431_BearPi/Drivers/STM32L4xx_HAL_Driver/Src\stm32l4xx_hal_uart.c ****         huart->RxFifoFullCallback = HAL_UARTEx_RxFifoFullCallback;             /* Legacy weak RxFif
 935:D:/iot/felix2/targets/Cloud_STM32L431_BearPi/Drivers/STM32L4xx_HAL_Driver/Src\stm32l4xx_hal_uart.c ****         break;
 936:D:/iot/felix2/targets/Cloud_STM32L431_BearPi/Drivers/STM32L4xx_HAL_Driver/Src\stm32l4xx_hal_uart.c **** 
 937:D:/iot/felix2/targets/Cloud_STM32L431_BearPi/Drivers/STM32L4xx_HAL_Driver/Src\stm32l4xx_hal_uart.c ****       case HAL_UART_TX_FIFO_EMPTY_CB_ID :
 938:D:/iot/felix2/targets/Cloud_STM32L431_BearPi/Drivers/STM32L4xx_HAL_Driver/Src\stm32l4xx_hal_uart.c ****         huart->TxFifoEmptyCallback = HAL_UARTEx_TxFifoEmptyCallback;           /* Legacy weak TxFif
 939:D:/iot/felix2/targets/Cloud_STM32L431_BearPi/Drivers/STM32L4xx_HAL_Driver/Src\stm32l4xx_hal_uart.c ****         break;
 940:D:/iot/felix2/targets/Cloud_STM32L431_BearPi/Drivers/STM32L4xx_HAL_Driver/Src\stm32l4xx_hal_uart.c **** #endif
 941:D:/iot/felix2/targets/Cloud_STM32L431_BearPi/Drivers/STM32L4xx_HAL_Driver/Src\stm32l4xx_hal_uart.c **** 
 942:D:/iot/felix2/targets/Cloud_STM32L431_BearPi/Drivers/STM32L4xx_HAL_Driver/Src\stm32l4xx_hal_uart.c ****       case HAL_UART_MSPINIT_CB_ID :
 943:D:/iot/felix2/targets/Cloud_STM32L431_BearPi/Drivers/STM32L4xx_HAL_Driver/Src\stm32l4xx_hal_uart.c ****         huart->MspInitCallback = HAL_UART_MspInit;                             /* Legacy weak MspIn
 944:D:/iot/felix2/targets/Cloud_STM32L431_BearPi/Drivers/STM32L4xx_HAL_Driver/Src\stm32l4xx_hal_uart.c ****         break;
 945:D:/iot/felix2/targets/Cloud_STM32L431_BearPi/Drivers/STM32L4xx_HAL_Driver/Src\stm32l4xx_hal_uart.c **** 
 946:D:/iot/felix2/targets/Cloud_STM32L431_BearPi/Drivers/STM32L4xx_HAL_Driver/Src\stm32l4xx_hal_uart.c ****       case HAL_UART_MSPDEINIT_CB_ID :
 947:D:/iot/felix2/targets/Cloud_STM32L431_BearPi/Drivers/STM32L4xx_HAL_Driver/Src\stm32l4xx_hal_uart.c ****         huart->MspDeInitCallback = HAL_UART_MspDeInit;                         /* Legacy weak MspDe
 948:D:/iot/felix2/targets/Cloud_STM32L431_BearPi/Drivers/STM32L4xx_HAL_Driver/Src\stm32l4xx_hal_uart.c ****         break;
 949:D:/iot/felix2/targets/Cloud_STM32L431_BearPi/Drivers/STM32L4xx_HAL_Driver/Src\stm32l4xx_hal_uart.c **** 
 950:D:/iot/felix2/targets/Cloud_STM32L431_BearPi/Drivers/STM32L4xx_HAL_Driver/Src\stm32l4xx_hal_uart.c ****       default :
 951:D:/iot/felix2/targets/Cloud_STM32L431_BearPi/Drivers/STM32L4xx_HAL_Driver/Src\stm32l4xx_hal_uart.c ****         /* Update the error code */
 952:D:/iot/felix2/targets/Cloud_STM32L431_BearPi/Drivers/STM32L4xx_HAL_Driver/Src\stm32l4xx_hal_uart.c ****         huart->ErrorCode |= HAL_UART_ERROR_INVALID_CALLBACK;
 953:D:/iot/felix2/targets/Cloud_STM32L431_BearPi/Drivers/STM32L4xx_HAL_Driver/Src\stm32l4xx_hal_uart.c **** 
 954:D:/iot/felix2/targets/Cloud_STM32L431_BearPi/Drivers/STM32L4xx_HAL_Driver/Src\stm32l4xx_hal_uart.c ****         /* Return error status */
 955:D:/iot/felix2/targets/Cloud_STM32L431_BearPi/Drivers/STM32L4xx_HAL_Driver/Src\stm32l4xx_hal_uart.c ****         status =  HAL_ERROR;
 956:D:/iot/felix2/targets/Cloud_STM32L431_BearPi/Drivers/STM32L4xx_HAL_Driver/Src\stm32l4xx_hal_uart.c ****         break;
 957:D:/iot/felix2/targets/Cloud_STM32L431_BearPi/Drivers/STM32L4xx_HAL_Driver/Src\stm32l4xx_hal_uart.c ****     }
 958:D:/iot/felix2/targets/Cloud_STM32L431_BearPi/Drivers/STM32L4xx_HAL_Driver/Src\stm32l4xx_hal_uart.c ****   }
ARM GAS  C:\Users\91458\AppData\Local\Temp\ccrpKNIe.s 			page 31


 959:D:/iot/felix2/targets/Cloud_STM32L431_BearPi/Drivers/STM32L4xx_HAL_Driver/Src\stm32l4xx_hal_uart.c ****   else if (HAL_UART_STATE_RESET == huart->gState)
 960:D:/iot/felix2/targets/Cloud_STM32L431_BearPi/Drivers/STM32L4xx_HAL_Driver/Src\stm32l4xx_hal_uart.c ****   {
 961:D:/iot/felix2/targets/Cloud_STM32L431_BearPi/Drivers/STM32L4xx_HAL_Driver/Src\stm32l4xx_hal_uart.c ****     switch (CallbackID)
 962:D:/iot/felix2/targets/Cloud_STM32L431_BearPi/Drivers/STM32L4xx_HAL_Driver/Src\stm32l4xx_hal_uart.c ****     {
 963:D:/iot/felix2/targets/Cloud_STM32L431_BearPi/Drivers/STM32L4xx_HAL_Driver/Src\stm32l4xx_hal_uart.c ****       case HAL_UART_MSPINIT_CB_ID :
 964:D:/iot/felix2/targets/Cloud_STM32L431_BearPi/Drivers/STM32L4xx_HAL_Driver/Src\stm32l4xx_hal_uart.c ****         huart->MspInitCallback = HAL_UART_MspInit;
 965:D:/iot/felix2/targets/Cloud_STM32L431_BearPi/Drivers/STM32L4xx_HAL_Driver/Src\stm32l4xx_hal_uart.c ****         break;
 966:D:/iot/felix2/targets/Cloud_STM32L431_BearPi/Drivers/STM32L4xx_HAL_Driver/Src\stm32l4xx_hal_uart.c **** 
 967:D:/iot/felix2/targets/Cloud_STM32L431_BearPi/Drivers/STM32L4xx_HAL_Driver/Src\stm32l4xx_hal_uart.c ****       case HAL_UART_MSPDEINIT_CB_ID :
 968:D:/iot/felix2/targets/Cloud_STM32L431_BearPi/Drivers/STM32L4xx_HAL_Driver/Src\stm32l4xx_hal_uart.c ****         huart->MspDeInitCallback = HAL_UART_MspDeInit;
 969:D:/iot/felix2/targets/Cloud_STM32L431_BearPi/Drivers/STM32L4xx_HAL_Driver/Src\stm32l4xx_hal_uart.c ****         break;
 970:D:/iot/felix2/targets/Cloud_STM32L431_BearPi/Drivers/STM32L4xx_HAL_Driver/Src\stm32l4xx_hal_uart.c **** 
 971:D:/iot/felix2/targets/Cloud_STM32L431_BearPi/Drivers/STM32L4xx_HAL_Driver/Src\stm32l4xx_hal_uart.c ****       default :
 972:D:/iot/felix2/targets/Cloud_STM32L431_BearPi/Drivers/STM32L4xx_HAL_Driver/Src\stm32l4xx_hal_uart.c ****         /* Update the error code */
 973:D:/iot/felix2/targets/Cloud_STM32L431_BearPi/Drivers/STM32L4xx_HAL_Driver/Src\stm32l4xx_hal_uart.c ****         huart->ErrorCode |= HAL_UART_ERROR_INVALID_CALLBACK;
 974:D:/iot/felix2/targets/Cloud_STM32L431_BearPi/Drivers/STM32L4xx_HAL_Driver/Src\stm32l4xx_hal_uart.c **** 
 975:D:/iot/felix2/targets/Cloud_STM32L431_BearPi/Drivers/STM32L4xx_HAL_Driver/Src\stm32l4xx_hal_uart.c ****         /* Return error status */
 976:D:/iot/felix2/targets/Cloud_STM32L431_BearPi/Drivers/STM32L4xx_HAL_Driver/Src\stm32l4xx_hal_uart.c ****         status =  HAL_ERROR;
 977:D:/iot/felix2/targets/Cloud_STM32L431_BearPi/Drivers/STM32L4xx_HAL_Driver/Src\stm32l4xx_hal_uart.c ****         break;
 978:D:/iot/felix2/targets/Cloud_STM32L431_BearPi/Drivers/STM32L4xx_HAL_Driver/Src\stm32l4xx_hal_uart.c ****     }
 979:D:/iot/felix2/targets/Cloud_STM32L431_BearPi/Drivers/STM32L4xx_HAL_Driver/Src\stm32l4xx_hal_uart.c ****   }
 980:D:/iot/felix2/targets/Cloud_STM32L431_BearPi/Drivers/STM32L4xx_HAL_Driver/Src\stm32l4xx_hal_uart.c ****   else
 981:D:/iot/felix2/targets/Cloud_STM32L431_BearPi/Drivers/STM32L4xx_HAL_Driver/Src\stm32l4xx_hal_uart.c ****   {
 982:D:/iot/felix2/targets/Cloud_STM32L431_BearPi/Drivers/STM32L4xx_HAL_Driver/Src\stm32l4xx_hal_uart.c ****     /* Update the error code */
 983:D:/iot/felix2/targets/Cloud_STM32L431_BearPi/Drivers/STM32L4xx_HAL_Driver/Src\stm32l4xx_hal_uart.c ****     huart->ErrorCode |= HAL_UART_ERROR_INVALID_CALLBACK;
 984:D:/iot/felix2/targets/Cloud_STM32L431_BearPi/Drivers/STM32L4xx_HAL_Driver/Src\stm32l4xx_hal_uart.c **** 
 985:D:/iot/felix2/targets/Cloud_STM32L431_BearPi/Drivers/STM32L4xx_HAL_Driver/Src\stm32l4xx_hal_uart.c ****     /* Return error status */
 986:D:/iot/felix2/targets/Cloud_STM32L431_BearPi/Drivers/STM32L4xx_HAL_Driver/Src\stm32l4xx_hal_uart.c ****     status =  HAL_ERROR;
 987:D:/iot/felix2/targets/Cloud_STM32L431_BearPi/Drivers/STM32L4xx_HAL_Driver/Src\stm32l4xx_hal_uart.c ****   }
 988:D:/iot/felix2/targets/Cloud_STM32L431_BearPi/Drivers/STM32L4xx_HAL_Driver/Src\stm32l4xx_hal_uart.c **** 
 989:D:/iot/felix2/targets/Cloud_STM32L431_BearPi/Drivers/STM32L4xx_HAL_Driver/Src\stm32l4xx_hal_uart.c ****   /* Release Lock */
 990:D:/iot/felix2/targets/Cloud_STM32L431_BearPi/Drivers/STM32L4xx_HAL_Driver/Src\stm32l4xx_hal_uart.c ****   __HAL_UNLOCK(huart);
 991:D:/iot/felix2/targets/Cloud_STM32L431_BearPi/Drivers/STM32L4xx_HAL_Driver/Src\stm32l4xx_hal_uart.c **** 
 992:D:/iot/felix2/targets/Cloud_STM32L431_BearPi/Drivers/STM32L4xx_HAL_Driver/Src\stm32l4xx_hal_uart.c ****   return status;
 993:D:/iot/felix2/targets/Cloud_STM32L431_BearPi/Drivers/STM32L4xx_HAL_Driver/Src\stm32l4xx_hal_uart.c **** }
 994:D:/iot/felix2/targets/Cloud_STM32L431_BearPi/Drivers/STM32L4xx_HAL_Driver/Src\stm32l4xx_hal_uart.c **** #endif /* USE_HAL_UART_REGISTER_CALLBACKS */
 995:D:/iot/felix2/targets/Cloud_STM32L431_BearPi/Drivers/STM32L4xx_HAL_Driver/Src\stm32l4xx_hal_uart.c **** 
 996:D:/iot/felix2/targets/Cloud_STM32L431_BearPi/Drivers/STM32L4xx_HAL_Driver/Src\stm32l4xx_hal_uart.c **** /**
 997:D:/iot/felix2/targets/Cloud_STM32L431_BearPi/Drivers/STM32L4xx_HAL_Driver/Src\stm32l4xx_hal_uart.c ****   * @}
 998:D:/iot/felix2/targets/Cloud_STM32L431_BearPi/Drivers/STM32L4xx_HAL_Driver/Src\stm32l4xx_hal_uart.c ****   */
 999:D:/iot/felix2/targets/Cloud_STM32L431_BearPi/Drivers/STM32L4xx_HAL_Driver/Src\stm32l4xx_hal_uart.c **** 
1000:D:/iot/felix2/targets/Cloud_STM32L431_BearPi/Drivers/STM32L4xx_HAL_Driver/Src\stm32l4xx_hal_uart.c **** /** @defgroup UART_Exported_Functions_Group2 IO operation functions
1001:D:/iot/felix2/targets/Cloud_STM32L431_BearPi/Drivers/STM32L4xx_HAL_Driver/Src\stm32l4xx_hal_uart.c ****   * @brief UART Transmit/Receive functions
1002:D:/iot/felix2/targets/Cloud_STM32L431_BearPi/Drivers/STM32L4xx_HAL_Driver/Src\stm32l4xx_hal_uart.c ****   *
1003:D:/iot/felix2/targets/Cloud_STM32L431_BearPi/Drivers/STM32L4xx_HAL_Driver/Src\stm32l4xx_hal_uart.c **** @verbatim
1004:D:/iot/felix2/targets/Cloud_STM32L431_BearPi/Drivers/STM32L4xx_HAL_Driver/Src\stm32l4xx_hal_uart.c ****  ===============================================================================
1005:D:/iot/felix2/targets/Cloud_STM32L431_BearPi/Drivers/STM32L4xx_HAL_Driver/Src\stm32l4xx_hal_uart.c ****                       ##### IO operation functions #####
1006:D:/iot/felix2/targets/Cloud_STM32L431_BearPi/Drivers/STM32L4xx_HAL_Driver/Src\stm32l4xx_hal_uart.c ****  ===============================================================================
1007:D:/iot/felix2/targets/Cloud_STM32L431_BearPi/Drivers/STM32L4xx_HAL_Driver/Src\stm32l4xx_hal_uart.c ****     This subsection provides a set of functions allowing to manage the UART asynchronous
1008:D:/iot/felix2/targets/Cloud_STM32L431_BearPi/Drivers/STM32L4xx_HAL_Driver/Src\stm32l4xx_hal_uart.c ****     and Half duplex data transfers.
1009:D:/iot/felix2/targets/Cloud_STM32L431_BearPi/Drivers/STM32L4xx_HAL_Driver/Src\stm32l4xx_hal_uart.c **** 
1010:D:/iot/felix2/targets/Cloud_STM32L431_BearPi/Drivers/STM32L4xx_HAL_Driver/Src\stm32l4xx_hal_uart.c ****     (#) There are two mode of transfer:
1011:D:/iot/felix2/targets/Cloud_STM32L431_BearPi/Drivers/STM32L4xx_HAL_Driver/Src\stm32l4xx_hal_uart.c ****        (+) Blocking mode: The communication is performed in polling mode.
1012:D:/iot/felix2/targets/Cloud_STM32L431_BearPi/Drivers/STM32L4xx_HAL_Driver/Src\stm32l4xx_hal_uart.c ****            The HAL status of all data processing is returned by the same function
1013:D:/iot/felix2/targets/Cloud_STM32L431_BearPi/Drivers/STM32L4xx_HAL_Driver/Src\stm32l4xx_hal_uart.c ****            after finishing transfer.
1014:D:/iot/felix2/targets/Cloud_STM32L431_BearPi/Drivers/STM32L4xx_HAL_Driver/Src\stm32l4xx_hal_uart.c ****        (+) Non-Blocking mode: The communication is performed using Interrupts
1015:D:/iot/felix2/targets/Cloud_STM32L431_BearPi/Drivers/STM32L4xx_HAL_Driver/Src\stm32l4xx_hal_uart.c ****            or DMA, These API's return the HAL status.
ARM GAS  C:\Users\91458\AppData\Local\Temp\ccrpKNIe.s 			page 32


1016:D:/iot/felix2/targets/Cloud_STM32L431_BearPi/Drivers/STM32L4xx_HAL_Driver/Src\stm32l4xx_hal_uart.c ****            The end of the data processing will be indicated through the
1017:D:/iot/felix2/targets/Cloud_STM32L431_BearPi/Drivers/STM32L4xx_HAL_Driver/Src\stm32l4xx_hal_uart.c ****            dedicated UART IRQ when using Interrupt mode or the DMA IRQ when
1018:D:/iot/felix2/targets/Cloud_STM32L431_BearPi/Drivers/STM32L4xx_HAL_Driver/Src\stm32l4xx_hal_uart.c ****            using DMA mode.
1019:D:/iot/felix2/targets/Cloud_STM32L431_BearPi/Drivers/STM32L4xx_HAL_Driver/Src\stm32l4xx_hal_uart.c ****            The HAL_UART_TxCpltCallback(), HAL_UART_RxCpltCallback() user callbacks
1020:D:/iot/felix2/targets/Cloud_STM32L431_BearPi/Drivers/STM32L4xx_HAL_Driver/Src\stm32l4xx_hal_uart.c ****            will be executed respectively at the end of the transmit or Receive process
1021:D:/iot/felix2/targets/Cloud_STM32L431_BearPi/Drivers/STM32L4xx_HAL_Driver/Src\stm32l4xx_hal_uart.c ****            The HAL_UART_ErrorCallback()user callback will be executed when a communication error is
1022:D:/iot/felix2/targets/Cloud_STM32L431_BearPi/Drivers/STM32L4xx_HAL_Driver/Src\stm32l4xx_hal_uart.c **** 
1023:D:/iot/felix2/targets/Cloud_STM32L431_BearPi/Drivers/STM32L4xx_HAL_Driver/Src\stm32l4xx_hal_uart.c ****     (#) Blocking mode API's are :
1024:D:/iot/felix2/targets/Cloud_STM32L431_BearPi/Drivers/STM32L4xx_HAL_Driver/Src\stm32l4xx_hal_uart.c ****         (+) HAL_UART_Transmit()
1025:D:/iot/felix2/targets/Cloud_STM32L431_BearPi/Drivers/STM32L4xx_HAL_Driver/Src\stm32l4xx_hal_uart.c ****         (+) HAL_UART_Receive()
1026:D:/iot/felix2/targets/Cloud_STM32L431_BearPi/Drivers/STM32L4xx_HAL_Driver/Src\stm32l4xx_hal_uart.c **** 
1027:D:/iot/felix2/targets/Cloud_STM32L431_BearPi/Drivers/STM32L4xx_HAL_Driver/Src\stm32l4xx_hal_uart.c ****     (#) Non-Blocking mode API's with Interrupt are :
1028:D:/iot/felix2/targets/Cloud_STM32L431_BearPi/Drivers/STM32L4xx_HAL_Driver/Src\stm32l4xx_hal_uart.c ****         (+) HAL_UART_Transmit_IT()
1029:D:/iot/felix2/targets/Cloud_STM32L431_BearPi/Drivers/STM32L4xx_HAL_Driver/Src\stm32l4xx_hal_uart.c ****         (+) HAL_UART_Receive_IT()
1030:D:/iot/felix2/targets/Cloud_STM32L431_BearPi/Drivers/STM32L4xx_HAL_Driver/Src\stm32l4xx_hal_uart.c ****         (+) HAL_UART_IRQHandler()
1031:D:/iot/felix2/targets/Cloud_STM32L431_BearPi/Drivers/STM32L4xx_HAL_Driver/Src\stm32l4xx_hal_uart.c **** 
1032:D:/iot/felix2/targets/Cloud_STM32L431_BearPi/Drivers/STM32L4xx_HAL_Driver/Src\stm32l4xx_hal_uart.c ****     (#) Non-Blocking mode API's with DMA are :
1033:D:/iot/felix2/targets/Cloud_STM32L431_BearPi/Drivers/STM32L4xx_HAL_Driver/Src\stm32l4xx_hal_uart.c ****         (+) HAL_UART_Transmit_DMA()
1034:D:/iot/felix2/targets/Cloud_STM32L431_BearPi/Drivers/STM32L4xx_HAL_Driver/Src\stm32l4xx_hal_uart.c ****         (+) HAL_UART_Receive_DMA()
1035:D:/iot/felix2/targets/Cloud_STM32L431_BearPi/Drivers/STM32L4xx_HAL_Driver/Src\stm32l4xx_hal_uart.c ****         (+) HAL_UART_DMAPause()
1036:D:/iot/felix2/targets/Cloud_STM32L431_BearPi/Drivers/STM32L4xx_HAL_Driver/Src\stm32l4xx_hal_uart.c ****         (+) HAL_UART_DMAResume()
1037:D:/iot/felix2/targets/Cloud_STM32L431_BearPi/Drivers/STM32L4xx_HAL_Driver/Src\stm32l4xx_hal_uart.c ****         (+) HAL_UART_DMAStop()
1038:D:/iot/felix2/targets/Cloud_STM32L431_BearPi/Drivers/STM32L4xx_HAL_Driver/Src\stm32l4xx_hal_uart.c **** 
1039:D:/iot/felix2/targets/Cloud_STM32L431_BearPi/Drivers/STM32L4xx_HAL_Driver/Src\stm32l4xx_hal_uart.c ****     (#) A set of Transfer Complete Callbacks are provided in Non_Blocking mode:
1040:D:/iot/felix2/targets/Cloud_STM32L431_BearPi/Drivers/STM32L4xx_HAL_Driver/Src\stm32l4xx_hal_uart.c ****         (+) HAL_UART_TxHalfCpltCallback()
1041:D:/iot/felix2/targets/Cloud_STM32L431_BearPi/Drivers/STM32L4xx_HAL_Driver/Src\stm32l4xx_hal_uart.c ****         (+) HAL_UART_TxCpltCallback()
1042:D:/iot/felix2/targets/Cloud_STM32L431_BearPi/Drivers/STM32L4xx_HAL_Driver/Src\stm32l4xx_hal_uart.c ****         (+) HAL_UART_RxHalfCpltCallback()
1043:D:/iot/felix2/targets/Cloud_STM32L431_BearPi/Drivers/STM32L4xx_HAL_Driver/Src\stm32l4xx_hal_uart.c ****         (+) HAL_UART_RxCpltCallback()
1044:D:/iot/felix2/targets/Cloud_STM32L431_BearPi/Drivers/STM32L4xx_HAL_Driver/Src\stm32l4xx_hal_uart.c ****         (+) HAL_UART_ErrorCallback()
1045:D:/iot/felix2/targets/Cloud_STM32L431_BearPi/Drivers/STM32L4xx_HAL_Driver/Src\stm32l4xx_hal_uart.c **** 
1046:D:/iot/felix2/targets/Cloud_STM32L431_BearPi/Drivers/STM32L4xx_HAL_Driver/Src\stm32l4xx_hal_uart.c ****     (#) Non-Blocking mode transfers could be aborted using Abort API's :
1047:D:/iot/felix2/targets/Cloud_STM32L431_BearPi/Drivers/STM32L4xx_HAL_Driver/Src\stm32l4xx_hal_uart.c ****         (+) HAL_UART_Abort()
1048:D:/iot/felix2/targets/Cloud_STM32L431_BearPi/Drivers/STM32L4xx_HAL_Driver/Src\stm32l4xx_hal_uart.c ****         (+) HAL_UART_AbortTransmit()
1049:D:/iot/felix2/targets/Cloud_STM32L431_BearPi/Drivers/STM32L4xx_HAL_Driver/Src\stm32l4xx_hal_uart.c ****         (+) HAL_UART_AbortReceive()
1050:D:/iot/felix2/targets/Cloud_STM32L431_BearPi/Drivers/STM32L4xx_HAL_Driver/Src\stm32l4xx_hal_uart.c ****         (+) HAL_UART_Abort_IT()
1051:D:/iot/felix2/targets/Cloud_STM32L431_BearPi/Drivers/STM32L4xx_HAL_Driver/Src\stm32l4xx_hal_uart.c ****         (+) HAL_UART_AbortTransmit_IT()
1052:D:/iot/felix2/targets/Cloud_STM32L431_BearPi/Drivers/STM32L4xx_HAL_Driver/Src\stm32l4xx_hal_uart.c ****         (+) HAL_UART_AbortReceive_IT()
1053:D:/iot/felix2/targets/Cloud_STM32L431_BearPi/Drivers/STM32L4xx_HAL_Driver/Src\stm32l4xx_hal_uart.c **** 
1054:D:/iot/felix2/targets/Cloud_STM32L431_BearPi/Drivers/STM32L4xx_HAL_Driver/Src\stm32l4xx_hal_uart.c ****     (#) For Abort services based on interrupts (HAL_UART_Abortxxx_IT), a set of Abort Complete Call
1055:D:/iot/felix2/targets/Cloud_STM32L431_BearPi/Drivers/STM32L4xx_HAL_Driver/Src\stm32l4xx_hal_uart.c ****         (+) HAL_UART_AbortCpltCallback()
1056:D:/iot/felix2/targets/Cloud_STM32L431_BearPi/Drivers/STM32L4xx_HAL_Driver/Src\stm32l4xx_hal_uart.c ****         (+) HAL_UART_AbortTransmitCpltCallback()
1057:D:/iot/felix2/targets/Cloud_STM32L431_BearPi/Drivers/STM32L4xx_HAL_Driver/Src\stm32l4xx_hal_uart.c ****         (+) HAL_UART_AbortReceiveCpltCallback()
1058:D:/iot/felix2/targets/Cloud_STM32L431_BearPi/Drivers/STM32L4xx_HAL_Driver/Src\stm32l4xx_hal_uart.c **** 
1059:D:/iot/felix2/targets/Cloud_STM32L431_BearPi/Drivers/STM32L4xx_HAL_Driver/Src\stm32l4xx_hal_uart.c ****     (#) In Non-Blocking mode transfers, possible errors are split into 2 categories.
1060:D:/iot/felix2/targets/Cloud_STM32L431_BearPi/Drivers/STM32L4xx_HAL_Driver/Src\stm32l4xx_hal_uart.c ****         Errors are handled as follows :
1061:D:/iot/felix2/targets/Cloud_STM32L431_BearPi/Drivers/STM32L4xx_HAL_Driver/Src\stm32l4xx_hal_uart.c ****        (+) Error is considered as Recoverable and non blocking : Transfer could go till end, but er
1062:D:/iot/felix2/targets/Cloud_STM32L431_BearPi/Drivers/STM32L4xx_HAL_Driver/Src\stm32l4xx_hal_uart.c ****            to be evaluated by user : this concerns Frame Error, Parity Error or Noise Error in Inte
1063:D:/iot/felix2/targets/Cloud_STM32L431_BearPi/Drivers/STM32L4xx_HAL_Driver/Src\stm32l4xx_hal_uart.c ****            Received character is then retrieved and stored in Rx buffer, Error code is set to allow
1064:D:/iot/felix2/targets/Cloud_STM32L431_BearPi/Drivers/STM32L4xx_HAL_Driver/Src\stm32l4xx_hal_uart.c ****            and HAL_UART_ErrorCallback() user callback is executed. Transfer is kept ongoing on UART
1065:D:/iot/felix2/targets/Cloud_STM32L431_BearPi/Drivers/STM32L4xx_HAL_Driver/Src\stm32l4xx_hal_uart.c ****            If user wants to abort it, Abort services should be called by user.
1066:D:/iot/felix2/targets/Cloud_STM32L431_BearPi/Drivers/STM32L4xx_HAL_Driver/Src\stm32l4xx_hal_uart.c ****        (+) Error is considered as Blocking : Transfer could not be completed properly and is aborte
1067:D:/iot/felix2/targets/Cloud_STM32L431_BearPi/Drivers/STM32L4xx_HAL_Driver/Src\stm32l4xx_hal_uart.c ****            This concerns Overrun Error In Interrupt mode reception and all errors in DMA mode.
1068:D:/iot/felix2/targets/Cloud_STM32L431_BearPi/Drivers/STM32L4xx_HAL_Driver/Src\stm32l4xx_hal_uart.c ****            Error code is set to allow user to identify error type, and HAL_UART_ErrorCallback() use
1069:D:/iot/felix2/targets/Cloud_STM32L431_BearPi/Drivers/STM32L4xx_HAL_Driver/Src\stm32l4xx_hal_uart.c **** 
1070:D:/iot/felix2/targets/Cloud_STM32L431_BearPi/Drivers/STM32L4xx_HAL_Driver/Src\stm32l4xx_hal_uart.c ****     -@- In the Half duplex communication, it is forbidden to run the transmit
1071:D:/iot/felix2/targets/Cloud_STM32L431_BearPi/Drivers/STM32L4xx_HAL_Driver/Src\stm32l4xx_hal_uart.c ****         and receive process in parallel, the UART state HAL_UART_STATE_BUSY_TX_RX can't be useful.
1072:D:/iot/felix2/targets/Cloud_STM32L431_BearPi/Drivers/STM32L4xx_HAL_Driver/Src\stm32l4xx_hal_uart.c **** 
ARM GAS  C:\Users\91458\AppData\Local\Temp\ccrpKNIe.s 			page 33


1073:D:/iot/felix2/targets/Cloud_STM32L431_BearPi/Drivers/STM32L4xx_HAL_Driver/Src\stm32l4xx_hal_uart.c **** @endverbatim
1074:D:/iot/felix2/targets/Cloud_STM32L431_BearPi/Drivers/STM32L4xx_HAL_Driver/Src\stm32l4xx_hal_uart.c ****   * @{
1075:D:/iot/felix2/targets/Cloud_STM32L431_BearPi/Drivers/STM32L4xx_HAL_Driver/Src\stm32l4xx_hal_uart.c ****   */
1076:D:/iot/felix2/targets/Cloud_STM32L431_BearPi/Drivers/STM32L4xx_HAL_Driver/Src\stm32l4xx_hal_uart.c **** 
1077:D:/iot/felix2/targets/Cloud_STM32L431_BearPi/Drivers/STM32L4xx_HAL_Driver/Src\stm32l4xx_hal_uart.c **** /**
1078:D:/iot/felix2/targets/Cloud_STM32L431_BearPi/Drivers/STM32L4xx_HAL_Driver/Src\stm32l4xx_hal_uart.c ****   * @brief Send an amount of data in blocking mode.
1079:D:/iot/felix2/targets/Cloud_STM32L431_BearPi/Drivers/STM32L4xx_HAL_Driver/Src\stm32l4xx_hal_uart.c ****   * @note When FIFO mode is enabled, writing a data in the TDR register adds one
1080:D:/iot/felix2/targets/Cloud_STM32L431_BearPi/Drivers/STM32L4xx_HAL_Driver/Src\stm32l4xx_hal_uart.c ****   *       data to the TXFIFO. Write operations to the TDR register are performed
1081:D:/iot/felix2/targets/Cloud_STM32L431_BearPi/Drivers/STM32L4xx_HAL_Driver/Src\stm32l4xx_hal_uart.c ****   *       when TXFNF flag is set. From hardware perspective, TXFNF flag and
1082:D:/iot/felix2/targets/Cloud_STM32L431_BearPi/Drivers/STM32L4xx_HAL_Driver/Src\stm32l4xx_hal_uart.c ****   *       TXE are mapped on the same bit-field.
1083:D:/iot/felix2/targets/Cloud_STM32L431_BearPi/Drivers/STM32L4xx_HAL_Driver/Src\stm32l4xx_hal_uart.c ****   * @param huart   UART handle.
1084:D:/iot/felix2/targets/Cloud_STM32L431_BearPi/Drivers/STM32L4xx_HAL_Driver/Src\stm32l4xx_hal_uart.c ****   * @param pData   Pointer to data buffer.
1085:D:/iot/felix2/targets/Cloud_STM32L431_BearPi/Drivers/STM32L4xx_HAL_Driver/Src\stm32l4xx_hal_uart.c ****   * @param Size    Amount of data to be sent.
1086:D:/iot/felix2/targets/Cloud_STM32L431_BearPi/Drivers/STM32L4xx_HAL_Driver/Src\stm32l4xx_hal_uart.c ****   * @param Timeout Timeout duration.
1087:D:/iot/felix2/targets/Cloud_STM32L431_BearPi/Drivers/STM32L4xx_HAL_Driver/Src\stm32l4xx_hal_uart.c ****   * @retval HAL status
1088:D:/iot/felix2/targets/Cloud_STM32L431_BearPi/Drivers/STM32L4xx_HAL_Driver/Src\stm32l4xx_hal_uart.c ****   */
1089:D:/iot/felix2/targets/Cloud_STM32L431_BearPi/Drivers/STM32L4xx_HAL_Driver/Src\stm32l4xx_hal_uart.c **** HAL_StatusTypeDef HAL_UART_Transmit(UART_HandleTypeDef *huart, uint8_t *pData, uint16_t Size, uint3
1090:D:/iot/felix2/targets/Cloud_STM32L431_BearPi/Drivers/STM32L4xx_HAL_Driver/Src\stm32l4xx_hal_uart.c **** {
 768              		.loc 1 1090 0
 769              		.cfi_startproc
 770              		@ args = 0, pretend = 0, frame = 24
 771              		@ frame_needed = 1, uses_anonymous_args = 0
 772 0000 80B5     		push	{r7, lr}
 773              	.LCFI37:
 774              		.cfi_def_cfa_offset 8
 775              		.cfi_offset 7, -8
 776              		.cfi_offset 14, -4
 777 0002 88B0     		sub	sp, sp, #32
 778              	.LCFI38:
 779              		.cfi_def_cfa_offset 40
 780 0004 02AF     		add	r7, sp, #8
 781              	.LCFI39:
 782              		.cfi_def_cfa 7, 32
 783 0006 F860     		str	r0, [r7, #12]
 784 0008 B960     		str	r1, [r7, #8]
 785 000a 3B60     		str	r3, [r7]
 786 000c 1346     		mov	r3, r2	@ movhi
 787 000e FB80     		strh	r3, [r7, #6]	@ movhi
1091:D:/iot/felix2/targets/Cloud_STM32L431_BearPi/Drivers/STM32L4xx_HAL_Driver/Src\stm32l4xx_hal_uart.c ****   uint16_t *tmp;
1092:D:/iot/felix2/targets/Cloud_STM32L431_BearPi/Drivers/STM32L4xx_HAL_Driver/Src\stm32l4xx_hal_uart.c ****   uint32_t tickstart = 0U;
 788              		.loc 1 1092 0
 789 0010 0023     		movs	r3, #0
 790 0012 7B61     		str	r3, [r7, #20]
1093:D:/iot/felix2/targets/Cloud_STM32L431_BearPi/Drivers/STM32L4xx_HAL_Driver/Src\stm32l4xx_hal_uart.c **** 
1094:D:/iot/felix2/targets/Cloud_STM32L431_BearPi/Drivers/STM32L4xx_HAL_Driver/Src\stm32l4xx_hal_uart.c ****   /* Check that a Tx process is not already ongoing */
1095:D:/iot/felix2/targets/Cloud_STM32L431_BearPi/Drivers/STM32L4xx_HAL_Driver/Src\stm32l4xx_hal_uart.c ****   if (huart->gState == HAL_UART_STATE_READY)
 791              		.loc 1 1095 0
 792 0014 FB68     		ldr	r3, [r7, #12]
 793 0016 93F87130 		ldrb	r3, [r3, #113]
 794 001a DBB2     		uxtb	r3, r3
 795 001c 202B     		cmp	r3, #32
 796 001e 77D1     		bne	.L34
1096:D:/iot/felix2/targets/Cloud_STM32L431_BearPi/Drivers/STM32L4xx_HAL_Driver/Src\stm32l4xx_hal_uart.c ****   {
1097:D:/iot/felix2/targets/Cloud_STM32L431_BearPi/Drivers/STM32L4xx_HAL_Driver/Src\stm32l4xx_hal_uart.c ****     if ((pData == NULL) || (Size == 0U))
 797              		.loc 1 1097 0
 798 0020 BB68     		ldr	r3, [r7, #8]
 799 0022 002B     		cmp	r3, #0
ARM GAS  C:\Users\91458\AppData\Local\Temp\ccrpKNIe.s 			page 34


 800 0024 02D0     		beq	.L35
 801              		.loc 1 1097 0 is_stmt 0 discriminator 1
 802 0026 FB88     		ldrh	r3, [r7, #6]
 803 0028 002B     		cmp	r3, #0
 804 002a 01D1     		bne	.L36
 805              	.L35:
1098:D:/iot/felix2/targets/Cloud_STM32L431_BearPi/Drivers/STM32L4xx_HAL_Driver/Src\stm32l4xx_hal_uart.c ****     {
1099:D:/iot/felix2/targets/Cloud_STM32L431_BearPi/Drivers/STM32L4xx_HAL_Driver/Src\stm32l4xx_hal_uart.c ****       return  HAL_ERROR;
 806              		.loc 1 1099 0 is_stmt 1
 807 002c 0123     		movs	r3, #1
 808 002e 70E0     		b	.L37
 809              	.L36:
1100:D:/iot/felix2/targets/Cloud_STM32L431_BearPi/Drivers/STM32L4xx_HAL_Driver/Src\stm32l4xx_hal_uart.c ****     }
1101:D:/iot/felix2/targets/Cloud_STM32L431_BearPi/Drivers/STM32L4xx_HAL_Driver/Src\stm32l4xx_hal_uart.c **** 
1102:D:/iot/felix2/targets/Cloud_STM32L431_BearPi/Drivers/STM32L4xx_HAL_Driver/Src\stm32l4xx_hal_uart.c ****     /* Process Locked */
1103:D:/iot/felix2/targets/Cloud_STM32L431_BearPi/Drivers/STM32L4xx_HAL_Driver/Src\stm32l4xx_hal_uart.c ****     __HAL_LOCK(huart);
 810              		.loc 1 1103 0
 811 0030 FB68     		ldr	r3, [r7, #12]
 812 0032 93F87030 		ldrb	r3, [r3, #112]	@ zero_extendqisi2
 813 0036 012B     		cmp	r3, #1
 814 0038 01D1     		bne	.L38
 815              		.loc 1 1103 0 is_stmt 0 discriminator 1
 816 003a 0223     		movs	r3, #2
 817 003c 69E0     		b	.L37
 818              	.L38:
 819              		.loc 1 1103 0 discriminator 2
 820 003e FB68     		ldr	r3, [r7, #12]
 821 0040 0122     		movs	r2, #1
 822 0042 83F87020 		strb	r2, [r3, #112]
1104:D:/iot/felix2/targets/Cloud_STM32L431_BearPi/Drivers/STM32L4xx_HAL_Driver/Src\stm32l4xx_hal_uart.c **** 
1105:D:/iot/felix2/targets/Cloud_STM32L431_BearPi/Drivers/STM32L4xx_HAL_Driver/Src\stm32l4xx_hal_uart.c ****     huart->ErrorCode = HAL_UART_ERROR_NONE;
 823              		.loc 1 1105 0 is_stmt 1 discriminator 2
 824 0046 FB68     		ldr	r3, [r7, #12]
 825 0048 0022     		movs	r2, #0
 826 004a 5A67     		str	r2, [r3, #116]
1106:D:/iot/felix2/targets/Cloud_STM32L431_BearPi/Drivers/STM32L4xx_HAL_Driver/Src\stm32l4xx_hal_uart.c ****     huart->gState = HAL_UART_STATE_BUSY_TX;
 827              		.loc 1 1106 0 discriminator 2
 828 004c FB68     		ldr	r3, [r7, #12]
 829 004e 2122     		movs	r2, #33
 830 0050 83F87120 		strb	r2, [r3, #113]
1107:D:/iot/felix2/targets/Cloud_STM32L431_BearPi/Drivers/STM32L4xx_HAL_Driver/Src\stm32l4xx_hal_uart.c **** 
1108:D:/iot/felix2/targets/Cloud_STM32L431_BearPi/Drivers/STM32L4xx_HAL_Driver/Src\stm32l4xx_hal_uart.c ****     /* Init tickstart for timeout managment*/
1109:D:/iot/felix2/targets/Cloud_STM32L431_BearPi/Drivers/STM32L4xx_HAL_Driver/Src\stm32l4xx_hal_uart.c ****     tickstart = HAL_GetTick();
 831              		.loc 1 1109 0 discriminator 2
 832 0054 FFF7FEFF 		bl	HAL_GetTick
 833 0058 7861     		str	r0, [r7, #20]
1110:D:/iot/felix2/targets/Cloud_STM32L431_BearPi/Drivers/STM32L4xx_HAL_Driver/Src\stm32l4xx_hal_uart.c **** 
1111:D:/iot/felix2/targets/Cloud_STM32L431_BearPi/Drivers/STM32L4xx_HAL_Driver/Src\stm32l4xx_hal_uart.c ****     huart->TxXferSize  = Size;
 834              		.loc 1 1111 0 discriminator 2
 835 005a FB68     		ldr	r3, [r7, #12]
 836 005c FA88     		ldrh	r2, [r7, #6]	@ movhi
 837 005e A3F85020 		strh	r2, [r3, #80]	@ movhi
1112:D:/iot/felix2/targets/Cloud_STM32L431_BearPi/Drivers/STM32L4xx_HAL_Driver/Src\stm32l4xx_hal_uart.c ****     huart->TxXferCount = Size;
 838              		.loc 1 1112 0 discriminator 2
 839 0062 FB68     		ldr	r3, [r7, #12]
 840 0064 FA88     		ldrh	r2, [r7, #6]	@ movhi
 841 0066 A3F85220 		strh	r2, [r3, #82]	@ movhi
ARM GAS  C:\Users\91458\AppData\Local\Temp\ccrpKNIe.s 			page 35


1113:D:/iot/felix2/targets/Cloud_STM32L431_BearPi/Drivers/STM32L4xx_HAL_Driver/Src\stm32l4xx_hal_uart.c **** 
1114:D:/iot/felix2/targets/Cloud_STM32L431_BearPi/Drivers/STM32L4xx_HAL_Driver/Src\stm32l4xx_hal_uart.c ****     while (huart->TxXferCount > 0U)
 842              		.loc 1 1114 0 discriminator 2
 843 006a 34E0     		b	.L39
 844              	.L43:
1115:D:/iot/felix2/targets/Cloud_STM32L431_BearPi/Drivers/STM32L4xx_HAL_Driver/Src\stm32l4xx_hal_uart.c ****     {
1116:D:/iot/felix2/targets/Cloud_STM32L431_BearPi/Drivers/STM32L4xx_HAL_Driver/Src\stm32l4xx_hal_uart.c ****       if (UART_WaitOnFlagUntilTimeout(huart, UART_FLAG_TXE, RESET, tickstart, Timeout) != HAL_OK)
 845              		.loc 1 1116 0
 846 006c 3B68     		ldr	r3, [r7]
 847 006e 0093     		str	r3, [sp]
 848 0070 7B69     		ldr	r3, [r7, #20]
 849 0072 0022     		movs	r2, #0
 850 0074 8021     		movs	r1, #128
 851 0076 F868     		ldr	r0, [r7, #12]
 852 0078 FFF7FEFF 		bl	UART_WaitOnFlagUntilTimeout
 853 007c 0346     		mov	r3, r0
 854 007e 002B     		cmp	r3, #0
 855 0080 01D0     		beq	.L40
1117:D:/iot/felix2/targets/Cloud_STM32L431_BearPi/Drivers/STM32L4xx_HAL_Driver/Src\stm32l4xx_hal_uart.c ****       {
1118:D:/iot/felix2/targets/Cloud_STM32L431_BearPi/Drivers/STM32L4xx_HAL_Driver/Src\stm32l4xx_hal_uart.c ****         return HAL_TIMEOUT;
 856              		.loc 1 1118 0
 857 0082 0323     		movs	r3, #3
 858 0084 45E0     		b	.L37
 859              	.L40:
1119:D:/iot/felix2/targets/Cloud_STM32L431_BearPi/Drivers/STM32L4xx_HAL_Driver/Src\stm32l4xx_hal_uart.c ****       }
1120:D:/iot/felix2/targets/Cloud_STM32L431_BearPi/Drivers/STM32L4xx_HAL_Driver/Src\stm32l4xx_hal_uart.c ****       if ((huart->Init.WordLength == UART_WORDLENGTH_9B) && (huart->Init.Parity == UART_PARITY_NONE
 860              		.loc 1 1120 0
 861 0086 FB68     		ldr	r3, [r7, #12]
 862 0088 9B68     		ldr	r3, [r3, #8]
 863 008a B3F5805F 		cmp	r3, #4096
 864 008e 11D1     		bne	.L41
 865              		.loc 1 1120 0 is_stmt 0 discriminator 1
 866 0090 FB68     		ldr	r3, [r7, #12]
 867 0092 1B69     		ldr	r3, [r3, #16]
 868 0094 002B     		cmp	r3, #0
 869 0096 0DD1     		bne	.L41
1121:D:/iot/felix2/targets/Cloud_STM32L431_BearPi/Drivers/STM32L4xx_HAL_Driver/Src\stm32l4xx_hal_uart.c ****       {
1122:D:/iot/felix2/targets/Cloud_STM32L431_BearPi/Drivers/STM32L4xx_HAL_Driver/Src\stm32l4xx_hal_uart.c ****         tmp = (uint16_t *) pData;
 870              		.loc 1 1122 0 is_stmt 1
 871 0098 BB68     		ldr	r3, [r7, #8]
 872 009a 3B61     		str	r3, [r7, #16]
1123:D:/iot/felix2/targets/Cloud_STM32L431_BearPi/Drivers/STM32L4xx_HAL_Driver/Src\stm32l4xx_hal_uart.c ****         huart->Instance->TDR = (*tmp & (uint16_t)0x01FFU);
 873              		.loc 1 1123 0
 874 009c 3B69     		ldr	r3, [r7, #16]
 875 009e 1A88     		ldrh	r2, [r3]
 876 00a0 FB68     		ldr	r3, [r7, #12]
 877 00a2 1B68     		ldr	r3, [r3]
 878 00a4 C2F30802 		ubfx	r2, r2, #0, #9
 879 00a8 92B2     		uxth	r2, r2
 880 00aa 1A85     		strh	r2, [r3, #40]	@ movhi
1124:D:/iot/felix2/targets/Cloud_STM32L431_BearPi/Drivers/STM32L4xx_HAL_Driver/Src\stm32l4xx_hal_uart.c ****         pData += 2U;
 881              		.loc 1 1124 0
 882 00ac BB68     		ldr	r3, [r7, #8]
 883 00ae 0233     		adds	r3, r3, #2
 884 00b0 BB60     		str	r3, [r7, #8]
 885 00b2 07E0     		b	.L42
 886              	.L41:
ARM GAS  C:\Users\91458\AppData\Local\Temp\ccrpKNIe.s 			page 36


1125:D:/iot/felix2/targets/Cloud_STM32L431_BearPi/Drivers/STM32L4xx_HAL_Driver/Src\stm32l4xx_hal_uart.c ****       }
1126:D:/iot/felix2/targets/Cloud_STM32L431_BearPi/Drivers/STM32L4xx_HAL_Driver/Src\stm32l4xx_hal_uart.c ****       else
1127:D:/iot/felix2/targets/Cloud_STM32L431_BearPi/Drivers/STM32L4xx_HAL_Driver/Src\stm32l4xx_hal_uart.c ****       {
1128:D:/iot/felix2/targets/Cloud_STM32L431_BearPi/Drivers/STM32L4xx_HAL_Driver/Src\stm32l4xx_hal_uart.c ****         huart->Instance->TDR = (*pData++ & (uint8_t)0xFFU);
 887              		.loc 1 1128 0
 888 00b4 BB68     		ldr	r3, [r7, #8]
 889 00b6 5A1C     		adds	r2, r3, #1
 890 00b8 BA60     		str	r2, [r7, #8]
 891 00ba 1A78     		ldrb	r2, [r3]	@ zero_extendqisi2
 892 00bc FB68     		ldr	r3, [r7, #12]
 893 00be 1B68     		ldr	r3, [r3]
 894 00c0 92B2     		uxth	r2, r2
 895 00c2 1A85     		strh	r2, [r3, #40]	@ movhi
 896              	.L42:
1129:D:/iot/felix2/targets/Cloud_STM32L431_BearPi/Drivers/STM32L4xx_HAL_Driver/Src\stm32l4xx_hal_uart.c ****       }
1130:D:/iot/felix2/targets/Cloud_STM32L431_BearPi/Drivers/STM32L4xx_HAL_Driver/Src\stm32l4xx_hal_uart.c ****       huart->TxXferCount--;
 897              		.loc 1 1130 0
 898 00c4 FB68     		ldr	r3, [r7, #12]
 899 00c6 B3F85230 		ldrh	r3, [r3, #82]	@ movhi
 900 00ca 9BB2     		uxth	r3, r3
 901 00cc 013B     		subs	r3, r3, #1
 902 00ce 9AB2     		uxth	r2, r3
 903 00d0 FB68     		ldr	r3, [r7, #12]
 904 00d2 A3F85220 		strh	r2, [r3, #82]	@ movhi
 905              	.L39:
1114:D:/iot/felix2/targets/Cloud_STM32L431_BearPi/Drivers/STM32L4xx_HAL_Driver/Src\stm32l4xx_hal_uart.c ****     {
 906              		.loc 1 1114 0
 907 00d6 FB68     		ldr	r3, [r7, #12]
 908 00d8 B3F85230 		ldrh	r3, [r3, #82]	@ movhi
 909 00dc 9BB2     		uxth	r3, r3
 910 00de 002B     		cmp	r3, #0
 911 00e0 C4D1     		bne	.L43
1131:D:/iot/felix2/targets/Cloud_STM32L431_BearPi/Drivers/STM32L4xx_HAL_Driver/Src\stm32l4xx_hal_uart.c ****     }
1132:D:/iot/felix2/targets/Cloud_STM32L431_BearPi/Drivers/STM32L4xx_HAL_Driver/Src\stm32l4xx_hal_uart.c **** 
1133:D:/iot/felix2/targets/Cloud_STM32L431_BearPi/Drivers/STM32L4xx_HAL_Driver/Src\stm32l4xx_hal_uart.c ****     if (UART_WaitOnFlagUntilTimeout(huart, UART_FLAG_TC, RESET, tickstart, Timeout) != HAL_OK)
 912              		.loc 1 1133 0
 913 00e2 3B68     		ldr	r3, [r7]
 914 00e4 0093     		str	r3, [sp]
 915 00e6 7B69     		ldr	r3, [r7, #20]
 916 00e8 0022     		movs	r2, #0
 917 00ea 4021     		movs	r1, #64
 918 00ec F868     		ldr	r0, [r7, #12]
 919 00ee FFF7FEFF 		bl	UART_WaitOnFlagUntilTimeout
 920 00f2 0346     		mov	r3, r0
 921 00f4 002B     		cmp	r3, #0
 922 00f6 01D0     		beq	.L44
1134:D:/iot/felix2/targets/Cloud_STM32L431_BearPi/Drivers/STM32L4xx_HAL_Driver/Src\stm32l4xx_hal_uart.c ****     {
1135:D:/iot/felix2/targets/Cloud_STM32L431_BearPi/Drivers/STM32L4xx_HAL_Driver/Src\stm32l4xx_hal_uart.c ****       return HAL_TIMEOUT;
 923              		.loc 1 1135 0
 924 00f8 0323     		movs	r3, #3
 925 00fa 0AE0     		b	.L37
 926              	.L44:
1136:D:/iot/felix2/targets/Cloud_STM32L431_BearPi/Drivers/STM32L4xx_HAL_Driver/Src\stm32l4xx_hal_uart.c ****     }
1137:D:/iot/felix2/targets/Cloud_STM32L431_BearPi/Drivers/STM32L4xx_HAL_Driver/Src\stm32l4xx_hal_uart.c **** 
1138:D:/iot/felix2/targets/Cloud_STM32L431_BearPi/Drivers/STM32L4xx_HAL_Driver/Src\stm32l4xx_hal_uart.c ****     /* At end of Tx process, restore huart->gState to Ready */
1139:D:/iot/felix2/targets/Cloud_STM32L431_BearPi/Drivers/STM32L4xx_HAL_Driver/Src\stm32l4xx_hal_uart.c ****     huart->gState = HAL_UART_STATE_READY;
 927              		.loc 1 1139 0
ARM GAS  C:\Users\91458\AppData\Local\Temp\ccrpKNIe.s 			page 37


 928 00fc FB68     		ldr	r3, [r7, #12]
 929 00fe 2022     		movs	r2, #32
 930 0100 83F87120 		strb	r2, [r3, #113]
1140:D:/iot/felix2/targets/Cloud_STM32L431_BearPi/Drivers/STM32L4xx_HAL_Driver/Src\stm32l4xx_hal_uart.c **** 
1141:D:/iot/felix2/targets/Cloud_STM32L431_BearPi/Drivers/STM32L4xx_HAL_Driver/Src\stm32l4xx_hal_uart.c ****     /* Process Unlocked */
1142:D:/iot/felix2/targets/Cloud_STM32L431_BearPi/Drivers/STM32L4xx_HAL_Driver/Src\stm32l4xx_hal_uart.c ****     __HAL_UNLOCK(huart);
 931              		.loc 1 1142 0
 932 0104 FB68     		ldr	r3, [r7, #12]
 933 0106 0022     		movs	r2, #0
 934 0108 83F87020 		strb	r2, [r3, #112]
1143:D:/iot/felix2/targets/Cloud_STM32L431_BearPi/Drivers/STM32L4xx_HAL_Driver/Src\stm32l4xx_hal_uart.c **** 
1144:D:/iot/felix2/targets/Cloud_STM32L431_BearPi/Drivers/STM32L4xx_HAL_Driver/Src\stm32l4xx_hal_uart.c ****     return HAL_OK;
 935              		.loc 1 1144 0
 936 010c 0023     		movs	r3, #0
 937 010e 00E0     		b	.L37
 938              	.L34:
1145:D:/iot/felix2/targets/Cloud_STM32L431_BearPi/Drivers/STM32L4xx_HAL_Driver/Src\stm32l4xx_hal_uart.c ****   }
1146:D:/iot/felix2/targets/Cloud_STM32L431_BearPi/Drivers/STM32L4xx_HAL_Driver/Src\stm32l4xx_hal_uart.c ****   else
1147:D:/iot/felix2/targets/Cloud_STM32L431_BearPi/Drivers/STM32L4xx_HAL_Driver/Src\stm32l4xx_hal_uart.c ****   {
1148:D:/iot/felix2/targets/Cloud_STM32L431_BearPi/Drivers/STM32L4xx_HAL_Driver/Src\stm32l4xx_hal_uart.c ****     return HAL_BUSY;
 939              		.loc 1 1148 0
 940 0110 0223     		movs	r3, #2
 941              	.L37:
1149:D:/iot/felix2/targets/Cloud_STM32L431_BearPi/Drivers/STM32L4xx_HAL_Driver/Src\stm32l4xx_hal_uart.c ****   }
1150:D:/iot/felix2/targets/Cloud_STM32L431_BearPi/Drivers/STM32L4xx_HAL_Driver/Src\stm32l4xx_hal_uart.c **** }
 942              		.loc 1 1150 0
 943 0112 1846     		mov	r0, r3
 944 0114 1837     		adds	r7, r7, #24
 945              	.LCFI40:
 946              		.cfi_def_cfa_offset 8
 947 0116 BD46     		mov	sp, r7
 948              	.LCFI41:
 949              		.cfi_def_cfa_register 13
 950              		@ sp needed
 951 0118 80BD     		pop	{r7, pc}
 952              		.cfi_endproc
 953              	.LFE140:
 955              		.section	.text.HAL_UART_Receive,"ax",%progbits
 956              		.align	1
 957              		.global	HAL_UART_Receive
 958              		.syntax unified
 959              		.thumb
 960              		.thumb_func
 961              		.fpu fpv4-sp-d16
 963              	HAL_UART_Receive:
 964              	.LFB141:
1151:D:/iot/felix2/targets/Cloud_STM32L431_BearPi/Drivers/STM32L4xx_HAL_Driver/Src\stm32l4xx_hal_uart.c **** 
1152:D:/iot/felix2/targets/Cloud_STM32L431_BearPi/Drivers/STM32L4xx_HAL_Driver/Src\stm32l4xx_hal_uart.c **** /**
1153:D:/iot/felix2/targets/Cloud_STM32L431_BearPi/Drivers/STM32L4xx_HAL_Driver/Src\stm32l4xx_hal_uart.c ****   * @brief Receive an amount of data in blocking mode.
1154:D:/iot/felix2/targets/Cloud_STM32L431_BearPi/Drivers/STM32L4xx_HAL_Driver/Src\stm32l4xx_hal_uart.c ****   * @note When FIFO mode is enabled, the RXFNE flag is set as long as the RXFIFO
1155:D:/iot/felix2/targets/Cloud_STM32L431_BearPi/Drivers/STM32L4xx_HAL_Driver/Src\stm32l4xx_hal_uart.c ****   *       is not empty. Read operations from the RDR register are performed when
1156:D:/iot/felix2/targets/Cloud_STM32L431_BearPi/Drivers/STM32L4xx_HAL_Driver/Src\stm32l4xx_hal_uart.c ****   *       RXFNE flag is set. From hardware perspective, RXFNE flag and
1157:D:/iot/felix2/targets/Cloud_STM32L431_BearPi/Drivers/STM32L4xx_HAL_Driver/Src\stm32l4xx_hal_uart.c ****   *       RXNE are mapped on the same bit-field.
1158:D:/iot/felix2/targets/Cloud_STM32L431_BearPi/Drivers/STM32L4xx_HAL_Driver/Src\stm32l4xx_hal_uart.c ****   * @param huart   UART handle.
1159:D:/iot/felix2/targets/Cloud_STM32L431_BearPi/Drivers/STM32L4xx_HAL_Driver/Src\stm32l4xx_hal_uart.c ****   * @param pData   Pointer to data buffer.
1160:D:/iot/felix2/targets/Cloud_STM32L431_BearPi/Drivers/STM32L4xx_HAL_Driver/Src\stm32l4xx_hal_uart.c ****   * @param Size    Amount of data to be received.
1161:D:/iot/felix2/targets/Cloud_STM32L431_BearPi/Drivers/STM32L4xx_HAL_Driver/Src\stm32l4xx_hal_uart.c ****   * @param Timeout Timeout duration.
ARM GAS  C:\Users\91458\AppData\Local\Temp\ccrpKNIe.s 			page 38


1162:D:/iot/felix2/targets/Cloud_STM32L431_BearPi/Drivers/STM32L4xx_HAL_Driver/Src\stm32l4xx_hal_uart.c ****   * @retval HAL status
1163:D:/iot/felix2/targets/Cloud_STM32L431_BearPi/Drivers/STM32L4xx_HAL_Driver/Src\stm32l4xx_hal_uart.c ****   */
1164:D:/iot/felix2/targets/Cloud_STM32L431_BearPi/Drivers/STM32L4xx_HAL_Driver/Src\stm32l4xx_hal_uart.c **** HAL_StatusTypeDef HAL_UART_Receive(UART_HandleTypeDef *huart, uint8_t *pData, uint16_t Size, uint32
1165:D:/iot/felix2/targets/Cloud_STM32L431_BearPi/Drivers/STM32L4xx_HAL_Driver/Src\stm32l4xx_hal_uart.c **** {
 965              		.loc 1 1165 0
 966              		.cfi_startproc
 967              		@ args = 0, pretend = 0, frame = 32
 968              		@ frame_needed = 1, uses_anonymous_args = 0
 969 0000 80B5     		push	{r7, lr}
 970              	.LCFI42:
 971              		.cfi_def_cfa_offset 8
 972              		.cfi_offset 7, -8
 973              		.cfi_offset 14, -4
 974 0002 8AB0     		sub	sp, sp, #40
 975              	.LCFI43:
 976              		.cfi_def_cfa_offset 48
 977 0004 02AF     		add	r7, sp, #8
 978              	.LCFI44:
 979              		.cfi_def_cfa 7, 40
 980 0006 F860     		str	r0, [r7, #12]
 981 0008 B960     		str	r1, [r7, #8]
 982 000a 3B60     		str	r3, [r7]
 983 000c 1346     		mov	r3, r2	@ movhi
 984 000e FB80     		strh	r3, [r7, #6]	@ movhi
1166:D:/iot/felix2/targets/Cloud_STM32L431_BearPi/Drivers/STM32L4xx_HAL_Driver/Src\stm32l4xx_hal_uart.c ****   uint16_t *tmp;
1167:D:/iot/felix2/targets/Cloud_STM32L431_BearPi/Drivers/STM32L4xx_HAL_Driver/Src\stm32l4xx_hal_uart.c ****   uint16_t uhMask;
1168:D:/iot/felix2/targets/Cloud_STM32L431_BearPi/Drivers/STM32L4xx_HAL_Driver/Src\stm32l4xx_hal_uart.c ****   uint32_t tickstart = 0;
 985              		.loc 1 1168 0
 986 0010 0023     		movs	r3, #0
 987 0012 FB61     		str	r3, [r7, #28]
1169:D:/iot/felix2/targets/Cloud_STM32L431_BearPi/Drivers/STM32L4xx_HAL_Driver/Src\stm32l4xx_hal_uart.c **** 
1170:D:/iot/felix2/targets/Cloud_STM32L431_BearPi/Drivers/STM32L4xx_HAL_Driver/Src\stm32l4xx_hal_uart.c ****   /* Check that a Rx process is not already ongoing */
1171:D:/iot/felix2/targets/Cloud_STM32L431_BearPi/Drivers/STM32L4xx_HAL_Driver/Src\stm32l4xx_hal_uart.c ****   if (huart->RxState == HAL_UART_STATE_READY)
 988              		.loc 1 1171 0
 989 0014 FB68     		ldr	r3, [r7, #12]
 990 0016 93F87230 		ldrb	r3, [r3, #114]
 991 001a DBB2     		uxtb	r3, r3
 992 001c 202B     		cmp	r3, #32
 993 001e 40F0AD80 		bne	.L46
1172:D:/iot/felix2/targets/Cloud_STM32L431_BearPi/Drivers/STM32L4xx_HAL_Driver/Src\stm32l4xx_hal_uart.c ****   {
1173:D:/iot/felix2/targets/Cloud_STM32L431_BearPi/Drivers/STM32L4xx_HAL_Driver/Src\stm32l4xx_hal_uart.c ****     if ((pData == NULL) || (Size == 0U))
 994              		.loc 1 1173 0
 995 0022 BB68     		ldr	r3, [r7, #8]
 996 0024 002B     		cmp	r3, #0
 997 0026 02D0     		beq	.L47
 998              		.loc 1 1173 0 is_stmt 0 discriminator 1
 999 0028 FB88     		ldrh	r3, [r7, #6]
 1000 002a 002B     		cmp	r3, #0
 1001 002c 01D1     		bne	.L48
 1002              	.L47:
1174:D:/iot/felix2/targets/Cloud_STM32L431_BearPi/Drivers/STM32L4xx_HAL_Driver/Src\stm32l4xx_hal_uart.c ****     {
1175:D:/iot/felix2/targets/Cloud_STM32L431_BearPi/Drivers/STM32L4xx_HAL_Driver/Src\stm32l4xx_hal_uart.c ****       return  HAL_ERROR;
 1003              		.loc 1 1175 0 is_stmt 1
 1004 002e 0123     		movs	r3, #1
 1005 0030 A5E0     		b	.L49
 1006              	.L48:
1176:D:/iot/felix2/targets/Cloud_STM32L431_BearPi/Drivers/STM32L4xx_HAL_Driver/Src\stm32l4xx_hal_uart.c ****     }
ARM GAS  C:\Users\91458\AppData\Local\Temp\ccrpKNIe.s 			page 39


1177:D:/iot/felix2/targets/Cloud_STM32L431_BearPi/Drivers/STM32L4xx_HAL_Driver/Src\stm32l4xx_hal_uart.c **** 
1178:D:/iot/felix2/targets/Cloud_STM32L431_BearPi/Drivers/STM32L4xx_HAL_Driver/Src\stm32l4xx_hal_uart.c ****     /* Process Locked */
1179:D:/iot/felix2/targets/Cloud_STM32L431_BearPi/Drivers/STM32L4xx_HAL_Driver/Src\stm32l4xx_hal_uart.c ****     __HAL_LOCK(huart);
 1007              		.loc 1 1179 0
 1008 0032 FB68     		ldr	r3, [r7, #12]
 1009 0034 93F87030 		ldrb	r3, [r3, #112]	@ zero_extendqisi2
 1010 0038 012B     		cmp	r3, #1
 1011 003a 01D1     		bne	.L50
 1012              		.loc 1 1179 0 is_stmt 0 discriminator 1
 1013 003c 0223     		movs	r3, #2
 1014 003e 9EE0     		b	.L49
 1015              	.L50:
 1016              		.loc 1 1179 0 discriminator 2
 1017 0040 FB68     		ldr	r3, [r7, #12]
 1018 0042 0122     		movs	r2, #1
 1019 0044 83F87020 		strb	r2, [r3, #112]
1180:D:/iot/felix2/targets/Cloud_STM32L431_BearPi/Drivers/STM32L4xx_HAL_Driver/Src\stm32l4xx_hal_uart.c **** 
1181:D:/iot/felix2/targets/Cloud_STM32L431_BearPi/Drivers/STM32L4xx_HAL_Driver/Src\stm32l4xx_hal_uart.c ****     huart->ErrorCode = HAL_UART_ERROR_NONE;
 1020              		.loc 1 1181 0 is_stmt 1 discriminator 2
 1021 0048 FB68     		ldr	r3, [r7, #12]
 1022 004a 0022     		movs	r2, #0
 1023 004c 5A67     		str	r2, [r3, #116]
1182:D:/iot/felix2/targets/Cloud_STM32L431_BearPi/Drivers/STM32L4xx_HAL_Driver/Src\stm32l4xx_hal_uart.c ****     huart->RxState = HAL_UART_STATE_BUSY_RX;
 1024              		.loc 1 1182 0 discriminator 2
 1025 004e FB68     		ldr	r3, [r7, #12]
 1026 0050 2222     		movs	r2, #34
 1027 0052 83F87220 		strb	r2, [r3, #114]
1183:D:/iot/felix2/targets/Cloud_STM32L431_BearPi/Drivers/STM32L4xx_HAL_Driver/Src\stm32l4xx_hal_uart.c **** 
1184:D:/iot/felix2/targets/Cloud_STM32L431_BearPi/Drivers/STM32L4xx_HAL_Driver/Src\stm32l4xx_hal_uart.c ****     /* Init tickstart for timeout managment*/
1185:D:/iot/felix2/targets/Cloud_STM32L431_BearPi/Drivers/STM32L4xx_HAL_Driver/Src\stm32l4xx_hal_uart.c ****     tickstart = HAL_GetTick();
 1028              		.loc 1 1185 0 discriminator 2
 1029 0056 FFF7FEFF 		bl	HAL_GetTick
 1030 005a F861     		str	r0, [r7, #28]
1186:D:/iot/felix2/targets/Cloud_STM32L431_BearPi/Drivers/STM32L4xx_HAL_Driver/Src\stm32l4xx_hal_uart.c **** 
1187:D:/iot/felix2/targets/Cloud_STM32L431_BearPi/Drivers/STM32L4xx_HAL_Driver/Src\stm32l4xx_hal_uart.c ****     huart->RxXferSize  = Size;
 1031              		.loc 1 1187 0 discriminator 2
 1032 005c FB68     		ldr	r3, [r7, #12]
 1033 005e FA88     		ldrh	r2, [r7, #6]	@ movhi
 1034 0060 A3F85820 		strh	r2, [r3, #88]	@ movhi
1188:D:/iot/felix2/targets/Cloud_STM32L431_BearPi/Drivers/STM32L4xx_HAL_Driver/Src\stm32l4xx_hal_uart.c ****     huart->RxXferCount = Size;
 1035              		.loc 1 1188 0 discriminator 2
 1036 0064 FB68     		ldr	r3, [r7, #12]
 1037 0066 FA88     		ldrh	r2, [r7, #6]	@ movhi
 1038 0068 A3F85A20 		strh	r2, [r3, #90]	@ movhi
1189:D:/iot/felix2/targets/Cloud_STM32L431_BearPi/Drivers/STM32L4xx_HAL_Driver/Src\stm32l4xx_hal_uart.c **** 
1190:D:/iot/felix2/targets/Cloud_STM32L431_BearPi/Drivers/STM32L4xx_HAL_Driver/Src\stm32l4xx_hal_uart.c ****     /* Computation of UART mask to apply to RDR register */
1191:D:/iot/felix2/targets/Cloud_STM32L431_BearPi/Drivers/STM32L4xx_HAL_Driver/Src\stm32l4xx_hal_uart.c ****     UART_MASK_COMPUTATION(huart);
 1039              		.loc 1 1191 0 discriminator 2
 1040 006c FB68     		ldr	r3, [r7, #12]
 1041 006e 9B68     		ldr	r3, [r3, #8]
 1042 0070 B3F5805F 		cmp	r3, #4096
 1043 0074 0ED1     		bne	.L51
 1044              		.loc 1 1191 0 is_stmt 0 discriminator 1
 1045 0076 FB68     		ldr	r3, [r7, #12]
 1046 0078 1B69     		ldr	r3, [r3, #16]
 1047 007a 002B     		cmp	r3, #0
 1048 007c 05D1     		bne	.L52
ARM GAS  C:\Users\91458\AppData\Local\Temp\ccrpKNIe.s 			page 40


 1049              		.loc 1 1191 0 discriminator 3
 1050 007e FB68     		ldr	r3, [r7, #12]
 1051 0080 40F2FF12 		movw	r2, #511
 1052 0084 A3F85C20 		strh	r2, [r3, #92]	@ movhi
 1053 0088 28E0     		b	.L54
 1054              	.L52:
 1055              		.loc 1 1191 0 discriminator 4
 1056 008a FB68     		ldr	r3, [r7, #12]
 1057 008c FF22     		movs	r2, #255
 1058 008e A3F85C20 		strh	r2, [r3, #92]	@ movhi
 1059 0092 23E0     		b	.L54
 1060              	.L51:
 1061              		.loc 1 1191 0 discriminator 2
 1062 0094 FB68     		ldr	r3, [r7, #12]
 1063 0096 9B68     		ldr	r3, [r3, #8]
 1064 0098 002B     		cmp	r3, #0
 1065 009a 0DD1     		bne	.L55
 1066              		.loc 1 1191 0 discriminator 5
 1067 009c FB68     		ldr	r3, [r7, #12]
 1068 009e 1B69     		ldr	r3, [r3, #16]
 1069 00a0 002B     		cmp	r3, #0
 1070 00a2 04D1     		bne	.L56
 1071              		.loc 1 1191 0 discriminator 7
 1072 00a4 FB68     		ldr	r3, [r7, #12]
 1073 00a6 FF22     		movs	r2, #255
 1074 00a8 A3F85C20 		strh	r2, [r3, #92]	@ movhi
 1075 00ac 16E0     		b	.L54
 1076              	.L56:
 1077              		.loc 1 1191 0 discriminator 8
 1078 00ae FB68     		ldr	r3, [r7, #12]
 1079 00b0 7F22     		movs	r2, #127
 1080 00b2 A3F85C20 		strh	r2, [r3, #92]	@ movhi
 1081 00b6 11E0     		b	.L54
 1082              	.L55:
 1083              		.loc 1 1191 0 discriminator 6
 1084 00b8 FB68     		ldr	r3, [r7, #12]
 1085 00ba 9B68     		ldr	r3, [r3, #8]
 1086 00bc B3F1805F 		cmp	r3, #268435456
 1087 00c0 0CD1     		bne	.L54
 1088              		.loc 1 1191 0 discriminator 9
 1089 00c2 FB68     		ldr	r3, [r7, #12]
 1090 00c4 1B69     		ldr	r3, [r3, #16]
 1091 00c6 002B     		cmp	r3, #0
 1092 00c8 04D1     		bne	.L58
 1093              		.loc 1 1191 0 discriminator 10
 1094 00ca FB68     		ldr	r3, [r7, #12]
 1095 00cc 7F22     		movs	r2, #127
 1096 00ce A3F85C20 		strh	r2, [r3, #92]	@ movhi
 1097 00d2 03E0     		b	.L54
 1098              	.L58:
 1099              		.loc 1 1191 0 discriminator 11
 1100 00d4 FB68     		ldr	r3, [r7, #12]
 1101 00d6 3F22     		movs	r2, #63
 1102 00d8 A3F85C20 		strh	r2, [r3, #92]	@ movhi
 1103              	.L54:
1192:D:/iot/felix2/targets/Cloud_STM32L431_BearPi/Drivers/STM32L4xx_HAL_Driver/Src\stm32l4xx_hal_uart.c ****     uhMask = huart->Mask;
 1104              		.loc 1 1192 0 is_stmt 1
ARM GAS  C:\Users\91458\AppData\Local\Temp\ccrpKNIe.s 			page 41


 1105 00dc FB68     		ldr	r3, [r7, #12]
 1106 00de B3F85C30 		ldrh	r3, [r3, #92]	@ movhi
 1107 00e2 7B83     		strh	r3, [r7, #26]	@ movhi
1193:D:/iot/felix2/targets/Cloud_STM32L431_BearPi/Drivers/STM32L4xx_HAL_Driver/Src\stm32l4xx_hal_uart.c **** 
1194:D:/iot/felix2/targets/Cloud_STM32L431_BearPi/Drivers/STM32L4xx_HAL_Driver/Src\stm32l4xx_hal_uart.c ****     /* as long as data have to be received */
1195:D:/iot/felix2/targets/Cloud_STM32L431_BearPi/Drivers/STM32L4xx_HAL_Driver/Src\stm32l4xx_hal_uart.c ****     while (huart->RxXferCount > 0U)
 1108              		.loc 1 1195 0
 1109 00e4 3AE0     		b	.L59
 1110              	.L63:
1196:D:/iot/felix2/targets/Cloud_STM32L431_BearPi/Drivers/STM32L4xx_HAL_Driver/Src\stm32l4xx_hal_uart.c ****     {
1197:D:/iot/felix2/targets/Cloud_STM32L431_BearPi/Drivers/STM32L4xx_HAL_Driver/Src\stm32l4xx_hal_uart.c ****       if (UART_WaitOnFlagUntilTimeout(huart, UART_FLAG_RXNE, RESET, tickstart, Timeout) != HAL_OK)
 1111              		.loc 1 1197 0
 1112 00e6 3B68     		ldr	r3, [r7]
 1113 00e8 0093     		str	r3, [sp]
 1114 00ea FB69     		ldr	r3, [r7, #28]
 1115 00ec 0022     		movs	r2, #0
 1116 00ee 2021     		movs	r1, #32
 1117 00f0 F868     		ldr	r0, [r7, #12]
 1118 00f2 FFF7FEFF 		bl	UART_WaitOnFlagUntilTimeout
 1119 00f6 0346     		mov	r3, r0
 1120 00f8 002B     		cmp	r3, #0
 1121 00fa 01D0     		beq	.L60
1198:D:/iot/felix2/targets/Cloud_STM32L431_BearPi/Drivers/STM32L4xx_HAL_Driver/Src\stm32l4xx_hal_uart.c ****       {
1199:D:/iot/felix2/targets/Cloud_STM32L431_BearPi/Drivers/STM32L4xx_HAL_Driver/Src\stm32l4xx_hal_uart.c ****         return HAL_TIMEOUT;
 1122              		.loc 1 1199 0
 1123 00fc 0323     		movs	r3, #3
 1124 00fe 3EE0     		b	.L49
 1125              	.L60:
1200:D:/iot/felix2/targets/Cloud_STM32L431_BearPi/Drivers/STM32L4xx_HAL_Driver/Src\stm32l4xx_hal_uart.c ****       }
1201:D:/iot/felix2/targets/Cloud_STM32L431_BearPi/Drivers/STM32L4xx_HAL_Driver/Src\stm32l4xx_hal_uart.c ****       if ((huart->Init.WordLength == UART_WORDLENGTH_9B) && (huart->Init.Parity == UART_PARITY_NONE
 1126              		.loc 1 1201 0
 1127 0100 FB68     		ldr	r3, [r7, #12]
 1128 0102 9B68     		ldr	r3, [r3, #8]
 1129 0104 B3F5805F 		cmp	r3, #4096
 1130 0108 12D1     		bne	.L61
 1131              		.loc 1 1201 0 is_stmt 0 discriminator 1
 1132 010a FB68     		ldr	r3, [r7, #12]
 1133 010c 1B69     		ldr	r3, [r3, #16]
 1134 010e 002B     		cmp	r3, #0
 1135 0110 0ED1     		bne	.L61
1202:D:/iot/felix2/targets/Cloud_STM32L431_BearPi/Drivers/STM32L4xx_HAL_Driver/Src\stm32l4xx_hal_uart.c ****       {
1203:D:/iot/felix2/targets/Cloud_STM32L431_BearPi/Drivers/STM32L4xx_HAL_Driver/Src\stm32l4xx_hal_uart.c ****         tmp = (uint16_t *) pData ;
 1136              		.loc 1 1203 0 is_stmt 1
 1137 0112 BB68     		ldr	r3, [r7, #8]
 1138 0114 7B61     		str	r3, [r7, #20]
1204:D:/iot/felix2/targets/Cloud_STM32L431_BearPi/Drivers/STM32L4xx_HAL_Driver/Src\stm32l4xx_hal_uart.c ****         *tmp = (uint16_t)(huart->Instance->RDR & uhMask);
 1139              		.loc 1 1204 0
 1140 0116 FB68     		ldr	r3, [r7, #12]
 1141 0118 1B68     		ldr	r3, [r3]
 1142 011a 9B8C     		ldrh	r3, [r3, #36]	@ movhi
 1143 011c 9AB2     		uxth	r2, r3
 1144 011e 7B8B     		ldrh	r3, [r7, #26]	@ movhi
 1145 0120 1340     		ands	r3, r3, r2
 1146 0122 9AB2     		uxth	r2, r3
 1147 0124 7B69     		ldr	r3, [r7, #20]
 1148 0126 1A80     		strh	r2, [r3]	@ movhi
1205:D:/iot/felix2/targets/Cloud_STM32L431_BearPi/Drivers/STM32L4xx_HAL_Driver/Src\stm32l4xx_hal_uart.c ****         pData += 2U;
ARM GAS  C:\Users\91458\AppData\Local\Temp\ccrpKNIe.s 			page 42


 1149              		.loc 1 1205 0
 1150 0128 BB68     		ldr	r3, [r7, #8]
 1151 012a 0233     		adds	r3, r3, #2
 1152 012c BB60     		str	r3, [r7, #8]
 1153 012e 0CE0     		b	.L62
 1154              	.L61:
1206:D:/iot/felix2/targets/Cloud_STM32L431_BearPi/Drivers/STM32L4xx_HAL_Driver/Src\stm32l4xx_hal_uart.c ****       }
1207:D:/iot/felix2/targets/Cloud_STM32L431_BearPi/Drivers/STM32L4xx_HAL_Driver/Src\stm32l4xx_hal_uart.c ****       else
1208:D:/iot/felix2/targets/Cloud_STM32L431_BearPi/Drivers/STM32L4xx_HAL_Driver/Src\stm32l4xx_hal_uart.c ****       {
1209:D:/iot/felix2/targets/Cloud_STM32L431_BearPi/Drivers/STM32L4xx_HAL_Driver/Src\stm32l4xx_hal_uart.c ****         *pData++ = (uint8_t)(huart->Instance->RDR & (uint8_t)uhMask);
 1155              		.loc 1 1209 0
 1156 0130 FB68     		ldr	r3, [r7, #12]
 1157 0132 1B68     		ldr	r3, [r3]
 1158 0134 9B8C     		ldrh	r3, [r3, #36]	@ movhi
 1159 0136 9BB2     		uxth	r3, r3
 1160 0138 D9B2     		uxtb	r1, r3
 1161 013a 7B8B     		ldrh	r3, [r7, #26]	@ movhi
 1162 013c DAB2     		uxtb	r2, r3
 1163 013e BB68     		ldr	r3, [r7, #8]
 1164 0140 581C     		adds	r0, r3, #1
 1165 0142 B860     		str	r0, [r7, #8]
 1166 0144 0A40     		ands	r2, r2, r1
 1167 0146 D2B2     		uxtb	r2, r2
 1168 0148 1A70     		strb	r2, [r3]
 1169              	.L62:
1210:D:/iot/felix2/targets/Cloud_STM32L431_BearPi/Drivers/STM32L4xx_HAL_Driver/Src\stm32l4xx_hal_uart.c ****       }
1211:D:/iot/felix2/targets/Cloud_STM32L431_BearPi/Drivers/STM32L4xx_HAL_Driver/Src\stm32l4xx_hal_uart.c ****       huart->RxXferCount--;
 1170              		.loc 1 1211 0
 1171 014a FB68     		ldr	r3, [r7, #12]
 1172 014c B3F85A30 		ldrh	r3, [r3, #90]	@ movhi
 1173 0150 9BB2     		uxth	r3, r3
 1174 0152 013B     		subs	r3, r3, #1
 1175 0154 9AB2     		uxth	r2, r3
 1176 0156 FB68     		ldr	r3, [r7, #12]
 1177 0158 A3F85A20 		strh	r2, [r3, #90]	@ movhi
 1178              	.L59:
1195:D:/iot/felix2/targets/Cloud_STM32L431_BearPi/Drivers/STM32L4xx_HAL_Driver/Src\stm32l4xx_hal_uart.c ****     {
 1179              		.loc 1 1195 0
 1180 015c FB68     		ldr	r3, [r7, #12]
 1181 015e B3F85A30 		ldrh	r3, [r3, #90]	@ movhi
 1182 0162 9BB2     		uxth	r3, r3
 1183 0164 002B     		cmp	r3, #0
 1184 0166 BED1     		bne	.L63
1212:D:/iot/felix2/targets/Cloud_STM32L431_BearPi/Drivers/STM32L4xx_HAL_Driver/Src\stm32l4xx_hal_uart.c ****     }
1213:D:/iot/felix2/targets/Cloud_STM32L431_BearPi/Drivers/STM32L4xx_HAL_Driver/Src\stm32l4xx_hal_uart.c **** 
1214:D:/iot/felix2/targets/Cloud_STM32L431_BearPi/Drivers/STM32L4xx_HAL_Driver/Src\stm32l4xx_hal_uart.c ****     /* At end of Rx process, restore huart->RxState to Ready */
1215:D:/iot/felix2/targets/Cloud_STM32L431_BearPi/Drivers/STM32L4xx_HAL_Driver/Src\stm32l4xx_hal_uart.c ****     huart->RxState = HAL_UART_STATE_READY;
 1185              		.loc 1 1215 0
 1186 0168 FB68     		ldr	r3, [r7, #12]
 1187 016a 2022     		movs	r2, #32
 1188 016c 83F87220 		strb	r2, [r3, #114]
1216:D:/iot/felix2/targets/Cloud_STM32L431_BearPi/Drivers/STM32L4xx_HAL_Driver/Src\stm32l4xx_hal_uart.c **** 
1217:D:/iot/felix2/targets/Cloud_STM32L431_BearPi/Drivers/STM32L4xx_HAL_Driver/Src\stm32l4xx_hal_uart.c ****     /* Process Unlocked */
1218:D:/iot/felix2/targets/Cloud_STM32L431_BearPi/Drivers/STM32L4xx_HAL_Driver/Src\stm32l4xx_hal_uart.c ****     __HAL_UNLOCK(huart);
 1189              		.loc 1 1218 0
 1190 0170 FB68     		ldr	r3, [r7, #12]
 1191 0172 0022     		movs	r2, #0
ARM GAS  C:\Users\91458\AppData\Local\Temp\ccrpKNIe.s 			page 43


 1192 0174 83F87020 		strb	r2, [r3, #112]
1219:D:/iot/felix2/targets/Cloud_STM32L431_BearPi/Drivers/STM32L4xx_HAL_Driver/Src\stm32l4xx_hal_uart.c **** 
1220:D:/iot/felix2/targets/Cloud_STM32L431_BearPi/Drivers/STM32L4xx_HAL_Driver/Src\stm32l4xx_hal_uart.c ****     return HAL_OK;
 1193              		.loc 1 1220 0
 1194 0178 0023     		movs	r3, #0
 1195 017a 00E0     		b	.L49
 1196              	.L46:
1221:D:/iot/felix2/targets/Cloud_STM32L431_BearPi/Drivers/STM32L4xx_HAL_Driver/Src\stm32l4xx_hal_uart.c ****   }
1222:D:/iot/felix2/targets/Cloud_STM32L431_BearPi/Drivers/STM32L4xx_HAL_Driver/Src\stm32l4xx_hal_uart.c ****   else
1223:D:/iot/felix2/targets/Cloud_STM32L431_BearPi/Drivers/STM32L4xx_HAL_Driver/Src\stm32l4xx_hal_uart.c ****   {
1224:D:/iot/felix2/targets/Cloud_STM32L431_BearPi/Drivers/STM32L4xx_HAL_Driver/Src\stm32l4xx_hal_uart.c ****     return HAL_BUSY;
 1197              		.loc 1 1224 0
 1198 017c 0223     		movs	r3, #2
 1199              	.L49:
1225:D:/iot/felix2/targets/Cloud_STM32L431_BearPi/Drivers/STM32L4xx_HAL_Driver/Src\stm32l4xx_hal_uart.c ****   }
1226:D:/iot/felix2/targets/Cloud_STM32L431_BearPi/Drivers/STM32L4xx_HAL_Driver/Src\stm32l4xx_hal_uart.c **** }
 1200              		.loc 1 1226 0
 1201 017e 1846     		mov	r0, r3
 1202 0180 2037     		adds	r7, r7, #32
 1203              	.LCFI45:
 1204              		.cfi_def_cfa_offset 8
 1205 0182 BD46     		mov	sp, r7
 1206              	.LCFI46:
 1207              		.cfi_def_cfa_register 13
 1208              		@ sp needed
 1209 0184 80BD     		pop	{r7, pc}
 1210              		.cfi_endproc
 1211              	.LFE141:
 1213              		.section	.text.HAL_UART_Transmit_IT,"ax",%progbits
 1214              		.align	1
 1215              		.global	HAL_UART_Transmit_IT
 1216              		.syntax unified
 1217              		.thumb
 1218              		.thumb_func
 1219              		.fpu fpv4-sp-d16
 1221              	HAL_UART_Transmit_IT:
 1222              	.LFB142:
1227:D:/iot/felix2/targets/Cloud_STM32L431_BearPi/Drivers/STM32L4xx_HAL_Driver/Src\stm32l4xx_hal_uart.c **** 
1228:D:/iot/felix2/targets/Cloud_STM32L431_BearPi/Drivers/STM32L4xx_HAL_Driver/Src\stm32l4xx_hal_uart.c **** /**
1229:D:/iot/felix2/targets/Cloud_STM32L431_BearPi/Drivers/STM32L4xx_HAL_Driver/Src\stm32l4xx_hal_uart.c ****   * @brief Send an amount of data in interrupt mode.
1230:D:/iot/felix2/targets/Cloud_STM32L431_BearPi/Drivers/STM32L4xx_HAL_Driver/Src\stm32l4xx_hal_uart.c ****   * @param huart UART handle.
1231:D:/iot/felix2/targets/Cloud_STM32L431_BearPi/Drivers/STM32L4xx_HAL_Driver/Src\stm32l4xx_hal_uart.c ****   * @param pData Pointer to data buffer.
1232:D:/iot/felix2/targets/Cloud_STM32L431_BearPi/Drivers/STM32L4xx_HAL_Driver/Src\stm32l4xx_hal_uart.c ****   * @param Size  Amount of data to be sent.
1233:D:/iot/felix2/targets/Cloud_STM32L431_BearPi/Drivers/STM32L4xx_HAL_Driver/Src\stm32l4xx_hal_uart.c ****   * @retval HAL status
1234:D:/iot/felix2/targets/Cloud_STM32L431_BearPi/Drivers/STM32L4xx_HAL_Driver/Src\stm32l4xx_hal_uart.c ****   */
1235:D:/iot/felix2/targets/Cloud_STM32L431_BearPi/Drivers/STM32L4xx_HAL_Driver/Src\stm32l4xx_hal_uart.c **** HAL_StatusTypeDef HAL_UART_Transmit_IT(UART_HandleTypeDef *huart, uint8_t *pData, uint16_t Size)
1236:D:/iot/felix2/targets/Cloud_STM32L431_BearPi/Drivers/STM32L4xx_HAL_Driver/Src\stm32l4xx_hal_uart.c **** {
 1223              		.loc 1 1236 0
 1224              		.cfi_startproc
 1225              		@ args = 0, pretend = 0, frame = 16
 1226              		@ frame_needed = 1, uses_anonymous_args = 0
 1227              		@ link register save eliminated.
 1228 0000 80B4     		push	{r7}
 1229              	.LCFI47:
 1230              		.cfi_def_cfa_offset 4
 1231              		.cfi_offset 7, -4
 1232 0002 85B0     		sub	sp, sp, #20
ARM GAS  C:\Users\91458\AppData\Local\Temp\ccrpKNIe.s 			page 44


 1233              	.LCFI48:
 1234              		.cfi_def_cfa_offset 24
 1235 0004 00AF     		add	r7, sp, #0
 1236              	.LCFI49:
 1237              		.cfi_def_cfa_register 7
 1238 0006 F860     		str	r0, [r7, #12]
 1239 0008 B960     		str	r1, [r7, #8]
 1240 000a 1346     		mov	r3, r2
 1241 000c FB80     		strh	r3, [r7, #6]	@ movhi
1237:D:/iot/felix2/targets/Cloud_STM32L431_BearPi/Drivers/STM32L4xx_HAL_Driver/Src\stm32l4xx_hal_uart.c ****   /* Check that a Tx process is not already ongoing */
1238:D:/iot/felix2/targets/Cloud_STM32L431_BearPi/Drivers/STM32L4xx_HAL_Driver/Src\stm32l4xx_hal_uart.c ****   if (huart->gState == HAL_UART_STATE_READY)
 1242              		.loc 1 1238 0
 1243 000e FB68     		ldr	r3, [r7, #12]
 1244 0010 93F87130 		ldrb	r3, [r3, #113]
 1245 0014 DBB2     		uxtb	r3, r3
 1246 0016 202B     		cmp	r3, #32
 1247 0018 45D1     		bne	.L65
1239:D:/iot/felix2/targets/Cloud_STM32L431_BearPi/Drivers/STM32L4xx_HAL_Driver/Src\stm32l4xx_hal_uart.c ****   {
1240:D:/iot/felix2/targets/Cloud_STM32L431_BearPi/Drivers/STM32L4xx_HAL_Driver/Src\stm32l4xx_hal_uart.c ****     if ((pData == NULL) || (Size == 0U))
 1248              		.loc 1 1240 0
 1249 001a BB68     		ldr	r3, [r7, #8]
 1250 001c 002B     		cmp	r3, #0
 1251 001e 02D0     		beq	.L66
 1252              		.loc 1 1240 0 is_stmt 0 discriminator 1
 1253 0020 FB88     		ldrh	r3, [r7, #6]
 1254 0022 002B     		cmp	r3, #0
 1255 0024 01D1     		bne	.L67
 1256              	.L66:
1241:D:/iot/felix2/targets/Cloud_STM32L431_BearPi/Drivers/STM32L4xx_HAL_Driver/Src\stm32l4xx_hal_uart.c ****     {
1242:D:/iot/felix2/targets/Cloud_STM32L431_BearPi/Drivers/STM32L4xx_HAL_Driver/Src\stm32l4xx_hal_uart.c ****       return HAL_ERROR;
 1257              		.loc 1 1242 0 is_stmt 1
 1258 0026 0123     		movs	r3, #1
 1259 0028 3EE0     		b	.L68
 1260              	.L67:
1243:D:/iot/felix2/targets/Cloud_STM32L431_BearPi/Drivers/STM32L4xx_HAL_Driver/Src\stm32l4xx_hal_uart.c ****     }
1244:D:/iot/felix2/targets/Cloud_STM32L431_BearPi/Drivers/STM32L4xx_HAL_Driver/Src\stm32l4xx_hal_uart.c **** 
1245:D:/iot/felix2/targets/Cloud_STM32L431_BearPi/Drivers/STM32L4xx_HAL_Driver/Src\stm32l4xx_hal_uart.c ****     /* Process Locked */
1246:D:/iot/felix2/targets/Cloud_STM32L431_BearPi/Drivers/STM32L4xx_HAL_Driver/Src\stm32l4xx_hal_uart.c ****     __HAL_LOCK(huart);
 1261              		.loc 1 1246 0
 1262 002a FB68     		ldr	r3, [r7, #12]
 1263 002c 93F87030 		ldrb	r3, [r3, #112]	@ zero_extendqisi2
 1264 0030 012B     		cmp	r3, #1
 1265 0032 01D1     		bne	.L69
 1266              		.loc 1 1246 0 is_stmt 0 discriminator 1
 1267 0034 0223     		movs	r3, #2
 1268 0036 37E0     		b	.L68
 1269              	.L69:
 1270              		.loc 1 1246 0 discriminator 2
 1271 0038 FB68     		ldr	r3, [r7, #12]
 1272 003a 0122     		movs	r2, #1
 1273 003c 83F87020 		strb	r2, [r3, #112]
1247:D:/iot/felix2/targets/Cloud_STM32L431_BearPi/Drivers/STM32L4xx_HAL_Driver/Src\stm32l4xx_hal_uart.c **** 
1248:D:/iot/felix2/targets/Cloud_STM32L431_BearPi/Drivers/STM32L4xx_HAL_Driver/Src\stm32l4xx_hal_uart.c ****     huart->pTxBuffPtr  = pData;
 1274              		.loc 1 1248 0 is_stmt 1 discriminator 2
 1275 0040 FB68     		ldr	r3, [r7, #12]
 1276 0042 BA68     		ldr	r2, [r7, #8]
 1277 0044 DA64     		str	r2, [r3, #76]
ARM GAS  C:\Users\91458\AppData\Local\Temp\ccrpKNIe.s 			page 45


1249:D:/iot/felix2/targets/Cloud_STM32L431_BearPi/Drivers/STM32L4xx_HAL_Driver/Src\stm32l4xx_hal_uart.c ****     huart->TxXferSize  = Size;
 1278              		.loc 1 1249 0 discriminator 2
 1279 0046 FB68     		ldr	r3, [r7, #12]
 1280 0048 FA88     		ldrh	r2, [r7, #6]	@ movhi
 1281 004a A3F85020 		strh	r2, [r3, #80]	@ movhi
1250:D:/iot/felix2/targets/Cloud_STM32L431_BearPi/Drivers/STM32L4xx_HAL_Driver/Src\stm32l4xx_hal_uart.c ****     huart->TxXferCount = Size;
 1282              		.loc 1 1250 0 discriminator 2
 1283 004e FB68     		ldr	r3, [r7, #12]
 1284 0050 FA88     		ldrh	r2, [r7, #6]	@ movhi
 1285 0052 A3F85220 		strh	r2, [r3, #82]	@ movhi
1251:D:/iot/felix2/targets/Cloud_STM32L431_BearPi/Drivers/STM32L4xx_HAL_Driver/Src\stm32l4xx_hal_uart.c ****     huart->TxISR       = NULL;
 1286              		.loc 1 1251 0 discriminator 2
 1287 0056 FB68     		ldr	r3, [r7, #12]
 1288 0058 0022     		movs	r2, #0
 1289 005a 5A66     		str	r2, [r3, #100]
1252:D:/iot/felix2/targets/Cloud_STM32L431_BearPi/Drivers/STM32L4xx_HAL_Driver/Src\stm32l4xx_hal_uart.c **** 
1253:D:/iot/felix2/targets/Cloud_STM32L431_BearPi/Drivers/STM32L4xx_HAL_Driver/Src\stm32l4xx_hal_uart.c ****     huart->ErrorCode = HAL_UART_ERROR_NONE;
 1290              		.loc 1 1253 0 discriminator 2
 1291 005c FB68     		ldr	r3, [r7, #12]
 1292 005e 0022     		movs	r2, #0
 1293 0060 5A67     		str	r2, [r3, #116]
1254:D:/iot/felix2/targets/Cloud_STM32L431_BearPi/Drivers/STM32L4xx_HAL_Driver/Src\stm32l4xx_hal_uart.c ****     huart->gState = HAL_UART_STATE_BUSY_TX;
 1294              		.loc 1 1254 0 discriminator 2
 1295 0062 FB68     		ldr	r3, [r7, #12]
 1296 0064 2122     		movs	r2, #33
 1297 0066 83F87120 		strb	r2, [r3, #113]
1255:D:/iot/felix2/targets/Cloud_STM32L431_BearPi/Drivers/STM32L4xx_HAL_Driver/Src\stm32l4xx_hal_uart.c **** 
1256:D:/iot/felix2/targets/Cloud_STM32L431_BearPi/Drivers/STM32L4xx_HAL_Driver/Src\stm32l4xx_hal_uart.c **** #if defined(USART_CR1_FIFOEN)
1257:D:/iot/felix2/targets/Cloud_STM32L431_BearPi/Drivers/STM32L4xx_HAL_Driver/Src\stm32l4xx_hal_uart.c ****     /* Configure Tx interrupt processing */
1258:D:/iot/felix2/targets/Cloud_STM32L431_BearPi/Drivers/STM32L4xx_HAL_Driver/Src\stm32l4xx_hal_uart.c ****     if (huart->FifoMode == UART_FIFOMODE_ENABLE)
1259:D:/iot/felix2/targets/Cloud_STM32L431_BearPi/Drivers/STM32L4xx_HAL_Driver/Src\stm32l4xx_hal_uart.c ****     {
1260:D:/iot/felix2/targets/Cloud_STM32L431_BearPi/Drivers/STM32L4xx_HAL_Driver/Src\stm32l4xx_hal_uart.c ****       /* Set the Tx ISR function pointer according to the data word length */
1261:D:/iot/felix2/targets/Cloud_STM32L431_BearPi/Drivers/STM32L4xx_HAL_Driver/Src\stm32l4xx_hal_uart.c ****       if ((huart->Init.WordLength == UART_WORDLENGTH_9B) && (huart->Init.Parity == UART_PARITY_NONE
1262:D:/iot/felix2/targets/Cloud_STM32L431_BearPi/Drivers/STM32L4xx_HAL_Driver/Src\stm32l4xx_hal_uart.c ****       {
1263:D:/iot/felix2/targets/Cloud_STM32L431_BearPi/Drivers/STM32L4xx_HAL_Driver/Src\stm32l4xx_hal_uart.c ****         huart->TxISR = UART_TxISR_16BIT_FIFOEN;
1264:D:/iot/felix2/targets/Cloud_STM32L431_BearPi/Drivers/STM32L4xx_HAL_Driver/Src\stm32l4xx_hal_uart.c ****       }
1265:D:/iot/felix2/targets/Cloud_STM32L431_BearPi/Drivers/STM32L4xx_HAL_Driver/Src\stm32l4xx_hal_uart.c ****       else
1266:D:/iot/felix2/targets/Cloud_STM32L431_BearPi/Drivers/STM32L4xx_HAL_Driver/Src\stm32l4xx_hal_uart.c ****       {
1267:D:/iot/felix2/targets/Cloud_STM32L431_BearPi/Drivers/STM32L4xx_HAL_Driver/Src\stm32l4xx_hal_uart.c ****         huart->TxISR = UART_TxISR_8BIT_FIFOEN;
1268:D:/iot/felix2/targets/Cloud_STM32L431_BearPi/Drivers/STM32L4xx_HAL_Driver/Src\stm32l4xx_hal_uart.c ****       }
1269:D:/iot/felix2/targets/Cloud_STM32L431_BearPi/Drivers/STM32L4xx_HAL_Driver/Src\stm32l4xx_hal_uart.c **** 
1270:D:/iot/felix2/targets/Cloud_STM32L431_BearPi/Drivers/STM32L4xx_HAL_Driver/Src\stm32l4xx_hal_uart.c ****       /* Process Unlocked */
1271:D:/iot/felix2/targets/Cloud_STM32L431_BearPi/Drivers/STM32L4xx_HAL_Driver/Src\stm32l4xx_hal_uart.c ****       __HAL_UNLOCK(huart);
1272:D:/iot/felix2/targets/Cloud_STM32L431_BearPi/Drivers/STM32L4xx_HAL_Driver/Src\stm32l4xx_hal_uart.c **** 
1273:D:/iot/felix2/targets/Cloud_STM32L431_BearPi/Drivers/STM32L4xx_HAL_Driver/Src\stm32l4xx_hal_uart.c ****       /* Enable the TX FIFO threshold interrupt */
1274:D:/iot/felix2/targets/Cloud_STM32L431_BearPi/Drivers/STM32L4xx_HAL_Driver/Src\stm32l4xx_hal_uart.c ****       SET_BIT(huart->Instance->CR3, USART_CR3_TXFTIE);
1275:D:/iot/felix2/targets/Cloud_STM32L431_BearPi/Drivers/STM32L4xx_HAL_Driver/Src\stm32l4xx_hal_uart.c ****     }
1276:D:/iot/felix2/targets/Cloud_STM32L431_BearPi/Drivers/STM32L4xx_HAL_Driver/Src\stm32l4xx_hal_uart.c ****     else
1277:D:/iot/felix2/targets/Cloud_STM32L431_BearPi/Drivers/STM32L4xx_HAL_Driver/Src\stm32l4xx_hal_uart.c **** #endif
1278:D:/iot/felix2/targets/Cloud_STM32L431_BearPi/Drivers/STM32L4xx_HAL_Driver/Src\stm32l4xx_hal_uart.c ****     {
1279:D:/iot/felix2/targets/Cloud_STM32L431_BearPi/Drivers/STM32L4xx_HAL_Driver/Src\stm32l4xx_hal_uart.c ****       /* Set the Tx ISR function pointer according to the data word length */
1280:D:/iot/felix2/targets/Cloud_STM32L431_BearPi/Drivers/STM32L4xx_HAL_Driver/Src\stm32l4xx_hal_uart.c ****       if ((huart->Init.WordLength == UART_WORDLENGTH_9B) && (huart->Init.Parity == UART_PARITY_NONE
 1298              		.loc 1 1280 0 discriminator 2
 1299 006a FB68     		ldr	r3, [r7, #12]
 1300 006c 9B68     		ldr	r3, [r3, #8]
 1301 006e B3F5805F 		cmp	r3, #4096
 1302 0072 07D1     		bne	.L70
ARM GAS  C:\Users\91458\AppData\Local\Temp\ccrpKNIe.s 			page 46


 1303              		.loc 1 1280 0 is_stmt 0 discriminator 1
 1304 0074 FB68     		ldr	r3, [r7, #12]
 1305 0076 1B69     		ldr	r3, [r3, #16]
 1306 0078 002B     		cmp	r3, #0
 1307 007a 03D1     		bne	.L70
1281:D:/iot/felix2/targets/Cloud_STM32L431_BearPi/Drivers/STM32L4xx_HAL_Driver/Src\stm32l4xx_hal_uart.c ****       {
1282:D:/iot/felix2/targets/Cloud_STM32L431_BearPi/Drivers/STM32L4xx_HAL_Driver/Src\stm32l4xx_hal_uart.c ****         huart->TxISR = UART_TxISR_16BIT;
 1308              		.loc 1 1282 0 is_stmt 1
 1309 007c FB68     		ldr	r3, [r7, #12]
 1310 007e 0D4A     		ldr	r2, .L72
 1311 0080 5A66     		str	r2, [r3, #100]
 1312 0082 02E0     		b	.L71
 1313              	.L70:
1283:D:/iot/felix2/targets/Cloud_STM32L431_BearPi/Drivers/STM32L4xx_HAL_Driver/Src\stm32l4xx_hal_uart.c ****       }
1284:D:/iot/felix2/targets/Cloud_STM32L431_BearPi/Drivers/STM32L4xx_HAL_Driver/Src\stm32l4xx_hal_uart.c ****       else
1285:D:/iot/felix2/targets/Cloud_STM32L431_BearPi/Drivers/STM32L4xx_HAL_Driver/Src\stm32l4xx_hal_uart.c ****       {
1286:D:/iot/felix2/targets/Cloud_STM32L431_BearPi/Drivers/STM32L4xx_HAL_Driver/Src\stm32l4xx_hal_uart.c ****         huart->TxISR = UART_TxISR_8BIT;
 1314              		.loc 1 1286 0
 1315 0084 FB68     		ldr	r3, [r7, #12]
 1316 0086 0C4A     		ldr	r2, .L72+4
 1317 0088 5A66     		str	r2, [r3, #100]
 1318              	.L71:
1287:D:/iot/felix2/targets/Cloud_STM32L431_BearPi/Drivers/STM32L4xx_HAL_Driver/Src\stm32l4xx_hal_uart.c ****       }
1288:D:/iot/felix2/targets/Cloud_STM32L431_BearPi/Drivers/STM32L4xx_HAL_Driver/Src\stm32l4xx_hal_uart.c **** 
1289:D:/iot/felix2/targets/Cloud_STM32L431_BearPi/Drivers/STM32L4xx_HAL_Driver/Src\stm32l4xx_hal_uart.c ****       /* Process Unlocked */
1290:D:/iot/felix2/targets/Cloud_STM32L431_BearPi/Drivers/STM32L4xx_HAL_Driver/Src\stm32l4xx_hal_uart.c ****       __HAL_UNLOCK(huart);
 1319              		.loc 1 1290 0
 1320 008a FB68     		ldr	r3, [r7, #12]
 1321 008c 0022     		movs	r2, #0
 1322 008e 83F87020 		strb	r2, [r3, #112]
1291:D:/iot/felix2/targets/Cloud_STM32L431_BearPi/Drivers/STM32L4xx_HAL_Driver/Src\stm32l4xx_hal_uart.c **** 
1292:D:/iot/felix2/targets/Cloud_STM32L431_BearPi/Drivers/STM32L4xx_HAL_Driver/Src\stm32l4xx_hal_uart.c ****       /* Enable the Transmit Data Register Empty interrupt */
1293:D:/iot/felix2/targets/Cloud_STM32L431_BearPi/Drivers/STM32L4xx_HAL_Driver/Src\stm32l4xx_hal_uart.c **** #if defined(USART_CR1_FIFOEN)
1294:D:/iot/felix2/targets/Cloud_STM32L431_BearPi/Drivers/STM32L4xx_HAL_Driver/Src\stm32l4xx_hal_uart.c ****       SET_BIT(huart->Instance->CR1, USART_CR1_TXEIE_TXFNFIE);
1295:D:/iot/felix2/targets/Cloud_STM32L431_BearPi/Drivers/STM32L4xx_HAL_Driver/Src\stm32l4xx_hal_uart.c **** #else
1296:D:/iot/felix2/targets/Cloud_STM32L431_BearPi/Drivers/STM32L4xx_HAL_Driver/Src\stm32l4xx_hal_uart.c ****       SET_BIT(huart->Instance->CR1, USART_CR1_TXEIE);
 1323              		.loc 1 1296 0
 1324 0092 FB68     		ldr	r3, [r7, #12]
 1325 0094 1B68     		ldr	r3, [r3]
 1326 0096 1A68     		ldr	r2, [r3]
 1327 0098 FB68     		ldr	r3, [r7, #12]
 1328 009a 1B68     		ldr	r3, [r3]
 1329 009c 42F08002 		orr	r2, r2, #128
 1330 00a0 1A60     		str	r2, [r3]
1297:D:/iot/felix2/targets/Cloud_STM32L431_BearPi/Drivers/STM32L4xx_HAL_Driver/Src\stm32l4xx_hal_uart.c **** #endif
1298:D:/iot/felix2/targets/Cloud_STM32L431_BearPi/Drivers/STM32L4xx_HAL_Driver/Src\stm32l4xx_hal_uart.c ****     }
1299:D:/iot/felix2/targets/Cloud_STM32L431_BearPi/Drivers/STM32L4xx_HAL_Driver/Src\stm32l4xx_hal_uart.c **** 
1300:D:/iot/felix2/targets/Cloud_STM32L431_BearPi/Drivers/STM32L4xx_HAL_Driver/Src\stm32l4xx_hal_uart.c ****     return HAL_OK;
 1331              		.loc 1 1300 0
 1332 00a2 0023     		movs	r3, #0
 1333 00a4 00E0     		b	.L68
 1334              	.L65:
1301:D:/iot/felix2/targets/Cloud_STM32L431_BearPi/Drivers/STM32L4xx_HAL_Driver/Src\stm32l4xx_hal_uart.c ****   }
1302:D:/iot/felix2/targets/Cloud_STM32L431_BearPi/Drivers/STM32L4xx_HAL_Driver/Src\stm32l4xx_hal_uart.c ****   else
1303:D:/iot/felix2/targets/Cloud_STM32L431_BearPi/Drivers/STM32L4xx_HAL_Driver/Src\stm32l4xx_hal_uart.c ****   {
1304:D:/iot/felix2/targets/Cloud_STM32L431_BearPi/Drivers/STM32L4xx_HAL_Driver/Src\stm32l4xx_hal_uart.c ****     return HAL_BUSY;
 1335              		.loc 1 1304 0
ARM GAS  C:\Users\91458\AppData\Local\Temp\ccrpKNIe.s 			page 47


 1336 00a6 0223     		movs	r3, #2
 1337              	.L68:
1305:D:/iot/felix2/targets/Cloud_STM32L431_BearPi/Drivers/STM32L4xx_HAL_Driver/Src\stm32l4xx_hal_uart.c ****   }
1306:D:/iot/felix2/targets/Cloud_STM32L431_BearPi/Drivers/STM32L4xx_HAL_Driver/Src\stm32l4xx_hal_uart.c **** }
 1338              		.loc 1 1306 0
 1339 00a8 1846     		mov	r0, r3
 1340 00aa 1437     		adds	r7, r7, #20
 1341              	.LCFI50:
 1342              		.cfi_def_cfa_offset 4
 1343 00ac BD46     		mov	sp, r7
 1344              	.LCFI51:
 1345              		.cfi_def_cfa_register 13
 1346              		@ sp needed
 1347 00ae 5DF8047B 		ldr	r7, [sp], #4
 1348              	.LCFI52:
 1349              		.cfi_restore 7
 1350              		.cfi_def_cfa_offset 0
 1351 00b2 7047     		bx	lr
 1352              	.L73:
 1353              		.align	2
 1354              	.L72:
 1355 00b4 00000000 		.word	UART_TxISR_16BIT
 1356 00b8 00000000 		.word	UART_TxISR_8BIT
 1357              		.cfi_endproc
 1358              	.LFE142:
 1360              		.section	.text.HAL_UART_Receive_IT,"ax",%progbits
 1361              		.align	1
 1362              		.global	HAL_UART_Receive_IT
 1363              		.syntax unified
 1364              		.thumb
 1365              		.thumb_func
 1366              		.fpu fpv4-sp-d16
 1368              	HAL_UART_Receive_IT:
 1369              	.LFB143:
1307:D:/iot/felix2/targets/Cloud_STM32L431_BearPi/Drivers/STM32L4xx_HAL_Driver/Src\stm32l4xx_hal_uart.c **** 
1308:D:/iot/felix2/targets/Cloud_STM32L431_BearPi/Drivers/STM32L4xx_HAL_Driver/Src\stm32l4xx_hal_uart.c **** /**
1309:D:/iot/felix2/targets/Cloud_STM32L431_BearPi/Drivers/STM32L4xx_HAL_Driver/Src\stm32l4xx_hal_uart.c ****   * @brief Receive an amount of data in interrupt mode.
1310:D:/iot/felix2/targets/Cloud_STM32L431_BearPi/Drivers/STM32L4xx_HAL_Driver/Src\stm32l4xx_hal_uart.c ****   * @param huart UART handle.
1311:D:/iot/felix2/targets/Cloud_STM32L431_BearPi/Drivers/STM32L4xx_HAL_Driver/Src\stm32l4xx_hal_uart.c ****   * @param pData Pointer to data buffer.
1312:D:/iot/felix2/targets/Cloud_STM32L431_BearPi/Drivers/STM32L4xx_HAL_Driver/Src\stm32l4xx_hal_uart.c ****   * @param Size  Amount of data to be received.
1313:D:/iot/felix2/targets/Cloud_STM32L431_BearPi/Drivers/STM32L4xx_HAL_Driver/Src\stm32l4xx_hal_uart.c ****   * @retval HAL status
1314:D:/iot/felix2/targets/Cloud_STM32L431_BearPi/Drivers/STM32L4xx_HAL_Driver/Src\stm32l4xx_hal_uart.c ****   */
1315:D:/iot/felix2/targets/Cloud_STM32L431_BearPi/Drivers/STM32L4xx_HAL_Driver/Src\stm32l4xx_hal_uart.c **** HAL_StatusTypeDef HAL_UART_Receive_IT(UART_HandleTypeDef *huart, uint8_t *pData, uint16_t Size)
1316:D:/iot/felix2/targets/Cloud_STM32L431_BearPi/Drivers/STM32L4xx_HAL_Driver/Src\stm32l4xx_hal_uart.c **** {
 1370              		.loc 1 1316 0
 1371              		.cfi_startproc
 1372              		@ args = 0, pretend = 0, frame = 16
 1373              		@ frame_needed = 1, uses_anonymous_args = 0
 1374              		@ link register save eliminated.
 1375 0000 80B4     		push	{r7}
 1376              	.LCFI53:
 1377              		.cfi_def_cfa_offset 4
 1378              		.cfi_offset 7, -4
 1379 0002 85B0     		sub	sp, sp, #20
 1380              	.LCFI54:
 1381              		.cfi_def_cfa_offset 24
 1382 0004 00AF     		add	r7, sp, #0
ARM GAS  C:\Users\91458\AppData\Local\Temp\ccrpKNIe.s 			page 48


 1383              	.LCFI55:
 1384              		.cfi_def_cfa_register 7
 1385 0006 F860     		str	r0, [r7, #12]
 1386 0008 B960     		str	r1, [r7, #8]
 1387 000a 1346     		mov	r3, r2
 1388 000c FB80     		strh	r3, [r7, #6]	@ movhi
1317:D:/iot/felix2/targets/Cloud_STM32L431_BearPi/Drivers/STM32L4xx_HAL_Driver/Src\stm32l4xx_hal_uart.c ****   /* Check that a Rx process is not already ongoing */
1318:D:/iot/felix2/targets/Cloud_STM32L431_BearPi/Drivers/STM32L4xx_HAL_Driver/Src\stm32l4xx_hal_uart.c ****   if (huart->RxState == HAL_UART_STATE_READY)
 1389              		.loc 1 1318 0
 1390 000e FB68     		ldr	r3, [r7, #12]
 1391 0010 93F87230 		ldrb	r3, [r3, #114]
 1392 0014 DBB2     		uxtb	r3, r3
 1393 0016 202B     		cmp	r3, #32
 1394 0018 40F08680 		bne	.L75
1319:D:/iot/felix2/targets/Cloud_STM32L431_BearPi/Drivers/STM32L4xx_HAL_Driver/Src\stm32l4xx_hal_uart.c ****   {
1320:D:/iot/felix2/targets/Cloud_STM32L431_BearPi/Drivers/STM32L4xx_HAL_Driver/Src\stm32l4xx_hal_uart.c ****     if ((pData == NULL) || (Size == 0U))
 1395              		.loc 1 1320 0
 1396 001c BB68     		ldr	r3, [r7, #8]
 1397 001e 002B     		cmp	r3, #0
 1398 0020 02D0     		beq	.L76
 1399              		.loc 1 1320 0 is_stmt 0 discriminator 1
 1400 0022 FB88     		ldrh	r3, [r7, #6]
 1401 0024 002B     		cmp	r3, #0
 1402 0026 01D1     		bne	.L77
 1403              	.L76:
1321:D:/iot/felix2/targets/Cloud_STM32L431_BearPi/Drivers/STM32L4xx_HAL_Driver/Src\stm32l4xx_hal_uart.c ****     {
1322:D:/iot/felix2/targets/Cloud_STM32L431_BearPi/Drivers/STM32L4xx_HAL_Driver/Src\stm32l4xx_hal_uart.c ****       return HAL_ERROR;
 1404              		.loc 1 1322 0 is_stmt 1
 1405 0028 0123     		movs	r3, #1
 1406 002a 7EE0     		b	.L78
 1407              	.L77:
1323:D:/iot/felix2/targets/Cloud_STM32L431_BearPi/Drivers/STM32L4xx_HAL_Driver/Src\stm32l4xx_hal_uart.c ****     }
1324:D:/iot/felix2/targets/Cloud_STM32L431_BearPi/Drivers/STM32L4xx_HAL_Driver/Src\stm32l4xx_hal_uart.c **** 
1325:D:/iot/felix2/targets/Cloud_STM32L431_BearPi/Drivers/STM32L4xx_HAL_Driver/Src\stm32l4xx_hal_uart.c ****     /* Process Locked */
1326:D:/iot/felix2/targets/Cloud_STM32L431_BearPi/Drivers/STM32L4xx_HAL_Driver/Src\stm32l4xx_hal_uart.c ****     __HAL_LOCK(huart);
 1408              		.loc 1 1326 0
 1409 002c FB68     		ldr	r3, [r7, #12]
 1410 002e 93F87030 		ldrb	r3, [r3, #112]	@ zero_extendqisi2
 1411 0032 012B     		cmp	r3, #1
 1412 0034 01D1     		bne	.L79
 1413              		.loc 1 1326 0 is_stmt 0 discriminator 1
 1414 0036 0223     		movs	r3, #2
 1415 0038 77E0     		b	.L78
 1416              	.L79:
 1417              		.loc 1 1326 0 discriminator 2
 1418 003a FB68     		ldr	r3, [r7, #12]
 1419 003c 0122     		movs	r2, #1
 1420 003e 83F87020 		strb	r2, [r3, #112]
1327:D:/iot/felix2/targets/Cloud_STM32L431_BearPi/Drivers/STM32L4xx_HAL_Driver/Src\stm32l4xx_hal_uart.c **** 
1328:D:/iot/felix2/targets/Cloud_STM32L431_BearPi/Drivers/STM32L4xx_HAL_Driver/Src\stm32l4xx_hal_uart.c ****     huart->pRxBuffPtr  = pData;
 1421              		.loc 1 1328 0 is_stmt 1 discriminator 2
 1422 0042 FB68     		ldr	r3, [r7, #12]
 1423 0044 BA68     		ldr	r2, [r7, #8]
 1424 0046 5A65     		str	r2, [r3, #84]
1329:D:/iot/felix2/targets/Cloud_STM32L431_BearPi/Drivers/STM32L4xx_HAL_Driver/Src\stm32l4xx_hal_uart.c ****     huart->RxXferSize  = Size;
 1425              		.loc 1 1329 0 discriminator 2
 1426 0048 FB68     		ldr	r3, [r7, #12]
ARM GAS  C:\Users\91458\AppData\Local\Temp\ccrpKNIe.s 			page 49


 1427 004a FA88     		ldrh	r2, [r7, #6]	@ movhi
 1428 004c A3F85820 		strh	r2, [r3, #88]	@ movhi
1330:D:/iot/felix2/targets/Cloud_STM32L431_BearPi/Drivers/STM32L4xx_HAL_Driver/Src\stm32l4xx_hal_uart.c ****     huart->RxXferCount = Size;
 1429              		.loc 1 1330 0 discriminator 2
 1430 0050 FB68     		ldr	r3, [r7, #12]
 1431 0052 FA88     		ldrh	r2, [r7, #6]	@ movhi
 1432 0054 A3F85A20 		strh	r2, [r3, #90]	@ movhi
1331:D:/iot/felix2/targets/Cloud_STM32L431_BearPi/Drivers/STM32L4xx_HAL_Driver/Src\stm32l4xx_hal_uart.c ****     huart->RxISR       = NULL;
 1433              		.loc 1 1331 0 discriminator 2
 1434 0058 FB68     		ldr	r3, [r7, #12]
 1435 005a 0022     		movs	r2, #0
 1436 005c 1A66     		str	r2, [r3, #96]
1332:D:/iot/felix2/targets/Cloud_STM32L431_BearPi/Drivers/STM32L4xx_HAL_Driver/Src\stm32l4xx_hal_uart.c **** 
1333:D:/iot/felix2/targets/Cloud_STM32L431_BearPi/Drivers/STM32L4xx_HAL_Driver/Src\stm32l4xx_hal_uart.c ****     /* Computation of UART mask to apply to RDR register */
1334:D:/iot/felix2/targets/Cloud_STM32L431_BearPi/Drivers/STM32L4xx_HAL_Driver/Src\stm32l4xx_hal_uart.c ****     UART_MASK_COMPUTATION(huart);
 1437              		.loc 1 1334 0 discriminator 2
 1438 005e FB68     		ldr	r3, [r7, #12]
 1439 0060 9B68     		ldr	r3, [r3, #8]
 1440 0062 B3F5805F 		cmp	r3, #4096
 1441 0066 0ED1     		bne	.L80
 1442              		.loc 1 1334 0 is_stmt 0 discriminator 1
 1443 0068 FB68     		ldr	r3, [r7, #12]
 1444 006a 1B69     		ldr	r3, [r3, #16]
 1445 006c 002B     		cmp	r3, #0
 1446 006e 05D1     		bne	.L81
 1447              		.loc 1 1334 0 discriminator 3
 1448 0070 FB68     		ldr	r3, [r7, #12]
 1449 0072 40F2FF12 		movw	r2, #511
 1450 0076 A3F85C20 		strh	r2, [r3, #92]	@ movhi
 1451 007a 28E0     		b	.L83
 1452              	.L81:
 1453              		.loc 1 1334 0 discriminator 4
 1454 007c FB68     		ldr	r3, [r7, #12]
 1455 007e FF22     		movs	r2, #255
 1456 0080 A3F85C20 		strh	r2, [r3, #92]	@ movhi
 1457 0084 23E0     		b	.L83
 1458              	.L80:
 1459              		.loc 1 1334 0 discriminator 2
 1460 0086 FB68     		ldr	r3, [r7, #12]
 1461 0088 9B68     		ldr	r3, [r3, #8]
 1462 008a 002B     		cmp	r3, #0
 1463 008c 0DD1     		bne	.L84
 1464              		.loc 1 1334 0 discriminator 5
 1465 008e FB68     		ldr	r3, [r7, #12]
 1466 0090 1B69     		ldr	r3, [r3, #16]
 1467 0092 002B     		cmp	r3, #0
 1468 0094 04D1     		bne	.L85
 1469              		.loc 1 1334 0 discriminator 7
 1470 0096 FB68     		ldr	r3, [r7, #12]
 1471 0098 FF22     		movs	r2, #255
 1472 009a A3F85C20 		strh	r2, [r3, #92]	@ movhi
 1473 009e 16E0     		b	.L83
 1474              	.L85:
 1475              		.loc 1 1334 0 discriminator 8
 1476 00a0 FB68     		ldr	r3, [r7, #12]
 1477 00a2 7F22     		movs	r2, #127
 1478 00a4 A3F85C20 		strh	r2, [r3, #92]	@ movhi
ARM GAS  C:\Users\91458\AppData\Local\Temp\ccrpKNIe.s 			page 50


 1479 00a8 11E0     		b	.L83
 1480              	.L84:
 1481              		.loc 1 1334 0 discriminator 6
 1482 00aa FB68     		ldr	r3, [r7, #12]
 1483 00ac 9B68     		ldr	r3, [r3, #8]
 1484 00ae B3F1805F 		cmp	r3, #268435456
 1485 00b2 0CD1     		bne	.L83
 1486              		.loc 1 1334 0 discriminator 9
 1487 00b4 FB68     		ldr	r3, [r7, #12]
 1488 00b6 1B69     		ldr	r3, [r3, #16]
 1489 00b8 002B     		cmp	r3, #0
 1490 00ba 04D1     		bne	.L87
 1491              		.loc 1 1334 0 discriminator 10
 1492 00bc FB68     		ldr	r3, [r7, #12]
 1493 00be 7F22     		movs	r2, #127
 1494 00c0 A3F85C20 		strh	r2, [r3, #92]	@ movhi
 1495 00c4 03E0     		b	.L83
 1496              	.L87:
 1497              		.loc 1 1334 0 discriminator 11
 1498 00c6 FB68     		ldr	r3, [r7, #12]
 1499 00c8 3F22     		movs	r2, #63
 1500 00ca A3F85C20 		strh	r2, [r3, #92]	@ movhi
 1501              	.L83:
1335:D:/iot/felix2/targets/Cloud_STM32L431_BearPi/Drivers/STM32L4xx_HAL_Driver/Src\stm32l4xx_hal_uart.c **** 
1336:D:/iot/felix2/targets/Cloud_STM32L431_BearPi/Drivers/STM32L4xx_HAL_Driver/Src\stm32l4xx_hal_uart.c ****     huart->ErrorCode = HAL_UART_ERROR_NONE;
 1502              		.loc 1 1336 0 is_stmt 1
 1503 00ce FB68     		ldr	r3, [r7, #12]
 1504 00d0 0022     		movs	r2, #0
 1505 00d2 5A67     		str	r2, [r3, #116]
1337:D:/iot/felix2/targets/Cloud_STM32L431_BearPi/Drivers/STM32L4xx_HAL_Driver/Src\stm32l4xx_hal_uart.c ****     huart->RxState = HAL_UART_STATE_BUSY_RX;
 1506              		.loc 1 1337 0
 1507 00d4 FB68     		ldr	r3, [r7, #12]
 1508 00d6 2222     		movs	r2, #34
 1509 00d8 83F87220 		strb	r2, [r3, #114]
1338:D:/iot/felix2/targets/Cloud_STM32L431_BearPi/Drivers/STM32L4xx_HAL_Driver/Src\stm32l4xx_hal_uart.c **** 
1339:D:/iot/felix2/targets/Cloud_STM32L431_BearPi/Drivers/STM32L4xx_HAL_Driver/Src\stm32l4xx_hal_uart.c ****     /* Enable the UART Error Interrupt: (Frame error, noise error, overrun error) */
1340:D:/iot/felix2/targets/Cloud_STM32L431_BearPi/Drivers/STM32L4xx_HAL_Driver/Src\stm32l4xx_hal_uart.c ****     SET_BIT(huart->Instance->CR3, USART_CR3_EIE);
 1510              		.loc 1 1340 0
 1511 00dc FB68     		ldr	r3, [r7, #12]
 1512 00de 1B68     		ldr	r3, [r3]
 1513 00e0 9A68     		ldr	r2, [r3, #8]
 1514 00e2 FB68     		ldr	r3, [r7, #12]
 1515 00e4 1B68     		ldr	r3, [r3]
 1516 00e6 42F00102 		orr	r2, r2, #1
 1517 00ea 9A60     		str	r2, [r3, #8]
1341:D:/iot/felix2/targets/Cloud_STM32L431_BearPi/Drivers/STM32L4xx_HAL_Driver/Src\stm32l4xx_hal_uart.c **** 
1342:D:/iot/felix2/targets/Cloud_STM32L431_BearPi/Drivers/STM32L4xx_HAL_Driver/Src\stm32l4xx_hal_uart.c **** #if defined(USART_CR1_FIFOEN)
1343:D:/iot/felix2/targets/Cloud_STM32L431_BearPi/Drivers/STM32L4xx_HAL_Driver/Src\stm32l4xx_hal_uart.c ****     /* Configure Rx interrupt processing*/
1344:D:/iot/felix2/targets/Cloud_STM32L431_BearPi/Drivers/STM32L4xx_HAL_Driver/Src\stm32l4xx_hal_uart.c ****     if ((huart->FifoMode == UART_FIFOMODE_ENABLE) && (Size >= huart->NbRxDataToProcess))
1345:D:/iot/felix2/targets/Cloud_STM32L431_BearPi/Drivers/STM32L4xx_HAL_Driver/Src\stm32l4xx_hal_uart.c ****     {
1346:D:/iot/felix2/targets/Cloud_STM32L431_BearPi/Drivers/STM32L4xx_HAL_Driver/Src\stm32l4xx_hal_uart.c ****       /* Set the Rx ISR function pointer according to the data word length */
1347:D:/iot/felix2/targets/Cloud_STM32L431_BearPi/Drivers/STM32L4xx_HAL_Driver/Src\stm32l4xx_hal_uart.c ****       if ((huart->Init.WordLength == UART_WORDLENGTH_9B) && (huart->Init.Parity == UART_PARITY_NONE
1348:D:/iot/felix2/targets/Cloud_STM32L431_BearPi/Drivers/STM32L4xx_HAL_Driver/Src\stm32l4xx_hal_uart.c ****       {
1349:D:/iot/felix2/targets/Cloud_STM32L431_BearPi/Drivers/STM32L4xx_HAL_Driver/Src\stm32l4xx_hal_uart.c ****         huart->RxISR = UART_RxISR_16BIT_FIFOEN;
1350:D:/iot/felix2/targets/Cloud_STM32L431_BearPi/Drivers/STM32L4xx_HAL_Driver/Src\stm32l4xx_hal_uart.c ****       }
1351:D:/iot/felix2/targets/Cloud_STM32L431_BearPi/Drivers/STM32L4xx_HAL_Driver/Src\stm32l4xx_hal_uart.c ****       else
1352:D:/iot/felix2/targets/Cloud_STM32L431_BearPi/Drivers/STM32L4xx_HAL_Driver/Src\stm32l4xx_hal_uart.c ****       {
ARM GAS  C:\Users\91458\AppData\Local\Temp\ccrpKNIe.s 			page 51


1353:D:/iot/felix2/targets/Cloud_STM32L431_BearPi/Drivers/STM32L4xx_HAL_Driver/Src\stm32l4xx_hal_uart.c ****         huart->RxISR = UART_RxISR_8BIT_FIFOEN;
1354:D:/iot/felix2/targets/Cloud_STM32L431_BearPi/Drivers/STM32L4xx_HAL_Driver/Src\stm32l4xx_hal_uart.c ****       }
1355:D:/iot/felix2/targets/Cloud_STM32L431_BearPi/Drivers/STM32L4xx_HAL_Driver/Src\stm32l4xx_hal_uart.c **** 
1356:D:/iot/felix2/targets/Cloud_STM32L431_BearPi/Drivers/STM32L4xx_HAL_Driver/Src\stm32l4xx_hal_uart.c ****       /* Process Unlocked */
1357:D:/iot/felix2/targets/Cloud_STM32L431_BearPi/Drivers/STM32L4xx_HAL_Driver/Src\stm32l4xx_hal_uart.c ****       __HAL_UNLOCK(huart);
1358:D:/iot/felix2/targets/Cloud_STM32L431_BearPi/Drivers/STM32L4xx_HAL_Driver/Src\stm32l4xx_hal_uart.c **** 
1359:D:/iot/felix2/targets/Cloud_STM32L431_BearPi/Drivers/STM32L4xx_HAL_Driver/Src\stm32l4xx_hal_uart.c ****       /* Enable the UART Parity Error interrupt and RX FIFO Threshold interrupt */
1360:D:/iot/felix2/targets/Cloud_STM32L431_BearPi/Drivers/STM32L4xx_HAL_Driver/Src\stm32l4xx_hal_uart.c ****       SET_BIT(huart->Instance->CR1, USART_CR1_PEIE);
1361:D:/iot/felix2/targets/Cloud_STM32L431_BearPi/Drivers/STM32L4xx_HAL_Driver/Src\stm32l4xx_hal_uart.c ****       SET_BIT(huart->Instance->CR3, USART_CR3_RXFTIE);
1362:D:/iot/felix2/targets/Cloud_STM32L431_BearPi/Drivers/STM32L4xx_HAL_Driver/Src\stm32l4xx_hal_uart.c ****     }
1363:D:/iot/felix2/targets/Cloud_STM32L431_BearPi/Drivers/STM32L4xx_HAL_Driver/Src\stm32l4xx_hal_uart.c ****     else
1364:D:/iot/felix2/targets/Cloud_STM32L431_BearPi/Drivers/STM32L4xx_HAL_Driver/Src\stm32l4xx_hal_uart.c **** #endif
1365:D:/iot/felix2/targets/Cloud_STM32L431_BearPi/Drivers/STM32L4xx_HAL_Driver/Src\stm32l4xx_hal_uart.c ****     {
1366:D:/iot/felix2/targets/Cloud_STM32L431_BearPi/Drivers/STM32L4xx_HAL_Driver/Src\stm32l4xx_hal_uart.c ****       /* Set the Rx ISR function pointer according to the data word length */
1367:D:/iot/felix2/targets/Cloud_STM32L431_BearPi/Drivers/STM32L4xx_HAL_Driver/Src\stm32l4xx_hal_uart.c ****       if ((huart->Init.WordLength == UART_WORDLENGTH_9B) && (huart->Init.Parity == UART_PARITY_NONE
 1518              		.loc 1 1367 0
 1519 00ec FB68     		ldr	r3, [r7, #12]
 1520 00ee 9B68     		ldr	r3, [r3, #8]
 1521 00f0 B3F5805F 		cmp	r3, #4096
 1522 00f4 07D1     		bne	.L88
 1523              		.loc 1 1367 0 is_stmt 0 discriminator 1
 1524 00f6 FB68     		ldr	r3, [r7, #12]
 1525 00f8 1B69     		ldr	r3, [r3, #16]
 1526 00fa 002B     		cmp	r3, #0
 1527 00fc 03D1     		bne	.L88
1368:D:/iot/felix2/targets/Cloud_STM32L431_BearPi/Drivers/STM32L4xx_HAL_Driver/Src\stm32l4xx_hal_uart.c ****       {
1369:D:/iot/felix2/targets/Cloud_STM32L431_BearPi/Drivers/STM32L4xx_HAL_Driver/Src\stm32l4xx_hal_uart.c ****         huart->RxISR = UART_RxISR_16BIT;
 1528              		.loc 1 1369 0 is_stmt 1
 1529 00fe FB68     		ldr	r3, [r7, #12]
 1530 0100 0D4A     		ldr	r2, .L90
 1531 0102 1A66     		str	r2, [r3, #96]
 1532 0104 02E0     		b	.L89
 1533              	.L88:
1370:D:/iot/felix2/targets/Cloud_STM32L431_BearPi/Drivers/STM32L4xx_HAL_Driver/Src\stm32l4xx_hal_uart.c ****       }
1371:D:/iot/felix2/targets/Cloud_STM32L431_BearPi/Drivers/STM32L4xx_HAL_Driver/Src\stm32l4xx_hal_uart.c ****       else
1372:D:/iot/felix2/targets/Cloud_STM32L431_BearPi/Drivers/STM32L4xx_HAL_Driver/Src\stm32l4xx_hal_uart.c ****       {
1373:D:/iot/felix2/targets/Cloud_STM32L431_BearPi/Drivers/STM32L4xx_HAL_Driver/Src\stm32l4xx_hal_uart.c ****         huart->RxISR = UART_RxISR_8BIT;
 1534              		.loc 1 1373 0
 1535 0106 FB68     		ldr	r3, [r7, #12]
 1536 0108 0C4A     		ldr	r2, .L90+4
 1537 010a 1A66     		str	r2, [r3, #96]
 1538              	.L89:
1374:D:/iot/felix2/targets/Cloud_STM32L431_BearPi/Drivers/STM32L4xx_HAL_Driver/Src\stm32l4xx_hal_uart.c ****       }
1375:D:/iot/felix2/targets/Cloud_STM32L431_BearPi/Drivers/STM32L4xx_HAL_Driver/Src\stm32l4xx_hal_uart.c **** 
1376:D:/iot/felix2/targets/Cloud_STM32L431_BearPi/Drivers/STM32L4xx_HAL_Driver/Src\stm32l4xx_hal_uart.c ****       /* Process Unlocked */
1377:D:/iot/felix2/targets/Cloud_STM32L431_BearPi/Drivers/STM32L4xx_HAL_Driver/Src\stm32l4xx_hal_uart.c ****       __HAL_UNLOCK(huart);
 1539              		.loc 1 1377 0
 1540 010c FB68     		ldr	r3, [r7, #12]
 1541 010e 0022     		movs	r2, #0
 1542 0110 83F87020 		strb	r2, [r3, #112]
1378:D:/iot/felix2/targets/Cloud_STM32L431_BearPi/Drivers/STM32L4xx_HAL_Driver/Src\stm32l4xx_hal_uart.c **** 
1379:D:/iot/felix2/targets/Cloud_STM32L431_BearPi/Drivers/STM32L4xx_HAL_Driver/Src\stm32l4xx_hal_uart.c ****       /* Enable the UART Parity Error interrupt and Data Register Not Empty interrupt */
1380:D:/iot/felix2/targets/Cloud_STM32L431_BearPi/Drivers/STM32L4xx_HAL_Driver/Src\stm32l4xx_hal_uart.c **** #if defined(USART_CR1_FIFOEN)
1381:D:/iot/felix2/targets/Cloud_STM32L431_BearPi/Drivers/STM32L4xx_HAL_Driver/Src\stm32l4xx_hal_uart.c ****       SET_BIT(huart->Instance->CR1, USART_CR1_PEIE | USART_CR1_RXNEIE_RXFNEIE);
1382:D:/iot/felix2/targets/Cloud_STM32L431_BearPi/Drivers/STM32L4xx_HAL_Driver/Src\stm32l4xx_hal_uart.c **** #else
1383:D:/iot/felix2/targets/Cloud_STM32L431_BearPi/Drivers/STM32L4xx_HAL_Driver/Src\stm32l4xx_hal_uart.c ****       SET_BIT(huart->Instance->CR1, USART_CR1_PEIE | USART_CR1_RXNEIE);
 1543              		.loc 1 1383 0
ARM GAS  C:\Users\91458\AppData\Local\Temp\ccrpKNIe.s 			page 52


 1544 0114 FB68     		ldr	r3, [r7, #12]
 1545 0116 1B68     		ldr	r3, [r3]
 1546 0118 1A68     		ldr	r2, [r3]
 1547 011a FB68     		ldr	r3, [r7, #12]
 1548 011c 1B68     		ldr	r3, [r3]
 1549 011e 42F49072 		orr	r2, r2, #288
 1550 0122 1A60     		str	r2, [r3]
1384:D:/iot/felix2/targets/Cloud_STM32L431_BearPi/Drivers/STM32L4xx_HAL_Driver/Src\stm32l4xx_hal_uart.c **** #endif
1385:D:/iot/felix2/targets/Cloud_STM32L431_BearPi/Drivers/STM32L4xx_HAL_Driver/Src\stm32l4xx_hal_uart.c ****     }
1386:D:/iot/felix2/targets/Cloud_STM32L431_BearPi/Drivers/STM32L4xx_HAL_Driver/Src\stm32l4xx_hal_uart.c **** 
1387:D:/iot/felix2/targets/Cloud_STM32L431_BearPi/Drivers/STM32L4xx_HAL_Driver/Src\stm32l4xx_hal_uart.c ****     return HAL_OK;
 1551              		.loc 1 1387 0
 1552 0124 0023     		movs	r3, #0
 1553 0126 00E0     		b	.L78
 1554              	.L75:
1388:D:/iot/felix2/targets/Cloud_STM32L431_BearPi/Drivers/STM32L4xx_HAL_Driver/Src\stm32l4xx_hal_uart.c ****   }
1389:D:/iot/felix2/targets/Cloud_STM32L431_BearPi/Drivers/STM32L4xx_HAL_Driver/Src\stm32l4xx_hal_uart.c ****   else
1390:D:/iot/felix2/targets/Cloud_STM32L431_BearPi/Drivers/STM32L4xx_HAL_Driver/Src\stm32l4xx_hal_uart.c ****   {
1391:D:/iot/felix2/targets/Cloud_STM32L431_BearPi/Drivers/STM32L4xx_HAL_Driver/Src\stm32l4xx_hal_uart.c ****     return HAL_BUSY;
 1555              		.loc 1 1391 0
 1556 0128 0223     		movs	r3, #2
 1557              	.L78:
1392:D:/iot/felix2/targets/Cloud_STM32L431_BearPi/Drivers/STM32L4xx_HAL_Driver/Src\stm32l4xx_hal_uart.c ****   }
1393:D:/iot/felix2/targets/Cloud_STM32L431_BearPi/Drivers/STM32L4xx_HAL_Driver/Src\stm32l4xx_hal_uart.c **** }
 1558              		.loc 1 1393 0
 1559 012a 1846     		mov	r0, r3
 1560 012c 1437     		adds	r7, r7, #20
 1561              	.LCFI56:
 1562              		.cfi_def_cfa_offset 4
 1563 012e BD46     		mov	sp, r7
 1564              	.LCFI57:
 1565              		.cfi_def_cfa_register 13
 1566              		@ sp needed
 1567 0130 5DF8047B 		ldr	r7, [sp], #4
 1568              	.LCFI58:
 1569              		.cfi_restore 7
 1570              		.cfi_def_cfa_offset 0
 1571 0134 7047     		bx	lr
 1572              	.L91:
 1573 0136 00BF     		.align	2
 1574              	.L90:
 1575 0138 00000000 		.word	UART_RxISR_16BIT
 1576 013c 00000000 		.word	UART_RxISR_8BIT
 1577              		.cfi_endproc
 1578              	.LFE143:
 1580              		.section	.text.HAL_UART_Transmit_DMA,"ax",%progbits
 1581              		.align	1
 1582              		.global	HAL_UART_Transmit_DMA
 1583              		.syntax unified
 1584              		.thumb
 1585              		.thumb_func
 1586              		.fpu fpv4-sp-d16
 1588              	HAL_UART_Transmit_DMA:
 1589              	.LFB144:
1394:D:/iot/felix2/targets/Cloud_STM32L431_BearPi/Drivers/STM32L4xx_HAL_Driver/Src\stm32l4xx_hal_uart.c **** 
1395:D:/iot/felix2/targets/Cloud_STM32L431_BearPi/Drivers/STM32L4xx_HAL_Driver/Src\stm32l4xx_hal_uart.c **** /**
1396:D:/iot/felix2/targets/Cloud_STM32L431_BearPi/Drivers/STM32L4xx_HAL_Driver/Src\stm32l4xx_hal_uart.c ****   * @brief Send an amount of data in DMA mode.
ARM GAS  C:\Users\91458\AppData\Local\Temp\ccrpKNIe.s 			page 53


1397:D:/iot/felix2/targets/Cloud_STM32L431_BearPi/Drivers/STM32L4xx_HAL_Driver/Src\stm32l4xx_hal_uart.c ****   * @param huart UART handle.
1398:D:/iot/felix2/targets/Cloud_STM32L431_BearPi/Drivers/STM32L4xx_HAL_Driver/Src\stm32l4xx_hal_uart.c ****   * @param pData Pointer to data buffer.
1399:D:/iot/felix2/targets/Cloud_STM32L431_BearPi/Drivers/STM32L4xx_HAL_Driver/Src\stm32l4xx_hal_uart.c ****   * @param Size  Amount of data to be sent.
1400:D:/iot/felix2/targets/Cloud_STM32L431_BearPi/Drivers/STM32L4xx_HAL_Driver/Src\stm32l4xx_hal_uart.c ****   * @retval HAL status
1401:D:/iot/felix2/targets/Cloud_STM32L431_BearPi/Drivers/STM32L4xx_HAL_Driver/Src\stm32l4xx_hal_uart.c ****   */
1402:D:/iot/felix2/targets/Cloud_STM32L431_BearPi/Drivers/STM32L4xx_HAL_Driver/Src\stm32l4xx_hal_uart.c **** HAL_StatusTypeDef HAL_UART_Transmit_DMA(UART_HandleTypeDef *huart, uint8_t *pData, uint16_t Size)
1403:D:/iot/felix2/targets/Cloud_STM32L431_BearPi/Drivers/STM32L4xx_HAL_Driver/Src\stm32l4xx_hal_uart.c **** {
 1590              		.loc 1 1403 0
 1591              		.cfi_startproc
 1592              		@ args = 0, pretend = 0, frame = 16
 1593              		@ frame_needed = 1, uses_anonymous_args = 0
 1594 0000 80B5     		push	{r7, lr}
 1595              	.LCFI59:
 1596              		.cfi_def_cfa_offset 8
 1597              		.cfi_offset 7, -8
 1598              		.cfi_offset 14, -4
 1599 0002 84B0     		sub	sp, sp, #16
 1600              	.LCFI60:
 1601              		.cfi_def_cfa_offset 24
 1602 0004 00AF     		add	r7, sp, #0
 1603              	.LCFI61:
 1604              		.cfi_def_cfa_register 7
 1605 0006 F860     		str	r0, [r7, #12]
 1606 0008 B960     		str	r1, [r7, #8]
 1607 000a 1346     		mov	r3, r2
 1608 000c FB80     		strh	r3, [r7, #6]	@ movhi
1404:D:/iot/felix2/targets/Cloud_STM32L431_BearPi/Drivers/STM32L4xx_HAL_Driver/Src\stm32l4xx_hal_uart.c ****   /* Check that a Tx process is not already ongoing */
1405:D:/iot/felix2/targets/Cloud_STM32L431_BearPi/Drivers/STM32L4xx_HAL_Driver/Src\stm32l4xx_hal_uart.c ****   if (huart->gState == HAL_UART_STATE_READY)
 1609              		.loc 1 1405 0
 1610 000e FB68     		ldr	r3, [r7, #12]
 1611 0010 93F87130 		ldrb	r3, [r3, #113]
 1612 0014 DBB2     		uxtb	r3, r3
 1613 0016 202B     		cmp	r3, #32
 1614 0018 52D1     		bne	.L93
1406:D:/iot/felix2/targets/Cloud_STM32L431_BearPi/Drivers/STM32L4xx_HAL_Driver/Src\stm32l4xx_hal_uart.c ****   {
1407:D:/iot/felix2/targets/Cloud_STM32L431_BearPi/Drivers/STM32L4xx_HAL_Driver/Src\stm32l4xx_hal_uart.c ****     if ((pData == NULL) || (Size == 0U))
 1615              		.loc 1 1407 0
 1616 001a BB68     		ldr	r3, [r7, #8]
 1617 001c 002B     		cmp	r3, #0
 1618 001e 02D0     		beq	.L94
 1619              		.loc 1 1407 0 is_stmt 0 discriminator 1
 1620 0020 FB88     		ldrh	r3, [r7, #6]
 1621 0022 002B     		cmp	r3, #0
 1622 0024 01D1     		bne	.L95
 1623              	.L94:
1408:D:/iot/felix2/targets/Cloud_STM32L431_BearPi/Drivers/STM32L4xx_HAL_Driver/Src\stm32l4xx_hal_uart.c ****     {
1409:D:/iot/felix2/targets/Cloud_STM32L431_BearPi/Drivers/STM32L4xx_HAL_Driver/Src\stm32l4xx_hal_uart.c ****       return HAL_ERROR;
 1624              		.loc 1 1409 0 is_stmt 1
 1625 0026 0123     		movs	r3, #1
 1626 0028 4BE0     		b	.L96
 1627              	.L95:
1410:D:/iot/felix2/targets/Cloud_STM32L431_BearPi/Drivers/STM32L4xx_HAL_Driver/Src\stm32l4xx_hal_uart.c ****     }
1411:D:/iot/felix2/targets/Cloud_STM32L431_BearPi/Drivers/STM32L4xx_HAL_Driver/Src\stm32l4xx_hal_uart.c **** 
1412:D:/iot/felix2/targets/Cloud_STM32L431_BearPi/Drivers/STM32L4xx_HAL_Driver/Src\stm32l4xx_hal_uart.c ****     /* Process Locked */
1413:D:/iot/felix2/targets/Cloud_STM32L431_BearPi/Drivers/STM32L4xx_HAL_Driver/Src\stm32l4xx_hal_uart.c ****     __HAL_LOCK(huart);
 1628              		.loc 1 1413 0
 1629 002a FB68     		ldr	r3, [r7, #12]
ARM GAS  C:\Users\91458\AppData\Local\Temp\ccrpKNIe.s 			page 54


 1630 002c 93F87030 		ldrb	r3, [r3, #112]	@ zero_extendqisi2
 1631 0030 012B     		cmp	r3, #1
 1632 0032 01D1     		bne	.L97
 1633              		.loc 1 1413 0 is_stmt 0 discriminator 1
 1634 0034 0223     		movs	r3, #2
 1635 0036 44E0     		b	.L96
 1636              	.L97:
 1637              		.loc 1 1413 0 discriminator 2
 1638 0038 FB68     		ldr	r3, [r7, #12]
 1639 003a 0122     		movs	r2, #1
 1640 003c 83F87020 		strb	r2, [r3, #112]
1414:D:/iot/felix2/targets/Cloud_STM32L431_BearPi/Drivers/STM32L4xx_HAL_Driver/Src\stm32l4xx_hal_uart.c **** 
1415:D:/iot/felix2/targets/Cloud_STM32L431_BearPi/Drivers/STM32L4xx_HAL_Driver/Src\stm32l4xx_hal_uart.c ****     huart->pTxBuffPtr  = pData;
 1641              		.loc 1 1415 0 is_stmt 1 discriminator 2
 1642 0040 FB68     		ldr	r3, [r7, #12]
 1643 0042 BA68     		ldr	r2, [r7, #8]
 1644 0044 DA64     		str	r2, [r3, #76]
1416:D:/iot/felix2/targets/Cloud_STM32L431_BearPi/Drivers/STM32L4xx_HAL_Driver/Src\stm32l4xx_hal_uart.c ****     huart->TxXferSize  = Size;
 1645              		.loc 1 1416 0 discriminator 2
 1646 0046 FB68     		ldr	r3, [r7, #12]
 1647 0048 FA88     		ldrh	r2, [r7, #6]	@ movhi
 1648 004a A3F85020 		strh	r2, [r3, #80]	@ movhi
1417:D:/iot/felix2/targets/Cloud_STM32L431_BearPi/Drivers/STM32L4xx_HAL_Driver/Src\stm32l4xx_hal_uart.c ****     huart->TxXferCount = Size;
 1649              		.loc 1 1417 0 discriminator 2
 1650 004e FB68     		ldr	r3, [r7, #12]
 1651 0050 FA88     		ldrh	r2, [r7, #6]	@ movhi
 1652 0052 A3F85220 		strh	r2, [r3, #82]	@ movhi
1418:D:/iot/felix2/targets/Cloud_STM32L431_BearPi/Drivers/STM32L4xx_HAL_Driver/Src\stm32l4xx_hal_uart.c **** 
1419:D:/iot/felix2/targets/Cloud_STM32L431_BearPi/Drivers/STM32L4xx_HAL_Driver/Src\stm32l4xx_hal_uart.c ****     huart->ErrorCode = HAL_UART_ERROR_NONE;
 1653              		.loc 1 1419 0 discriminator 2
 1654 0056 FB68     		ldr	r3, [r7, #12]
 1655 0058 0022     		movs	r2, #0
 1656 005a 5A67     		str	r2, [r3, #116]
1420:D:/iot/felix2/targets/Cloud_STM32L431_BearPi/Drivers/STM32L4xx_HAL_Driver/Src\stm32l4xx_hal_uart.c ****     huart->gState = HAL_UART_STATE_BUSY_TX;
 1657              		.loc 1 1420 0 discriminator 2
 1658 005c FB68     		ldr	r3, [r7, #12]
 1659 005e 2122     		movs	r2, #33
 1660 0060 83F87120 		strb	r2, [r3, #113]
1421:D:/iot/felix2/targets/Cloud_STM32L431_BearPi/Drivers/STM32L4xx_HAL_Driver/Src\stm32l4xx_hal_uart.c **** 
1422:D:/iot/felix2/targets/Cloud_STM32L431_BearPi/Drivers/STM32L4xx_HAL_Driver/Src\stm32l4xx_hal_uart.c ****     /* Set the UART DMA transfer complete callback */
1423:D:/iot/felix2/targets/Cloud_STM32L431_BearPi/Drivers/STM32L4xx_HAL_Driver/Src\stm32l4xx_hal_uart.c ****     huart->hdmatx->XferCpltCallback = UART_DMATransmitCplt;
 1661              		.loc 1 1423 0 discriminator 2
 1662 0064 FB68     		ldr	r3, [r7, #12]
 1663 0066 9B6E     		ldr	r3, [r3, #104]
 1664 0068 184A     		ldr	r2, .L98
 1665 006a DA62     		str	r2, [r3, #44]
1424:D:/iot/felix2/targets/Cloud_STM32L431_BearPi/Drivers/STM32L4xx_HAL_Driver/Src\stm32l4xx_hal_uart.c **** 
1425:D:/iot/felix2/targets/Cloud_STM32L431_BearPi/Drivers/STM32L4xx_HAL_Driver/Src\stm32l4xx_hal_uart.c ****     /* Set the UART DMA Half transfer complete callback */
1426:D:/iot/felix2/targets/Cloud_STM32L431_BearPi/Drivers/STM32L4xx_HAL_Driver/Src\stm32l4xx_hal_uart.c ****     huart->hdmatx->XferHalfCpltCallback = UART_DMATxHalfCplt;
 1666              		.loc 1 1426 0 discriminator 2
 1667 006c FB68     		ldr	r3, [r7, #12]
 1668 006e 9B6E     		ldr	r3, [r3, #104]
 1669 0070 174A     		ldr	r2, .L98+4
 1670 0072 1A63     		str	r2, [r3, #48]
1427:D:/iot/felix2/targets/Cloud_STM32L431_BearPi/Drivers/STM32L4xx_HAL_Driver/Src\stm32l4xx_hal_uart.c **** 
1428:D:/iot/felix2/targets/Cloud_STM32L431_BearPi/Drivers/STM32L4xx_HAL_Driver/Src\stm32l4xx_hal_uart.c ****     /* Set the DMA error callback */
1429:D:/iot/felix2/targets/Cloud_STM32L431_BearPi/Drivers/STM32L4xx_HAL_Driver/Src\stm32l4xx_hal_uart.c ****     huart->hdmatx->XferErrorCallback = UART_DMAError;
ARM GAS  C:\Users\91458\AppData\Local\Temp\ccrpKNIe.s 			page 55


 1671              		.loc 1 1429 0 discriminator 2
 1672 0074 FB68     		ldr	r3, [r7, #12]
 1673 0076 9B6E     		ldr	r3, [r3, #104]
 1674 0078 164A     		ldr	r2, .L98+8
 1675 007a 5A63     		str	r2, [r3, #52]
1430:D:/iot/felix2/targets/Cloud_STM32L431_BearPi/Drivers/STM32L4xx_HAL_Driver/Src\stm32l4xx_hal_uart.c **** 
1431:D:/iot/felix2/targets/Cloud_STM32L431_BearPi/Drivers/STM32L4xx_HAL_Driver/Src\stm32l4xx_hal_uart.c ****     /* Set the DMA abort callback */
1432:D:/iot/felix2/targets/Cloud_STM32L431_BearPi/Drivers/STM32L4xx_HAL_Driver/Src\stm32l4xx_hal_uart.c ****     huart->hdmatx->XferAbortCallback = NULL;
 1676              		.loc 1 1432 0 discriminator 2
 1677 007c FB68     		ldr	r3, [r7, #12]
 1678 007e 9B6E     		ldr	r3, [r3, #104]
 1679 0080 0022     		movs	r2, #0
 1680 0082 9A63     		str	r2, [r3, #56]
1433:D:/iot/felix2/targets/Cloud_STM32L431_BearPi/Drivers/STM32L4xx_HAL_Driver/Src\stm32l4xx_hal_uart.c **** 
1434:D:/iot/felix2/targets/Cloud_STM32L431_BearPi/Drivers/STM32L4xx_HAL_Driver/Src\stm32l4xx_hal_uart.c ****     /* Enable the UART transmit DMA channel */
1435:D:/iot/felix2/targets/Cloud_STM32L431_BearPi/Drivers/STM32L4xx_HAL_Driver/Src\stm32l4xx_hal_uart.c ****     HAL_DMA_Start_IT(huart->hdmatx, (uint32_t)huart->pTxBuffPtr, (uint32_t)&huart->Instance->TDR, S
 1681              		.loc 1 1435 0 discriminator 2
 1682 0084 FB68     		ldr	r3, [r7, #12]
 1683 0086 986E     		ldr	r0, [r3, #104]
 1684 0088 FB68     		ldr	r3, [r7, #12]
 1685 008a DB6C     		ldr	r3, [r3, #76]
 1686 008c 1946     		mov	r1, r3
 1687 008e FB68     		ldr	r3, [r7, #12]
 1688 0090 1B68     		ldr	r3, [r3]
 1689 0092 2833     		adds	r3, r3, #40
 1690 0094 1A46     		mov	r2, r3
 1691 0096 FB88     		ldrh	r3, [r7, #6]
 1692 0098 FFF7FEFF 		bl	HAL_DMA_Start_IT
1436:D:/iot/felix2/targets/Cloud_STM32L431_BearPi/Drivers/STM32L4xx_HAL_Driver/Src\stm32l4xx_hal_uart.c **** 
1437:D:/iot/felix2/targets/Cloud_STM32L431_BearPi/Drivers/STM32L4xx_HAL_Driver/Src\stm32l4xx_hal_uart.c ****     /* Clear the TC flag in the ICR register */
1438:D:/iot/felix2/targets/Cloud_STM32L431_BearPi/Drivers/STM32L4xx_HAL_Driver/Src\stm32l4xx_hal_uart.c ****     __HAL_UART_CLEAR_FLAG(huart, UART_CLEAR_TCF);
 1693              		.loc 1 1438 0 discriminator 2
 1694 009c FB68     		ldr	r3, [r7, #12]
 1695 009e 1B68     		ldr	r3, [r3]
 1696 00a0 4022     		movs	r2, #64
 1697 00a2 1A62     		str	r2, [r3, #32]
1439:D:/iot/felix2/targets/Cloud_STM32L431_BearPi/Drivers/STM32L4xx_HAL_Driver/Src\stm32l4xx_hal_uart.c **** 
1440:D:/iot/felix2/targets/Cloud_STM32L431_BearPi/Drivers/STM32L4xx_HAL_Driver/Src\stm32l4xx_hal_uart.c ****     /* Process Unlocked */
1441:D:/iot/felix2/targets/Cloud_STM32L431_BearPi/Drivers/STM32L4xx_HAL_Driver/Src\stm32l4xx_hal_uart.c ****     __HAL_UNLOCK(huart);
 1698              		.loc 1 1441 0 discriminator 2
 1699 00a4 FB68     		ldr	r3, [r7, #12]
 1700 00a6 0022     		movs	r2, #0
 1701 00a8 83F87020 		strb	r2, [r3, #112]
1442:D:/iot/felix2/targets/Cloud_STM32L431_BearPi/Drivers/STM32L4xx_HAL_Driver/Src\stm32l4xx_hal_uart.c **** 
1443:D:/iot/felix2/targets/Cloud_STM32L431_BearPi/Drivers/STM32L4xx_HAL_Driver/Src\stm32l4xx_hal_uart.c ****     /* Enable the DMA transfer for transmit request by setting the DMAT bit
1444:D:/iot/felix2/targets/Cloud_STM32L431_BearPi/Drivers/STM32L4xx_HAL_Driver/Src\stm32l4xx_hal_uart.c ****     in the UART CR3 register */
1445:D:/iot/felix2/targets/Cloud_STM32L431_BearPi/Drivers/STM32L4xx_HAL_Driver/Src\stm32l4xx_hal_uart.c ****     SET_BIT(huart->Instance->CR3, USART_CR3_DMAT);
 1702              		.loc 1 1445 0 discriminator 2
 1703 00ac FB68     		ldr	r3, [r7, #12]
 1704 00ae 1B68     		ldr	r3, [r3]
 1705 00b0 9A68     		ldr	r2, [r3, #8]
 1706 00b2 FB68     		ldr	r3, [r7, #12]
 1707 00b4 1B68     		ldr	r3, [r3]
 1708 00b6 42F08002 		orr	r2, r2, #128
 1709 00ba 9A60     		str	r2, [r3, #8]
1446:D:/iot/felix2/targets/Cloud_STM32L431_BearPi/Drivers/STM32L4xx_HAL_Driver/Src\stm32l4xx_hal_uart.c **** 
1447:D:/iot/felix2/targets/Cloud_STM32L431_BearPi/Drivers/STM32L4xx_HAL_Driver/Src\stm32l4xx_hal_uart.c ****     return HAL_OK;
ARM GAS  C:\Users\91458\AppData\Local\Temp\ccrpKNIe.s 			page 56


 1710              		.loc 1 1447 0 discriminator 2
 1711 00bc 0023     		movs	r3, #0
 1712 00be 00E0     		b	.L96
 1713              	.L93:
1448:D:/iot/felix2/targets/Cloud_STM32L431_BearPi/Drivers/STM32L4xx_HAL_Driver/Src\stm32l4xx_hal_uart.c ****   }
1449:D:/iot/felix2/targets/Cloud_STM32L431_BearPi/Drivers/STM32L4xx_HAL_Driver/Src\stm32l4xx_hal_uart.c ****   else
1450:D:/iot/felix2/targets/Cloud_STM32L431_BearPi/Drivers/STM32L4xx_HAL_Driver/Src\stm32l4xx_hal_uart.c ****   {
1451:D:/iot/felix2/targets/Cloud_STM32L431_BearPi/Drivers/STM32L4xx_HAL_Driver/Src\stm32l4xx_hal_uart.c ****     return HAL_BUSY;
 1714              		.loc 1 1451 0
 1715 00c0 0223     		movs	r3, #2
 1716              	.L96:
1452:D:/iot/felix2/targets/Cloud_STM32L431_BearPi/Drivers/STM32L4xx_HAL_Driver/Src\stm32l4xx_hal_uart.c ****   }
1453:D:/iot/felix2/targets/Cloud_STM32L431_BearPi/Drivers/STM32L4xx_HAL_Driver/Src\stm32l4xx_hal_uart.c **** }
 1717              		.loc 1 1453 0
 1718 00c2 1846     		mov	r0, r3
 1719 00c4 1037     		adds	r7, r7, #16
 1720              	.LCFI62:
 1721              		.cfi_def_cfa_offset 8
 1722 00c6 BD46     		mov	sp, r7
 1723              	.LCFI63:
 1724              		.cfi_def_cfa_register 13
 1725              		@ sp needed
 1726 00c8 80BD     		pop	{r7, pc}
 1727              	.L99:
 1728 00ca 00BF     		.align	2
 1729              	.L98:
 1730 00cc 00000000 		.word	UART_DMATransmitCplt
 1731 00d0 00000000 		.word	UART_DMATxHalfCplt
 1732 00d4 00000000 		.word	UART_DMAError
 1733              		.cfi_endproc
 1734              	.LFE144:
 1736              		.section	.text.HAL_UART_Receive_DMA,"ax",%progbits
 1737              		.align	1
 1738              		.global	HAL_UART_Receive_DMA
 1739              		.syntax unified
 1740              		.thumb
 1741              		.thumb_func
 1742              		.fpu fpv4-sp-d16
 1744              	HAL_UART_Receive_DMA:
 1745              	.LFB145:
1454:D:/iot/felix2/targets/Cloud_STM32L431_BearPi/Drivers/STM32L4xx_HAL_Driver/Src\stm32l4xx_hal_uart.c **** 
1455:D:/iot/felix2/targets/Cloud_STM32L431_BearPi/Drivers/STM32L4xx_HAL_Driver/Src\stm32l4xx_hal_uart.c **** /**
1456:D:/iot/felix2/targets/Cloud_STM32L431_BearPi/Drivers/STM32L4xx_HAL_Driver/Src\stm32l4xx_hal_uart.c ****   * @brief Receive an amount of data in DMA mode.
1457:D:/iot/felix2/targets/Cloud_STM32L431_BearPi/Drivers/STM32L4xx_HAL_Driver/Src\stm32l4xx_hal_uart.c ****   * @note   When the UART parity is enabled (PCE = 1), the received data contain
1458:D:/iot/felix2/targets/Cloud_STM32L431_BearPi/Drivers/STM32L4xx_HAL_Driver/Src\stm32l4xx_hal_uart.c ****   *         the parity bit (MSB position).
1459:D:/iot/felix2/targets/Cloud_STM32L431_BearPi/Drivers/STM32L4xx_HAL_Driver/Src\stm32l4xx_hal_uart.c ****   * @param huart UART handle.
1460:D:/iot/felix2/targets/Cloud_STM32L431_BearPi/Drivers/STM32L4xx_HAL_Driver/Src\stm32l4xx_hal_uart.c ****   * @param pData Pointer to data buffer.
1461:D:/iot/felix2/targets/Cloud_STM32L431_BearPi/Drivers/STM32L4xx_HAL_Driver/Src\stm32l4xx_hal_uart.c ****   * @param Size  Amount of data to be received.
1462:D:/iot/felix2/targets/Cloud_STM32L431_BearPi/Drivers/STM32L4xx_HAL_Driver/Src\stm32l4xx_hal_uart.c ****   * @retval HAL status
1463:D:/iot/felix2/targets/Cloud_STM32L431_BearPi/Drivers/STM32L4xx_HAL_Driver/Src\stm32l4xx_hal_uart.c ****   */
1464:D:/iot/felix2/targets/Cloud_STM32L431_BearPi/Drivers/STM32L4xx_HAL_Driver/Src\stm32l4xx_hal_uart.c **** HAL_StatusTypeDef HAL_UART_Receive_DMA(UART_HandleTypeDef *huart, uint8_t *pData, uint16_t Size)
1465:D:/iot/felix2/targets/Cloud_STM32L431_BearPi/Drivers/STM32L4xx_HAL_Driver/Src\stm32l4xx_hal_uart.c **** {
 1746              		.loc 1 1465 0
 1747              		.cfi_startproc
 1748              		@ args = 0, pretend = 0, frame = 16
 1749              		@ frame_needed = 1, uses_anonymous_args = 0
 1750 0000 80B5     		push	{r7, lr}
ARM GAS  C:\Users\91458\AppData\Local\Temp\ccrpKNIe.s 			page 57


 1751              	.LCFI64:
 1752              		.cfi_def_cfa_offset 8
 1753              		.cfi_offset 7, -8
 1754              		.cfi_offset 14, -4
 1755 0002 84B0     		sub	sp, sp, #16
 1756              	.LCFI65:
 1757              		.cfi_def_cfa_offset 24
 1758 0004 00AF     		add	r7, sp, #0
 1759              	.LCFI66:
 1760              		.cfi_def_cfa_register 7
 1761 0006 F860     		str	r0, [r7, #12]
 1762 0008 B960     		str	r1, [r7, #8]
 1763 000a 1346     		mov	r3, r2
 1764 000c FB80     		strh	r3, [r7, #6]	@ movhi
1466:D:/iot/felix2/targets/Cloud_STM32L431_BearPi/Drivers/STM32L4xx_HAL_Driver/Src\stm32l4xx_hal_uart.c ****   /* Check that a Rx process is not already ongoing */
1467:D:/iot/felix2/targets/Cloud_STM32L431_BearPi/Drivers/STM32L4xx_HAL_Driver/Src\stm32l4xx_hal_uart.c ****   if (huart->RxState == HAL_UART_STATE_READY)
 1765              		.loc 1 1467 0
 1766 000e FB68     		ldr	r3, [r7, #12]
 1767 0010 93F87230 		ldrb	r3, [r3, #114]
 1768 0014 DBB2     		uxtb	r3, r3
 1769 0016 202B     		cmp	r3, #32
 1770 0018 5AD1     		bne	.L101
1468:D:/iot/felix2/targets/Cloud_STM32L431_BearPi/Drivers/STM32L4xx_HAL_Driver/Src\stm32l4xx_hal_uart.c ****   {
1469:D:/iot/felix2/targets/Cloud_STM32L431_BearPi/Drivers/STM32L4xx_HAL_Driver/Src\stm32l4xx_hal_uart.c ****     if ((pData == NULL) || (Size == 0U))
 1771              		.loc 1 1469 0
 1772 001a BB68     		ldr	r3, [r7, #8]
 1773 001c 002B     		cmp	r3, #0
 1774 001e 02D0     		beq	.L102
 1775              		.loc 1 1469 0 is_stmt 0 discriminator 1
 1776 0020 FB88     		ldrh	r3, [r7, #6]
 1777 0022 002B     		cmp	r3, #0
 1778 0024 01D1     		bne	.L103
 1779              	.L102:
1470:D:/iot/felix2/targets/Cloud_STM32L431_BearPi/Drivers/STM32L4xx_HAL_Driver/Src\stm32l4xx_hal_uart.c ****     {
1471:D:/iot/felix2/targets/Cloud_STM32L431_BearPi/Drivers/STM32L4xx_HAL_Driver/Src\stm32l4xx_hal_uart.c ****       return HAL_ERROR;
 1780              		.loc 1 1471 0 is_stmt 1
 1781 0026 0123     		movs	r3, #1
 1782 0028 53E0     		b	.L104
 1783              	.L103:
1472:D:/iot/felix2/targets/Cloud_STM32L431_BearPi/Drivers/STM32L4xx_HAL_Driver/Src\stm32l4xx_hal_uart.c ****     }
1473:D:/iot/felix2/targets/Cloud_STM32L431_BearPi/Drivers/STM32L4xx_HAL_Driver/Src\stm32l4xx_hal_uart.c **** 
1474:D:/iot/felix2/targets/Cloud_STM32L431_BearPi/Drivers/STM32L4xx_HAL_Driver/Src\stm32l4xx_hal_uart.c ****     /* Process Locked */
1475:D:/iot/felix2/targets/Cloud_STM32L431_BearPi/Drivers/STM32L4xx_HAL_Driver/Src\stm32l4xx_hal_uart.c ****     __HAL_LOCK(huart);
 1784              		.loc 1 1475 0
 1785 002a FB68     		ldr	r3, [r7, #12]
 1786 002c 93F87030 		ldrb	r3, [r3, #112]	@ zero_extendqisi2
 1787 0030 012B     		cmp	r3, #1
 1788 0032 01D1     		bne	.L105
 1789              		.loc 1 1475 0 is_stmt 0 discriminator 1
 1790 0034 0223     		movs	r3, #2
 1791 0036 4CE0     		b	.L104
 1792              	.L105:
 1793              		.loc 1 1475 0 discriminator 2
 1794 0038 FB68     		ldr	r3, [r7, #12]
 1795 003a 0122     		movs	r2, #1
 1796 003c 83F87020 		strb	r2, [r3, #112]
1476:D:/iot/felix2/targets/Cloud_STM32L431_BearPi/Drivers/STM32L4xx_HAL_Driver/Src\stm32l4xx_hal_uart.c **** 
ARM GAS  C:\Users\91458\AppData\Local\Temp\ccrpKNIe.s 			page 58


1477:D:/iot/felix2/targets/Cloud_STM32L431_BearPi/Drivers/STM32L4xx_HAL_Driver/Src\stm32l4xx_hal_uart.c ****     huart->pRxBuffPtr = pData;
 1797              		.loc 1 1477 0 is_stmt 1 discriminator 2
 1798 0040 FB68     		ldr	r3, [r7, #12]
 1799 0042 BA68     		ldr	r2, [r7, #8]
 1800 0044 5A65     		str	r2, [r3, #84]
1478:D:/iot/felix2/targets/Cloud_STM32L431_BearPi/Drivers/STM32L4xx_HAL_Driver/Src\stm32l4xx_hal_uart.c ****     huart->RxXferSize = Size;
 1801              		.loc 1 1478 0 discriminator 2
 1802 0046 FB68     		ldr	r3, [r7, #12]
 1803 0048 FA88     		ldrh	r2, [r7, #6]	@ movhi
 1804 004a A3F85820 		strh	r2, [r3, #88]	@ movhi
1479:D:/iot/felix2/targets/Cloud_STM32L431_BearPi/Drivers/STM32L4xx_HAL_Driver/Src\stm32l4xx_hal_uart.c **** 
1480:D:/iot/felix2/targets/Cloud_STM32L431_BearPi/Drivers/STM32L4xx_HAL_Driver/Src\stm32l4xx_hal_uart.c ****     huart->ErrorCode = HAL_UART_ERROR_NONE;
 1805              		.loc 1 1480 0 discriminator 2
 1806 004e FB68     		ldr	r3, [r7, #12]
 1807 0050 0022     		movs	r2, #0
 1808 0052 5A67     		str	r2, [r3, #116]
1481:D:/iot/felix2/targets/Cloud_STM32L431_BearPi/Drivers/STM32L4xx_HAL_Driver/Src\stm32l4xx_hal_uart.c ****     huart->RxState = HAL_UART_STATE_BUSY_RX;
 1809              		.loc 1 1481 0 discriminator 2
 1810 0054 FB68     		ldr	r3, [r7, #12]
 1811 0056 2222     		movs	r2, #34
 1812 0058 83F87220 		strb	r2, [r3, #114]
1482:D:/iot/felix2/targets/Cloud_STM32L431_BearPi/Drivers/STM32L4xx_HAL_Driver/Src\stm32l4xx_hal_uart.c **** 
1483:D:/iot/felix2/targets/Cloud_STM32L431_BearPi/Drivers/STM32L4xx_HAL_Driver/Src\stm32l4xx_hal_uart.c ****     /* Set the UART DMA transfer complete callback */
1484:D:/iot/felix2/targets/Cloud_STM32L431_BearPi/Drivers/STM32L4xx_HAL_Driver/Src\stm32l4xx_hal_uart.c ****     huart->hdmarx->XferCpltCallback = UART_DMAReceiveCplt;
 1813              		.loc 1 1484 0 discriminator 2
 1814 005c FB68     		ldr	r3, [r7, #12]
 1815 005e DB6E     		ldr	r3, [r3, #108]
 1816 0060 1E4A     		ldr	r2, .L106
 1817 0062 DA62     		str	r2, [r3, #44]
1485:D:/iot/felix2/targets/Cloud_STM32L431_BearPi/Drivers/STM32L4xx_HAL_Driver/Src\stm32l4xx_hal_uart.c **** 
1486:D:/iot/felix2/targets/Cloud_STM32L431_BearPi/Drivers/STM32L4xx_HAL_Driver/Src\stm32l4xx_hal_uart.c ****     /* Set the UART DMA Half transfer complete callback */
1487:D:/iot/felix2/targets/Cloud_STM32L431_BearPi/Drivers/STM32L4xx_HAL_Driver/Src\stm32l4xx_hal_uart.c ****     huart->hdmarx->XferHalfCpltCallback = UART_DMARxHalfCplt;
 1818              		.loc 1 1487 0 discriminator 2
 1819 0064 FB68     		ldr	r3, [r7, #12]
 1820 0066 DB6E     		ldr	r3, [r3, #108]
 1821 0068 1D4A     		ldr	r2, .L106+4
 1822 006a 1A63     		str	r2, [r3, #48]
1488:D:/iot/felix2/targets/Cloud_STM32L431_BearPi/Drivers/STM32L4xx_HAL_Driver/Src\stm32l4xx_hal_uart.c **** 
1489:D:/iot/felix2/targets/Cloud_STM32L431_BearPi/Drivers/STM32L4xx_HAL_Driver/Src\stm32l4xx_hal_uart.c ****     /* Set the DMA error callback */
1490:D:/iot/felix2/targets/Cloud_STM32L431_BearPi/Drivers/STM32L4xx_HAL_Driver/Src\stm32l4xx_hal_uart.c ****     huart->hdmarx->XferErrorCallback = UART_DMAError;
 1823              		.loc 1 1490 0 discriminator 2
 1824 006c FB68     		ldr	r3, [r7, #12]
 1825 006e DB6E     		ldr	r3, [r3, #108]
 1826 0070 1C4A     		ldr	r2, .L106+8
 1827 0072 5A63     		str	r2, [r3, #52]
1491:D:/iot/felix2/targets/Cloud_STM32L431_BearPi/Drivers/STM32L4xx_HAL_Driver/Src\stm32l4xx_hal_uart.c **** 
1492:D:/iot/felix2/targets/Cloud_STM32L431_BearPi/Drivers/STM32L4xx_HAL_Driver/Src\stm32l4xx_hal_uart.c ****     /* Set the DMA abort callback */
1493:D:/iot/felix2/targets/Cloud_STM32L431_BearPi/Drivers/STM32L4xx_HAL_Driver/Src\stm32l4xx_hal_uart.c ****     huart->hdmarx->XferAbortCallback = NULL;
 1828              		.loc 1 1493 0 discriminator 2
 1829 0074 FB68     		ldr	r3, [r7, #12]
 1830 0076 DB6E     		ldr	r3, [r3, #108]
 1831 0078 0022     		movs	r2, #0
 1832 007a 9A63     		str	r2, [r3, #56]
1494:D:/iot/felix2/targets/Cloud_STM32L431_BearPi/Drivers/STM32L4xx_HAL_Driver/Src\stm32l4xx_hal_uart.c **** 
1495:D:/iot/felix2/targets/Cloud_STM32L431_BearPi/Drivers/STM32L4xx_HAL_Driver/Src\stm32l4xx_hal_uart.c ****     /* Enable the DMA channel */
1496:D:/iot/felix2/targets/Cloud_STM32L431_BearPi/Drivers/STM32L4xx_HAL_Driver/Src\stm32l4xx_hal_uart.c ****     HAL_DMA_Start_IT(huart->hdmarx, (uint32_t)&huart->Instance->RDR, (uint32_t)huart->pRxBuffPtr, S
 1833              		.loc 1 1496 0 discriminator 2
ARM GAS  C:\Users\91458\AppData\Local\Temp\ccrpKNIe.s 			page 59


 1834 007c FB68     		ldr	r3, [r7, #12]
 1835 007e D86E     		ldr	r0, [r3, #108]
 1836 0080 FB68     		ldr	r3, [r7, #12]
 1837 0082 1B68     		ldr	r3, [r3]
 1838 0084 2433     		adds	r3, r3, #36
 1839 0086 1946     		mov	r1, r3
 1840 0088 FB68     		ldr	r3, [r7, #12]
 1841 008a 5B6D     		ldr	r3, [r3, #84]
 1842 008c 1A46     		mov	r2, r3
 1843 008e FB88     		ldrh	r3, [r7, #6]
 1844 0090 FFF7FEFF 		bl	HAL_DMA_Start_IT
1497:D:/iot/felix2/targets/Cloud_STM32L431_BearPi/Drivers/STM32L4xx_HAL_Driver/Src\stm32l4xx_hal_uart.c **** 
1498:D:/iot/felix2/targets/Cloud_STM32L431_BearPi/Drivers/STM32L4xx_HAL_Driver/Src\stm32l4xx_hal_uart.c ****     /* Process Unlocked */
1499:D:/iot/felix2/targets/Cloud_STM32L431_BearPi/Drivers/STM32L4xx_HAL_Driver/Src\stm32l4xx_hal_uart.c ****     __HAL_UNLOCK(huart);
 1845              		.loc 1 1499 0 discriminator 2
 1846 0094 FB68     		ldr	r3, [r7, #12]
 1847 0096 0022     		movs	r2, #0
 1848 0098 83F87020 		strb	r2, [r3, #112]
1500:D:/iot/felix2/targets/Cloud_STM32L431_BearPi/Drivers/STM32L4xx_HAL_Driver/Src\stm32l4xx_hal_uart.c **** 
1501:D:/iot/felix2/targets/Cloud_STM32L431_BearPi/Drivers/STM32L4xx_HAL_Driver/Src\stm32l4xx_hal_uart.c ****     /* Enable the UART Parity Error Interrupt */
1502:D:/iot/felix2/targets/Cloud_STM32L431_BearPi/Drivers/STM32L4xx_HAL_Driver/Src\stm32l4xx_hal_uart.c ****     SET_BIT(huart->Instance->CR1, USART_CR1_PEIE);
 1849              		.loc 1 1502 0 discriminator 2
 1850 009c FB68     		ldr	r3, [r7, #12]
 1851 009e 1B68     		ldr	r3, [r3]
 1852 00a0 1A68     		ldr	r2, [r3]
 1853 00a2 FB68     		ldr	r3, [r7, #12]
 1854 00a4 1B68     		ldr	r3, [r3]
 1855 00a6 42F48072 		orr	r2, r2, #256
 1856 00aa 1A60     		str	r2, [r3]
1503:D:/iot/felix2/targets/Cloud_STM32L431_BearPi/Drivers/STM32L4xx_HAL_Driver/Src\stm32l4xx_hal_uart.c **** 
1504:D:/iot/felix2/targets/Cloud_STM32L431_BearPi/Drivers/STM32L4xx_HAL_Driver/Src\stm32l4xx_hal_uart.c ****     /* Enable the UART Error Interrupt: (Frame error, noise error, overrun error) */
1505:D:/iot/felix2/targets/Cloud_STM32L431_BearPi/Drivers/STM32L4xx_HAL_Driver/Src\stm32l4xx_hal_uart.c ****     SET_BIT(huart->Instance->CR3, USART_CR3_EIE);
 1857              		.loc 1 1505 0 discriminator 2
 1858 00ac FB68     		ldr	r3, [r7, #12]
 1859 00ae 1B68     		ldr	r3, [r3]
 1860 00b0 9A68     		ldr	r2, [r3, #8]
 1861 00b2 FB68     		ldr	r3, [r7, #12]
 1862 00b4 1B68     		ldr	r3, [r3]
 1863 00b6 42F00102 		orr	r2, r2, #1
 1864 00ba 9A60     		str	r2, [r3, #8]
1506:D:/iot/felix2/targets/Cloud_STM32L431_BearPi/Drivers/STM32L4xx_HAL_Driver/Src\stm32l4xx_hal_uart.c **** 
1507:D:/iot/felix2/targets/Cloud_STM32L431_BearPi/Drivers/STM32L4xx_HAL_Driver/Src\stm32l4xx_hal_uart.c ****     /* Enable the DMA transfer for the receiver request by setting the DMAR bit
1508:D:/iot/felix2/targets/Cloud_STM32L431_BearPi/Drivers/STM32L4xx_HAL_Driver/Src\stm32l4xx_hal_uart.c ****     in the UART CR3 register */
1509:D:/iot/felix2/targets/Cloud_STM32L431_BearPi/Drivers/STM32L4xx_HAL_Driver/Src\stm32l4xx_hal_uart.c ****     SET_BIT(huart->Instance->CR3, USART_CR3_DMAR);
 1865              		.loc 1 1509 0 discriminator 2
 1866 00bc FB68     		ldr	r3, [r7, #12]
 1867 00be 1B68     		ldr	r3, [r3]
 1868 00c0 9A68     		ldr	r2, [r3, #8]
 1869 00c2 FB68     		ldr	r3, [r7, #12]
 1870 00c4 1B68     		ldr	r3, [r3]
 1871 00c6 42F04002 		orr	r2, r2, #64
 1872 00ca 9A60     		str	r2, [r3, #8]
1510:D:/iot/felix2/targets/Cloud_STM32L431_BearPi/Drivers/STM32L4xx_HAL_Driver/Src\stm32l4xx_hal_uart.c **** 
1511:D:/iot/felix2/targets/Cloud_STM32L431_BearPi/Drivers/STM32L4xx_HAL_Driver/Src\stm32l4xx_hal_uart.c ****     return HAL_OK;
 1873              		.loc 1 1511 0 discriminator 2
 1874 00cc 0023     		movs	r3, #0
 1875 00ce 00E0     		b	.L104
ARM GAS  C:\Users\91458\AppData\Local\Temp\ccrpKNIe.s 			page 60


 1876              	.L101:
1512:D:/iot/felix2/targets/Cloud_STM32L431_BearPi/Drivers/STM32L4xx_HAL_Driver/Src\stm32l4xx_hal_uart.c ****   }
1513:D:/iot/felix2/targets/Cloud_STM32L431_BearPi/Drivers/STM32L4xx_HAL_Driver/Src\stm32l4xx_hal_uart.c ****   else
1514:D:/iot/felix2/targets/Cloud_STM32L431_BearPi/Drivers/STM32L4xx_HAL_Driver/Src\stm32l4xx_hal_uart.c ****   {
1515:D:/iot/felix2/targets/Cloud_STM32L431_BearPi/Drivers/STM32L4xx_HAL_Driver/Src\stm32l4xx_hal_uart.c ****     return HAL_BUSY;
 1877              		.loc 1 1515 0
 1878 00d0 0223     		movs	r3, #2
 1879              	.L104:
1516:D:/iot/felix2/targets/Cloud_STM32L431_BearPi/Drivers/STM32L4xx_HAL_Driver/Src\stm32l4xx_hal_uart.c ****   }
1517:D:/iot/felix2/targets/Cloud_STM32L431_BearPi/Drivers/STM32L4xx_HAL_Driver/Src\stm32l4xx_hal_uart.c **** }
 1880              		.loc 1 1517 0
 1881 00d2 1846     		mov	r0, r3
 1882 00d4 1037     		adds	r7, r7, #16
 1883              	.LCFI67:
 1884              		.cfi_def_cfa_offset 8
 1885 00d6 BD46     		mov	sp, r7
 1886              	.LCFI68:
 1887              		.cfi_def_cfa_register 13
 1888              		@ sp needed
 1889 00d8 80BD     		pop	{r7, pc}
 1890              	.L107:
 1891 00da 00BF     		.align	2
 1892              	.L106:
 1893 00dc 00000000 		.word	UART_DMAReceiveCplt
 1894 00e0 00000000 		.word	UART_DMARxHalfCplt
 1895 00e4 00000000 		.word	UART_DMAError
 1896              		.cfi_endproc
 1897              	.LFE145:
 1899              		.section	.text.HAL_UART_DMAPause,"ax",%progbits
 1900              		.align	1
 1901              		.global	HAL_UART_DMAPause
 1902              		.syntax unified
 1903              		.thumb
 1904              		.thumb_func
 1905              		.fpu fpv4-sp-d16
 1907              	HAL_UART_DMAPause:
 1908              	.LFB146:
1518:D:/iot/felix2/targets/Cloud_STM32L431_BearPi/Drivers/STM32L4xx_HAL_Driver/Src\stm32l4xx_hal_uart.c **** 
1519:D:/iot/felix2/targets/Cloud_STM32L431_BearPi/Drivers/STM32L4xx_HAL_Driver/Src\stm32l4xx_hal_uart.c **** /**
1520:D:/iot/felix2/targets/Cloud_STM32L431_BearPi/Drivers/STM32L4xx_HAL_Driver/Src\stm32l4xx_hal_uart.c ****   * @brief Pause the DMA Transfer.
1521:D:/iot/felix2/targets/Cloud_STM32L431_BearPi/Drivers/STM32L4xx_HAL_Driver/Src\stm32l4xx_hal_uart.c ****   * @param huart UART handle.
1522:D:/iot/felix2/targets/Cloud_STM32L431_BearPi/Drivers/STM32L4xx_HAL_Driver/Src\stm32l4xx_hal_uart.c ****   * @retval HAL status
1523:D:/iot/felix2/targets/Cloud_STM32L431_BearPi/Drivers/STM32L4xx_HAL_Driver/Src\stm32l4xx_hal_uart.c ****   */
1524:D:/iot/felix2/targets/Cloud_STM32L431_BearPi/Drivers/STM32L4xx_HAL_Driver/Src\stm32l4xx_hal_uart.c **** HAL_StatusTypeDef HAL_UART_DMAPause(UART_HandleTypeDef *huart)
1525:D:/iot/felix2/targets/Cloud_STM32L431_BearPi/Drivers/STM32L4xx_HAL_Driver/Src\stm32l4xx_hal_uart.c **** {
 1909              		.loc 1 1525 0
 1910              		.cfi_startproc
 1911              		@ args = 0, pretend = 0, frame = 8
 1912              		@ frame_needed = 1, uses_anonymous_args = 0
 1913              		@ link register save eliminated.
 1914 0000 80B4     		push	{r7}
 1915              	.LCFI69:
 1916              		.cfi_def_cfa_offset 4
 1917              		.cfi_offset 7, -4
 1918 0002 83B0     		sub	sp, sp, #12
 1919              	.LCFI70:
 1920              		.cfi_def_cfa_offset 16
ARM GAS  C:\Users\91458\AppData\Local\Temp\ccrpKNIe.s 			page 61


 1921 0004 00AF     		add	r7, sp, #0
 1922              	.LCFI71:
 1923              		.cfi_def_cfa_register 7
 1924 0006 7860     		str	r0, [r7, #4]
1526:D:/iot/felix2/targets/Cloud_STM32L431_BearPi/Drivers/STM32L4xx_HAL_Driver/Src\stm32l4xx_hal_uart.c ****   /* Process Locked */
1527:D:/iot/felix2/targets/Cloud_STM32L431_BearPi/Drivers/STM32L4xx_HAL_Driver/Src\stm32l4xx_hal_uart.c ****   __HAL_LOCK(huart);
 1925              		.loc 1 1527 0
 1926 0008 7B68     		ldr	r3, [r7, #4]
 1927 000a 93F87030 		ldrb	r3, [r3, #112]	@ zero_extendqisi2
 1928 000e 012B     		cmp	r3, #1
 1929 0010 01D1     		bne	.L109
 1930              		.loc 1 1527 0 is_stmt 0 discriminator 1
 1931 0012 0223     		movs	r3, #2
 1932 0014 42E0     		b	.L110
 1933              	.L109:
 1934              		.loc 1 1527 0 discriminator 2
 1935 0016 7B68     		ldr	r3, [r7, #4]
 1936 0018 0122     		movs	r2, #1
 1937 001a 83F87020 		strb	r2, [r3, #112]
1528:D:/iot/felix2/targets/Cloud_STM32L431_BearPi/Drivers/STM32L4xx_HAL_Driver/Src\stm32l4xx_hal_uart.c **** 
1529:D:/iot/felix2/targets/Cloud_STM32L431_BearPi/Drivers/STM32L4xx_HAL_Driver/Src\stm32l4xx_hal_uart.c ****   if ((huart->gState == HAL_UART_STATE_BUSY_TX) &&
 1938              		.loc 1 1529 0 is_stmt 1 discriminator 2
 1939 001e 7B68     		ldr	r3, [r7, #4]
 1940 0020 93F87130 		ldrb	r3, [r3, #113]
 1941 0024 DBB2     		uxtb	r3, r3
 1942 0026 212B     		cmp	r3, #33
 1943 0028 0ED1     		bne	.L111
1530:D:/iot/felix2/targets/Cloud_STM32L431_BearPi/Drivers/STM32L4xx_HAL_Driver/Src\stm32l4xx_hal_uart.c ****       (HAL_IS_BIT_SET(huart->Instance->CR3, USART_CR3_DMAT)))
 1944              		.loc 1 1530 0 discriminator 1
 1945 002a 7B68     		ldr	r3, [r7, #4]
 1946 002c 1B68     		ldr	r3, [r3]
 1947 002e 9B68     		ldr	r3, [r3, #8]
 1948 0030 03F08003 		and	r3, r3, #128
1529:D:/iot/felix2/targets/Cloud_STM32L431_BearPi/Drivers/STM32L4xx_HAL_Driver/Src\stm32l4xx_hal_uart.c ****       (HAL_IS_BIT_SET(huart->Instance->CR3, USART_CR3_DMAT)))
 1949              		.loc 1 1529 0 discriminator 1
 1950 0034 802B     		cmp	r3, #128
 1951 0036 07D1     		bne	.L111
1531:D:/iot/felix2/targets/Cloud_STM32L431_BearPi/Drivers/STM32L4xx_HAL_Driver/Src\stm32l4xx_hal_uart.c ****   {
1532:D:/iot/felix2/targets/Cloud_STM32L431_BearPi/Drivers/STM32L4xx_HAL_Driver/Src\stm32l4xx_hal_uart.c ****     /* Disable the UART DMA Tx request */
1533:D:/iot/felix2/targets/Cloud_STM32L431_BearPi/Drivers/STM32L4xx_HAL_Driver/Src\stm32l4xx_hal_uart.c ****     CLEAR_BIT(huart->Instance->CR3, USART_CR3_DMAT);
 1952              		.loc 1 1533 0
 1953 0038 7B68     		ldr	r3, [r7, #4]
 1954 003a 1B68     		ldr	r3, [r3]
 1955 003c 9A68     		ldr	r2, [r3, #8]
 1956 003e 7B68     		ldr	r3, [r7, #4]
 1957 0040 1B68     		ldr	r3, [r3]
 1958 0042 22F08002 		bic	r2, r2, #128
 1959 0046 9A60     		str	r2, [r3, #8]
 1960              	.L111:
1534:D:/iot/felix2/targets/Cloud_STM32L431_BearPi/Drivers/STM32L4xx_HAL_Driver/Src\stm32l4xx_hal_uart.c ****   }
1535:D:/iot/felix2/targets/Cloud_STM32L431_BearPi/Drivers/STM32L4xx_HAL_Driver/Src\stm32l4xx_hal_uart.c ****   if ((huart->RxState == HAL_UART_STATE_BUSY_RX) &&
 1961              		.loc 1 1535 0
 1962 0048 7B68     		ldr	r3, [r7, #4]
 1963 004a 93F87230 		ldrb	r3, [r3, #114]
 1964 004e DBB2     		uxtb	r3, r3
 1965 0050 222B     		cmp	r3, #34
 1966 0052 1ED1     		bne	.L112
ARM GAS  C:\Users\91458\AppData\Local\Temp\ccrpKNIe.s 			page 62


1536:D:/iot/felix2/targets/Cloud_STM32L431_BearPi/Drivers/STM32L4xx_HAL_Driver/Src\stm32l4xx_hal_uart.c ****       (HAL_IS_BIT_SET(huart->Instance->CR3, USART_CR3_DMAR)))
 1967              		.loc 1 1536 0 discriminator 1
 1968 0054 7B68     		ldr	r3, [r7, #4]
 1969 0056 1B68     		ldr	r3, [r3]
 1970 0058 9B68     		ldr	r3, [r3, #8]
 1971 005a 03F04003 		and	r3, r3, #64
1535:D:/iot/felix2/targets/Cloud_STM32L431_BearPi/Drivers/STM32L4xx_HAL_Driver/Src\stm32l4xx_hal_uart.c ****       (HAL_IS_BIT_SET(huart->Instance->CR3, USART_CR3_DMAR)))
 1972              		.loc 1 1535 0 discriminator 1
 1973 005e 402B     		cmp	r3, #64
 1974 0060 17D1     		bne	.L112
1537:D:/iot/felix2/targets/Cloud_STM32L431_BearPi/Drivers/STM32L4xx_HAL_Driver/Src\stm32l4xx_hal_uart.c ****   {
1538:D:/iot/felix2/targets/Cloud_STM32L431_BearPi/Drivers/STM32L4xx_HAL_Driver/Src\stm32l4xx_hal_uart.c ****     /* Disable PE and ERR (Frame error, noise error, overrun error) interrupts */
1539:D:/iot/felix2/targets/Cloud_STM32L431_BearPi/Drivers/STM32L4xx_HAL_Driver/Src\stm32l4xx_hal_uart.c ****     CLEAR_BIT(huart->Instance->CR1, USART_CR1_PEIE);
 1975              		.loc 1 1539 0
 1976 0062 7B68     		ldr	r3, [r7, #4]
 1977 0064 1B68     		ldr	r3, [r3]
 1978 0066 1A68     		ldr	r2, [r3]
 1979 0068 7B68     		ldr	r3, [r7, #4]
 1980 006a 1B68     		ldr	r3, [r3]
 1981 006c 22F48072 		bic	r2, r2, #256
 1982 0070 1A60     		str	r2, [r3]
1540:D:/iot/felix2/targets/Cloud_STM32L431_BearPi/Drivers/STM32L4xx_HAL_Driver/Src\stm32l4xx_hal_uart.c ****     CLEAR_BIT(huart->Instance->CR3, USART_CR3_EIE);
 1983              		.loc 1 1540 0
 1984 0072 7B68     		ldr	r3, [r7, #4]
 1985 0074 1B68     		ldr	r3, [r3]
 1986 0076 9A68     		ldr	r2, [r3, #8]
 1987 0078 7B68     		ldr	r3, [r7, #4]
 1988 007a 1B68     		ldr	r3, [r3]
 1989 007c 22F00102 		bic	r2, r2, #1
 1990 0080 9A60     		str	r2, [r3, #8]
1541:D:/iot/felix2/targets/Cloud_STM32L431_BearPi/Drivers/STM32L4xx_HAL_Driver/Src\stm32l4xx_hal_uart.c **** 
1542:D:/iot/felix2/targets/Cloud_STM32L431_BearPi/Drivers/STM32L4xx_HAL_Driver/Src\stm32l4xx_hal_uart.c ****     /* Disable the UART DMA Rx request */
1543:D:/iot/felix2/targets/Cloud_STM32L431_BearPi/Drivers/STM32L4xx_HAL_Driver/Src\stm32l4xx_hal_uart.c ****     CLEAR_BIT(huart->Instance->CR3, USART_CR3_DMAR);
 1991              		.loc 1 1543 0
 1992 0082 7B68     		ldr	r3, [r7, #4]
 1993 0084 1B68     		ldr	r3, [r3]
 1994 0086 9A68     		ldr	r2, [r3, #8]
 1995 0088 7B68     		ldr	r3, [r7, #4]
 1996 008a 1B68     		ldr	r3, [r3]
 1997 008c 22F04002 		bic	r2, r2, #64
 1998 0090 9A60     		str	r2, [r3, #8]
 1999              	.L112:
1544:D:/iot/felix2/targets/Cloud_STM32L431_BearPi/Drivers/STM32L4xx_HAL_Driver/Src\stm32l4xx_hal_uart.c ****   }
1545:D:/iot/felix2/targets/Cloud_STM32L431_BearPi/Drivers/STM32L4xx_HAL_Driver/Src\stm32l4xx_hal_uart.c **** 
1546:D:/iot/felix2/targets/Cloud_STM32L431_BearPi/Drivers/STM32L4xx_HAL_Driver/Src\stm32l4xx_hal_uart.c ****   /* Process Unlocked */
1547:D:/iot/felix2/targets/Cloud_STM32L431_BearPi/Drivers/STM32L4xx_HAL_Driver/Src\stm32l4xx_hal_uart.c ****   __HAL_UNLOCK(huart);
 2000              		.loc 1 1547 0
 2001 0092 7B68     		ldr	r3, [r7, #4]
 2002 0094 0022     		movs	r2, #0
 2003 0096 83F87020 		strb	r2, [r3, #112]
1548:D:/iot/felix2/targets/Cloud_STM32L431_BearPi/Drivers/STM32L4xx_HAL_Driver/Src\stm32l4xx_hal_uart.c **** 
1549:D:/iot/felix2/targets/Cloud_STM32L431_BearPi/Drivers/STM32L4xx_HAL_Driver/Src\stm32l4xx_hal_uart.c ****   return HAL_OK;
 2004              		.loc 1 1549 0
 2005 009a 0023     		movs	r3, #0
 2006              	.L110:
1550:D:/iot/felix2/targets/Cloud_STM32L431_BearPi/Drivers/STM32L4xx_HAL_Driver/Src\stm32l4xx_hal_uart.c **** }
 2007              		.loc 1 1550 0
ARM GAS  C:\Users\91458\AppData\Local\Temp\ccrpKNIe.s 			page 63


 2008 009c 1846     		mov	r0, r3
 2009 009e 0C37     		adds	r7, r7, #12
 2010              	.LCFI72:
 2011              		.cfi_def_cfa_offset 4
 2012 00a0 BD46     		mov	sp, r7
 2013              	.LCFI73:
 2014              		.cfi_def_cfa_register 13
 2015              		@ sp needed
 2016 00a2 5DF8047B 		ldr	r7, [sp], #4
 2017              	.LCFI74:
 2018              		.cfi_restore 7
 2019              		.cfi_def_cfa_offset 0
 2020 00a6 7047     		bx	lr
 2021              		.cfi_endproc
 2022              	.LFE146:
 2024              		.section	.text.HAL_UART_DMAResume,"ax",%progbits
 2025              		.align	1
 2026              		.global	HAL_UART_DMAResume
 2027              		.syntax unified
 2028              		.thumb
 2029              		.thumb_func
 2030              		.fpu fpv4-sp-d16
 2032              	HAL_UART_DMAResume:
 2033              	.LFB147:
1551:D:/iot/felix2/targets/Cloud_STM32L431_BearPi/Drivers/STM32L4xx_HAL_Driver/Src\stm32l4xx_hal_uart.c **** 
1552:D:/iot/felix2/targets/Cloud_STM32L431_BearPi/Drivers/STM32L4xx_HAL_Driver/Src\stm32l4xx_hal_uart.c **** /**
1553:D:/iot/felix2/targets/Cloud_STM32L431_BearPi/Drivers/STM32L4xx_HAL_Driver/Src\stm32l4xx_hal_uart.c ****   * @brief Resume the DMA Transfer.
1554:D:/iot/felix2/targets/Cloud_STM32L431_BearPi/Drivers/STM32L4xx_HAL_Driver/Src\stm32l4xx_hal_uart.c ****   * @param huart UART handle.
1555:D:/iot/felix2/targets/Cloud_STM32L431_BearPi/Drivers/STM32L4xx_HAL_Driver/Src\stm32l4xx_hal_uart.c ****   * @retval HAL status
1556:D:/iot/felix2/targets/Cloud_STM32L431_BearPi/Drivers/STM32L4xx_HAL_Driver/Src\stm32l4xx_hal_uart.c ****   */
1557:D:/iot/felix2/targets/Cloud_STM32L431_BearPi/Drivers/STM32L4xx_HAL_Driver/Src\stm32l4xx_hal_uart.c **** HAL_StatusTypeDef HAL_UART_DMAResume(UART_HandleTypeDef *huart)
1558:D:/iot/felix2/targets/Cloud_STM32L431_BearPi/Drivers/STM32L4xx_HAL_Driver/Src\stm32l4xx_hal_uart.c **** {
 2034              		.loc 1 1558 0
 2035              		.cfi_startproc
 2036              		@ args = 0, pretend = 0, frame = 8
 2037              		@ frame_needed = 1, uses_anonymous_args = 0
 2038              		@ link register save eliminated.
 2039 0000 80B4     		push	{r7}
 2040              	.LCFI75:
 2041              		.cfi_def_cfa_offset 4
 2042              		.cfi_offset 7, -4
 2043 0002 83B0     		sub	sp, sp, #12
 2044              	.LCFI76:
 2045              		.cfi_def_cfa_offset 16
 2046 0004 00AF     		add	r7, sp, #0
 2047              	.LCFI77:
 2048              		.cfi_def_cfa_register 7
 2049 0006 7860     		str	r0, [r7, #4]
1559:D:/iot/felix2/targets/Cloud_STM32L431_BearPi/Drivers/STM32L4xx_HAL_Driver/Src\stm32l4xx_hal_uart.c ****   /* Process Locked */
1560:D:/iot/felix2/targets/Cloud_STM32L431_BearPi/Drivers/STM32L4xx_HAL_Driver/Src\stm32l4xx_hal_uart.c ****   __HAL_LOCK(huart);
 2050              		.loc 1 1560 0
 2051 0008 7B68     		ldr	r3, [r7, #4]
 2052 000a 93F87030 		ldrb	r3, [r3, #112]	@ zero_extendqisi2
 2053 000e 012B     		cmp	r3, #1
 2054 0010 01D1     		bne	.L114
 2055              		.loc 1 1560 0 is_stmt 0 discriminator 1
 2056 0012 0223     		movs	r3, #2
ARM GAS  C:\Users\91458\AppData\Local\Temp\ccrpKNIe.s 			page 64


 2057 0014 38E0     		b	.L115
 2058              	.L114:
 2059              		.loc 1 1560 0 discriminator 2
 2060 0016 7B68     		ldr	r3, [r7, #4]
 2061 0018 0122     		movs	r2, #1
 2062 001a 83F87020 		strb	r2, [r3, #112]
1561:D:/iot/felix2/targets/Cloud_STM32L431_BearPi/Drivers/STM32L4xx_HAL_Driver/Src\stm32l4xx_hal_uart.c **** 
1562:D:/iot/felix2/targets/Cloud_STM32L431_BearPi/Drivers/STM32L4xx_HAL_Driver/Src\stm32l4xx_hal_uart.c ****   if (huart->gState == HAL_UART_STATE_BUSY_TX)
 2063              		.loc 1 1562 0 is_stmt 1 discriminator 2
 2064 001e 7B68     		ldr	r3, [r7, #4]
 2065 0020 93F87130 		ldrb	r3, [r3, #113]
 2066 0024 DBB2     		uxtb	r3, r3
 2067 0026 212B     		cmp	r3, #33
 2068 0028 07D1     		bne	.L116
1563:D:/iot/felix2/targets/Cloud_STM32L431_BearPi/Drivers/STM32L4xx_HAL_Driver/Src\stm32l4xx_hal_uart.c ****   {
1564:D:/iot/felix2/targets/Cloud_STM32L431_BearPi/Drivers/STM32L4xx_HAL_Driver/Src\stm32l4xx_hal_uart.c ****     /* Enable the UART DMA Tx request */
1565:D:/iot/felix2/targets/Cloud_STM32L431_BearPi/Drivers/STM32L4xx_HAL_Driver/Src\stm32l4xx_hal_uart.c ****     SET_BIT(huart->Instance->CR3, USART_CR3_DMAT);
 2069              		.loc 1 1565 0
 2070 002a 7B68     		ldr	r3, [r7, #4]
 2071 002c 1B68     		ldr	r3, [r3]
 2072 002e 9A68     		ldr	r2, [r3, #8]
 2073 0030 7B68     		ldr	r3, [r7, #4]
 2074 0032 1B68     		ldr	r3, [r3]
 2075 0034 42F08002 		orr	r2, r2, #128
 2076 0038 9A60     		str	r2, [r3, #8]
 2077              	.L116:
1566:D:/iot/felix2/targets/Cloud_STM32L431_BearPi/Drivers/STM32L4xx_HAL_Driver/Src\stm32l4xx_hal_uart.c ****   }
1567:D:/iot/felix2/targets/Cloud_STM32L431_BearPi/Drivers/STM32L4xx_HAL_Driver/Src\stm32l4xx_hal_uart.c ****   if (huart->RxState == HAL_UART_STATE_BUSY_RX)
 2078              		.loc 1 1567 0
 2079 003a 7B68     		ldr	r3, [r7, #4]
 2080 003c 93F87230 		ldrb	r3, [r3, #114]
 2081 0040 DBB2     		uxtb	r3, r3
 2082 0042 222B     		cmp	r3, #34
 2083 0044 1BD1     		bne	.L117
1568:D:/iot/felix2/targets/Cloud_STM32L431_BearPi/Drivers/STM32L4xx_HAL_Driver/Src\stm32l4xx_hal_uart.c ****   {
1569:D:/iot/felix2/targets/Cloud_STM32L431_BearPi/Drivers/STM32L4xx_HAL_Driver/Src\stm32l4xx_hal_uart.c ****     /* Clear the Overrun flag before resuming the Rx transfer */
1570:D:/iot/felix2/targets/Cloud_STM32L431_BearPi/Drivers/STM32L4xx_HAL_Driver/Src\stm32l4xx_hal_uart.c ****     __HAL_UART_CLEAR_FLAG(huart, UART_CLEAR_OREF);
 2084              		.loc 1 1570 0
 2085 0046 7B68     		ldr	r3, [r7, #4]
 2086 0048 1B68     		ldr	r3, [r3]
 2087 004a 0822     		movs	r2, #8
 2088 004c 1A62     		str	r2, [r3, #32]
1571:D:/iot/felix2/targets/Cloud_STM32L431_BearPi/Drivers/STM32L4xx_HAL_Driver/Src\stm32l4xx_hal_uart.c **** 
1572:D:/iot/felix2/targets/Cloud_STM32L431_BearPi/Drivers/STM32L4xx_HAL_Driver/Src\stm32l4xx_hal_uart.c ****     /* Reenable PE and ERR (Frame error, noise error, overrun error) interrupts */
1573:D:/iot/felix2/targets/Cloud_STM32L431_BearPi/Drivers/STM32L4xx_HAL_Driver/Src\stm32l4xx_hal_uart.c ****     SET_BIT(huart->Instance->CR1, USART_CR1_PEIE);
 2089              		.loc 1 1573 0
 2090 004e 7B68     		ldr	r3, [r7, #4]
 2091 0050 1B68     		ldr	r3, [r3]
 2092 0052 1A68     		ldr	r2, [r3]
 2093 0054 7B68     		ldr	r3, [r7, #4]
 2094 0056 1B68     		ldr	r3, [r3]
 2095 0058 42F48072 		orr	r2, r2, #256
 2096 005c 1A60     		str	r2, [r3]
1574:D:/iot/felix2/targets/Cloud_STM32L431_BearPi/Drivers/STM32L4xx_HAL_Driver/Src\stm32l4xx_hal_uart.c ****     SET_BIT(huart->Instance->CR3, USART_CR3_EIE);
 2097              		.loc 1 1574 0
 2098 005e 7B68     		ldr	r3, [r7, #4]
 2099 0060 1B68     		ldr	r3, [r3]
ARM GAS  C:\Users\91458\AppData\Local\Temp\ccrpKNIe.s 			page 65


 2100 0062 9A68     		ldr	r2, [r3, #8]
 2101 0064 7B68     		ldr	r3, [r7, #4]
 2102 0066 1B68     		ldr	r3, [r3]
 2103 0068 42F00102 		orr	r2, r2, #1
 2104 006c 9A60     		str	r2, [r3, #8]
1575:D:/iot/felix2/targets/Cloud_STM32L431_BearPi/Drivers/STM32L4xx_HAL_Driver/Src\stm32l4xx_hal_uart.c **** 
1576:D:/iot/felix2/targets/Cloud_STM32L431_BearPi/Drivers/STM32L4xx_HAL_Driver/Src\stm32l4xx_hal_uart.c ****     /* Enable the UART DMA Rx request */
1577:D:/iot/felix2/targets/Cloud_STM32L431_BearPi/Drivers/STM32L4xx_HAL_Driver/Src\stm32l4xx_hal_uart.c ****     SET_BIT(huart->Instance->CR3, USART_CR3_DMAR);
 2105              		.loc 1 1577 0
 2106 006e 7B68     		ldr	r3, [r7, #4]
 2107 0070 1B68     		ldr	r3, [r3]
 2108 0072 9A68     		ldr	r2, [r3, #8]
 2109 0074 7B68     		ldr	r3, [r7, #4]
 2110 0076 1B68     		ldr	r3, [r3]
 2111 0078 42F04002 		orr	r2, r2, #64
 2112 007c 9A60     		str	r2, [r3, #8]
 2113              	.L117:
1578:D:/iot/felix2/targets/Cloud_STM32L431_BearPi/Drivers/STM32L4xx_HAL_Driver/Src\stm32l4xx_hal_uart.c ****   }
1579:D:/iot/felix2/targets/Cloud_STM32L431_BearPi/Drivers/STM32L4xx_HAL_Driver/Src\stm32l4xx_hal_uart.c **** 
1580:D:/iot/felix2/targets/Cloud_STM32L431_BearPi/Drivers/STM32L4xx_HAL_Driver/Src\stm32l4xx_hal_uart.c ****   /* Process Unlocked */
1581:D:/iot/felix2/targets/Cloud_STM32L431_BearPi/Drivers/STM32L4xx_HAL_Driver/Src\stm32l4xx_hal_uart.c ****   __HAL_UNLOCK(huart);
 2114              		.loc 1 1581 0
 2115 007e 7B68     		ldr	r3, [r7, #4]
 2116 0080 0022     		movs	r2, #0
 2117 0082 83F87020 		strb	r2, [r3, #112]
1582:D:/iot/felix2/targets/Cloud_STM32L431_BearPi/Drivers/STM32L4xx_HAL_Driver/Src\stm32l4xx_hal_uart.c **** 
1583:D:/iot/felix2/targets/Cloud_STM32L431_BearPi/Drivers/STM32L4xx_HAL_Driver/Src\stm32l4xx_hal_uart.c ****   return HAL_OK;
 2118              		.loc 1 1583 0
 2119 0086 0023     		movs	r3, #0
 2120              	.L115:
1584:D:/iot/felix2/targets/Cloud_STM32L431_BearPi/Drivers/STM32L4xx_HAL_Driver/Src\stm32l4xx_hal_uart.c **** }
 2121              		.loc 1 1584 0
 2122 0088 1846     		mov	r0, r3
 2123 008a 0C37     		adds	r7, r7, #12
 2124              	.LCFI78:
 2125              		.cfi_def_cfa_offset 4
 2126 008c BD46     		mov	sp, r7
 2127              	.LCFI79:
 2128              		.cfi_def_cfa_register 13
 2129              		@ sp needed
 2130 008e 5DF8047B 		ldr	r7, [sp], #4
 2131              	.LCFI80:
 2132              		.cfi_restore 7
 2133              		.cfi_def_cfa_offset 0
 2134 0092 7047     		bx	lr
 2135              		.cfi_endproc
 2136              	.LFE147:
 2138              		.section	.text.HAL_UART_DMAStop,"ax",%progbits
 2139              		.align	1
 2140              		.global	HAL_UART_DMAStop
 2141              		.syntax unified
 2142              		.thumb
 2143              		.thumb_func
 2144              		.fpu fpv4-sp-d16
 2146              	HAL_UART_DMAStop:
 2147              	.LFB148:
1585:D:/iot/felix2/targets/Cloud_STM32L431_BearPi/Drivers/STM32L4xx_HAL_Driver/Src\stm32l4xx_hal_uart.c **** 
ARM GAS  C:\Users\91458\AppData\Local\Temp\ccrpKNIe.s 			page 66


1586:D:/iot/felix2/targets/Cloud_STM32L431_BearPi/Drivers/STM32L4xx_HAL_Driver/Src\stm32l4xx_hal_uart.c **** /**
1587:D:/iot/felix2/targets/Cloud_STM32L431_BearPi/Drivers/STM32L4xx_HAL_Driver/Src\stm32l4xx_hal_uart.c ****   * @brief Stop the DMA Transfer.
1588:D:/iot/felix2/targets/Cloud_STM32L431_BearPi/Drivers/STM32L4xx_HAL_Driver/Src\stm32l4xx_hal_uart.c ****   * @param huart UART handle.
1589:D:/iot/felix2/targets/Cloud_STM32L431_BearPi/Drivers/STM32L4xx_HAL_Driver/Src\stm32l4xx_hal_uart.c ****   * @retval HAL status
1590:D:/iot/felix2/targets/Cloud_STM32L431_BearPi/Drivers/STM32L4xx_HAL_Driver/Src\stm32l4xx_hal_uart.c ****   */
1591:D:/iot/felix2/targets/Cloud_STM32L431_BearPi/Drivers/STM32L4xx_HAL_Driver/Src\stm32l4xx_hal_uart.c **** HAL_StatusTypeDef HAL_UART_DMAStop(UART_HandleTypeDef *huart)
1592:D:/iot/felix2/targets/Cloud_STM32L431_BearPi/Drivers/STM32L4xx_HAL_Driver/Src\stm32l4xx_hal_uart.c **** {
 2148              		.loc 1 1592 0
 2149              		.cfi_startproc
 2150              		@ args = 0, pretend = 0, frame = 8
 2151              		@ frame_needed = 1, uses_anonymous_args = 0
 2152 0000 80B5     		push	{r7, lr}
 2153              	.LCFI81:
 2154              		.cfi_def_cfa_offset 8
 2155              		.cfi_offset 7, -8
 2156              		.cfi_offset 14, -4
 2157 0002 82B0     		sub	sp, sp, #8
 2158              	.LCFI82:
 2159              		.cfi_def_cfa_offset 16
 2160 0004 00AF     		add	r7, sp, #0
 2161              	.LCFI83:
 2162              		.cfi_def_cfa_register 7
 2163 0006 7860     		str	r0, [r7, #4]
1593:D:/iot/felix2/targets/Cloud_STM32L431_BearPi/Drivers/STM32L4xx_HAL_Driver/Src\stm32l4xx_hal_uart.c ****   /* The Lock is not implemented on this API to allow the user application
1594:D:/iot/felix2/targets/Cloud_STM32L431_BearPi/Drivers/STM32L4xx_HAL_Driver/Src\stm32l4xx_hal_uart.c ****   to call the HAL UART API under callbacks HAL_UART_TxCpltCallback() / HAL_UART_RxCpltCallback() /
1595:D:/iot/felix2/targets/Cloud_STM32L431_BearPi/Drivers/STM32L4xx_HAL_Driver/Src\stm32l4xx_hal_uart.c ****   HAL_UART_TxHalfCpltCallback / HAL_UART_RxHalfCpltCallback:
1596:D:/iot/felix2/targets/Cloud_STM32L431_BearPi/Drivers/STM32L4xx_HAL_Driver/Src\stm32l4xx_hal_uart.c ****   indeed, when HAL_DMA_Abort() API is called, the DMA TX/RX Transfer or Half Transfer complete
1597:D:/iot/felix2/targets/Cloud_STM32L431_BearPi/Drivers/STM32L4xx_HAL_Driver/Src\stm32l4xx_hal_uart.c ****   interrupt is generated if the DMA transfer interruption occurs at the middle or at the end of
1598:D:/iot/felix2/targets/Cloud_STM32L431_BearPi/Drivers/STM32L4xx_HAL_Driver/Src\stm32l4xx_hal_uart.c ****   the stream and the corresponding call back is executed. */
1599:D:/iot/felix2/targets/Cloud_STM32L431_BearPi/Drivers/STM32L4xx_HAL_Driver/Src\stm32l4xx_hal_uart.c **** 
1600:D:/iot/felix2/targets/Cloud_STM32L431_BearPi/Drivers/STM32L4xx_HAL_Driver/Src\stm32l4xx_hal_uart.c ****   /* Stop UART DMA Tx request if ongoing */
1601:D:/iot/felix2/targets/Cloud_STM32L431_BearPi/Drivers/STM32L4xx_HAL_Driver/Src\stm32l4xx_hal_uart.c ****   if ((huart->gState == HAL_UART_STATE_BUSY_TX) &&
 2164              		.loc 1 1601 0
 2165 0008 7B68     		ldr	r3, [r7, #4]
 2166 000a 93F87130 		ldrb	r3, [r3, #113]
 2167 000e DBB2     		uxtb	r3, r3
 2168 0010 212B     		cmp	r3, #33
 2169 0012 1AD1     		bne	.L119
1602:D:/iot/felix2/targets/Cloud_STM32L431_BearPi/Drivers/STM32L4xx_HAL_Driver/Src\stm32l4xx_hal_uart.c ****       (HAL_IS_BIT_SET(huart->Instance->CR3, USART_CR3_DMAT)))
 2170              		.loc 1 1602 0 discriminator 1
 2171 0014 7B68     		ldr	r3, [r7, #4]
 2172 0016 1B68     		ldr	r3, [r3]
 2173 0018 9B68     		ldr	r3, [r3, #8]
 2174 001a 03F08003 		and	r3, r3, #128
1601:D:/iot/felix2/targets/Cloud_STM32L431_BearPi/Drivers/STM32L4xx_HAL_Driver/Src\stm32l4xx_hal_uart.c ****       (HAL_IS_BIT_SET(huart->Instance->CR3, USART_CR3_DMAT)))
 2175              		.loc 1 1601 0 discriminator 1
 2176 001e 802B     		cmp	r3, #128
 2177 0020 13D1     		bne	.L119
1603:D:/iot/felix2/targets/Cloud_STM32L431_BearPi/Drivers/STM32L4xx_HAL_Driver/Src\stm32l4xx_hal_uart.c ****   {
1604:D:/iot/felix2/targets/Cloud_STM32L431_BearPi/Drivers/STM32L4xx_HAL_Driver/Src\stm32l4xx_hal_uart.c ****     CLEAR_BIT(huart->Instance->CR3, USART_CR3_DMAT);
 2178              		.loc 1 1604 0
 2179 0022 7B68     		ldr	r3, [r7, #4]
 2180 0024 1B68     		ldr	r3, [r3]
 2181 0026 9A68     		ldr	r2, [r3, #8]
 2182 0028 7B68     		ldr	r3, [r7, #4]
 2183 002a 1B68     		ldr	r3, [r3]
 2184 002c 22F08002 		bic	r2, r2, #128
ARM GAS  C:\Users\91458\AppData\Local\Temp\ccrpKNIe.s 			page 67


 2185 0030 9A60     		str	r2, [r3, #8]
1605:D:/iot/felix2/targets/Cloud_STM32L431_BearPi/Drivers/STM32L4xx_HAL_Driver/Src\stm32l4xx_hal_uart.c **** 
1606:D:/iot/felix2/targets/Cloud_STM32L431_BearPi/Drivers/STM32L4xx_HAL_Driver/Src\stm32l4xx_hal_uart.c ****     /* Abort the UART DMA Tx channel */
1607:D:/iot/felix2/targets/Cloud_STM32L431_BearPi/Drivers/STM32L4xx_HAL_Driver/Src\stm32l4xx_hal_uart.c ****     if (huart->hdmatx != NULL)
 2186              		.loc 1 1607 0
 2187 0032 7B68     		ldr	r3, [r7, #4]
 2188 0034 9B6E     		ldr	r3, [r3, #104]
 2189 0036 002B     		cmp	r3, #0
 2190 0038 04D0     		beq	.L120
1608:D:/iot/felix2/targets/Cloud_STM32L431_BearPi/Drivers/STM32L4xx_HAL_Driver/Src\stm32l4xx_hal_uart.c ****     {
1609:D:/iot/felix2/targets/Cloud_STM32L431_BearPi/Drivers/STM32L4xx_HAL_Driver/Src\stm32l4xx_hal_uart.c ****       HAL_DMA_Abort(huart->hdmatx);
 2191              		.loc 1 1609 0
 2192 003a 7B68     		ldr	r3, [r7, #4]
 2193 003c 9B6E     		ldr	r3, [r3, #104]
 2194 003e 1846     		mov	r0, r3
 2195 0040 FFF7FEFF 		bl	HAL_DMA_Abort
 2196              	.L120:
1610:D:/iot/felix2/targets/Cloud_STM32L431_BearPi/Drivers/STM32L4xx_HAL_Driver/Src\stm32l4xx_hal_uart.c ****     }
1611:D:/iot/felix2/targets/Cloud_STM32L431_BearPi/Drivers/STM32L4xx_HAL_Driver/Src\stm32l4xx_hal_uart.c **** 
1612:D:/iot/felix2/targets/Cloud_STM32L431_BearPi/Drivers/STM32L4xx_HAL_Driver/Src\stm32l4xx_hal_uart.c ****     UART_EndTxTransfer(huart);
 2197              		.loc 1 1612 0
 2198 0044 7868     		ldr	r0, [r7, #4]
 2199 0046 FFF7FEFF 		bl	UART_EndTxTransfer
 2200              	.L119:
1613:D:/iot/felix2/targets/Cloud_STM32L431_BearPi/Drivers/STM32L4xx_HAL_Driver/Src\stm32l4xx_hal_uart.c ****   }
1614:D:/iot/felix2/targets/Cloud_STM32L431_BearPi/Drivers/STM32L4xx_HAL_Driver/Src\stm32l4xx_hal_uart.c **** 
1615:D:/iot/felix2/targets/Cloud_STM32L431_BearPi/Drivers/STM32L4xx_HAL_Driver/Src\stm32l4xx_hal_uart.c ****   /* Stop UART DMA Rx request if ongoing */
1616:D:/iot/felix2/targets/Cloud_STM32L431_BearPi/Drivers/STM32L4xx_HAL_Driver/Src\stm32l4xx_hal_uart.c ****   if ((huart->RxState == HAL_UART_STATE_BUSY_RX) &&
 2201              		.loc 1 1616 0
 2202 004a 7B68     		ldr	r3, [r7, #4]
 2203 004c 93F87230 		ldrb	r3, [r3, #114]
 2204 0050 DBB2     		uxtb	r3, r3
 2205 0052 222B     		cmp	r3, #34
 2206 0054 1AD1     		bne	.L121
1617:D:/iot/felix2/targets/Cloud_STM32L431_BearPi/Drivers/STM32L4xx_HAL_Driver/Src\stm32l4xx_hal_uart.c ****       (HAL_IS_BIT_SET(huart->Instance->CR3, USART_CR3_DMAR)))
 2207              		.loc 1 1617 0 discriminator 1
 2208 0056 7B68     		ldr	r3, [r7, #4]
 2209 0058 1B68     		ldr	r3, [r3]
 2210 005a 9B68     		ldr	r3, [r3, #8]
 2211 005c 03F04003 		and	r3, r3, #64
1616:D:/iot/felix2/targets/Cloud_STM32L431_BearPi/Drivers/STM32L4xx_HAL_Driver/Src\stm32l4xx_hal_uart.c ****       (HAL_IS_BIT_SET(huart->Instance->CR3, USART_CR3_DMAR)))
 2212              		.loc 1 1616 0 discriminator 1
 2213 0060 402B     		cmp	r3, #64
 2214 0062 13D1     		bne	.L121
1618:D:/iot/felix2/targets/Cloud_STM32L431_BearPi/Drivers/STM32L4xx_HAL_Driver/Src\stm32l4xx_hal_uart.c ****   {
1619:D:/iot/felix2/targets/Cloud_STM32L431_BearPi/Drivers/STM32L4xx_HAL_Driver/Src\stm32l4xx_hal_uart.c ****     CLEAR_BIT(huart->Instance->CR3, USART_CR3_DMAR);
 2215              		.loc 1 1619 0
 2216 0064 7B68     		ldr	r3, [r7, #4]
 2217 0066 1B68     		ldr	r3, [r3]
 2218 0068 9A68     		ldr	r2, [r3, #8]
 2219 006a 7B68     		ldr	r3, [r7, #4]
 2220 006c 1B68     		ldr	r3, [r3]
 2221 006e 22F04002 		bic	r2, r2, #64
 2222 0072 9A60     		str	r2, [r3, #8]
1620:D:/iot/felix2/targets/Cloud_STM32L431_BearPi/Drivers/STM32L4xx_HAL_Driver/Src\stm32l4xx_hal_uart.c **** 
1621:D:/iot/felix2/targets/Cloud_STM32L431_BearPi/Drivers/STM32L4xx_HAL_Driver/Src\stm32l4xx_hal_uart.c ****     /* Abort the UART DMA Rx channel */
1622:D:/iot/felix2/targets/Cloud_STM32L431_BearPi/Drivers/STM32L4xx_HAL_Driver/Src\stm32l4xx_hal_uart.c ****     if (huart->hdmarx != NULL)
ARM GAS  C:\Users\91458\AppData\Local\Temp\ccrpKNIe.s 			page 68


 2223              		.loc 1 1622 0
 2224 0074 7B68     		ldr	r3, [r7, #4]
 2225 0076 DB6E     		ldr	r3, [r3, #108]
 2226 0078 002B     		cmp	r3, #0
 2227 007a 04D0     		beq	.L122
1623:D:/iot/felix2/targets/Cloud_STM32L431_BearPi/Drivers/STM32L4xx_HAL_Driver/Src\stm32l4xx_hal_uart.c ****     {
1624:D:/iot/felix2/targets/Cloud_STM32L431_BearPi/Drivers/STM32L4xx_HAL_Driver/Src\stm32l4xx_hal_uart.c ****       HAL_DMA_Abort(huart->hdmarx);
 2228              		.loc 1 1624 0
 2229 007c 7B68     		ldr	r3, [r7, #4]
 2230 007e DB6E     		ldr	r3, [r3, #108]
 2231 0080 1846     		mov	r0, r3
 2232 0082 FFF7FEFF 		bl	HAL_DMA_Abort
 2233              	.L122:
1625:D:/iot/felix2/targets/Cloud_STM32L431_BearPi/Drivers/STM32L4xx_HAL_Driver/Src\stm32l4xx_hal_uart.c ****     }
1626:D:/iot/felix2/targets/Cloud_STM32L431_BearPi/Drivers/STM32L4xx_HAL_Driver/Src\stm32l4xx_hal_uart.c **** 
1627:D:/iot/felix2/targets/Cloud_STM32L431_BearPi/Drivers/STM32L4xx_HAL_Driver/Src\stm32l4xx_hal_uart.c ****     UART_EndRxTransfer(huart);
 2234              		.loc 1 1627 0
 2235 0086 7868     		ldr	r0, [r7, #4]
 2236 0088 FFF7FEFF 		bl	UART_EndRxTransfer
 2237              	.L121:
1628:D:/iot/felix2/targets/Cloud_STM32L431_BearPi/Drivers/STM32L4xx_HAL_Driver/Src\stm32l4xx_hal_uart.c ****   }
1629:D:/iot/felix2/targets/Cloud_STM32L431_BearPi/Drivers/STM32L4xx_HAL_Driver/Src\stm32l4xx_hal_uart.c **** 
1630:D:/iot/felix2/targets/Cloud_STM32L431_BearPi/Drivers/STM32L4xx_HAL_Driver/Src\stm32l4xx_hal_uart.c ****   return HAL_OK;
 2238              		.loc 1 1630 0
 2239 008c 0023     		movs	r3, #0
1631:D:/iot/felix2/targets/Cloud_STM32L431_BearPi/Drivers/STM32L4xx_HAL_Driver/Src\stm32l4xx_hal_uart.c **** }
 2240              		.loc 1 1631 0
 2241 008e 1846     		mov	r0, r3
 2242 0090 0837     		adds	r7, r7, #8
 2243              	.LCFI84:
 2244              		.cfi_def_cfa_offset 8
 2245 0092 BD46     		mov	sp, r7
 2246              	.LCFI85:
 2247              		.cfi_def_cfa_register 13
 2248              		@ sp needed
 2249 0094 80BD     		pop	{r7, pc}
 2250              		.cfi_endproc
 2251              	.LFE148:
 2253              		.section	.text.HAL_UART_Abort,"ax",%progbits
 2254              		.align	1
 2255              		.global	HAL_UART_Abort
 2256              		.syntax unified
 2257              		.thumb
 2258              		.thumb_func
 2259              		.fpu fpv4-sp-d16
 2261              	HAL_UART_Abort:
 2262              	.LFB149:
1632:D:/iot/felix2/targets/Cloud_STM32L431_BearPi/Drivers/STM32L4xx_HAL_Driver/Src\stm32l4xx_hal_uart.c **** 
1633:D:/iot/felix2/targets/Cloud_STM32L431_BearPi/Drivers/STM32L4xx_HAL_Driver/Src\stm32l4xx_hal_uart.c **** /**
1634:D:/iot/felix2/targets/Cloud_STM32L431_BearPi/Drivers/STM32L4xx_HAL_Driver/Src\stm32l4xx_hal_uart.c ****   * @brief  Abort ongoing transfers (blocking mode).
1635:D:/iot/felix2/targets/Cloud_STM32L431_BearPi/Drivers/STM32L4xx_HAL_Driver/Src\stm32l4xx_hal_uart.c ****   * @param  huart UART handle.
1636:D:/iot/felix2/targets/Cloud_STM32L431_BearPi/Drivers/STM32L4xx_HAL_Driver/Src\stm32l4xx_hal_uart.c ****   * @note   This procedure could be used for aborting any ongoing transfer started in Interrupt or 
1637:D:/iot/felix2/targets/Cloud_STM32L431_BearPi/Drivers/STM32L4xx_HAL_Driver/Src\stm32l4xx_hal_uart.c ****   *         This procedure performs following operations :
1638:D:/iot/felix2/targets/Cloud_STM32L431_BearPi/Drivers/STM32L4xx_HAL_Driver/Src\stm32l4xx_hal_uart.c ****   *           - Disable UART Interrupts (Tx and Rx)
1639:D:/iot/felix2/targets/Cloud_STM32L431_BearPi/Drivers/STM32L4xx_HAL_Driver/Src\stm32l4xx_hal_uart.c ****   *           - Disable the DMA transfer in the peripheral register (if enabled)
1640:D:/iot/felix2/targets/Cloud_STM32L431_BearPi/Drivers/STM32L4xx_HAL_Driver/Src\stm32l4xx_hal_uart.c ****   *           - Abort DMA transfer by calling HAL_DMA_Abort (in case of transfer in DMA mode)
1641:D:/iot/felix2/targets/Cloud_STM32L431_BearPi/Drivers/STM32L4xx_HAL_Driver/Src\stm32l4xx_hal_uart.c ****   *           - Set handle State to READY
ARM GAS  C:\Users\91458\AppData\Local\Temp\ccrpKNIe.s 			page 69


1642:D:/iot/felix2/targets/Cloud_STM32L431_BearPi/Drivers/STM32L4xx_HAL_Driver/Src\stm32l4xx_hal_uart.c ****   * @note   This procedure is executed in blocking mode : when exiting function, Abort is considere
1643:D:/iot/felix2/targets/Cloud_STM32L431_BearPi/Drivers/STM32L4xx_HAL_Driver/Src\stm32l4xx_hal_uart.c ****   * @retval HAL status
1644:D:/iot/felix2/targets/Cloud_STM32L431_BearPi/Drivers/STM32L4xx_HAL_Driver/Src\stm32l4xx_hal_uart.c **** */
1645:D:/iot/felix2/targets/Cloud_STM32L431_BearPi/Drivers/STM32L4xx_HAL_Driver/Src\stm32l4xx_hal_uart.c **** HAL_StatusTypeDef HAL_UART_Abort(UART_HandleTypeDef *huart)
1646:D:/iot/felix2/targets/Cloud_STM32L431_BearPi/Drivers/STM32L4xx_HAL_Driver/Src\stm32l4xx_hal_uart.c **** {
 2263              		.loc 1 1646 0
 2264              		.cfi_startproc
 2265              		@ args = 0, pretend = 0, frame = 8
 2266              		@ frame_needed = 1, uses_anonymous_args = 0
 2267 0000 80B5     		push	{r7, lr}
 2268              	.LCFI86:
 2269              		.cfi_def_cfa_offset 8
 2270              		.cfi_offset 7, -8
 2271              		.cfi_offset 14, -4
 2272 0002 82B0     		sub	sp, sp, #8
 2273              	.LCFI87:
 2274              		.cfi_def_cfa_offset 16
 2275 0004 00AF     		add	r7, sp, #0
 2276              	.LCFI88:
 2277              		.cfi_def_cfa_register 7
 2278 0006 7860     		str	r0, [r7, #4]
1647:D:/iot/felix2/targets/Cloud_STM32L431_BearPi/Drivers/STM32L4xx_HAL_Driver/Src\stm32l4xx_hal_uart.c **** #if defined(USART_CR1_FIFOEN)
1648:D:/iot/felix2/targets/Cloud_STM32L431_BearPi/Drivers/STM32L4xx_HAL_Driver/Src\stm32l4xx_hal_uart.c ****   /* Disable TXE, TC, RXNE, PE, RXFT, TXFT and ERR (Frame error, noise error, overrun error) interr
1649:D:/iot/felix2/targets/Cloud_STM32L431_BearPi/Drivers/STM32L4xx_HAL_Driver/Src\stm32l4xx_hal_uart.c ****   CLEAR_BIT(huart->Instance->CR1, (USART_CR1_RXNEIE_RXFNEIE | USART_CR1_PEIE | USART_CR1_TXEIE_TXFN
1650:D:/iot/felix2/targets/Cloud_STM32L431_BearPi/Drivers/STM32L4xx_HAL_Driver/Src\stm32l4xx_hal_uart.c ****   CLEAR_BIT(huart->Instance->CR3, USART_CR3_EIE | USART_CR3_RXFTIE | USART_CR3_TXFTIE);
1651:D:/iot/felix2/targets/Cloud_STM32L431_BearPi/Drivers/STM32L4xx_HAL_Driver/Src\stm32l4xx_hal_uart.c **** #else
1652:D:/iot/felix2/targets/Cloud_STM32L431_BearPi/Drivers/STM32L4xx_HAL_Driver/Src\stm32l4xx_hal_uart.c ****   /* Disable TXEIE, TCIE, RXNE, PE and ERR (Frame error, noise error, overrun error) interrupts */
1653:D:/iot/felix2/targets/Cloud_STM32L431_BearPi/Drivers/STM32L4xx_HAL_Driver/Src\stm32l4xx_hal_uart.c ****   CLEAR_BIT(huart->Instance->CR1, (USART_CR1_RXNEIE | USART_CR1_PEIE | USART_CR1_TXEIE | USART_CR1_
 2279              		.loc 1 1653 0
 2280 0008 7B68     		ldr	r3, [r7, #4]
 2281 000a 1B68     		ldr	r3, [r3]
 2282 000c 1A68     		ldr	r2, [r3]
 2283 000e 7B68     		ldr	r3, [r7, #4]
 2284 0010 1B68     		ldr	r3, [r3]
 2285 0012 22F4F072 		bic	r2, r2, #480
 2286 0016 1A60     		str	r2, [r3]
1654:D:/iot/felix2/targets/Cloud_STM32L431_BearPi/Drivers/STM32L4xx_HAL_Driver/Src\stm32l4xx_hal_uart.c ****   CLEAR_BIT(huart->Instance->CR3, USART_CR3_EIE);
 2287              		.loc 1 1654 0
 2288 0018 7B68     		ldr	r3, [r7, #4]
 2289 001a 1B68     		ldr	r3, [r3]
 2290 001c 9A68     		ldr	r2, [r3, #8]
 2291 001e 7B68     		ldr	r3, [r7, #4]
 2292 0020 1B68     		ldr	r3, [r3]
 2293 0022 22F00102 		bic	r2, r2, #1
 2294 0026 9A60     		str	r2, [r3, #8]
1655:D:/iot/felix2/targets/Cloud_STM32L431_BearPi/Drivers/STM32L4xx_HAL_Driver/Src\stm32l4xx_hal_uart.c **** #endif
1656:D:/iot/felix2/targets/Cloud_STM32L431_BearPi/Drivers/STM32L4xx_HAL_Driver/Src\stm32l4xx_hal_uart.c **** 
1657:D:/iot/felix2/targets/Cloud_STM32L431_BearPi/Drivers/STM32L4xx_HAL_Driver/Src\stm32l4xx_hal_uart.c ****   /* Disable the UART DMA Tx request if enabled */
1658:D:/iot/felix2/targets/Cloud_STM32L431_BearPi/Drivers/STM32L4xx_HAL_Driver/Src\stm32l4xx_hal_uart.c ****   if (HAL_IS_BIT_SET(huart->Instance->CR3, USART_CR3_DMAT))
 2295              		.loc 1 1658 0
 2296 0028 7B68     		ldr	r3, [r7, #4]
 2297 002a 1B68     		ldr	r3, [r3]
 2298 002c 9B68     		ldr	r3, [r3, #8]
 2299 002e 03F08003 		and	r3, r3, #128
 2300 0032 802B     		cmp	r3, #128
 2301 0034 14D1     		bne	.L125
1659:D:/iot/felix2/targets/Cloud_STM32L431_BearPi/Drivers/STM32L4xx_HAL_Driver/Src\stm32l4xx_hal_uart.c ****   {
ARM GAS  C:\Users\91458\AppData\Local\Temp\ccrpKNIe.s 			page 70


1660:D:/iot/felix2/targets/Cloud_STM32L431_BearPi/Drivers/STM32L4xx_HAL_Driver/Src\stm32l4xx_hal_uart.c ****     CLEAR_BIT(huart->Instance->CR3, USART_CR3_DMAT);
 2302              		.loc 1 1660 0
 2303 0036 7B68     		ldr	r3, [r7, #4]
 2304 0038 1B68     		ldr	r3, [r3]
 2305 003a 9A68     		ldr	r2, [r3, #8]
 2306 003c 7B68     		ldr	r3, [r7, #4]
 2307 003e 1B68     		ldr	r3, [r3]
 2308 0040 22F08002 		bic	r2, r2, #128
 2309 0044 9A60     		str	r2, [r3, #8]
1661:D:/iot/felix2/targets/Cloud_STM32L431_BearPi/Drivers/STM32L4xx_HAL_Driver/Src\stm32l4xx_hal_uart.c **** 
1662:D:/iot/felix2/targets/Cloud_STM32L431_BearPi/Drivers/STM32L4xx_HAL_Driver/Src\stm32l4xx_hal_uart.c ****     /* Abort the UART DMA Tx channel : use blocking DMA Abort API (no callback) */
1663:D:/iot/felix2/targets/Cloud_STM32L431_BearPi/Drivers/STM32L4xx_HAL_Driver/Src\stm32l4xx_hal_uart.c ****     if (huart->hdmatx != NULL)
 2310              		.loc 1 1663 0
 2311 0046 7B68     		ldr	r3, [r7, #4]
 2312 0048 9B6E     		ldr	r3, [r3, #104]
 2313 004a 002B     		cmp	r3, #0
 2314 004c 08D0     		beq	.L125
1664:D:/iot/felix2/targets/Cloud_STM32L431_BearPi/Drivers/STM32L4xx_HAL_Driver/Src\stm32l4xx_hal_uart.c ****     {
1665:D:/iot/felix2/targets/Cloud_STM32L431_BearPi/Drivers/STM32L4xx_HAL_Driver/Src\stm32l4xx_hal_uart.c ****       /* Set the UART DMA Abort callback to Null.
1666:D:/iot/felix2/targets/Cloud_STM32L431_BearPi/Drivers/STM32L4xx_HAL_Driver/Src\stm32l4xx_hal_uart.c ****          No call back execution at end of DMA abort procedure */
1667:D:/iot/felix2/targets/Cloud_STM32L431_BearPi/Drivers/STM32L4xx_HAL_Driver/Src\stm32l4xx_hal_uart.c ****       huart->hdmatx->XferAbortCallback = NULL;
 2315              		.loc 1 1667 0
 2316 004e 7B68     		ldr	r3, [r7, #4]
 2317 0050 9B6E     		ldr	r3, [r3, #104]
 2318 0052 0022     		movs	r2, #0
 2319 0054 9A63     		str	r2, [r3, #56]
1668:D:/iot/felix2/targets/Cloud_STM32L431_BearPi/Drivers/STM32L4xx_HAL_Driver/Src\stm32l4xx_hal_uart.c **** 
1669:D:/iot/felix2/targets/Cloud_STM32L431_BearPi/Drivers/STM32L4xx_HAL_Driver/Src\stm32l4xx_hal_uart.c ****       HAL_DMA_Abort(huart->hdmatx);
 2320              		.loc 1 1669 0
 2321 0056 7B68     		ldr	r3, [r7, #4]
 2322 0058 9B6E     		ldr	r3, [r3, #104]
 2323 005a 1846     		mov	r0, r3
 2324 005c FFF7FEFF 		bl	HAL_DMA_Abort
 2325              	.L125:
1670:D:/iot/felix2/targets/Cloud_STM32L431_BearPi/Drivers/STM32L4xx_HAL_Driver/Src\stm32l4xx_hal_uart.c ****     }
1671:D:/iot/felix2/targets/Cloud_STM32L431_BearPi/Drivers/STM32L4xx_HAL_Driver/Src\stm32l4xx_hal_uart.c ****   }
1672:D:/iot/felix2/targets/Cloud_STM32L431_BearPi/Drivers/STM32L4xx_HAL_Driver/Src\stm32l4xx_hal_uart.c **** 
1673:D:/iot/felix2/targets/Cloud_STM32L431_BearPi/Drivers/STM32L4xx_HAL_Driver/Src\stm32l4xx_hal_uart.c ****   /* Disable the UART DMA Rx request if enabled */
1674:D:/iot/felix2/targets/Cloud_STM32L431_BearPi/Drivers/STM32L4xx_HAL_Driver/Src\stm32l4xx_hal_uart.c ****   if (HAL_IS_BIT_SET(huart->Instance->CR3, USART_CR3_DMAR))
 2326              		.loc 1 1674 0
 2327 0060 7B68     		ldr	r3, [r7, #4]
 2328 0062 1B68     		ldr	r3, [r3]
 2329 0064 9B68     		ldr	r3, [r3, #8]
 2330 0066 03F04003 		and	r3, r3, #64
 2331 006a 402B     		cmp	r3, #64
 2332 006c 14D1     		bne	.L126
1675:D:/iot/felix2/targets/Cloud_STM32L431_BearPi/Drivers/STM32L4xx_HAL_Driver/Src\stm32l4xx_hal_uart.c ****   {
1676:D:/iot/felix2/targets/Cloud_STM32L431_BearPi/Drivers/STM32L4xx_HAL_Driver/Src\stm32l4xx_hal_uart.c ****     CLEAR_BIT(huart->Instance->CR3, USART_CR3_DMAR);
 2333              		.loc 1 1676 0
 2334 006e 7B68     		ldr	r3, [r7, #4]
 2335 0070 1B68     		ldr	r3, [r3]
 2336 0072 9A68     		ldr	r2, [r3, #8]
 2337 0074 7B68     		ldr	r3, [r7, #4]
 2338 0076 1B68     		ldr	r3, [r3]
 2339 0078 22F04002 		bic	r2, r2, #64
 2340 007c 9A60     		str	r2, [r3, #8]
1677:D:/iot/felix2/targets/Cloud_STM32L431_BearPi/Drivers/STM32L4xx_HAL_Driver/Src\stm32l4xx_hal_uart.c **** 
ARM GAS  C:\Users\91458\AppData\Local\Temp\ccrpKNIe.s 			page 71


1678:D:/iot/felix2/targets/Cloud_STM32L431_BearPi/Drivers/STM32L4xx_HAL_Driver/Src\stm32l4xx_hal_uart.c ****     /* Abort the UART DMA Rx channel : use blocking DMA Abort API (no callback) */
1679:D:/iot/felix2/targets/Cloud_STM32L431_BearPi/Drivers/STM32L4xx_HAL_Driver/Src\stm32l4xx_hal_uart.c ****     if (huart->hdmarx != NULL)
 2341              		.loc 1 1679 0
 2342 007e 7B68     		ldr	r3, [r7, #4]
 2343 0080 DB6E     		ldr	r3, [r3, #108]
 2344 0082 002B     		cmp	r3, #0
 2345 0084 08D0     		beq	.L126
1680:D:/iot/felix2/targets/Cloud_STM32L431_BearPi/Drivers/STM32L4xx_HAL_Driver/Src\stm32l4xx_hal_uart.c ****     {
1681:D:/iot/felix2/targets/Cloud_STM32L431_BearPi/Drivers/STM32L4xx_HAL_Driver/Src\stm32l4xx_hal_uart.c ****       /* Set the UART DMA Abort callback to Null.
1682:D:/iot/felix2/targets/Cloud_STM32L431_BearPi/Drivers/STM32L4xx_HAL_Driver/Src\stm32l4xx_hal_uart.c ****          No call back execution at end of DMA abort procedure */
1683:D:/iot/felix2/targets/Cloud_STM32L431_BearPi/Drivers/STM32L4xx_HAL_Driver/Src\stm32l4xx_hal_uart.c ****       huart->hdmarx->XferAbortCallback = NULL;
 2346              		.loc 1 1683 0
 2347 0086 7B68     		ldr	r3, [r7, #4]
 2348 0088 DB6E     		ldr	r3, [r3, #108]
 2349 008a 0022     		movs	r2, #0
 2350 008c 9A63     		str	r2, [r3, #56]
1684:D:/iot/felix2/targets/Cloud_STM32L431_BearPi/Drivers/STM32L4xx_HAL_Driver/Src\stm32l4xx_hal_uart.c **** 
1685:D:/iot/felix2/targets/Cloud_STM32L431_BearPi/Drivers/STM32L4xx_HAL_Driver/Src\stm32l4xx_hal_uart.c ****       HAL_DMA_Abort(huart->hdmarx);
 2351              		.loc 1 1685 0
 2352 008e 7B68     		ldr	r3, [r7, #4]
 2353 0090 DB6E     		ldr	r3, [r3, #108]
 2354 0092 1846     		mov	r0, r3
 2355 0094 FFF7FEFF 		bl	HAL_DMA_Abort
 2356              	.L126:
1686:D:/iot/felix2/targets/Cloud_STM32L431_BearPi/Drivers/STM32L4xx_HAL_Driver/Src\stm32l4xx_hal_uart.c ****     }
1687:D:/iot/felix2/targets/Cloud_STM32L431_BearPi/Drivers/STM32L4xx_HAL_Driver/Src\stm32l4xx_hal_uart.c ****   }
1688:D:/iot/felix2/targets/Cloud_STM32L431_BearPi/Drivers/STM32L4xx_HAL_Driver/Src\stm32l4xx_hal_uart.c **** 
1689:D:/iot/felix2/targets/Cloud_STM32L431_BearPi/Drivers/STM32L4xx_HAL_Driver/Src\stm32l4xx_hal_uart.c ****   /* Reset Tx and Rx transfer counters */
1690:D:/iot/felix2/targets/Cloud_STM32L431_BearPi/Drivers/STM32L4xx_HAL_Driver/Src\stm32l4xx_hal_uart.c ****   huart->TxXferCount = 0U;
 2357              		.loc 1 1690 0
 2358 0098 7B68     		ldr	r3, [r7, #4]
 2359 009a 0022     		movs	r2, #0
 2360 009c A3F85220 		strh	r2, [r3, #82]	@ movhi
1691:D:/iot/felix2/targets/Cloud_STM32L431_BearPi/Drivers/STM32L4xx_HAL_Driver/Src\stm32l4xx_hal_uart.c ****   huart->RxXferCount = 0U;
 2361              		.loc 1 1691 0
 2362 00a0 7B68     		ldr	r3, [r7, #4]
 2363 00a2 0022     		movs	r2, #0
 2364 00a4 A3F85A20 		strh	r2, [r3, #90]	@ movhi
1692:D:/iot/felix2/targets/Cloud_STM32L431_BearPi/Drivers/STM32L4xx_HAL_Driver/Src\stm32l4xx_hal_uart.c **** 
1693:D:/iot/felix2/targets/Cloud_STM32L431_BearPi/Drivers/STM32L4xx_HAL_Driver/Src\stm32l4xx_hal_uart.c ****   /* Clear the Error flags in the ICR register */
1694:D:/iot/felix2/targets/Cloud_STM32L431_BearPi/Drivers/STM32L4xx_HAL_Driver/Src\stm32l4xx_hal_uart.c ****   __HAL_UART_CLEAR_FLAG(huart, UART_CLEAR_OREF | UART_CLEAR_NEF | UART_CLEAR_PEF | UART_CLEAR_FEF);
 2365              		.loc 1 1694 0
 2366 00a8 7B68     		ldr	r3, [r7, #4]
 2367 00aa 1B68     		ldr	r3, [r3]
 2368 00ac 0F22     		movs	r2, #15
 2369 00ae 1A62     		str	r2, [r3, #32]
1695:D:/iot/felix2/targets/Cloud_STM32L431_BearPi/Drivers/STM32L4xx_HAL_Driver/Src\stm32l4xx_hal_uart.c **** 
1696:D:/iot/felix2/targets/Cloud_STM32L431_BearPi/Drivers/STM32L4xx_HAL_Driver/Src\stm32l4xx_hal_uart.c **** #if defined(USART_CR1_FIFOEN)
1697:D:/iot/felix2/targets/Cloud_STM32L431_BearPi/Drivers/STM32L4xx_HAL_Driver/Src\stm32l4xx_hal_uart.c ****   /* Flush the whole TX FIFO (if needed) */
1698:D:/iot/felix2/targets/Cloud_STM32L431_BearPi/Drivers/STM32L4xx_HAL_Driver/Src\stm32l4xx_hal_uart.c ****   if (huart->FifoMode == UART_FIFOMODE_ENABLE)
1699:D:/iot/felix2/targets/Cloud_STM32L431_BearPi/Drivers/STM32L4xx_HAL_Driver/Src\stm32l4xx_hal_uart.c ****   {
1700:D:/iot/felix2/targets/Cloud_STM32L431_BearPi/Drivers/STM32L4xx_HAL_Driver/Src\stm32l4xx_hal_uart.c ****     __HAL_UART_SEND_REQ(huart, UART_TXDATA_FLUSH_REQUEST);
1701:D:/iot/felix2/targets/Cloud_STM32L431_BearPi/Drivers/STM32L4xx_HAL_Driver/Src\stm32l4xx_hal_uart.c ****   }
1702:D:/iot/felix2/targets/Cloud_STM32L431_BearPi/Drivers/STM32L4xx_HAL_Driver/Src\stm32l4xx_hal_uart.c **** #endif
1703:D:/iot/felix2/targets/Cloud_STM32L431_BearPi/Drivers/STM32L4xx_HAL_Driver/Src\stm32l4xx_hal_uart.c **** 
1704:D:/iot/felix2/targets/Cloud_STM32L431_BearPi/Drivers/STM32L4xx_HAL_Driver/Src\stm32l4xx_hal_uart.c ****   /* Discard the received data */
1705:D:/iot/felix2/targets/Cloud_STM32L431_BearPi/Drivers/STM32L4xx_HAL_Driver/Src\stm32l4xx_hal_uart.c ****   __HAL_UART_SEND_REQ(huart, UART_RXDATA_FLUSH_REQUEST);
ARM GAS  C:\Users\91458\AppData\Local\Temp\ccrpKNIe.s 			page 72


 2370              		.loc 1 1705 0
 2371 00b0 7B68     		ldr	r3, [r7, #4]
 2372 00b2 1B68     		ldr	r3, [r3]
 2373 00b4 1B8B     		ldrh	r3, [r3, #24]	@ movhi
 2374 00b6 9AB2     		uxth	r2, r3
 2375 00b8 7B68     		ldr	r3, [r7, #4]
 2376 00ba 1B68     		ldr	r3, [r3]
 2377 00bc 42F00802 		orr	r2, r2, #8
 2378 00c0 92B2     		uxth	r2, r2
 2379 00c2 1A83     		strh	r2, [r3, #24]	@ movhi
1706:D:/iot/felix2/targets/Cloud_STM32L431_BearPi/Drivers/STM32L4xx_HAL_Driver/Src\stm32l4xx_hal_uart.c **** 
1707:D:/iot/felix2/targets/Cloud_STM32L431_BearPi/Drivers/STM32L4xx_HAL_Driver/Src\stm32l4xx_hal_uart.c ****   /* Restore huart->gState and huart->RxState to Ready */
1708:D:/iot/felix2/targets/Cloud_STM32L431_BearPi/Drivers/STM32L4xx_HAL_Driver/Src\stm32l4xx_hal_uart.c ****   huart->gState  = HAL_UART_STATE_READY;
 2380              		.loc 1 1708 0
 2381 00c4 7B68     		ldr	r3, [r7, #4]
 2382 00c6 2022     		movs	r2, #32
 2383 00c8 83F87120 		strb	r2, [r3, #113]
1709:D:/iot/felix2/targets/Cloud_STM32L431_BearPi/Drivers/STM32L4xx_HAL_Driver/Src\stm32l4xx_hal_uart.c ****   huart->RxState = HAL_UART_STATE_READY;
 2384              		.loc 1 1709 0
 2385 00cc 7B68     		ldr	r3, [r7, #4]
 2386 00ce 2022     		movs	r2, #32
 2387 00d0 83F87220 		strb	r2, [r3, #114]
1710:D:/iot/felix2/targets/Cloud_STM32L431_BearPi/Drivers/STM32L4xx_HAL_Driver/Src\stm32l4xx_hal_uart.c **** 
1711:D:/iot/felix2/targets/Cloud_STM32L431_BearPi/Drivers/STM32L4xx_HAL_Driver/Src\stm32l4xx_hal_uart.c ****   /* Reset Handle ErrorCode to No Error */
1712:D:/iot/felix2/targets/Cloud_STM32L431_BearPi/Drivers/STM32L4xx_HAL_Driver/Src\stm32l4xx_hal_uart.c ****   huart->ErrorCode = HAL_UART_ERROR_NONE;
 2388              		.loc 1 1712 0
 2389 00d4 7B68     		ldr	r3, [r7, #4]
 2390 00d6 0022     		movs	r2, #0
 2391 00d8 5A67     		str	r2, [r3, #116]
1713:D:/iot/felix2/targets/Cloud_STM32L431_BearPi/Drivers/STM32L4xx_HAL_Driver/Src\stm32l4xx_hal_uart.c **** 
1714:D:/iot/felix2/targets/Cloud_STM32L431_BearPi/Drivers/STM32L4xx_HAL_Driver/Src\stm32l4xx_hal_uart.c ****   return HAL_OK;
 2392              		.loc 1 1714 0
 2393 00da 0023     		movs	r3, #0
1715:D:/iot/felix2/targets/Cloud_STM32L431_BearPi/Drivers/STM32L4xx_HAL_Driver/Src\stm32l4xx_hal_uart.c **** }
 2394              		.loc 1 1715 0
 2395 00dc 1846     		mov	r0, r3
 2396 00de 0837     		adds	r7, r7, #8
 2397              	.LCFI89:
 2398              		.cfi_def_cfa_offset 8
 2399 00e0 BD46     		mov	sp, r7
 2400              	.LCFI90:
 2401              		.cfi_def_cfa_register 13
 2402              		@ sp needed
 2403 00e2 80BD     		pop	{r7, pc}
 2404              		.cfi_endproc
 2405              	.LFE149:
 2407              		.section	.text.HAL_UART_AbortTransmit,"ax",%progbits
 2408              		.align	1
 2409              		.global	HAL_UART_AbortTransmit
 2410              		.syntax unified
 2411              		.thumb
 2412              		.thumb_func
 2413              		.fpu fpv4-sp-d16
 2415              	HAL_UART_AbortTransmit:
 2416              	.LFB150:
1716:D:/iot/felix2/targets/Cloud_STM32L431_BearPi/Drivers/STM32L4xx_HAL_Driver/Src\stm32l4xx_hal_uart.c **** 
1717:D:/iot/felix2/targets/Cloud_STM32L431_BearPi/Drivers/STM32L4xx_HAL_Driver/Src\stm32l4xx_hal_uart.c **** /**
ARM GAS  C:\Users\91458\AppData\Local\Temp\ccrpKNIe.s 			page 73


1718:D:/iot/felix2/targets/Cloud_STM32L431_BearPi/Drivers/STM32L4xx_HAL_Driver/Src\stm32l4xx_hal_uart.c ****   * @brief  Abort ongoing Transmit transfer (blocking mode).
1719:D:/iot/felix2/targets/Cloud_STM32L431_BearPi/Drivers/STM32L4xx_HAL_Driver/Src\stm32l4xx_hal_uart.c ****   * @param  huart UART handle.
1720:D:/iot/felix2/targets/Cloud_STM32L431_BearPi/Drivers/STM32L4xx_HAL_Driver/Src\stm32l4xx_hal_uart.c ****   * @note   This procedure could be used for aborting any ongoing Tx transfer started in Interrupt 
1721:D:/iot/felix2/targets/Cloud_STM32L431_BearPi/Drivers/STM32L4xx_HAL_Driver/Src\stm32l4xx_hal_uart.c ****   *         This procedure performs following operations :
1722:D:/iot/felix2/targets/Cloud_STM32L431_BearPi/Drivers/STM32L4xx_HAL_Driver/Src\stm32l4xx_hal_uart.c ****   *           - Disable UART Interrupts (Tx)
1723:D:/iot/felix2/targets/Cloud_STM32L431_BearPi/Drivers/STM32L4xx_HAL_Driver/Src\stm32l4xx_hal_uart.c ****   *           - Disable the DMA transfer in the peripheral register (if enabled)
1724:D:/iot/felix2/targets/Cloud_STM32L431_BearPi/Drivers/STM32L4xx_HAL_Driver/Src\stm32l4xx_hal_uart.c ****   *           - Abort DMA transfer by calling HAL_DMA_Abort (in case of transfer in DMA mode)
1725:D:/iot/felix2/targets/Cloud_STM32L431_BearPi/Drivers/STM32L4xx_HAL_Driver/Src\stm32l4xx_hal_uart.c ****   *           - Set handle State to READY
1726:D:/iot/felix2/targets/Cloud_STM32L431_BearPi/Drivers/STM32L4xx_HAL_Driver/Src\stm32l4xx_hal_uart.c ****   * @note   This procedure is executed in blocking mode : when exiting function, Abort is considere
1727:D:/iot/felix2/targets/Cloud_STM32L431_BearPi/Drivers/STM32L4xx_HAL_Driver/Src\stm32l4xx_hal_uart.c ****   * @retval HAL status
1728:D:/iot/felix2/targets/Cloud_STM32L431_BearPi/Drivers/STM32L4xx_HAL_Driver/Src\stm32l4xx_hal_uart.c **** */
1729:D:/iot/felix2/targets/Cloud_STM32L431_BearPi/Drivers/STM32L4xx_HAL_Driver/Src\stm32l4xx_hal_uart.c **** HAL_StatusTypeDef HAL_UART_AbortTransmit(UART_HandleTypeDef *huart)
1730:D:/iot/felix2/targets/Cloud_STM32L431_BearPi/Drivers/STM32L4xx_HAL_Driver/Src\stm32l4xx_hal_uart.c **** {
 2417              		.loc 1 1730 0
 2418              		.cfi_startproc
 2419              		@ args = 0, pretend = 0, frame = 8
 2420              		@ frame_needed = 1, uses_anonymous_args = 0
 2421 0000 80B5     		push	{r7, lr}
 2422              	.LCFI91:
 2423              		.cfi_def_cfa_offset 8
 2424              		.cfi_offset 7, -8
 2425              		.cfi_offset 14, -4
 2426 0002 82B0     		sub	sp, sp, #8
 2427              	.LCFI92:
 2428              		.cfi_def_cfa_offset 16
 2429 0004 00AF     		add	r7, sp, #0
 2430              	.LCFI93:
 2431              		.cfi_def_cfa_register 7
 2432 0006 7860     		str	r0, [r7, #4]
1731:D:/iot/felix2/targets/Cloud_STM32L431_BearPi/Drivers/STM32L4xx_HAL_Driver/Src\stm32l4xx_hal_uart.c **** #if defined(USART_CR1_FIFOEN)
1732:D:/iot/felix2/targets/Cloud_STM32L431_BearPi/Drivers/STM32L4xx_HAL_Driver/Src\stm32l4xx_hal_uart.c ****   /* Disable TCIE, TXEIE and TXFTIE interrupts */
1733:D:/iot/felix2/targets/Cloud_STM32L431_BearPi/Drivers/STM32L4xx_HAL_Driver/Src\stm32l4xx_hal_uart.c ****   CLEAR_BIT(huart->Instance->CR1, (USART_CR1_TCIE | USART_CR1_TXEIE_TXFNFIE));
1734:D:/iot/felix2/targets/Cloud_STM32L431_BearPi/Drivers/STM32L4xx_HAL_Driver/Src\stm32l4xx_hal_uart.c ****   CLEAR_BIT(huart->Instance->CR3, USART_CR3_TXFTIE);
1735:D:/iot/felix2/targets/Cloud_STM32L431_BearPi/Drivers/STM32L4xx_HAL_Driver/Src\stm32l4xx_hal_uart.c **** #else
1736:D:/iot/felix2/targets/Cloud_STM32L431_BearPi/Drivers/STM32L4xx_HAL_Driver/Src\stm32l4xx_hal_uart.c ****   /* Disable TXEIE and TCIE interrupts */
1737:D:/iot/felix2/targets/Cloud_STM32L431_BearPi/Drivers/STM32L4xx_HAL_Driver/Src\stm32l4xx_hal_uart.c ****   CLEAR_BIT(huart->Instance->CR1, (USART_CR1_TXEIE | USART_CR1_TCIE));
 2433              		.loc 1 1737 0
 2434 0008 7B68     		ldr	r3, [r7, #4]
 2435 000a 1B68     		ldr	r3, [r3]
 2436 000c 1A68     		ldr	r2, [r3]
 2437 000e 7B68     		ldr	r3, [r7, #4]
 2438 0010 1B68     		ldr	r3, [r3]
 2439 0012 22F0C002 		bic	r2, r2, #192
 2440 0016 1A60     		str	r2, [r3]
1738:D:/iot/felix2/targets/Cloud_STM32L431_BearPi/Drivers/STM32L4xx_HAL_Driver/Src\stm32l4xx_hal_uart.c **** #endif
1739:D:/iot/felix2/targets/Cloud_STM32L431_BearPi/Drivers/STM32L4xx_HAL_Driver/Src\stm32l4xx_hal_uart.c **** 
1740:D:/iot/felix2/targets/Cloud_STM32L431_BearPi/Drivers/STM32L4xx_HAL_Driver/Src\stm32l4xx_hal_uart.c ****   /* Disable the UART DMA Tx request if enabled */
1741:D:/iot/felix2/targets/Cloud_STM32L431_BearPi/Drivers/STM32L4xx_HAL_Driver/Src\stm32l4xx_hal_uart.c ****   if (HAL_IS_BIT_SET(huart->Instance->CR3, USART_CR3_DMAT))
 2441              		.loc 1 1741 0
 2442 0018 7B68     		ldr	r3, [r7, #4]
 2443 001a 1B68     		ldr	r3, [r3]
 2444 001c 9B68     		ldr	r3, [r3, #8]
 2445 001e 03F08003 		and	r3, r3, #128
 2446 0022 802B     		cmp	r3, #128
 2447 0024 14D1     		bne	.L129
1742:D:/iot/felix2/targets/Cloud_STM32L431_BearPi/Drivers/STM32L4xx_HAL_Driver/Src\stm32l4xx_hal_uart.c ****   {
1743:D:/iot/felix2/targets/Cloud_STM32L431_BearPi/Drivers/STM32L4xx_HAL_Driver/Src\stm32l4xx_hal_uart.c ****     CLEAR_BIT(huart->Instance->CR3, USART_CR3_DMAT);
ARM GAS  C:\Users\91458\AppData\Local\Temp\ccrpKNIe.s 			page 74


 2448              		.loc 1 1743 0
 2449 0026 7B68     		ldr	r3, [r7, #4]
 2450 0028 1B68     		ldr	r3, [r3]
 2451 002a 9A68     		ldr	r2, [r3, #8]
 2452 002c 7B68     		ldr	r3, [r7, #4]
 2453 002e 1B68     		ldr	r3, [r3]
 2454 0030 22F08002 		bic	r2, r2, #128
 2455 0034 9A60     		str	r2, [r3, #8]
1744:D:/iot/felix2/targets/Cloud_STM32L431_BearPi/Drivers/STM32L4xx_HAL_Driver/Src\stm32l4xx_hal_uart.c **** 
1745:D:/iot/felix2/targets/Cloud_STM32L431_BearPi/Drivers/STM32L4xx_HAL_Driver/Src\stm32l4xx_hal_uart.c ****     /* Abort the UART DMA Tx channel : use blocking DMA Abort API (no callback) */
1746:D:/iot/felix2/targets/Cloud_STM32L431_BearPi/Drivers/STM32L4xx_HAL_Driver/Src\stm32l4xx_hal_uart.c ****     if (huart->hdmatx != NULL)
 2456              		.loc 1 1746 0
 2457 0036 7B68     		ldr	r3, [r7, #4]
 2458 0038 9B6E     		ldr	r3, [r3, #104]
 2459 003a 002B     		cmp	r3, #0
 2460 003c 08D0     		beq	.L129
1747:D:/iot/felix2/targets/Cloud_STM32L431_BearPi/Drivers/STM32L4xx_HAL_Driver/Src\stm32l4xx_hal_uart.c ****     {
1748:D:/iot/felix2/targets/Cloud_STM32L431_BearPi/Drivers/STM32L4xx_HAL_Driver/Src\stm32l4xx_hal_uart.c ****       /* Set the UART DMA Abort callback to Null.
1749:D:/iot/felix2/targets/Cloud_STM32L431_BearPi/Drivers/STM32L4xx_HAL_Driver/Src\stm32l4xx_hal_uart.c ****          No call back execution at end of DMA abort procedure */
1750:D:/iot/felix2/targets/Cloud_STM32L431_BearPi/Drivers/STM32L4xx_HAL_Driver/Src\stm32l4xx_hal_uart.c ****       huart->hdmatx->XferAbortCallback = NULL;
 2461              		.loc 1 1750 0
 2462 003e 7B68     		ldr	r3, [r7, #4]
 2463 0040 9B6E     		ldr	r3, [r3, #104]
 2464 0042 0022     		movs	r2, #0
 2465 0044 9A63     		str	r2, [r3, #56]
1751:D:/iot/felix2/targets/Cloud_STM32L431_BearPi/Drivers/STM32L4xx_HAL_Driver/Src\stm32l4xx_hal_uart.c **** 
1752:D:/iot/felix2/targets/Cloud_STM32L431_BearPi/Drivers/STM32L4xx_HAL_Driver/Src\stm32l4xx_hal_uart.c ****       HAL_DMA_Abort(huart->hdmatx);
 2466              		.loc 1 1752 0
 2467 0046 7B68     		ldr	r3, [r7, #4]
 2468 0048 9B6E     		ldr	r3, [r3, #104]
 2469 004a 1846     		mov	r0, r3
 2470 004c FFF7FEFF 		bl	HAL_DMA_Abort
 2471              	.L129:
1753:D:/iot/felix2/targets/Cloud_STM32L431_BearPi/Drivers/STM32L4xx_HAL_Driver/Src\stm32l4xx_hal_uart.c ****     }
1754:D:/iot/felix2/targets/Cloud_STM32L431_BearPi/Drivers/STM32L4xx_HAL_Driver/Src\stm32l4xx_hal_uart.c ****   }
1755:D:/iot/felix2/targets/Cloud_STM32L431_BearPi/Drivers/STM32L4xx_HAL_Driver/Src\stm32l4xx_hal_uart.c **** 
1756:D:/iot/felix2/targets/Cloud_STM32L431_BearPi/Drivers/STM32L4xx_HAL_Driver/Src\stm32l4xx_hal_uart.c ****   /* Reset Tx transfer counter */
1757:D:/iot/felix2/targets/Cloud_STM32L431_BearPi/Drivers/STM32L4xx_HAL_Driver/Src\stm32l4xx_hal_uart.c ****   huart->TxXferCount = 0U;
 2472              		.loc 1 1757 0
 2473 0050 7B68     		ldr	r3, [r7, #4]
 2474 0052 0022     		movs	r2, #0
 2475 0054 A3F85220 		strh	r2, [r3, #82]	@ movhi
1758:D:/iot/felix2/targets/Cloud_STM32L431_BearPi/Drivers/STM32L4xx_HAL_Driver/Src\stm32l4xx_hal_uart.c **** 
1759:D:/iot/felix2/targets/Cloud_STM32L431_BearPi/Drivers/STM32L4xx_HAL_Driver/Src\stm32l4xx_hal_uart.c **** #if defined(USART_CR1_FIFOEN)
1760:D:/iot/felix2/targets/Cloud_STM32L431_BearPi/Drivers/STM32L4xx_HAL_Driver/Src\stm32l4xx_hal_uart.c ****   /* Flush the whole TX FIFO (if needed) */
1761:D:/iot/felix2/targets/Cloud_STM32L431_BearPi/Drivers/STM32L4xx_HAL_Driver/Src\stm32l4xx_hal_uart.c ****   if (huart->FifoMode == UART_FIFOMODE_ENABLE)
1762:D:/iot/felix2/targets/Cloud_STM32L431_BearPi/Drivers/STM32L4xx_HAL_Driver/Src\stm32l4xx_hal_uart.c ****   {
1763:D:/iot/felix2/targets/Cloud_STM32L431_BearPi/Drivers/STM32L4xx_HAL_Driver/Src\stm32l4xx_hal_uart.c ****     __HAL_UART_SEND_REQ(huart, UART_TXDATA_FLUSH_REQUEST);
1764:D:/iot/felix2/targets/Cloud_STM32L431_BearPi/Drivers/STM32L4xx_HAL_Driver/Src\stm32l4xx_hal_uart.c ****   }
1765:D:/iot/felix2/targets/Cloud_STM32L431_BearPi/Drivers/STM32L4xx_HAL_Driver/Src\stm32l4xx_hal_uart.c **** #endif
1766:D:/iot/felix2/targets/Cloud_STM32L431_BearPi/Drivers/STM32L4xx_HAL_Driver/Src\stm32l4xx_hal_uart.c **** 
1767:D:/iot/felix2/targets/Cloud_STM32L431_BearPi/Drivers/STM32L4xx_HAL_Driver/Src\stm32l4xx_hal_uart.c ****   /* Restore huart->gState to Ready */
1768:D:/iot/felix2/targets/Cloud_STM32L431_BearPi/Drivers/STM32L4xx_HAL_Driver/Src\stm32l4xx_hal_uart.c ****   huart->gState = HAL_UART_STATE_READY;
 2476              		.loc 1 1768 0
 2477 0058 7B68     		ldr	r3, [r7, #4]
 2478 005a 2022     		movs	r2, #32
 2479 005c 83F87120 		strb	r2, [r3, #113]
ARM GAS  C:\Users\91458\AppData\Local\Temp\ccrpKNIe.s 			page 75


1769:D:/iot/felix2/targets/Cloud_STM32L431_BearPi/Drivers/STM32L4xx_HAL_Driver/Src\stm32l4xx_hal_uart.c **** 
1770:D:/iot/felix2/targets/Cloud_STM32L431_BearPi/Drivers/STM32L4xx_HAL_Driver/Src\stm32l4xx_hal_uart.c ****   return HAL_OK;
 2480              		.loc 1 1770 0
 2481 0060 0023     		movs	r3, #0
1771:D:/iot/felix2/targets/Cloud_STM32L431_BearPi/Drivers/STM32L4xx_HAL_Driver/Src\stm32l4xx_hal_uart.c **** }
 2482              		.loc 1 1771 0
 2483 0062 1846     		mov	r0, r3
 2484 0064 0837     		adds	r7, r7, #8
 2485              	.LCFI94:
 2486              		.cfi_def_cfa_offset 8
 2487 0066 BD46     		mov	sp, r7
 2488              	.LCFI95:
 2489              		.cfi_def_cfa_register 13
 2490              		@ sp needed
 2491 0068 80BD     		pop	{r7, pc}
 2492              		.cfi_endproc
 2493              	.LFE150:
 2495              		.section	.text.HAL_UART_AbortReceive,"ax",%progbits
 2496              		.align	1
 2497              		.global	HAL_UART_AbortReceive
 2498              		.syntax unified
 2499              		.thumb
 2500              		.thumb_func
 2501              		.fpu fpv4-sp-d16
 2503              	HAL_UART_AbortReceive:
 2504              	.LFB151:
1772:D:/iot/felix2/targets/Cloud_STM32L431_BearPi/Drivers/STM32L4xx_HAL_Driver/Src\stm32l4xx_hal_uart.c **** 
1773:D:/iot/felix2/targets/Cloud_STM32L431_BearPi/Drivers/STM32L4xx_HAL_Driver/Src\stm32l4xx_hal_uart.c **** /**
1774:D:/iot/felix2/targets/Cloud_STM32L431_BearPi/Drivers/STM32L4xx_HAL_Driver/Src\stm32l4xx_hal_uart.c ****   * @brief  Abort ongoing Receive transfer (blocking mode).
1775:D:/iot/felix2/targets/Cloud_STM32L431_BearPi/Drivers/STM32L4xx_HAL_Driver/Src\stm32l4xx_hal_uart.c ****   * @param  huart UART handle.
1776:D:/iot/felix2/targets/Cloud_STM32L431_BearPi/Drivers/STM32L4xx_HAL_Driver/Src\stm32l4xx_hal_uart.c ****   * @note   This procedure could be used for aborting any ongoing Rx transfer started in Interrupt 
1777:D:/iot/felix2/targets/Cloud_STM32L431_BearPi/Drivers/STM32L4xx_HAL_Driver/Src\stm32l4xx_hal_uart.c ****   *         This procedure performs following operations :
1778:D:/iot/felix2/targets/Cloud_STM32L431_BearPi/Drivers/STM32L4xx_HAL_Driver/Src\stm32l4xx_hal_uart.c ****   *           - Disable UART Interrupts (Rx)
1779:D:/iot/felix2/targets/Cloud_STM32L431_BearPi/Drivers/STM32L4xx_HAL_Driver/Src\stm32l4xx_hal_uart.c ****   *           - Disable the DMA transfer in the peripheral register (if enabled)
1780:D:/iot/felix2/targets/Cloud_STM32L431_BearPi/Drivers/STM32L4xx_HAL_Driver/Src\stm32l4xx_hal_uart.c ****   *           - Abort DMA transfer by calling HAL_DMA_Abort (in case of transfer in DMA mode)
1781:D:/iot/felix2/targets/Cloud_STM32L431_BearPi/Drivers/STM32L4xx_HAL_Driver/Src\stm32l4xx_hal_uart.c ****   *           - Set handle State to READY
1782:D:/iot/felix2/targets/Cloud_STM32L431_BearPi/Drivers/STM32L4xx_HAL_Driver/Src\stm32l4xx_hal_uart.c ****   * @note   This procedure is executed in blocking mode : when exiting function, Abort is considere
1783:D:/iot/felix2/targets/Cloud_STM32L431_BearPi/Drivers/STM32L4xx_HAL_Driver/Src\stm32l4xx_hal_uart.c ****   * @retval HAL status
1784:D:/iot/felix2/targets/Cloud_STM32L431_BearPi/Drivers/STM32L4xx_HAL_Driver/Src\stm32l4xx_hal_uart.c **** */
1785:D:/iot/felix2/targets/Cloud_STM32L431_BearPi/Drivers/STM32L4xx_HAL_Driver/Src\stm32l4xx_hal_uart.c **** HAL_StatusTypeDef HAL_UART_AbortReceive(UART_HandleTypeDef *huart)
1786:D:/iot/felix2/targets/Cloud_STM32L431_BearPi/Drivers/STM32L4xx_HAL_Driver/Src\stm32l4xx_hal_uart.c **** {
 2505              		.loc 1 1786 0
 2506              		.cfi_startproc
 2507              		@ args = 0, pretend = 0, frame = 8
 2508              		@ frame_needed = 1, uses_anonymous_args = 0
 2509 0000 80B5     		push	{r7, lr}
 2510              	.LCFI96:
 2511              		.cfi_def_cfa_offset 8
 2512              		.cfi_offset 7, -8
 2513              		.cfi_offset 14, -4
 2514 0002 82B0     		sub	sp, sp, #8
 2515              	.LCFI97:
 2516              		.cfi_def_cfa_offset 16
 2517 0004 00AF     		add	r7, sp, #0
 2518              	.LCFI98:
 2519              		.cfi_def_cfa_register 7
 2520 0006 7860     		str	r0, [r7, #4]
ARM GAS  C:\Users\91458\AppData\Local\Temp\ccrpKNIe.s 			page 76


1787:D:/iot/felix2/targets/Cloud_STM32L431_BearPi/Drivers/STM32L4xx_HAL_Driver/Src\stm32l4xx_hal_uart.c **** #if defined(USART_CR1_FIFOEN)
1788:D:/iot/felix2/targets/Cloud_STM32L431_BearPi/Drivers/STM32L4xx_HAL_Driver/Src\stm32l4xx_hal_uart.c ****   /* Disable PEIE, EIE, RXNEIE and RXFTIE interrupts */
1789:D:/iot/felix2/targets/Cloud_STM32L431_BearPi/Drivers/STM32L4xx_HAL_Driver/Src\stm32l4xx_hal_uart.c ****   CLEAR_BIT(huart->Instance->CR1, (USART_CR1_PEIE | USART_CR1_RXNEIE_RXFNEIE));
1790:D:/iot/felix2/targets/Cloud_STM32L431_BearPi/Drivers/STM32L4xx_HAL_Driver/Src\stm32l4xx_hal_uart.c ****   CLEAR_BIT(huart->Instance->CR3, USART_CR3_EIE | USART_CR3_RXFTIE);
1791:D:/iot/felix2/targets/Cloud_STM32L431_BearPi/Drivers/STM32L4xx_HAL_Driver/Src\stm32l4xx_hal_uart.c **** #else
1792:D:/iot/felix2/targets/Cloud_STM32L431_BearPi/Drivers/STM32L4xx_HAL_Driver/Src\stm32l4xx_hal_uart.c ****   /* Disable RXNE, PE and ERR (Frame error, noise error, overrun error) interrupts */
1793:D:/iot/felix2/targets/Cloud_STM32L431_BearPi/Drivers/STM32L4xx_HAL_Driver/Src\stm32l4xx_hal_uart.c ****   CLEAR_BIT(huart->Instance->CR1, (USART_CR1_RXNEIE | USART_CR1_PEIE));
 2521              		.loc 1 1793 0
 2522 0008 7B68     		ldr	r3, [r7, #4]
 2523 000a 1B68     		ldr	r3, [r3]
 2524 000c 1A68     		ldr	r2, [r3]
 2525 000e 7B68     		ldr	r3, [r7, #4]
 2526 0010 1B68     		ldr	r3, [r3]
 2527 0012 22F49072 		bic	r2, r2, #288
 2528 0016 1A60     		str	r2, [r3]
1794:D:/iot/felix2/targets/Cloud_STM32L431_BearPi/Drivers/STM32L4xx_HAL_Driver/Src\stm32l4xx_hal_uart.c ****   CLEAR_BIT(huart->Instance->CR3, USART_CR3_EIE);
 2529              		.loc 1 1794 0
 2530 0018 7B68     		ldr	r3, [r7, #4]
 2531 001a 1B68     		ldr	r3, [r3]
 2532 001c 9A68     		ldr	r2, [r3, #8]
 2533 001e 7B68     		ldr	r3, [r7, #4]
 2534 0020 1B68     		ldr	r3, [r3]
 2535 0022 22F00102 		bic	r2, r2, #1
 2536 0026 9A60     		str	r2, [r3, #8]
1795:D:/iot/felix2/targets/Cloud_STM32L431_BearPi/Drivers/STM32L4xx_HAL_Driver/Src\stm32l4xx_hal_uart.c **** #endif
1796:D:/iot/felix2/targets/Cloud_STM32L431_BearPi/Drivers/STM32L4xx_HAL_Driver/Src\stm32l4xx_hal_uart.c **** 
1797:D:/iot/felix2/targets/Cloud_STM32L431_BearPi/Drivers/STM32L4xx_HAL_Driver/Src\stm32l4xx_hal_uart.c ****   /* Disable the UART DMA Rx request if enabled */
1798:D:/iot/felix2/targets/Cloud_STM32L431_BearPi/Drivers/STM32L4xx_HAL_Driver/Src\stm32l4xx_hal_uart.c ****   if (HAL_IS_BIT_SET(huart->Instance->CR3, USART_CR3_DMAR))
 2537              		.loc 1 1798 0
 2538 0028 7B68     		ldr	r3, [r7, #4]
 2539 002a 1B68     		ldr	r3, [r3]
 2540 002c 9B68     		ldr	r3, [r3, #8]
 2541 002e 03F04003 		and	r3, r3, #64
 2542 0032 402B     		cmp	r3, #64
 2543 0034 14D1     		bne	.L132
1799:D:/iot/felix2/targets/Cloud_STM32L431_BearPi/Drivers/STM32L4xx_HAL_Driver/Src\stm32l4xx_hal_uart.c ****   {
1800:D:/iot/felix2/targets/Cloud_STM32L431_BearPi/Drivers/STM32L4xx_HAL_Driver/Src\stm32l4xx_hal_uart.c ****     CLEAR_BIT(huart->Instance->CR3, USART_CR3_DMAR);
 2544              		.loc 1 1800 0
 2545 0036 7B68     		ldr	r3, [r7, #4]
 2546 0038 1B68     		ldr	r3, [r3]
 2547 003a 9A68     		ldr	r2, [r3, #8]
 2548 003c 7B68     		ldr	r3, [r7, #4]
 2549 003e 1B68     		ldr	r3, [r3]
 2550 0040 22F04002 		bic	r2, r2, #64
 2551 0044 9A60     		str	r2, [r3, #8]
1801:D:/iot/felix2/targets/Cloud_STM32L431_BearPi/Drivers/STM32L4xx_HAL_Driver/Src\stm32l4xx_hal_uart.c **** 
1802:D:/iot/felix2/targets/Cloud_STM32L431_BearPi/Drivers/STM32L4xx_HAL_Driver/Src\stm32l4xx_hal_uart.c ****     /* Abort the UART DMA Rx channel : use blocking DMA Abort API (no callback) */
1803:D:/iot/felix2/targets/Cloud_STM32L431_BearPi/Drivers/STM32L4xx_HAL_Driver/Src\stm32l4xx_hal_uart.c ****     if (huart->hdmarx != NULL)
 2552              		.loc 1 1803 0
 2553 0046 7B68     		ldr	r3, [r7, #4]
 2554 0048 DB6E     		ldr	r3, [r3, #108]
 2555 004a 002B     		cmp	r3, #0
 2556 004c 08D0     		beq	.L132
1804:D:/iot/felix2/targets/Cloud_STM32L431_BearPi/Drivers/STM32L4xx_HAL_Driver/Src\stm32l4xx_hal_uart.c ****     {
1805:D:/iot/felix2/targets/Cloud_STM32L431_BearPi/Drivers/STM32L4xx_HAL_Driver/Src\stm32l4xx_hal_uart.c ****       /* Set the UART DMA Abort callback to Null.
1806:D:/iot/felix2/targets/Cloud_STM32L431_BearPi/Drivers/STM32L4xx_HAL_Driver/Src\stm32l4xx_hal_uart.c ****          No call back execution at end of DMA abort procedure */
1807:D:/iot/felix2/targets/Cloud_STM32L431_BearPi/Drivers/STM32L4xx_HAL_Driver/Src\stm32l4xx_hal_uart.c ****       huart->hdmarx->XferAbortCallback = NULL;
ARM GAS  C:\Users\91458\AppData\Local\Temp\ccrpKNIe.s 			page 77


 2557              		.loc 1 1807 0
 2558 004e 7B68     		ldr	r3, [r7, #4]
 2559 0050 DB6E     		ldr	r3, [r3, #108]
 2560 0052 0022     		movs	r2, #0
 2561 0054 9A63     		str	r2, [r3, #56]
1808:D:/iot/felix2/targets/Cloud_STM32L431_BearPi/Drivers/STM32L4xx_HAL_Driver/Src\stm32l4xx_hal_uart.c **** 
1809:D:/iot/felix2/targets/Cloud_STM32L431_BearPi/Drivers/STM32L4xx_HAL_Driver/Src\stm32l4xx_hal_uart.c ****       HAL_DMA_Abort(huart->hdmarx);
 2562              		.loc 1 1809 0
 2563 0056 7B68     		ldr	r3, [r7, #4]
 2564 0058 DB6E     		ldr	r3, [r3, #108]
 2565 005a 1846     		mov	r0, r3
 2566 005c FFF7FEFF 		bl	HAL_DMA_Abort
 2567              	.L132:
1810:D:/iot/felix2/targets/Cloud_STM32L431_BearPi/Drivers/STM32L4xx_HAL_Driver/Src\stm32l4xx_hal_uart.c ****     }
1811:D:/iot/felix2/targets/Cloud_STM32L431_BearPi/Drivers/STM32L4xx_HAL_Driver/Src\stm32l4xx_hal_uart.c ****   }
1812:D:/iot/felix2/targets/Cloud_STM32L431_BearPi/Drivers/STM32L4xx_HAL_Driver/Src\stm32l4xx_hal_uart.c **** 
1813:D:/iot/felix2/targets/Cloud_STM32L431_BearPi/Drivers/STM32L4xx_HAL_Driver/Src\stm32l4xx_hal_uart.c ****   /* Reset Rx transfer counter */
1814:D:/iot/felix2/targets/Cloud_STM32L431_BearPi/Drivers/STM32L4xx_HAL_Driver/Src\stm32l4xx_hal_uart.c ****   huart->RxXferCount = 0U;
 2568              		.loc 1 1814 0
 2569 0060 7B68     		ldr	r3, [r7, #4]
 2570 0062 0022     		movs	r2, #0
 2571 0064 A3F85A20 		strh	r2, [r3, #90]	@ movhi
1815:D:/iot/felix2/targets/Cloud_STM32L431_BearPi/Drivers/STM32L4xx_HAL_Driver/Src\stm32l4xx_hal_uart.c **** 
1816:D:/iot/felix2/targets/Cloud_STM32L431_BearPi/Drivers/STM32L4xx_HAL_Driver/Src\stm32l4xx_hal_uart.c ****   /* Clear the Error flags in the ICR register */
1817:D:/iot/felix2/targets/Cloud_STM32L431_BearPi/Drivers/STM32L4xx_HAL_Driver/Src\stm32l4xx_hal_uart.c ****   __HAL_UART_CLEAR_FLAG(huart, UART_CLEAR_OREF | UART_CLEAR_NEF | UART_CLEAR_PEF | UART_CLEAR_FEF);
 2572              		.loc 1 1817 0
 2573 0068 7B68     		ldr	r3, [r7, #4]
 2574 006a 1B68     		ldr	r3, [r3]
 2575 006c 0F22     		movs	r2, #15
 2576 006e 1A62     		str	r2, [r3, #32]
1818:D:/iot/felix2/targets/Cloud_STM32L431_BearPi/Drivers/STM32L4xx_HAL_Driver/Src\stm32l4xx_hal_uart.c **** 
1819:D:/iot/felix2/targets/Cloud_STM32L431_BearPi/Drivers/STM32L4xx_HAL_Driver/Src\stm32l4xx_hal_uart.c ****   /* Discard the received data */
1820:D:/iot/felix2/targets/Cloud_STM32L431_BearPi/Drivers/STM32L4xx_HAL_Driver/Src\stm32l4xx_hal_uart.c ****   __HAL_UART_SEND_REQ(huart, UART_RXDATA_FLUSH_REQUEST);
 2577              		.loc 1 1820 0
 2578 0070 7B68     		ldr	r3, [r7, #4]
 2579 0072 1B68     		ldr	r3, [r3]
 2580 0074 1B8B     		ldrh	r3, [r3, #24]	@ movhi
 2581 0076 9AB2     		uxth	r2, r3
 2582 0078 7B68     		ldr	r3, [r7, #4]
 2583 007a 1B68     		ldr	r3, [r3]
 2584 007c 42F00802 		orr	r2, r2, #8
 2585 0080 92B2     		uxth	r2, r2
 2586 0082 1A83     		strh	r2, [r3, #24]	@ movhi
1821:D:/iot/felix2/targets/Cloud_STM32L431_BearPi/Drivers/STM32L4xx_HAL_Driver/Src\stm32l4xx_hal_uart.c **** 
1822:D:/iot/felix2/targets/Cloud_STM32L431_BearPi/Drivers/STM32L4xx_HAL_Driver/Src\stm32l4xx_hal_uart.c ****   /* Restore huart->RxState to Ready */
1823:D:/iot/felix2/targets/Cloud_STM32L431_BearPi/Drivers/STM32L4xx_HAL_Driver/Src\stm32l4xx_hal_uart.c ****   huart->RxState = HAL_UART_STATE_READY;
 2587              		.loc 1 1823 0
 2588 0084 7B68     		ldr	r3, [r7, #4]
 2589 0086 2022     		movs	r2, #32
 2590 0088 83F87220 		strb	r2, [r3, #114]
1824:D:/iot/felix2/targets/Cloud_STM32L431_BearPi/Drivers/STM32L4xx_HAL_Driver/Src\stm32l4xx_hal_uart.c **** 
1825:D:/iot/felix2/targets/Cloud_STM32L431_BearPi/Drivers/STM32L4xx_HAL_Driver/Src\stm32l4xx_hal_uart.c ****   return HAL_OK;
 2591              		.loc 1 1825 0
 2592 008c 0023     		movs	r3, #0
1826:D:/iot/felix2/targets/Cloud_STM32L431_BearPi/Drivers/STM32L4xx_HAL_Driver/Src\stm32l4xx_hal_uart.c **** }
 2593              		.loc 1 1826 0
 2594 008e 1846     		mov	r0, r3
ARM GAS  C:\Users\91458\AppData\Local\Temp\ccrpKNIe.s 			page 78


 2595 0090 0837     		adds	r7, r7, #8
 2596              	.LCFI99:
 2597              		.cfi_def_cfa_offset 8
 2598 0092 BD46     		mov	sp, r7
 2599              	.LCFI100:
 2600              		.cfi_def_cfa_register 13
 2601              		@ sp needed
 2602 0094 80BD     		pop	{r7, pc}
 2603              		.cfi_endproc
 2604              	.LFE151:
 2606              		.section	.text.HAL_UART_Abort_IT,"ax",%progbits
 2607              		.align	1
 2608              		.global	HAL_UART_Abort_IT
 2609              		.syntax unified
 2610              		.thumb
 2611              		.thumb_func
 2612              		.fpu fpv4-sp-d16
 2614              	HAL_UART_Abort_IT:
 2615              	.LFB152:
1827:D:/iot/felix2/targets/Cloud_STM32L431_BearPi/Drivers/STM32L4xx_HAL_Driver/Src\stm32l4xx_hal_uart.c **** 
1828:D:/iot/felix2/targets/Cloud_STM32L431_BearPi/Drivers/STM32L4xx_HAL_Driver/Src\stm32l4xx_hal_uart.c **** /**
1829:D:/iot/felix2/targets/Cloud_STM32L431_BearPi/Drivers/STM32L4xx_HAL_Driver/Src\stm32l4xx_hal_uart.c ****   * @brief  Abort ongoing transfers (Interrupt mode).
1830:D:/iot/felix2/targets/Cloud_STM32L431_BearPi/Drivers/STM32L4xx_HAL_Driver/Src\stm32l4xx_hal_uart.c ****   * @param  huart UART handle.
1831:D:/iot/felix2/targets/Cloud_STM32L431_BearPi/Drivers/STM32L4xx_HAL_Driver/Src\stm32l4xx_hal_uart.c ****   * @note   This procedure could be used for aborting any ongoing transfer started in Interrupt or 
1832:D:/iot/felix2/targets/Cloud_STM32L431_BearPi/Drivers/STM32L4xx_HAL_Driver/Src\stm32l4xx_hal_uart.c ****   *         This procedure performs following operations :
1833:D:/iot/felix2/targets/Cloud_STM32L431_BearPi/Drivers/STM32L4xx_HAL_Driver/Src\stm32l4xx_hal_uart.c ****   *           - Disable UART Interrupts (Tx and Rx)
1834:D:/iot/felix2/targets/Cloud_STM32L431_BearPi/Drivers/STM32L4xx_HAL_Driver/Src\stm32l4xx_hal_uart.c ****   *           - Disable the DMA transfer in the peripheral register (if enabled)
1835:D:/iot/felix2/targets/Cloud_STM32L431_BearPi/Drivers/STM32L4xx_HAL_Driver/Src\stm32l4xx_hal_uart.c ****   *           - Abort DMA transfer by calling HAL_DMA_Abort_IT (in case of transfer in DMA mode)
1836:D:/iot/felix2/targets/Cloud_STM32L431_BearPi/Drivers/STM32L4xx_HAL_Driver/Src\stm32l4xx_hal_uart.c ****   *           - Set handle State to READY
1837:D:/iot/felix2/targets/Cloud_STM32L431_BearPi/Drivers/STM32L4xx_HAL_Driver/Src\stm32l4xx_hal_uart.c ****   *           - At abort completion, call user abort complete callback
1838:D:/iot/felix2/targets/Cloud_STM32L431_BearPi/Drivers/STM32L4xx_HAL_Driver/Src\stm32l4xx_hal_uart.c ****   * @note   This procedure is executed in Interrupt mode, meaning that abort procedure could be
1839:D:/iot/felix2/targets/Cloud_STM32L431_BearPi/Drivers/STM32L4xx_HAL_Driver/Src\stm32l4xx_hal_uart.c ****   *         considered as completed only when user abort complete callback is executed (not when ex
1840:D:/iot/felix2/targets/Cloud_STM32L431_BearPi/Drivers/STM32L4xx_HAL_Driver/Src\stm32l4xx_hal_uart.c ****   * @retval HAL status
1841:D:/iot/felix2/targets/Cloud_STM32L431_BearPi/Drivers/STM32L4xx_HAL_Driver/Src\stm32l4xx_hal_uart.c **** */
1842:D:/iot/felix2/targets/Cloud_STM32L431_BearPi/Drivers/STM32L4xx_HAL_Driver/Src\stm32l4xx_hal_uart.c **** HAL_StatusTypeDef HAL_UART_Abort_IT(UART_HandleTypeDef *huart)
1843:D:/iot/felix2/targets/Cloud_STM32L431_BearPi/Drivers/STM32L4xx_HAL_Driver/Src\stm32l4xx_hal_uart.c **** {
 2616              		.loc 1 1843 0
 2617              		.cfi_startproc
 2618              		@ args = 0, pretend = 0, frame = 16
 2619              		@ frame_needed = 1, uses_anonymous_args = 0
 2620 0000 80B5     		push	{r7, lr}
 2621              	.LCFI101:
 2622              		.cfi_def_cfa_offset 8
 2623              		.cfi_offset 7, -8
 2624              		.cfi_offset 14, -4
 2625 0002 84B0     		sub	sp, sp, #16
 2626              	.LCFI102:
 2627              		.cfi_def_cfa_offset 24
 2628 0004 00AF     		add	r7, sp, #0
 2629              	.LCFI103:
 2630              		.cfi_def_cfa_register 7
 2631 0006 7860     		str	r0, [r7, #4]
1844:D:/iot/felix2/targets/Cloud_STM32L431_BearPi/Drivers/STM32L4xx_HAL_Driver/Src\stm32l4xx_hal_uart.c ****   uint32_t abortcplt = 1U;
 2632              		.loc 1 1844 0
 2633 0008 0123     		movs	r3, #1
 2634 000a FB60     		str	r3, [r7, #12]
1845:D:/iot/felix2/targets/Cloud_STM32L431_BearPi/Drivers/STM32L4xx_HAL_Driver/Src\stm32l4xx_hal_uart.c **** 
ARM GAS  C:\Users\91458\AppData\Local\Temp\ccrpKNIe.s 			page 79


1846:D:/iot/felix2/targets/Cloud_STM32L431_BearPi/Drivers/STM32L4xx_HAL_Driver/Src\stm32l4xx_hal_uart.c ****   /* Disable interrupts */
1847:D:/iot/felix2/targets/Cloud_STM32L431_BearPi/Drivers/STM32L4xx_HAL_Driver/Src\stm32l4xx_hal_uart.c **** #if defined(USART_CR1_FIFOEN)
1848:D:/iot/felix2/targets/Cloud_STM32L431_BearPi/Drivers/STM32L4xx_HAL_Driver/Src\stm32l4xx_hal_uart.c ****   CLEAR_BIT(huart->Instance->CR1, (USART_CR1_PEIE | USART_CR1_TCIE | USART_CR1_RXNEIE_RXFNEIE | USA
1849:D:/iot/felix2/targets/Cloud_STM32L431_BearPi/Drivers/STM32L4xx_HAL_Driver/Src\stm32l4xx_hal_uart.c ****   CLEAR_BIT(huart->Instance->CR3, (USART_CR3_EIE | USART_CR3_RXFTIE | USART_CR3_TXFTIE));
1850:D:/iot/felix2/targets/Cloud_STM32L431_BearPi/Drivers/STM32L4xx_HAL_Driver/Src\stm32l4xx_hal_uart.c **** #else
1851:D:/iot/felix2/targets/Cloud_STM32L431_BearPi/Drivers/STM32L4xx_HAL_Driver/Src\stm32l4xx_hal_uart.c ****   CLEAR_BIT(huart->Instance->CR1, (USART_CR1_RXNEIE | USART_CR1_PEIE | USART_CR1_TXEIE | USART_CR1_
 2635              		.loc 1 1851 0
 2636 000c 7B68     		ldr	r3, [r7, #4]
 2637 000e 1B68     		ldr	r3, [r3]
 2638 0010 1A68     		ldr	r2, [r3]
 2639 0012 7B68     		ldr	r3, [r7, #4]
 2640 0014 1B68     		ldr	r3, [r3]
 2641 0016 22F4F072 		bic	r2, r2, #480
 2642 001a 1A60     		str	r2, [r3]
1852:D:/iot/felix2/targets/Cloud_STM32L431_BearPi/Drivers/STM32L4xx_HAL_Driver/Src\stm32l4xx_hal_uart.c ****   CLEAR_BIT(huart->Instance->CR3, USART_CR3_EIE);
 2643              		.loc 1 1852 0
 2644 001c 7B68     		ldr	r3, [r7, #4]
 2645 001e 1B68     		ldr	r3, [r3]
 2646 0020 9A68     		ldr	r2, [r3, #8]
 2647 0022 7B68     		ldr	r3, [r7, #4]
 2648 0024 1B68     		ldr	r3, [r3]
 2649 0026 22F00102 		bic	r2, r2, #1
 2650 002a 9A60     		str	r2, [r3, #8]
1853:D:/iot/felix2/targets/Cloud_STM32L431_BearPi/Drivers/STM32L4xx_HAL_Driver/Src\stm32l4xx_hal_uart.c **** #endif
1854:D:/iot/felix2/targets/Cloud_STM32L431_BearPi/Drivers/STM32L4xx_HAL_Driver/Src\stm32l4xx_hal_uart.c **** 
1855:D:/iot/felix2/targets/Cloud_STM32L431_BearPi/Drivers/STM32L4xx_HAL_Driver/Src\stm32l4xx_hal_uart.c ****   /* If DMA Tx and/or DMA Rx Handles are associated to UART Handle, DMA Abort complete callbacks sh
1856:D:/iot/felix2/targets/Cloud_STM32L431_BearPi/Drivers/STM32L4xx_HAL_Driver/Src\stm32l4xx_hal_uart.c ****      before any call to DMA Abort functions */
1857:D:/iot/felix2/targets/Cloud_STM32L431_BearPi/Drivers/STM32L4xx_HAL_Driver/Src\stm32l4xx_hal_uart.c ****   /* DMA Tx Handle is valid */
1858:D:/iot/felix2/targets/Cloud_STM32L431_BearPi/Drivers/STM32L4xx_HAL_Driver/Src\stm32l4xx_hal_uart.c ****   if (huart->hdmatx != NULL)
 2651              		.loc 1 1858 0
 2652 002c 7B68     		ldr	r3, [r7, #4]
 2653 002e 9B6E     		ldr	r3, [r3, #104]
 2654 0030 002B     		cmp	r3, #0
 2655 0032 0FD0     		beq	.L135
1859:D:/iot/felix2/targets/Cloud_STM32L431_BearPi/Drivers/STM32L4xx_HAL_Driver/Src\stm32l4xx_hal_uart.c ****   {
1860:D:/iot/felix2/targets/Cloud_STM32L431_BearPi/Drivers/STM32L4xx_HAL_Driver/Src\stm32l4xx_hal_uart.c ****     /* Set DMA Abort Complete callback if UART DMA Tx request if enabled.
1861:D:/iot/felix2/targets/Cloud_STM32L431_BearPi/Drivers/STM32L4xx_HAL_Driver/Src\stm32l4xx_hal_uart.c ****        Otherwise, set it to NULL */
1862:D:/iot/felix2/targets/Cloud_STM32L431_BearPi/Drivers/STM32L4xx_HAL_Driver/Src\stm32l4xx_hal_uart.c ****     if (HAL_IS_BIT_SET(huart->Instance->CR3, USART_CR3_DMAT))
 2656              		.loc 1 1862 0
 2657 0034 7B68     		ldr	r3, [r7, #4]
 2658 0036 1B68     		ldr	r3, [r3]
 2659 0038 9B68     		ldr	r3, [r3, #8]
 2660 003a 03F08003 		and	r3, r3, #128
 2661 003e 802B     		cmp	r3, #128
 2662 0040 04D1     		bne	.L136
1863:D:/iot/felix2/targets/Cloud_STM32L431_BearPi/Drivers/STM32L4xx_HAL_Driver/Src\stm32l4xx_hal_uart.c ****     {
1864:D:/iot/felix2/targets/Cloud_STM32L431_BearPi/Drivers/STM32L4xx_HAL_Driver/Src\stm32l4xx_hal_uart.c ****       huart->hdmatx->XferAbortCallback = UART_DMATxAbortCallback;
 2663              		.loc 1 1864 0
 2664 0042 7B68     		ldr	r3, [r7, #4]
 2665 0044 9B6E     		ldr	r3, [r3, #104]
 2666 0046 494A     		ldr	r2, .L145
 2667 0048 9A63     		str	r2, [r3, #56]
 2668 004a 03E0     		b	.L135
 2669              	.L136:
1865:D:/iot/felix2/targets/Cloud_STM32L431_BearPi/Drivers/STM32L4xx_HAL_Driver/Src\stm32l4xx_hal_uart.c ****     }
1866:D:/iot/felix2/targets/Cloud_STM32L431_BearPi/Drivers/STM32L4xx_HAL_Driver/Src\stm32l4xx_hal_uart.c ****     else
1867:D:/iot/felix2/targets/Cloud_STM32L431_BearPi/Drivers/STM32L4xx_HAL_Driver/Src\stm32l4xx_hal_uart.c ****     {
ARM GAS  C:\Users\91458\AppData\Local\Temp\ccrpKNIe.s 			page 80


1868:D:/iot/felix2/targets/Cloud_STM32L431_BearPi/Drivers/STM32L4xx_HAL_Driver/Src\stm32l4xx_hal_uart.c ****       huart->hdmatx->XferAbortCallback = NULL;
 2670              		.loc 1 1868 0
 2671 004c 7B68     		ldr	r3, [r7, #4]
 2672 004e 9B6E     		ldr	r3, [r3, #104]
 2673 0050 0022     		movs	r2, #0
 2674 0052 9A63     		str	r2, [r3, #56]
 2675              	.L135:
1869:D:/iot/felix2/targets/Cloud_STM32L431_BearPi/Drivers/STM32L4xx_HAL_Driver/Src\stm32l4xx_hal_uart.c ****     }
1870:D:/iot/felix2/targets/Cloud_STM32L431_BearPi/Drivers/STM32L4xx_HAL_Driver/Src\stm32l4xx_hal_uart.c ****   }
1871:D:/iot/felix2/targets/Cloud_STM32L431_BearPi/Drivers/STM32L4xx_HAL_Driver/Src\stm32l4xx_hal_uart.c ****   /* DMA Rx Handle is valid */
1872:D:/iot/felix2/targets/Cloud_STM32L431_BearPi/Drivers/STM32L4xx_HAL_Driver/Src\stm32l4xx_hal_uart.c ****   if (huart->hdmarx != NULL)
 2676              		.loc 1 1872 0
 2677 0054 7B68     		ldr	r3, [r7, #4]
 2678 0056 DB6E     		ldr	r3, [r3, #108]
 2679 0058 002B     		cmp	r3, #0
 2680 005a 0FD0     		beq	.L137
1873:D:/iot/felix2/targets/Cloud_STM32L431_BearPi/Drivers/STM32L4xx_HAL_Driver/Src\stm32l4xx_hal_uart.c ****   {
1874:D:/iot/felix2/targets/Cloud_STM32L431_BearPi/Drivers/STM32L4xx_HAL_Driver/Src\stm32l4xx_hal_uart.c ****     /* Set DMA Abort Complete callback if UART DMA Rx request if enabled.
1875:D:/iot/felix2/targets/Cloud_STM32L431_BearPi/Drivers/STM32L4xx_HAL_Driver/Src\stm32l4xx_hal_uart.c ****        Otherwise, set it to NULL */
1876:D:/iot/felix2/targets/Cloud_STM32L431_BearPi/Drivers/STM32L4xx_HAL_Driver/Src\stm32l4xx_hal_uart.c ****     if (HAL_IS_BIT_SET(huart->Instance->CR3, USART_CR3_DMAR))
 2681              		.loc 1 1876 0
 2682 005c 7B68     		ldr	r3, [r7, #4]
 2683 005e 1B68     		ldr	r3, [r3]
 2684 0060 9B68     		ldr	r3, [r3, #8]
 2685 0062 03F04003 		and	r3, r3, #64
 2686 0066 402B     		cmp	r3, #64
 2687 0068 04D1     		bne	.L138
1877:D:/iot/felix2/targets/Cloud_STM32L431_BearPi/Drivers/STM32L4xx_HAL_Driver/Src\stm32l4xx_hal_uart.c ****     {
1878:D:/iot/felix2/targets/Cloud_STM32L431_BearPi/Drivers/STM32L4xx_HAL_Driver/Src\stm32l4xx_hal_uart.c ****       huart->hdmarx->XferAbortCallback = UART_DMARxAbortCallback;
 2688              		.loc 1 1878 0
 2689 006a 7B68     		ldr	r3, [r7, #4]
 2690 006c DB6E     		ldr	r3, [r3, #108]
 2691 006e 404A     		ldr	r2, .L145+4
 2692 0070 9A63     		str	r2, [r3, #56]
 2693 0072 03E0     		b	.L137
 2694              	.L138:
1879:D:/iot/felix2/targets/Cloud_STM32L431_BearPi/Drivers/STM32L4xx_HAL_Driver/Src\stm32l4xx_hal_uart.c ****     }
1880:D:/iot/felix2/targets/Cloud_STM32L431_BearPi/Drivers/STM32L4xx_HAL_Driver/Src\stm32l4xx_hal_uart.c ****     else
1881:D:/iot/felix2/targets/Cloud_STM32L431_BearPi/Drivers/STM32L4xx_HAL_Driver/Src\stm32l4xx_hal_uart.c ****     {
1882:D:/iot/felix2/targets/Cloud_STM32L431_BearPi/Drivers/STM32L4xx_HAL_Driver/Src\stm32l4xx_hal_uart.c ****       huart->hdmarx->XferAbortCallback = NULL;
 2695              		.loc 1 1882 0
 2696 0074 7B68     		ldr	r3, [r7, #4]
 2697 0076 DB6E     		ldr	r3, [r3, #108]
 2698 0078 0022     		movs	r2, #0
 2699 007a 9A63     		str	r2, [r3, #56]
 2700              	.L137:
1883:D:/iot/felix2/targets/Cloud_STM32L431_BearPi/Drivers/STM32L4xx_HAL_Driver/Src\stm32l4xx_hal_uart.c ****     }
1884:D:/iot/felix2/targets/Cloud_STM32L431_BearPi/Drivers/STM32L4xx_HAL_Driver/Src\stm32l4xx_hal_uart.c ****   }
1885:D:/iot/felix2/targets/Cloud_STM32L431_BearPi/Drivers/STM32L4xx_HAL_Driver/Src\stm32l4xx_hal_uart.c **** 
1886:D:/iot/felix2/targets/Cloud_STM32L431_BearPi/Drivers/STM32L4xx_HAL_Driver/Src\stm32l4xx_hal_uart.c ****   /* Disable the UART DMA Tx request if enabled */
1887:D:/iot/felix2/targets/Cloud_STM32L431_BearPi/Drivers/STM32L4xx_HAL_Driver/Src\stm32l4xx_hal_uart.c ****   if (HAL_IS_BIT_SET(huart->Instance->CR3, USART_CR3_DMAT))
 2701              		.loc 1 1887 0
 2702 007c 7B68     		ldr	r3, [r7, #4]
 2703 007e 1B68     		ldr	r3, [r3]
 2704 0080 9B68     		ldr	r3, [r3, #8]
 2705 0082 03F08003 		and	r3, r3, #128
 2706 0086 802B     		cmp	r3, #128
ARM GAS  C:\Users\91458\AppData\Local\Temp\ccrpKNIe.s 			page 81


 2707 0088 1AD1     		bne	.L139
1888:D:/iot/felix2/targets/Cloud_STM32L431_BearPi/Drivers/STM32L4xx_HAL_Driver/Src\stm32l4xx_hal_uart.c ****   {
1889:D:/iot/felix2/targets/Cloud_STM32L431_BearPi/Drivers/STM32L4xx_HAL_Driver/Src\stm32l4xx_hal_uart.c ****     /* Disable DMA Tx at UART level */
1890:D:/iot/felix2/targets/Cloud_STM32L431_BearPi/Drivers/STM32L4xx_HAL_Driver/Src\stm32l4xx_hal_uart.c ****     CLEAR_BIT(huart->Instance->CR3, USART_CR3_DMAT);
 2708              		.loc 1 1890 0
 2709 008a 7B68     		ldr	r3, [r7, #4]
 2710 008c 1B68     		ldr	r3, [r3]
 2711 008e 9A68     		ldr	r2, [r3, #8]
 2712 0090 7B68     		ldr	r3, [r7, #4]
 2713 0092 1B68     		ldr	r3, [r3]
 2714 0094 22F08002 		bic	r2, r2, #128
 2715 0098 9A60     		str	r2, [r3, #8]
1891:D:/iot/felix2/targets/Cloud_STM32L431_BearPi/Drivers/STM32L4xx_HAL_Driver/Src\stm32l4xx_hal_uart.c **** 
1892:D:/iot/felix2/targets/Cloud_STM32L431_BearPi/Drivers/STM32L4xx_HAL_Driver/Src\stm32l4xx_hal_uart.c ****     /* Abort the UART DMA Tx channel : use non blocking DMA Abort API (callback) */
1893:D:/iot/felix2/targets/Cloud_STM32L431_BearPi/Drivers/STM32L4xx_HAL_Driver/Src\stm32l4xx_hal_uart.c ****     if (huart->hdmatx != NULL)
 2716              		.loc 1 1893 0
 2717 009a 7B68     		ldr	r3, [r7, #4]
 2718 009c 9B6E     		ldr	r3, [r3, #104]
 2719 009e 002B     		cmp	r3, #0
 2720 00a0 0ED0     		beq	.L139
1894:D:/iot/felix2/targets/Cloud_STM32L431_BearPi/Drivers/STM32L4xx_HAL_Driver/Src\stm32l4xx_hal_uart.c ****     {
1895:D:/iot/felix2/targets/Cloud_STM32L431_BearPi/Drivers/STM32L4xx_HAL_Driver/Src\stm32l4xx_hal_uart.c ****       /* UART Tx DMA Abort callback has already been initialised :
1896:D:/iot/felix2/targets/Cloud_STM32L431_BearPi/Drivers/STM32L4xx_HAL_Driver/Src\stm32l4xx_hal_uart.c ****          will lead to call HAL_UART_AbortCpltCallback() at end of DMA abort procedure */
1897:D:/iot/felix2/targets/Cloud_STM32L431_BearPi/Drivers/STM32L4xx_HAL_Driver/Src\stm32l4xx_hal_uart.c **** 
1898:D:/iot/felix2/targets/Cloud_STM32L431_BearPi/Drivers/STM32L4xx_HAL_Driver/Src\stm32l4xx_hal_uart.c ****       /* Abort DMA TX */
1899:D:/iot/felix2/targets/Cloud_STM32L431_BearPi/Drivers/STM32L4xx_HAL_Driver/Src\stm32l4xx_hal_uart.c ****       if (HAL_DMA_Abort_IT(huart->hdmatx) != HAL_OK)
 2721              		.loc 1 1899 0
 2722 00a2 7B68     		ldr	r3, [r7, #4]
 2723 00a4 9B6E     		ldr	r3, [r3, #104]
 2724 00a6 1846     		mov	r0, r3
 2725 00a8 FFF7FEFF 		bl	HAL_DMA_Abort_IT
 2726 00ac 0346     		mov	r3, r0
 2727 00ae 002B     		cmp	r3, #0
 2728 00b0 04D0     		beq	.L140
1900:D:/iot/felix2/targets/Cloud_STM32L431_BearPi/Drivers/STM32L4xx_HAL_Driver/Src\stm32l4xx_hal_uart.c ****       {
1901:D:/iot/felix2/targets/Cloud_STM32L431_BearPi/Drivers/STM32L4xx_HAL_Driver/Src\stm32l4xx_hal_uart.c ****         huart->hdmatx->XferAbortCallback = NULL;
 2729              		.loc 1 1901 0
 2730 00b2 7B68     		ldr	r3, [r7, #4]
 2731 00b4 9B6E     		ldr	r3, [r3, #104]
 2732 00b6 0022     		movs	r2, #0
 2733 00b8 9A63     		str	r2, [r3, #56]
 2734 00ba 01E0     		b	.L139
 2735              	.L140:
1902:D:/iot/felix2/targets/Cloud_STM32L431_BearPi/Drivers/STM32L4xx_HAL_Driver/Src\stm32l4xx_hal_uart.c ****       }
1903:D:/iot/felix2/targets/Cloud_STM32L431_BearPi/Drivers/STM32L4xx_HAL_Driver/Src\stm32l4xx_hal_uart.c ****       else
1904:D:/iot/felix2/targets/Cloud_STM32L431_BearPi/Drivers/STM32L4xx_HAL_Driver/Src\stm32l4xx_hal_uart.c ****       {
1905:D:/iot/felix2/targets/Cloud_STM32L431_BearPi/Drivers/STM32L4xx_HAL_Driver/Src\stm32l4xx_hal_uart.c ****         abortcplt = 0U;
 2736              		.loc 1 1905 0
 2737 00bc 0023     		movs	r3, #0
 2738 00be FB60     		str	r3, [r7, #12]
 2739              	.L139:
1906:D:/iot/felix2/targets/Cloud_STM32L431_BearPi/Drivers/STM32L4xx_HAL_Driver/Src\stm32l4xx_hal_uart.c ****       }
1907:D:/iot/felix2/targets/Cloud_STM32L431_BearPi/Drivers/STM32L4xx_HAL_Driver/Src\stm32l4xx_hal_uart.c ****     }
1908:D:/iot/felix2/targets/Cloud_STM32L431_BearPi/Drivers/STM32L4xx_HAL_Driver/Src\stm32l4xx_hal_uart.c ****   }
1909:D:/iot/felix2/targets/Cloud_STM32L431_BearPi/Drivers/STM32L4xx_HAL_Driver/Src\stm32l4xx_hal_uart.c **** 
1910:D:/iot/felix2/targets/Cloud_STM32L431_BearPi/Drivers/STM32L4xx_HAL_Driver/Src\stm32l4xx_hal_uart.c ****   /* Disable the UART DMA Rx request if enabled */
1911:D:/iot/felix2/targets/Cloud_STM32L431_BearPi/Drivers/STM32L4xx_HAL_Driver/Src\stm32l4xx_hal_uart.c ****   if (HAL_IS_BIT_SET(huart->Instance->CR3, USART_CR3_DMAR))
ARM GAS  C:\Users\91458\AppData\Local\Temp\ccrpKNIe.s 			page 82


 2740              		.loc 1 1911 0
 2741 00c0 7B68     		ldr	r3, [r7, #4]
 2742 00c2 1B68     		ldr	r3, [r3]
 2743 00c4 9B68     		ldr	r3, [r3, #8]
 2744 00c6 03F04003 		and	r3, r3, #64
 2745 00ca 402B     		cmp	r3, #64
 2746 00cc 1CD1     		bne	.L141
1912:D:/iot/felix2/targets/Cloud_STM32L431_BearPi/Drivers/STM32L4xx_HAL_Driver/Src\stm32l4xx_hal_uart.c ****   {
1913:D:/iot/felix2/targets/Cloud_STM32L431_BearPi/Drivers/STM32L4xx_HAL_Driver/Src\stm32l4xx_hal_uart.c ****     CLEAR_BIT(huart->Instance->CR3, USART_CR3_DMAR);
 2747              		.loc 1 1913 0
 2748 00ce 7B68     		ldr	r3, [r7, #4]
 2749 00d0 1B68     		ldr	r3, [r3]
 2750 00d2 9A68     		ldr	r2, [r3, #8]
 2751 00d4 7B68     		ldr	r3, [r7, #4]
 2752 00d6 1B68     		ldr	r3, [r3]
 2753 00d8 22F04002 		bic	r2, r2, #64
 2754 00dc 9A60     		str	r2, [r3, #8]
1914:D:/iot/felix2/targets/Cloud_STM32L431_BearPi/Drivers/STM32L4xx_HAL_Driver/Src\stm32l4xx_hal_uart.c **** 
1915:D:/iot/felix2/targets/Cloud_STM32L431_BearPi/Drivers/STM32L4xx_HAL_Driver/Src\stm32l4xx_hal_uart.c ****     /* Abort the UART DMA Rx channel : use non blocking DMA Abort API (callback) */
1916:D:/iot/felix2/targets/Cloud_STM32L431_BearPi/Drivers/STM32L4xx_HAL_Driver/Src\stm32l4xx_hal_uart.c ****     if (huart->hdmarx != NULL)
 2755              		.loc 1 1916 0
 2756 00de 7B68     		ldr	r3, [r7, #4]
 2757 00e0 DB6E     		ldr	r3, [r3, #108]
 2758 00e2 002B     		cmp	r3, #0
 2759 00e4 10D0     		beq	.L141
1917:D:/iot/felix2/targets/Cloud_STM32L431_BearPi/Drivers/STM32L4xx_HAL_Driver/Src\stm32l4xx_hal_uart.c ****     {
1918:D:/iot/felix2/targets/Cloud_STM32L431_BearPi/Drivers/STM32L4xx_HAL_Driver/Src\stm32l4xx_hal_uart.c ****       /* UART Rx DMA Abort callback has already been initialised :
1919:D:/iot/felix2/targets/Cloud_STM32L431_BearPi/Drivers/STM32L4xx_HAL_Driver/Src\stm32l4xx_hal_uart.c ****          will lead to call HAL_UART_AbortCpltCallback() at end of DMA abort procedure */
1920:D:/iot/felix2/targets/Cloud_STM32L431_BearPi/Drivers/STM32L4xx_HAL_Driver/Src\stm32l4xx_hal_uart.c **** 
1921:D:/iot/felix2/targets/Cloud_STM32L431_BearPi/Drivers/STM32L4xx_HAL_Driver/Src\stm32l4xx_hal_uart.c ****       /* Abort DMA RX */
1922:D:/iot/felix2/targets/Cloud_STM32L431_BearPi/Drivers/STM32L4xx_HAL_Driver/Src\stm32l4xx_hal_uart.c ****       if (HAL_DMA_Abort_IT(huart->hdmarx) != HAL_OK)
 2760              		.loc 1 1922 0
 2761 00e6 7B68     		ldr	r3, [r7, #4]
 2762 00e8 DB6E     		ldr	r3, [r3, #108]
 2763 00ea 1846     		mov	r0, r3
 2764 00ec FFF7FEFF 		bl	HAL_DMA_Abort_IT
 2765 00f0 0346     		mov	r3, r0
 2766 00f2 002B     		cmp	r3, #0
 2767 00f4 06D0     		beq	.L142
1923:D:/iot/felix2/targets/Cloud_STM32L431_BearPi/Drivers/STM32L4xx_HAL_Driver/Src\stm32l4xx_hal_uart.c ****       {
1924:D:/iot/felix2/targets/Cloud_STM32L431_BearPi/Drivers/STM32L4xx_HAL_Driver/Src\stm32l4xx_hal_uart.c ****         huart->hdmarx->XferAbortCallback = NULL;
 2768              		.loc 1 1924 0
 2769 00f6 7B68     		ldr	r3, [r7, #4]
 2770 00f8 DB6E     		ldr	r3, [r3, #108]
 2771 00fa 0022     		movs	r2, #0
 2772 00fc 9A63     		str	r2, [r3, #56]
1925:D:/iot/felix2/targets/Cloud_STM32L431_BearPi/Drivers/STM32L4xx_HAL_Driver/Src\stm32l4xx_hal_uart.c ****         abortcplt = 1U;
 2773              		.loc 1 1925 0
 2774 00fe 0123     		movs	r3, #1
 2775 0100 FB60     		str	r3, [r7, #12]
 2776 0102 01E0     		b	.L141
 2777              	.L142:
1926:D:/iot/felix2/targets/Cloud_STM32L431_BearPi/Drivers/STM32L4xx_HAL_Driver/Src\stm32l4xx_hal_uart.c ****       }
1927:D:/iot/felix2/targets/Cloud_STM32L431_BearPi/Drivers/STM32L4xx_HAL_Driver/Src\stm32l4xx_hal_uart.c ****       else
1928:D:/iot/felix2/targets/Cloud_STM32L431_BearPi/Drivers/STM32L4xx_HAL_Driver/Src\stm32l4xx_hal_uart.c ****       {
1929:D:/iot/felix2/targets/Cloud_STM32L431_BearPi/Drivers/STM32L4xx_HAL_Driver/Src\stm32l4xx_hal_uart.c ****         abortcplt = 0U;
 2778              		.loc 1 1929 0
ARM GAS  C:\Users\91458\AppData\Local\Temp\ccrpKNIe.s 			page 83


 2779 0104 0023     		movs	r3, #0
 2780 0106 FB60     		str	r3, [r7, #12]
 2781              	.L141:
1930:D:/iot/felix2/targets/Cloud_STM32L431_BearPi/Drivers/STM32L4xx_HAL_Driver/Src\stm32l4xx_hal_uart.c ****       }
1931:D:/iot/felix2/targets/Cloud_STM32L431_BearPi/Drivers/STM32L4xx_HAL_Driver/Src\stm32l4xx_hal_uart.c ****     }
1932:D:/iot/felix2/targets/Cloud_STM32L431_BearPi/Drivers/STM32L4xx_HAL_Driver/Src\stm32l4xx_hal_uart.c ****   }
1933:D:/iot/felix2/targets/Cloud_STM32L431_BearPi/Drivers/STM32L4xx_HAL_Driver/Src\stm32l4xx_hal_uart.c **** 
1934:D:/iot/felix2/targets/Cloud_STM32L431_BearPi/Drivers/STM32L4xx_HAL_Driver/Src\stm32l4xx_hal_uart.c ****   /* if no DMA abort complete callback execution is required => call user Abort Complete callback *
1935:D:/iot/felix2/targets/Cloud_STM32L431_BearPi/Drivers/STM32L4xx_HAL_Driver/Src\stm32l4xx_hal_uart.c ****   if (abortcplt == 1U)
 2782              		.loc 1 1935 0
 2783 0108 FB68     		ldr	r3, [r7, #12]
 2784 010a 012B     		cmp	r3, #1
 2785 010c 29D1     		bne	.L143
1936:D:/iot/felix2/targets/Cloud_STM32L431_BearPi/Drivers/STM32L4xx_HAL_Driver/Src\stm32l4xx_hal_uart.c ****   {
1937:D:/iot/felix2/targets/Cloud_STM32L431_BearPi/Drivers/STM32L4xx_HAL_Driver/Src\stm32l4xx_hal_uart.c ****     /* Reset Tx and Rx transfer counters */
1938:D:/iot/felix2/targets/Cloud_STM32L431_BearPi/Drivers/STM32L4xx_HAL_Driver/Src\stm32l4xx_hal_uart.c ****     huart->TxXferCount = 0U;
 2786              		.loc 1 1938 0
 2787 010e 7B68     		ldr	r3, [r7, #4]
 2788 0110 0022     		movs	r2, #0
 2789 0112 A3F85220 		strh	r2, [r3, #82]	@ movhi
1939:D:/iot/felix2/targets/Cloud_STM32L431_BearPi/Drivers/STM32L4xx_HAL_Driver/Src\stm32l4xx_hal_uart.c ****     huart->RxXferCount = 0U;
 2790              		.loc 1 1939 0
 2791 0116 7B68     		ldr	r3, [r7, #4]
 2792 0118 0022     		movs	r2, #0
 2793 011a A3F85A20 		strh	r2, [r3, #90]	@ movhi
1940:D:/iot/felix2/targets/Cloud_STM32L431_BearPi/Drivers/STM32L4xx_HAL_Driver/Src\stm32l4xx_hal_uart.c **** 
1941:D:/iot/felix2/targets/Cloud_STM32L431_BearPi/Drivers/STM32L4xx_HAL_Driver/Src\stm32l4xx_hal_uart.c ****     /* Clear ISR function pointers */
1942:D:/iot/felix2/targets/Cloud_STM32L431_BearPi/Drivers/STM32L4xx_HAL_Driver/Src\stm32l4xx_hal_uart.c ****     huart->RxISR = NULL;
 2794              		.loc 1 1942 0
 2795 011e 7B68     		ldr	r3, [r7, #4]
 2796 0120 0022     		movs	r2, #0
 2797 0122 1A66     		str	r2, [r3, #96]
1943:D:/iot/felix2/targets/Cloud_STM32L431_BearPi/Drivers/STM32L4xx_HAL_Driver/Src\stm32l4xx_hal_uart.c ****     huart->TxISR = NULL;
 2798              		.loc 1 1943 0
 2799 0124 7B68     		ldr	r3, [r7, #4]
 2800 0126 0022     		movs	r2, #0
 2801 0128 5A66     		str	r2, [r3, #100]
1944:D:/iot/felix2/targets/Cloud_STM32L431_BearPi/Drivers/STM32L4xx_HAL_Driver/Src\stm32l4xx_hal_uart.c **** 
1945:D:/iot/felix2/targets/Cloud_STM32L431_BearPi/Drivers/STM32L4xx_HAL_Driver/Src\stm32l4xx_hal_uart.c ****     /* Reset errorCode */
1946:D:/iot/felix2/targets/Cloud_STM32L431_BearPi/Drivers/STM32L4xx_HAL_Driver/Src\stm32l4xx_hal_uart.c ****     huart->ErrorCode = HAL_UART_ERROR_NONE;
 2802              		.loc 1 1946 0
 2803 012a 7B68     		ldr	r3, [r7, #4]
 2804 012c 0022     		movs	r2, #0
 2805 012e 5A67     		str	r2, [r3, #116]
1947:D:/iot/felix2/targets/Cloud_STM32L431_BearPi/Drivers/STM32L4xx_HAL_Driver/Src\stm32l4xx_hal_uart.c **** 
1948:D:/iot/felix2/targets/Cloud_STM32L431_BearPi/Drivers/STM32L4xx_HAL_Driver/Src\stm32l4xx_hal_uart.c ****     /* Clear the Error flags in the ICR register */
1949:D:/iot/felix2/targets/Cloud_STM32L431_BearPi/Drivers/STM32L4xx_HAL_Driver/Src\stm32l4xx_hal_uart.c ****     __HAL_UART_CLEAR_FLAG(huart, UART_CLEAR_OREF | UART_CLEAR_NEF | UART_CLEAR_PEF | UART_CLEAR_FEF
 2806              		.loc 1 1949 0
 2807 0130 7B68     		ldr	r3, [r7, #4]
 2808 0132 1B68     		ldr	r3, [r3]
 2809 0134 0F22     		movs	r2, #15
 2810 0136 1A62     		str	r2, [r3, #32]
1950:D:/iot/felix2/targets/Cloud_STM32L431_BearPi/Drivers/STM32L4xx_HAL_Driver/Src\stm32l4xx_hal_uart.c **** 
1951:D:/iot/felix2/targets/Cloud_STM32L431_BearPi/Drivers/STM32L4xx_HAL_Driver/Src\stm32l4xx_hal_uart.c **** #if defined(USART_CR1_FIFOEN)
1952:D:/iot/felix2/targets/Cloud_STM32L431_BearPi/Drivers/STM32L4xx_HAL_Driver/Src\stm32l4xx_hal_uart.c ****     /* Flush the whole TX FIFO (if needed) */
1953:D:/iot/felix2/targets/Cloud_STM32L431_BearPi/Drivers/STM32L4xx_HAL_Driver/Src\stm32l4xx_hal_uart.c ****     if (huart->FifoMode == UART_FIFOMODE_ENABLE)
1954:D:/iot/felix2/targets/Cloud_STM32L431_BearPi/Drivers/STM32L4xx_HAL_Driver/Src\stm32l4xx_hal_uart.c ****     {
ARM GAS  C:\Users\91458\AppData\Local\Temp\ccrpKNIe.s 			page 84


1955:D:/iot/felix2/targets/Cloud_STM32L431_BearPi/Drivers/STM32L4xx_HAL_Driver/Src\stm32l4xx_hal_uart.c ****       __HAL_UART_SEND_REQ(huart, UART_TXDATA_FLUSH_REQUEST);
1956:D:/iot/felix2/targets/Cloud_STM32L431_BearPi/Drivers/STM32L4xx_HAL_Driver/Src\stm32l4xx_hal_uart.c ****     }
1957:D:/iot/felix2/targets/Cloud_STM32L431_BearPi/Drivers/STM32L4xx_HAL_Driver/Src\stm32l4xx_hal_uart.c **** #endif
1958:D:/iot/felix2/targets/Cloud_STM32L431_BearPi/Drivers/STM32L4xx_HAL_Driver/Src\stm32l4xx_hal_uart.c **** 
1959:D:/iot/felix2/targets/Cloud_STM32L431_BearPi/Drivers/STM32L4xx_HAL_Driver/Src\stm32l4xx_hal_uart.c ****     /* Discard the received data */
1960:D:/iot/felix2/targets/Cloud_STM32L431_BearPi/Drivers/STM32L4xx_HAL_Driver/Src\stm32l4xx_hal_uart.c ****     __HAL_UART_SEND_REQ(huart, UART_RXDATA_FLUSH_REQUEST);
 2811              		.loc 1 1960 0
 2812 0138 7B68     		ldr	r3, [r7, #4]
 2813 013a 1B68     		ldr	r3, [r3]
 2814 013c 1B8B     		ldrh	r3, [r3, #24]	@ movhi
 2815 013e 9AB2     		uxth	r2, r3
 2816 0140 7B68     		ldr	r3, [r7, #4]
 2817 0142 1B68     		ldr	r3, [r3]
 2818 0144 42F00802 		orr	r2, r2, #8
 2819 0148 92B2     		uxth	r2, r2
 2820 014a 1A83     		strh	r2, [r3, #24]	@ movhi
1961:D:/iot/felix2/targets/Cloud_STM32L431_BearPi/Drivers/STM32L4xx_HAL_Driver/Src\stm32l4xx_hal_uart.c **** 
1962:D:/iot/felix2/targets/Cloud_STM32L431_BearPi/Drivers/STM32L4xx_HAL_Driver/Src\stm32l4xx_hal_uart.c ****     /* Restore huart->gState and huart->RxState to Ready */
1963:D:/iot/felix2/targets/Cloud_STM32L431_BearPi/Drivers/STM32L4xx_HAL_Driver/Src\stm32l4xx_hal_uart.c ****     huart->gState  = HAL_UART_STATE_READY;
 2821              		.loc 1 1963 0
 2822 014c 7B68     		ldr	r3, [r7, #4]
 2823 014e 2022     		movs	r2, #32
 2824 0150 83F87120 		strb	r2, [r3, #113]
1964:D:/iot/felix2/targets/Cloud_STM32L431_BearPi/Drivers/STM32L4xx_HAL_Driver/Src\stm32l4xx_hal_uart.c ****     huart->RxState = HAL_UART_STATE_READY;
 2825              		.loc 1 1964 0
 2826 0154 7B68     		ldr	r3, [r7, #4]
 2827 0156 2022     		movs	r2, #32
 2828 0158 83F87220 		strb	r2, [r3, #114]
1965:D:/iot/felix2/targets/Cloud_STM32L431_BearPi/Drivers/STM32L4xx_HAL_Driver/Src\stm32l4xx_hal_uart.c **** 
1966:D:/iot/felix2/targets/Cloud_STM32L431_BearPi/Drivers/STM32L4xx_HAL_Driver/Src\stm32l4xx_hal_uart.c ****     /* As no DMA to be aborted, call directly user Abort complete callback */
1967:D:/iot/felix2/targets/Cloud_STM32L431_BearPi/Drivers/STM32L4xx_HAL_Driver/Src\stm32l4xx_hal_uart.c **** #if (USE_HAL_UART_REGISTER_CALLBACKS == 1)
1968:D:/iot/felix2/targets/Cloud_STM32L431_BearPi/Drivers/STM32L4xx_HAL_Driver/Src\stm32l4xx_hal_uart.c ****     /* Call registered Abort complete callback */
1969:D:/iot/felix2/targets/Cloud_STM32L431_BearPi/Drivers/STM32L4xx_HAL_Driver/Src\stm32l4xx_hal_uart.c ****     huart->AbortCpltCallback(huart);
1970:D:/iot/felix2/targets/Cloud_STM32L431_BearPi/Drivers/STM32L4xx_HAL_Driver/Src\stm32l4xx_hal_uart.c **** #else
1971:D:/iot/felix2/targets/Cloud_STM32L431_BearPi/Drivers/STM32L4xx_HAL_Driver/Src\stm32l4xx_hal_uart.c ****     /* Call legacy weak Abort complete callback */
1972:D:/iot/felix2/targets/Cloud_STM32L431_BearPi/Drivers/STM32L4xx_HAL_Driver/Src\stm32l4xx_hal_uart.c ****     HAL_UART_AbortCpltCallback(huart);
 2829              		.loc 1 1972 0
 2830 015c 7868     		ldr	r0, [r7, #4]
 2831 015e FFF7FEFF 		bl	HAL_UART_AbortCpltCallback
 2832              	.L143:
1973:D:/iot/felix2/targets/Cloud_STM32L431_BearPi/Drivers/STM32L4xx_HAL_Driver/Src\stm32l4xx_hal_uart.c **** #endif /* USE_HAL_UART_REGISTER_CALLBACKS */
1974:D:/iot/felix2/targets/Cloud_STM32L431_BearPi/Drivers/STM32L4xx_HAL_Driver/Src\stm32l4xx_hal_uart.c ****   }
1975:D:/iot/felix2/targets/Cloud_STM32L431_BearPi/Drivers/STM32L4xx_HAL_Driver/Src\stm32l4xx_hal_uart.c **** 
1976:D:/iot/felix2/targets/Cloud_STM32L431_BearPi/Drivers/STM32L4xx_HAL_Driver/Src\stm32l4xx_hal_uart.c ****   return HAL_OK;
 2833              		.loc 1 1976 0
 2834 0162 0023     		movs	r3, #0
1977:D:/iot/felix2/targets/Cloud_STM32L431_BearPi/Drivers/STM32L4xx_HAL_Driver/Src\stm32l4xx_hal_uart.c **** }
 2835              		.loc 1 1977 0
 2836 0164 1846     		mov	r0, r3
 2837 0166 1037     		adds	r7, r7, #16
 2838              	.LCFI104:
 2839              		.cfi_def_cfa_offset 8
 2840 0168 BD46     		mov	sp, r7
 2841              	.LCFI105:
 2842              		.cfi_def_cfa_register 13
 2843              		@ sp needed
 2844 016a 80BD     		pop	{r7, pc}
ARM GAS  C:\Users\91458\AppData\Local\Temp\ccrpKNIe.s 			page 85


 2845              	.L146:
 2846              		.align	2
 2847              	.L145:
 2848 016c 00000000 		.word	UART_DMATxAbortCallback
 2849 0170 00000000 		.word	UART_DMARxAbortCallback
 2850              		.cfi_endproc
 2851              	.LFE152:
 2853              		.section	.text.HAL_UART_AbortTransmit_IT,"ax",%progbits
 2854              		.align	1
 2855              		.global	HAL_UART_AbortTransmit_IT
 2856              		.syntax unified
 2857              		.thumb
 2858              		.thumb_func
 2859              		.fpu fpv4-sp-d16
 2861              	HAL_UART_AbortTransmit_IT:
 2862              	.LFB153:
1978:D:/iot/felix2/targets/Cloud_STM32L431_BearPi/Drivers/STM32L4xx_HAL_Driver/Src\stm32l4xx_hal_uart.c **** 
1979:D:/iot/felix2/targets/Cloud_STM32L431_BearPi/Drivers/STM32L4xx_HAL_Driver/Src\stm32l4xx_hal_uart.c **** /**
1980:D:/iot/felix2/targets/Cloud_STM32L431_BearPi/Drivers/STM32L4xx_HAL_Driver/Src\stm32l4xx_hal_uart.c ****   * @brief  Abort ongoing Transmit transfer (Interrupt mode).
1981:D:/iot/felix2/targets/Cloud_STM32L431_BearPi/Drivers/STM32L4xx_HAL_Driver/Src\stm32l4xx_hal_uart.c ****   * @param  huart UART handle.
1982:D:/iot/felix2/targets/Cloud_STM32L431_BearPi/Drivers/STM32L4xx_HAL_Driver/Src\stm32l4xx_hal_uart.c ****   * @note   This procedure could be used for aborting any ongoing Tx transfer started in Interrupt 
1983:D:/iot/felix2/targets/Cloud_STM32L431_BearPi/Drivers/STM32L4xx_HAL_Driver/Src\stm32l4xx_hal_uart.c ****   *         This procedure performs following operations :
1984:D:/iot/felix2/targets/Cloud_STM32L431_BearPi/Drivers/STM32L4xx_HAL_Driver/Src\stm32l4xx_hal_uart.c ****   *           - Disable UART Interrupts (Tx)
1985:D:/iot/felix2/targets/Cloud_STM32L431_BearPi/Drivers/STM32L4xx_HAL_Driver/Src\stm32l4xx_hal_uart.c ****   *           - Disable the DMA transfer in the peripheral register (if enabled)
1986:D:/iot/felix2/targets/Cloud_STM32L431_BearPi/Drivers/STM32L4xx_HAL_Driver/Src\stm32l4xx_hal_uart.c ****   *           - Abort DMA transfer by calling HAL_DMA_Abort_IT (in case of transfer in DMA mode)
1987:D:/iot/felix2/targets/Cloud_STM32L431_BearPi/Drivers/STM32L4xx_HAL_Driver/Src\stm32l4xx_hal_uart.c ****   *           - Set handle State to READY
1988:D:/iot/felix2/targets/Cloud_STM32L431_BearPi/Drivers/STM32L4xx_HAL_Driver/Src\stm32l4xx_hal_uart.c ****   *           - At abort completion, call user abort complete callback
1989:D:/iot/felix2/targets/Cloud_STM32L431_BearPi/Drivers/STM32L4xx_HAL_Driver/Src\stm32l4xx_hal_uart.c ****   * @note   This procedure is executed in Interrupt mode, meaning that abort procedure could be
1990:D:/iot/felix2/targets/Cloud_STM32L431_BearPi/Drivers/STM32L4xx_HAL_Driver/Src\stm32l4xx_hal_uart.c ****   *         considered as completed only when user abort complete callback is executed (not when ex
1991:D:/iot/felix2/targets/Cloud_STM32L431_BearPi/Drivers/STM32L4xx_HAL_Driver/Src\stm32l4xx_hal_uart.c ****   * @retval HAL status
1992:D:/iot/felix2/targets/Cloud_STM32L431_BearPi/Drivers/STM32L4xx_HAL_Driver/Src\stm32l4xx_hal_uart.c **** */
1993:D:/iot/felix2/targets/Cloud_STM32L431_BearPi/Drivers/STM32L4xx_HAL_Driver/Src\stm32l4xx_hal_uart.c **** HAL_StatusTypeDef HAL_UART_AbortTransmit_IT(UART_HandleTypeDef *huart)
1994:D:/iot/felix2/targets/Cloud_STM32L431_BearPi/Drivers/STM32L4xx_HAL_Driver/Src\stm32l4xx_hal_uart.c **** {
 2863              		.loc 1 1994 0
 2864              		.cfi_startproc
 2865              		@ args = 0, pretend = 0, frame = 8
 2866              		@ frame_needed = 1, uses_anonymous_args = 0
 2867 0000 80B5     		push	{r7, lr}
 2868              	.LCFI106:
 2869              		.cfi_def_cfa_offset 8
 2870              		.cfi_offset 7, -8
 2871              		.cfi_offset 14, -4
 2872 0002 82B0     		sub	sp, sp, #8
 2873              	.LCFI107:
 2874              		.cfi_def_cfa_offset 16
 2875 0004 00AF     		add	r7, sp, #0
 2876              	.LCFI108:
 2877              		.cfi_def_cfa_register 7
 2878 0006 7860     		str	r0, [r7, #4]
1995:D:/iot/felix2/targets/Cloud_STM32L431_BearPi/Drivers/STM32L4xx_HAL_Driver/Src\stm32l4xx_hal_uart.c ****   /* Disable interrupts */
1996:D:/iot/felix2/targets/Cloud_STM32L431_BearPi/Drivers/STM32L4xx_HAL_Driver/Src\stm32l4xx_hal_uart.c **** #if defined(USART_CR1_FIFOEN)
1997:D:/iot/felix2/targets/Cloud_STM32L431_BearPi/Drivers/STM32L4xx_HAL_Driver/Src\stm32l4xx_hal_uart.c ****   CLEAR_BIT(huart->Instance->CR1, (USART_CR1_TCIE | USART_CR1_TXEIE_TXFNFIE));
1998:D:/iot/felix2/targets/Cloud_STM32L431_BearPi/Drivers/STM32L4xx_HAL_Driver/Src\stm32l4xx_hal_uart.c ****   CLEAR_BIT(huart->Instance->CR3, USART_CR3_TXFTIE);
1999:D:/iot/felix2/targets/Cloud_STM32L431_BearPi/Drivers/STM32L4xx_HAL_Driver/Src\stm32l4xx_hal_uart.c **** #else
2000:D:/iot/felix2/targets/Cloud_STM32L431_BearPi/Drivers/STM32L4xx_HAL_Driver/Src\stm32l4xx_hal_uart.c ****   CLEAR_BIT(huart->Instance->CR1, (USART_CR1_TXEIE | USART_CR1_TCIE));
 2879              		.loc 1 2000 0
 2880 0008 7B68     		ldr	r3, [r7, #4]
ARM GAS  C:\Users\91458\AppData\Local\Temp\ccrpKNIe.s 			page 86


 2881 000a 1B68     		ldr	r3, [r3]
 2882 000c 1A68     		ldr	r2, [r3]
 2883 000e 7B68     		ldr	r3, [r7, #4]
 2884 0010 1B68     		ldr	r3, [r3]
 2885 0012 22F0C002 		bic	r2, r2, #192
 2886 0016 1A60     		str	r2, [r3]
2001:D:/iot/felix2/targets/Cloud_STM32L431_BearPi/Drivers/STM32L4xx_HAL_Driver/Src\stm32l4xx_hal_uart.c **** #endif
2002:D:/iot/felix2/targets/Cloud_STM32L431_BearPi/Drivers/STM32L4xx_HAL_Driver/Src\stm32l4xx_hal_uart.c **** 
2003:D:/iot/felix2/targets/Cloud_STM32L431_BearPi/Drivers/STM32L4xx_HAL_Driver/Src\stm32l4xx_hal_uart.c ****   /* Disable the UART DMA Tx request if enabled */
2004:D:/iot/felix2/targets/Cloud_STM32L431_BearPi/Drivers/STM32L4xx_HAL_Driver/Src\stm32l4xx_hal_uart.c ****   if (HAL_IS_BIT_SET(huart->Instance->CR3, USART_CR3_DMAT))
 2887              		.loc 1 2004 0
 2888 0018 7B68     		ldr	r3, [r7, #4]
 2889 001a 1B68     		ldr	r3, [r3]
 2890 001c 9B68     		ldr	r3, [r3, #8]
 2891 001e 03F08003 		and	r3, r3, #128
 2892 0022 802B     		cmp	r3, #128
 2893 0024 2ED1     		bne	.L148
2005:D:/iot/felix2/targets/Cloud_STM32L431_BearPi/Drivers/STM32L4xx_HAL_Driver/Src\stm32l4xx_hal_uart.c ****   {
2006:D:/iot/felix2/targets/Cloud_STM32L431_BearPi/Drivers/STM32L4xx_HAL_Driver/Src\stm32l4xx_hal_uart.c ****     CLEAR_BIT(huart->Instance->CR3, USART_CR3_DMAT);
 2894              		.loc 1 2006 0
 2895 0026 7B68     		ldr	r3, [r7, #4]
 2896 0028 1B68     		ldr	r3, [r3]
 2897 002a 9A68     		ldr	r2, [r3, #8]
 2898 002c 7B68     		ldr	r3, [r7, #4]
 2899 002e 1B68     		ldr	r3, [r3]
 2900 0030 22F08002 		bic	r2, r2, #128
 2901 0034 9A60     		str	r2, [r3, #8]
2007:D:/iot/felix2/targets/Cloud_STM32L431_BearPi/Drivers/STM32L4xx_HAL_Driver/Src\stm32l4xx_hal_uart.c **** 
2008:D:/iot/felix2/targets/Cloud_STM32L431_BearPi/Drivers/STM32L4xx_HAL_Driver/Src\stm32l4xx_hal_uart.c ****     /* Abort the UART DMA Tx channel : use non blocking DMA Abort API (callback) */
2009:D:/iot/felix2/targets/Cloud_STM32L431_BearPi/Drivers/STM32L4xx_HAL_Driver/Src\stm32l4xx_hal_uart.c ****     if (huart->hdmatx != NULL)
 2902              		.loc 1 2009 0
 2903 0036 7B68     		ldr	r3, [r7, #4]
 2904 0038 9B6E     		ldr	r3, [r3, #104]
 2905 003a 002B     		cmp	r3, #0
 2906 003c 13D0     		beq	.L149
2010:D:/iot/felix2/targets/Cloud_STM32L431_BearPi/Drivers/STM32L4xx_HAL_Driver/Src\stm32l4xx_hal_uart.c ****     {
2011:D:/iot/felix2/targets/Cloud_STM32L431_BearPi/Drivers/STM32L4xx_HAL_Driver/Src\stm32l4xx_hal_uart.c ****       /* Set the UART DMA Abort callback :
2012:D:/iot/felix2/targets/Cloud_STM32L431_BearPi/Drivers/STM32L4xx_HAL_Driver/Src\stm32l4xx_hal_uart.c ****          will lead to call HAL_UART_AbortCpltCallback() at end of DMA abort procedure */
2013:D:/iot/felix2/targets/Cloud_STM32L431_BearPi/Drivers/STM32L4xx_HAL_Driver/Src\stm32l4xx_hal_uart.c ****       huart->hdmatx->XferAbortCallback = UART_DMATxOnlyAbortCallback;
 2907              		.loc 1 2013 0
 2908 003e 7B68     		ldr	r3, [r7, #4]
 2909 0040 9B6E     		ldr	r3, [r3, #104]
 2910 0042 1A4A     		ldr	r2, .L154
 2911 0044 9A63     		str	r2, [r3, #56]
2014:D:/iot/felix2/targets/Cloud_STM32L431_BearPi/Drivers/STM32L4xx_HAL_Driver/Src\stm32l4xx_hal_uart.c **** 
2015:D:/iot/felix2/targets/Cloud_STM32L431_BearPi/Drivers/STM32L4xx_HAL_Driver/Src\stm32l4xx_hal_uart.c ****       /* Abort DMA TX */
2016:D:/iot/felix2/targets/Cloud_STM32L431_BearPi/Drivers/STM32L4xx_HAL_Driver/Src\stm32l4xx_hal_uart.c ****       if (HAL_DMA_Abort_IT(huart->hdmatx) != HAL_OK)
 2912              		.loc 1 2016 0
 2913 0046 7B68     		ldr	r3, [r7, #4]
 2914 0048 9B6E     		ldr	r3, [r3, #104]
 2915 004a 1846     		mov	r0, r3
 2916 004c FFF7FEFF 		bl	HAL_DMA_Abort_IT
 2917 0050 0346     		mov	r3, r0
 2918 0052 002B     		cmp	r3, #0
 2919 0054 24D0     		beq	.L152
2017:D:/iot/felix2/targets/Cloud_STM32L431_BearPi/Drivers/STM32L4xx_HAL_Driver/Src\stm32l4xx_hal_uart.c ****       {
2018:D:/iot/felix2/targets/Cloud_STM32L431_BearPi/Drivers/STM32L4xx_HAL_Driver/Src\stm32l4xx_hal_uart.c ****         /* Call Directly huart->hdmatx->XferAbortCallback function in case of error */
ARM GAS  C:\Users\91458\AppData\Local\Temp\ccrpKNIe.s 			page 87


2019:D:/iot/felix2/targets/Cloud_STM32L431_BearPi/Drivers/STM32L4xx_HAL_Driver/Src\stm32l4xx_hal_uart.c ****         huart->hdmatx->XferAbortCallback(huart->hdmatx);
 2920              		.loc 1 2019 0
 2921 0056 7B68     		ldr	r3, [r7, #4]
 2922 0058 9B6E     		ldr	r3, [r3, #104]
 2923 005a 9B6B     		ldr	r3, [r3, #56]
 2924 005c 7A68     		ldr	r2, [r7, #4]
 2925 005e 926E     		ldr	r2, [r2, #104]
 2926 0060 1046     		mov	r0, r2
 2927 0062 9847     		blx	r3
 2928              	.LVL0:
 2929 0064 1CE0     		b	.L152
 2930              	.L149:
2020:D:/iot/felix2/targets/Cloud_STM32L431_BearPi/Drivers/STM32L4xx_HAL_Driver/Src\stm32l4xx_hal_uart.c ****       }
2021:D:/iot/felix2/targets/Cloud_STM32L431_BearPi/Drivers/STM32L4xx_HAL_Driver/Src\stm32l4xx_hal_uart.c ****     }
2022:D:/iot/felix2/targets/Cloud_STM32L431_BearPi/Drivers/STM32L4xx_HAL_Driver/Src\stm32l4xx_hal_uart.c ****     else
2023:D:/iot/felix2/targets/Cloud_STM32L431_BearPi/Drivers/STM32L4xx_HAL_Driver/Src\stm32l4xx_hal_uart.c ****     {
2024:D:/iot/felix2/targets/Cloud_STM32L431_BearPi/Drivers/STM32L4xx_HAL_Driver/Src\stm32l4xx_hal_uart.c ****       /* Reset Tx transfer counter */
2025:D:/iot/felix2/targets/Cloud_STM32L431_BearPi/Drivers/STM32L4xx_HAL_Driver/Src\stm32l4xx_hal_uart.c ****       huart->TxXferCount = 0U;
 2931              		.loc 1 2025 0
 2932 0066 7B68     		ldr	r3, [r7, #4]
 2933 0068 0022     		movs	r2, #0
 2934 006a A3F85220 		strh	r2, [r3, #82]	@ movhi
2026:D:/iot/felix2/targets/Cloud_STM32L431_BearPi/Drivers/STM32L4xx_HAL_Driver/Src\stm32l4xx_hal_uart.c **** 
2027:D:/iot/felix2/targets/Cloud_STM32L431_BearPi/Drivers/STM32L4xx_HAL_Driver/Src\stm32l4xx_hal_uart.c ****       /* Clear TxISR function pointers */
2028:D:/iot/felix2/targets/Cloud_STM32L431_BearPi/Drivers/STM32L4xx_HAL_Driver/Src\stm32l4xx_hal_uart.c ****       huart->TxISR = NULL;
 2935              		.loc 1 2028 0
 2936 006e 7B68     		ldr	r3, [r7, #4]
 2937 0070 0022     		movs	r2, #0
 2938 0072 5A66     		str	r2, [r3, #100]
2029:D:/iot/felix2/targets/Cloud_STM32L431_BearPi/Drivers/STM32L4xx_HAL_Driver/Src\stm32l4xx_hal_uart.c **** 
2030:D:/iot/felix2/targets/Cloud_STM32L431_BearPi/Drivers/STM32L4xx_HAL_Driver/Src\stm32l4xx_hal_uart.c ****       /* Restore huart->gState to Ready */
2031:D:/iot/felix2/targets/Cloud_STM32L431_BearPi/Drivers/STM32L4xx_HAL_Driver/Src\stm32l4xx_hal_uart.c ****       huart->gState = HAL_UART_STATE_READY;
 2939              		.loc 1 2031 0
 2940 0074 7B68     		ldr	r3, [r7, #4]
 2941 0076 2022     		movs	r2, #32
 2942 0078 83F87120 		strb	r2, [r3, #113]
2032:D:/iot/felix2/targets/Cloud_STM32L431_BearPi/Drivers/STM32L4xx_HAL_Driver/Src\stm32l4xx_hal_uart.c **** 
2033:D:/iot/felix2/targets/Cloud_STM32L431_BearPi/Drivers/STM32L4xx_HAL_Driver/Src\stm32l4xx_hal_uart.c ****       /* As no DMA to be aborted, call directly user Abort complete callback */
2034:D:/iot/felix2/targets/Cloud_STM32L431_BearPi/Drivers/STM32L4xx_HAL_Driver/Src\stm32l4xx_hal_uart.c **** #if (USE_HAL_UART_REGISTER_CALLBACKS == 1)
2035:D:/iot/felix2/targets/Cloud_STM32L431_BearPi/Drivers/STM32L4xx_HAL_Driver/Src\stm32l4xx_hal_uart.c ****       /* Call registered Abort Transmit Complete Callback */
2036:D:/iot/felix2/targets/Cloud_STM32L431_BearPi/Drivers/STM32L4xx_HAL_Driver/Src\stm32l4xx_hal_uart.c ****       huart->AbortTransmitCpltCallback(huart);
2037:D:/iot/felix2/targets/Cloud_STM32L431_BearPi/Drivers/STM32L4xx_HAL_Driver/Src\stm32l4xx_hal_uart.c **** #else
2038:D:/iot/felix2/targets/Cloud_STM32L431_BearPi/Drivers/STM32L4xx_HAL_Driver/Src\stm32l4xx_hal_uart.c ****       /* Call legacy weak Abort Transmit Complete Callback */
2039:D:/iot/felix2/targets/Cloud_STM32L431_BearPi/Drivers/STM32L4xx_HAL_Driver/Src\stm32l4xx_hal_uart.c ****       HAL_UART_AbortTransmitCpltCallback(huart);
 2943              		.loc 1 2039 0
 2944 007c 7868     		ldr	r0, [r7, #4]
 2945 007e FFF7FEFF 		bl	HAL_UART_AbortTransmitCpltCallback
 2946 0082 0DE0     		b	.L152
 2947              	.L148:
2040:D:/iot/felix2/targets/Cloud_STM32L431_BearPi/Drivers/STM32L4xx_HAL_Driver/Src\stm32l4xx_hal_uart.c **** #endif /* USE_HAL_UART_REGISTER_CALLBACKS */
2041:D:/iot/felix2/targets/Cloud_STM32L431_BearPi/Drivers/STM32L4xx_HAL_Driver/Src\stm32l4xx_hal_uart.c ****     }
2042:D:/iot/felix2/targets/Cloud_STM32L431_BearPi/Drivers/STM32L4xx_HAL_Driver/Src\stm32l4xx_hal_uart.c ****   }
2043:D:/iot/felix2/targets/Cloud_STM32L431_BearPi/Drivers/STM32L4xx_HAL_Driver/Src\stm32l4xx_hal_uart.c ****   else
2044:D:/iot/felix2/targets/Cloud_STM32L431_BearPi/Drivers/STM32L4xx_HAL_Driver/Src\stm32l4xx_hal_uart.c ****   {
2045:D:/iot/felix2/targets/Cloud_STM32L431_BearPi/Drivers/STM32L4xx_HAL_Driver/Src\stm32l4xx_hal_uart.c ****     /* Reset Tx transfer counter */
2046:D:/iot/felix2/targets/Cloud_STM32L431_BearPi/Drivers/STM32L4xx_HAL_Driver/Src\stm32l4xx_hal_uart.c ****     huart->TxXferCount = 0U;
 2948              		.loc 1 2046 0
ARM GAS  C:\Users\91458\AppData\Local\Temp\ccrpKNIe.s 			page 88


 2949 0084 7B68     		ldr	r3, [r7, #4]
 2950 0086 0022     		movs	r2, #0
 2951 0088 A3F85220 		strh	r2, [r3, #82]	@ movhi
2047:D:/iot/felix2/targets/Cloud_STM32L431_BearPi/Drivers/STM32L4xx_HAL_Driver/Src\stm32l4xx_hal_uart.c **** 
2048:D:/iot/felix2/targets/Cloud_STM32L431_BearPi/Drivers/STM32L4xx_HAL_Driver/Src\stm32l4xx_hal_uart.c ****     /* Clear TxISR function pointers */
2049:D:/iot/felix2/targets/Cloud_STM32L431_BearPi/Drivers/STM32L4xx_HAL_Driver/Src\stm32l4xx_hal_uart.c ****     huart->TxISR = NULL;
 2952              		.loc 1 2049 0
 2953 008c 7B68     		ldr	r3, [r7, #4]
 2954 008e 0022     		movs	r2, #0
 2955 0090 5A66     		str	r2, [r3, #100]
2050:D:/iot/felix2/targets/Cloud_STM32L431_BearPi/Drivers/STM32L4xx_HAL_Driver/Src\stm32l4xx_hal_uart.c **** 
2051:D:/iot/felix2/targets/Cloud_STM32L431_BearPi/Drivers/STM32L4xx_HAL_Driver/Src\stm32l4xx_hal_uart.c **** #if defined(USART_CR1_FIFOEN)
2052:D:/iot/felix2/targets/Cloud_STM32L431_BearPi/Drivers/STM32L4xx_HAL_Driver/Src\stm32l4xx_hal_uart.c ****     /* Flush the whole TX FIFO (if needed) */
2053:D:/iot/felix2/targets/Cloud_STM32L431_BearPi/Drivers/STM32L4xx_HAL_Driver/Src\stm32l4xx_hal_uart.c ****     if (huart->FifoMode == UART_FIFOMODE_ENABLE)
2054:D:/iot/felix2/targets/Cloud_STM32L431_BearPi/Drivers/STM32L4xx_HAL_Driver/Src\stm32l4xx_hal_uart.c ****     {
2055:D:/iot/felix2/targets/Cloud_STM32L431_BearPi/Drivers/STM32L4xx_HAL_Driver/Src\stm32l4xx_hal_uart.c ****       __HAL_UART_SEND_REQ(huart, UART_TXDATA_FLUSH_REQUEST);
2056:D:/iot/felix2/targets/Cloud_STM32L431_BearPi/Drivers/STM32L4xx_HAL_Driver/Src\stm32l4xx_hal_uart.c ****     }
2057:D:/iot/felix2/targets/Cloud_STM32L431_BearPi/Drivers/STM32L4xx_HAL_Driver/Src\stm32l4xx_hal_uart.c **** #endif
2058:D:/iot/felix2/targets/Cloud_STM32L431_BearPi/Drivers/STM32L4xx_HAL_Driver/Src\stm32l4xx_hal_uart.c **** 
2059:D:/iot/felix2/targets/Cloud_STM32L431_BearPi/Drivers/STM32L4xx_HAL_Driver/Src\stm32l4xx_hal_uart.c ****     /* Restore huart->gState to Ready */
2060:D:/iot/felix2/targets/Cloud_STM32L431_BearPi/Drivers/STM32L4xx_HAL_Driver/Src\stm32l4xx_hal_uart.c ****     huart->gState = HAL_UART_STATE_READY;
 2956              		.loc 1 2060 0
 2957 0092 7B68     		ldr	r3, [r7, #4]
 2958 0094 2022     		movs	r2, #32
 2959 0096 83F87120 		strb	r2, [r3, #113]
2061:D:/iot/felix2/targets/Cloud_STM32L431_BearPi/Drivers/STM32L4xx_HAL_Driver/Src\stm32l4xx_hal_uart.c **** 
2062:D:/iot/felix2/targets/Cloud_STM32L431_BearPi/Drivers/STM32L4xx_HAL_Driver/Src\stm32l4xx_hal_uart.c ****     /* As no DMA to be aborted, call directly user Abort complete callback */
2063:D:/iot/felix2/targets/Cloud_STM32L431_BearPi/Drivers/STM32L4xx_HAL_Driver/Src\stm32l4xx_hal_uart.c **** #if (USE_HAL_UART_REGISTER_CALLBACKS == 1)
2064:D:/iot/felix2/targets/Cloud_STM32L431_BearPi/Drivers/STM32L4xx_HAL_Driver/Src\stm32l4xx_hal_uart.c ****     /* Call registered Abort Transmit Complete Callback */
2065:D:/iot/felix2/targets/Cloud_STM32L431_BearPi/Drivers/STM32L4xx_HAL_Driver/Src\stm32l4xx_hal_uart.c ****     huart->AbortTransmitCpltCallback(huart);
2066:D:/iot/felix2/targets/Cloud_STM32L431_BearPi/Drivers/STM32L4xx_HAL_Driver/Src\stm32l4xx_hal_uart.c **** #else
2067:D:/iot/felix2/targets/Cloud_STM32L431_BearPi/Drivers/STM32L4xx_HAL_Driver/Src\stm32l4xx_hal_uart.c ****     /* Call legacy weak Abort Transmit Complete Callback */
2068:D:/iot/felix2/targets/Cloud_STM32L431_BearPi/Drivers/STM32L4xx_HAL_Driver/Src\stm32l4xx_hal_uart.c ****     HAL_UART_AbortTransmitCpltCallback(huart);
 2960              		.loc 1 2068 0
 2961 009a 7868     		ldr	r0, [r7, #4]
 2962 009c FFF7FEFF 		bl	HAL_UART_AbortTransmitCpltCallback
 2963              	.L152:
2069:D:/iot/felix2/targets/Cloud_STM32L431_BearPi/Drivers/STM32L4xx_HAL_Driver/Src\stm32l4xx_hal_uart.c **** #endif /* USE_HAL_UART_REGISTER_CALLBACKS */
2070:D:/iot/felix2/targets/Cloud_STM32L431_BearPi/Drivers/STM32L4xx_HAL_Driver/Src\stm32l4xx_hal_uart.c ****   }
2071:D:/iot/felix2/targets/Cloud_STM32L431_BearPi/Drivers/STM32L4xx_HAL_Driver/Src\stm32l4xx_hal_uart.c **** 
2072:D:/iot/felix2/targets/Cloud_STM32L431_BearPi/Drivers/STM32L4xx_HAL_Driver/Src\stm32l4xx_hal_uart.c ****   return HAL_OK;
 2964              		.loc 1 2072 0
 2965 00a0 0023     		movs	r3, #0
2073:D:/iot/felix2/targets/Cloud_STM32L431_BearPi/Drivers/STM32L4xx_HAL_Driver/Src\stm32l4xx_hal_uart.c **** }
 2966              		.loc 1 2073 0
 2967 00a2 1846     		mov	r0, r3
 2968 00a4 0837     		adds	r7, r7, #8
 2969              	.LCFI109:
 2970              		.cfi_def_cfa_offset 8
 2971 00a6 BD46     		mov	sp, r7
 2972              	.LCFI110:
 2973              		.cfi_def_cfa_register 13
 2974              		@ sp needed
 2975 00a8 80BD     		pop	{r7, pc}
 2976              	.L155:
 2977 00aa 00BF     		.align	2
 2978              	.L154:
ARM GAS  C:\Users\91458\AppData\Local\Temp\ccrpKNIe.s 			page 89


 2979 00ac 00000000 		.word	UART_DMATxOnlyAbortCallback
 2980              		.cfi_endproc
 2981              	.LFE153:
 2983              		.section	.text.HAL_UART_AbortReceive_IT,"ax",%progbits
 2984              		.align	1
 2985              		.global	HAL_UART_AbortReceive_IT
 2986              		.syntax unified
 2987              		.thumb
 2988              		.thumb_func
 2989              		.fpu fpv4-sp-d16
 2991              	HAL_UART_AbortReceive_IT:
 2992              	.LFB154:
2074:D:/iot/felix2/targets/Cloud_STM32L431_BearPi/Drivers/STM32L4xx_HAL_Driver/Src\stm32l4xx_hal_uart.c **** 
2075:D:/iot/felix2/targets/Cloud_STM32L431_BearPi/Drivers/STM32L4xx_HAL_Driver/Src\stm32l4xx_hal_uart.c **** /**
2076:D:/iot/felix2/targets/Cloud_STM32L431_BearPi/Drivers/STM32L4xx_HAL_Driver/Src\stm32l4xx_hal_uart.c ****   * @brief  Abort ongoing Receive transfer (Interrupt mode).
2077:D:/iot/felix2/targets/Cloud_STM32L431_BearPi/Drivers/STM32L4xx_HAL_Driver/Src\stm32l4xx_hal_uart.c ****   * @param  huart UART handle.
2078:D:/iot/felix2/targets/Cloud_STM32L431_BearPi/Drivers/STM32L4xx_HAL_Driver/Src\stm32l4xx_hal_uart.c ****   * @note   This procedure could be used for aborting any ongoing Rx transfer started in Interrupt 
2079:D:/iot/felix2/targets/Cloud_STM32L431_BearPi/Drivers/STM32L4xx_HAL_Driver/Src\stm32l4xx_hal_uart.c ****   *         This procedure performs following operations :
2080:D:/iot/felix2/targets/Cloud_STM32L431_BearPi/Drivers/STM32L4xx_HAL_Driver/Src\stm32l4xx_hal_uart.c ****   *           - Disable UART Interrupts (Rx)
2081:D:/iot/felix2/targets/Cloud_STM32L431_BearPi/Drivers/STM32L4xx_HAL_Driver/Src\stm32l4xx_hal_uart.c ****   *           - Disable the DMA transfer in the peripheral register (if enabled)
2082:D:/iot/felix2/targets/Cloud_STM32L431_BearPi/Drivers/STM32L4xx_HAL_Driver/Src\stm32l4xx_hal_uart.c ****   *           - Abort DMA transfer by calling HAL_DMA_Abort_IT (in case of transfer in DMA mode)
2083:D:/iot/felix2/targets/Cloud_STM32L431_BearPi/Drivers/STM32L4xx_HAL_Driver/Src\stm32l4xx_hal_uart.c ****   *           - Set handle State to READY
2084:D:/iot/felix2/targets/Cloud_STM32L431_BearPi/Drivers/STM32L4xx_HAL_Driver/Src\stm32l4xx_hal_uart.c ****   *           - At abort completion, call user abort complete callback
2085:D:/iot/felix2/targets/Cloud_STM32L431_BearPi/Drivers/STM32L4xx_HAL_Driver/Src\stm32l4xx_hal_uart.c ****   * @note   This procedure is executed in Interrupt mode, meaning that abort procedure could be
2086:D:/iot/felix2/targets/Cloud_STM32L431_BearPi/Drivers/STM32L4xx_HAL_Driver/Src\stm32l4xx_hal_uart.c ****   *         considered as completed only when user abort complete callback is executed (not when ex
2087:D:/iot/felix2/targets/Cloud_STM32L431_BearPi/Drivers/STM32L4xx_HAL_Driver/Src\stm32l4xx_hal_uart.c ****   * @retval HAL status
2088:D:/iot/felix2/targets/Cloud_STM32L431_BearPi/Drivers/STM32L4xx_HAL_Driver/Src\stm32l4xx_hal_uart.c **** */
2089:D:/iot/felix2/targets/Cloud_STM32L431_BearPi/Drivers/STM32L4xx_HAL_Driver/Src\stm32l4xx_hal_uart.c **** HAL_StatusTypeDef HAL_UART_AbortReceive_IT(UART_HandleTypeDef *huart)
2090:D:/iot/felix2/targets/Cloud_STM32L431_BearPi/Drivers/STM32L4xx_HAL_Driver/Src\stm32l4xx_hal_uart.c **** {
 2993              		.loc 1 2090 0
 2994              		.cfi_startproc
 2995              		@ args = 0, pretend = 0, frame = 8
 2996              		@ frame_needed = 1, uses_anonymous_args = 0
 2997 0000 80B5     		push	{r7, lr}
 2998              	.LCFI111:
 2999              		.cfi_def_cfa_offset 8
 3000              		.cfi_offset 7, -8
 3001              		.cfi_offset 14, -4
 3002 0002 82B0     		sub	sp, sp, #8
 3003              	.LCFI112:
 3004              		.cfi_def_cfa_offset 16
 3005 0004 00AF     		add	r7, sp, #0
 3006              	.LCFI113:
 3007              		.cfi_def_cfa_register 7
 3008 0006 7860     		str	r0, [r7, #4]
2091:D:/iot/felix2/targets/Cloud_STM32L431_BearPi/Drivers/STM32L4xx_HAL_Driver/Src\stm32l4xx_hal_uart.c ****   /* Disable RXNE, PE and ERR (Frame error, noise error, overrun error) interrupts */
2092:D:/iot/felix2/targets/Cloud_STM32L431_BearPi/Drivers/STM32L4xx_HAL_Driver/Src\stm32l4xx_hal_uart.c **** #if defined(USART_CR1_FIFOEN)
2093:D:/iot/felix2/targets/Cloud_STM32L431_BearPi/Drivers/STM32L4xx_HAL_Driver/Src\stm32l4xx_hal_uart.c ****   CLEAR_BIT(huart->Instance->CR1, (USART_CR1_PEIE | USART_CR1_RXNEIE_RXFNEIE));
2094:D:/iot/felix2/targets/Cloud_STM32L431_BearPi/Drivers/STM32L4xx_HAL_Driver/Src\stm32l4xx_hal_uart.c ****   CLEAR_BIT(huart->Instance->CR3, (USART_CR3_EIE | USART_CR3_RXFTIE));
2095:D:/iot/felix2/targets/Cloud_STM32L431_BearPi/Drivers/STM32L4xx_HAL_Driver/Src\stm32l4xx_hal_uart.c **** #else
2096:D:/iot/felix2/targets/Cloud_STM32L431_BearPi/Drivers/STM32L4xx_HAL_Driver/Src\stm32l4xx_hal_uart.c ****   CLEAR_BIT(huart->Instance->CR1, (USART_CR1_RXNEIE | USART_CR1_PEIE));
 3009              		.loc 1 2096 0
 3010 0008 7B68     		ldr	r3, [r7, #4]
 3011 000a 1B68     		ldr	r3, [r3]
 3012 000c 1A68     		ldr	r2, [r3]
 3013 000e 7B68     		ldr	r3, [r7, #4]
 3014 0010 1B68     		ldr	r3, [r3]
ARM GAS  C:\Users\91458\AppData\Local\Temp\ccrpKNIe.s 			page 90


 3015 0012 22F49072 		bic	r2, r2, #288
 3016 0016 1A60     		str	r2, [r3]
2097:D:/iot/felix2/targets/Cloud_STM32L431_BearPi/Drivers/STM32L4xx_HAL_Driver/Src\stm32l4xx_hal_uart.c ****   CLEAR_BIT(huart->Instance->CR3, USART_CR3_EIE);
 3017              		.loc 1 2097 0
 3018 0018 7B68     		ldr	r3, [r7, #4]
 3019 001a 1B68     		ldr	r3, [r3]
 3020 001c 9A68     		ldr	r2, [r3, #8]
 3021 001e 7B68     		ldr	r3, [r7, #4]
 3022 0020 1B68     		ldr	r3, [r3]
 3023 0022 22F00102 		bic	r2, r2, #1
 3024 0026 9A60     		str	r2, [r3, #8]
2098:D:/iot/felix2/targets/Cloud_STM32L431_BearPi/Drivers/STM32L4xx_HAL_Driver/Src\stm32l4xx_hal_uart.c **** #endif
2099:D:/iot/felix2/targets/Cloud_STM32L431_BearPi/Drivers/STM32L4xx_HAL_Driver/Src\stm32l4xx_hal_uart.c **** 
2100:D:/iot/felix2/targets/Cloud_STM32L431_BearPi/Drivers/STM32L4xx_HAL_Driver/Src\stm32l4xx_hal_uart.c ****   /* Disable the UART DMA Rx request if enabled */
2101:D:/iot/felix2/targets/Cloud_STM32L431_BearPi/Drivers/STM32L4xx_HAL_Driver/Src\stm32l4xx_hal_uart.c ****   if (HAL_IS_BIT_SET(huart->Instance->CR3, USART_CR3_DMAR))
 3025              		.loc 1 2101 0
 3026 0028 7B68     		ldr	r3, [r7, #4]
 3027 002a 1B68     		ldr	r3, [r3]
 3028 002c 9B68     		ldr	r3, [r3, #8]
 3029 002e 03F04003 		and	r3, r3, #64
 3030 0032 402B     		cmp	r3, #64
 3031 0034 3CD1     		bne	.L157
2102:D:/iot/felix2/targets/Cloud_STM32L431_BearPi/Drivers/STM32L4xx_HAL_Driver/Src\stm32l4xx_hal_uart.c ****   {
2103:D:/iot/felix2/targets/Cloud_STM32L431_BearPi/Drivers/STM32L4xx_HAL_Driver/Src\stm32l4xx_hal_uart.c ****     CLEAR_BIT(huart->Instance->CR3, USART_CR3_DMAR);
 3032              		.loc 1 2103 0
 3033 0036 7B68     		ldr	r3, [r7, #4]
 3034 0038 1B68     		ldr	r3, [r3]
 3035 003a 9A68     		ldr	r2, [r3, #8]
 3036 003c 7B68     		ldr	r3, [r7, #4]
 3037 003e 1B68     		ldr	r3, [r3]
 3038 0040 22F04002 		bic	r2, r2, #64
 3039 0044 9A60     		str	r2, [r3, #8]
2104:D:/iot/felix2/targets/Cloud_STM32L431_BearPi/Drivers/STM32L4xx_HAL_Driver/Src\stm32l4xx_hal_uart.c **** 
2105:D:/iot/felix2/targets/Cloud_STM32L431_BearPi/Drivers/STM32L4xx_HAL_Driver/Src\stm32l4xx_hal_uart.c ****     /* Abort the UART DMA Rx channel : use non blocking DMA Abort API (callback) */
2106:D:/iot/felix2/targets/Cloud_STM32L431_BearPi/Drivers/STM32L4xx_HAL_Driver/Src\stm32l4xx_hal_uart.c ****     if (huart->hdmarx != NULL)
 3040              		.loc 1 2106 0
 3041 0046 7B68     		ldr	r3, [r7, #4]
 3042 0048 DB6E     		ldr	r3, [r3, #108]
 3043 004a 002B     		cmp	r3, #0
 3044 004c 13D0     		beq	.L158
2107:D:/iot/felix2/targets/Cloud_STM32L431_BearPi/Drivers/STM32L4xx_HAL_Driver/Src\stm32l4xx_hal_uart.c ****     {
2108:D:/iot/felix2/targets/Cloud_STM32L431_BearPi/Drivers/STM32L4xx_HAL_Driver/Src\stm32l4xx_hal_uart.c ****       /* Set the UART DMA Abort callback :
2109:D:/iot/felix2/targets/Cloud_STM32L431_BearPi/Drivers/STM32L4xx_HAL_Driver/Src\stm32l4xx_hal_uart.c ****          will lead to call HAL_UART_AbortCpltCallback() at end of DMA abort procedure */
2110:D:/iot/felix2/targets/Cloud_STM32L431_BearPi/Drivers/STM32L4xx_HAL_Driver/Src\stm32l4xx_hal_uart.c ****       huart->hdmarx->XferAbortCallback = UART_DMARxOnlyAbortCallback;
 3045              		.loc 1 2110 0
 3046 004e 7B68     		ldr	r3, [r7, #4]
 3047 0050 DB6E     		ldr	r3, [r3, #108]
 3048 0052 234A     		ldr	r2, .L163
 3049 0054 9A63     		str	r2, [r3, #56]
2111:D:/iot/felix2/targets/Cloud_STM32L431_BearPi/Drivers/STM32L4xx_HAL_Driver/Src\stm32l4xx_hal_uart.c **** 
2112:D:/iot/felix2/targets/Cloud_STM32L431_BearPi/Drivers/STM32L4xx_HAL_Driver/Src\stm32l4xx_hal_uart.c ****       /* Abort DMA RX */
2113:D:/iot/felix2/targets/Cloud_STM32L431_BearPi/Drivers/STM32L4xx_HAL_Driver/Src\stm32l4xx_hal_uart.c ****       if (HAL_DMA_Abort_IT(huart->hdmarx) != HAL_OK)
 3050              		.loc 1 2113 0
 3051 0056 7B68     		ldr	r3, [r7, #4]
 3052 0058 DB6E     		ldr	r3, [r3, #108]
 3053 005a 1846     		mov	r0, r3
 3054 005c FFF7FEFF 		bl	HAL_DMA_Abort_IT
ARM GAS  C:\Users\91458\AppData\Local\Temp\ccrpKNIe.s 			page 91


 3055 0060 0346     		mov	r3, r0
 3056 0062 002B     		cmp	r3, #0
 3057 0064 36D0     		beq	.L161
2114:D:/iot/felix2/targets/Cloud_STM32L431_BearPi/Drivers/STM32L4xx_HAL_Driver/Src\stm32l4xx_hal_uart.c ****       {
2115:D:/iot/felix2/targets/Cloud_STM32L431_BearPi/Drivers/STM32L4xx_HAL_Driver/Src\stm32l4xx_hal_uart.c ****         /* Call Directly huart->hdmarx->XferAbortCallback function in case of error */
2116:D:/iot/felix2/targets/Cloud_STM32L431_BearPi/Drivers/STM32L4xx_HAL_Driver/Src\stm32l4xx_hal_uart.c ****         huart->hdmarx->XferAbortCallback(huart->hdmarx);
 3058              		.loc 1 2116 0
 3059 0066 7B68     		ldr	r3, [r7, #4]
 3060 0068 DB6E     		ldr	r3, [r3, #108]
 3061 006a 9B6B     		ldr	r3, [r3, #56]
 3062 006c 7A68     		ldr	r2, [r7, #4]
 3063 006e D26E     		ldr	r2, [r2, #108]
 3064 0070 1046     		mov	r0, r2
 3065 0072 9847     		blx	r3
 3066              	.LVL1:
 3067 0074 2EE0     		b	.L161
 3068              	.L158:
2117:D:/iot/felix2/targets/Cloud_STM32L431_BearPi/Drivers/STM32L4xx_HAL_Driver/Src\stm32l4xx_hal_uart.c ****       }
2118:D:/iot/felix2/targets/Cloud_STM32L431_BearPi/Drivers/STM32L4xx_HAL_Driver/Src\stm32l4xx_hal_uart.c ****     }
2119:D:/iot/felix2/targets/Cloud_STM32L431_BearPi/Drivers/STM32L4xx_HAL_Driver/Src\stm32l4xx_hal_uart.c ****     else
2120:D:/iot/felix2/targets/Cloud_STM32L431_BearPi/Drivers/STM32L4xx_HAL_Driver/Src\stm32l4xx_hal_uart.c ****     {
2121:D:/iot/felix2/targets/Cloud_STM32L431_BearPi/Drivers/STM32L4xx_HAL_Driver/Src\stm32l4xx_hal_uart.c ****       /* Reset Rx transfer counter */
2122:D:/iot/felix2/targets/Cloud_STM32L431_BearPi/Drivers/STM32L4xx_HAL_Driver/Src\stm32l4xx_hal_uart.c ****       huart->RxXferCount = 0U;
 3069              		.loc 1 2122 0
 3070 0076 7B68     		ldr	r3, [r7, #4]
 3071 0078 0022     		movs	r2, #0
 3072 007a A3F85A20 		strh	r2, [r3, #90]	@ movhi
2123:D:/iot/felix2/targets/Cloud_STM32L431_BearPi/Drivers/STM32L4xx_HAL_Driver/Src\stm32l4xx_hal_uart.c **** 
2124:D:/iot/felix2/targets/Cloud_STM32L431_BearPi/Drivers/STM32L4xx_HAL_Driver/Src\stm32l4xx_hal_uart.c ****       /* Clear RxISR function pointer */
2125:D:/iot/felix2/targets/Cloud_STM32L431_BearPi/Drivers/STM32L4xx_HAL_Driver/Src\stm32l4xx_hal_uart.c ****       huart->pRxBuffPtr = NULL;
 3073              		.loc 1 2125 0
 3074 007e 7B68     		ldr	r3, [r7, #4]
 3075 0080 0022     		movs	r2, #0
 3076 0082 5A65     		str	r2, [r3, #84]
2126:D:/iot/felix2/targets/Cloud_STM32L431_BearPi/Drivers/STM32L4xx_HAL_Driver/Src\stm32l4xx_hal_uart.c **** 
2127:D:/iot/felix2/targets/Cloud_STM32L431_BearPi/Drivers/STM32L4xx_HAL_Driver/Src\stm32l4xx_hal_uart.c ****       /* Clear the Error flags in the ICR register */
2128:D:/iot/felix2/targets/Cloud_STM32L431_BearPi/Drivers/STM32L4xx_HAL_Driver/Src\stm32l4xx_hal_uart.c ****       __HAL_UART_CLEAR_FLAG(huart, UART_CLEAR_OREF | UART_CLEAR_NEF | UART_CLEAR_PEF | UART_CLEAR_F
 3077              		.loc 1 2128 0
 3078 0084 7B68     		ldr	r3, [r7, #4]
 3079 0086 1B68     		ldr	r3, [r3]
 3080 0088 0F22     		movs	r2, #15
 3081 008a 1A62     		str	r2, [r3, #32]
2129:D:/iot/felix2/targets/Cloud_STM32L431_BearPi/Drivers/STM32L4xx_HAL_Driver/Src\stm32l4xx_hal_uart.c **** 
2130:D:/iot/felix2/targets/Cloud_STM32L431_BearPi/Drivers/STM32L4xx_HAL_Driver/Src\stm32l4xx_hal_uart.c ****       /* Discard the received data */
2131:D:/iot/felix2/targets/Cloud_STM32L431_BearPi/Drivers/STM32L4xx_HAL_Driver/Src\stm32l4xx_hal_uart.c ****       __HAL_UART_SEND_REQ(huart, UART_RXDATA_FLUSH_REQUEST);
 3082              		.loc 1 2131 0
 3083 008c 7B68     		ldr	r3, [r7, #4]
 3084 008e 1B68     		ldr	r3, [r3]
 3085 0090 1B8B     		ldrh	r3, [r3, #24]	@ movhi
 3086 0092 9AB2     		uxth	r2, r3
 3087 0094 7B68     		ldr	r3, [r7, #4]
 3088 0096 1B68     		ldr	r3, [r3]
 3089 0098 42F00802 		orr	r2, r2, #8
 3090 009c 92B2     		uxth	r2, r2
 3091 009e 1A83     		strh	r2, [r3, #24]	@ movhi
2132:D:/iot/felix2/targets/Cloud_STM32L431_BearPi/Drivers/STM32L4xx_HAL_Driver/Src\stm32l4xx_hal_uart.c **** 
2133:D:/iot/felix2/targets/Cloud_STM32L431_BearPi/Drivers/STM32L4xx_HAL_Driver/Src\stm32l4xx_hal_uart.c ****       /* Restore huart->RxState to Ready */
ARM GAS  C:\Users\91458\AppData\Local\Temp\ccrpKNIe.s 			page 92


2134:D:/iot/felix2/targets/Cloud_STM32L431_BearPi/Drivers/STM32L4xx_HAL_Driver/Src\stm32l4xx_hal_uart.c ****       huart->RxState = HAL_UART_STATE_READY;
 3092              		.loc 1 2134 0
 3093 00a0 7B68     		ldr	r3, [r7, #4]
 3094 00a2 2022     		movs	r2, #32
 3095 00a4 83F87220 		strb	r2, [r3, #114]
2135:D:/iot/felix2/targets/Cloud_STM32L431_BearPi/Drivers/STM32L4xx_HAL_Driver/Src\stm32l4xx_hal_uart.c **** 
2136:D:/iot/felix2/targets/Cloud_STM32L431_BearPi/Drivers/STM32L4xx_HAL_Driver/Src\stm32l4xx_hal_uart.c ****       /* As no DMA to be aborted, call directly user Abort complete callback */
2137:D:/iot/felix2/targets/Cloud_STM32L431_BearPi/Drivers/STM32L4xx_HAL_Driver/Src\stm32l4xx_hal_uart.c **** #if (USE_HAL_UART_REGISTER_CALLBACKS == 1)
2138:D:/iot/felix2/targets/Cloud_STM32L431_BearPi/Drivers/STM32L4xx_HAL_Driver/Src\stm32l4xx_hal_uart.c ****       /* Call registered Abort Receive Complete Callback */
2139:D:/iot/felix2/targets/Cloud_STM32L431_BearPi/Drivers/STM32L4xx_HAL_Driver/Src\stm32l4xx_hal_uart.c ****       huart->AbortReceiveCpltCallback(huart);
2140:D:/iot/felix2/targets/Cloud_STM32L431_BearPi/Drivers/STM32L4xx_HAL_Driver/Src\stm32l4xx_hal_uart.c **** #else
2141:D:/iot/felix2/targets/Cloud_STM32L431_BearPi/Drivers/STM32L4xx_HAL_Driver/Src\stm32l4xx_hal_uart.c ****       /* Call legacy weak Abort Receive Complete Callback */
2142:D:/iot/felix2/targets/Cloud_STM32L431_BearPi/Drivers/STM32L4xx_HAL_Driver/Src\stm32l4xx_hal_uart.c ****       HAL_UART_AbortReceiveCpltCallback(huart);
 3096              		.loc 1 2142 0
 3097 00a8 7868     		ldr	r0, [r7, #4]
 3098 00aa FFF7FEFF 		bl	HAL_UART_AbortReceiveCpltCallback
 3099 00ae 11E0     		b	.L161
 3100              	.L157:
2143:D:/iot/felix2/targets/Cloud_STM32L431_BearPi/Drivers/STM32L4xx_HAL_Driver/Src\stm32l4xx_hal_uart.c **** #endif /* USE_HAL_UART_REGISTER_CALLBACKS */
2144:D:/iot/felix2/targets/Cloud_STM32L431_BearPi/Drivers/STM32L4xx_HAL_Driver/Src\stm32l4xx_hal_uart.c ****     }
2145:D:/iot/felix2/targets/Cloud_STM32L431_BearPi/Drivers/STM32L4xx_HAL_Driver/Src\stm32l4xx_hal_uart.c ****   }
2146:D:/iot/felix2/targets/Cloud_STM32L431_BearPi/Drivers/STM32L4xx_HAL_Driver/Src\stm32l4xx_hal_uart.c ****   else
2147:D:/iot/felix2/targets/Cloud_STM32L431_BearPi/Drivers/STM32L4xx_HAL_Driver/Src\stm32l4xx_hal_uart.c ****   {
2148:D:/iot/felix2/targets/Cloud_STM32L431_BearPi/Drivers/STM32L4xx_HAL_Driver/Src\stm32l4xx_hal_uart.c ****     /* Reset Rx transfer counter */
2149:D:/iot/felix2/targets/Cloud_STM32L431_BearPi/Drivers/STM32L4xx_HAL_Driver/Src\stm32l4xx_hal_uart.c ****     huart->RxXferCount = 0U;
 3101              		.loc 1 2149 0
 3102 00b0 7B68     		ldr	r3, [r7, #4]
 3103 00b2 0022     		movs	r2, #0
 3104 00b4 A3F85A20 		strh	r2, [r3, #90]	@ movhi
2150:D:/iot/felix2/targets/Cloud_STM32L431_BearPi/Drivers/STM32L4xx_HAL_Driver/Src\stm32l4xx_hal_uart.c **** 
2151:D:/iot/felix2/targets/Cloud_STM32L431_BearPi/Drivers/STM32L4xx_HAL_Driver/Src\stm32l4xx_hal_uart.c ****     /* Clear RxISR function pointer */
2152:D:/iot/felix2/targets/Cloud_STM32L431_BearPi/Drivers/STM32L4xx_HAL_Driver/Src\stm32l4xx_hal_uart.c ****     huart->pRxBuffPtr = NULL;
 3105              		.loc 1 2152 0
 3106 00b8 7B68     		ldr	r3, [r7, #4]
 3107 00ba 0022     		movs	r2, #0
 3108 00bc 5A65     		str	r2, [r3, #84]
2153:D:/iot/felix2/targets/Cloud_STM32L431_BearPi/Drivers/STM32L4xx_HAL_Driver/Src\stm32l4xx_hal_uart.c **** 
2154:D:/iot/felix2/targets/Cloud_STM32L431_BearPi/Drivers/STM32L4xx_HAL_Driver/Src\stm32l4xx_hal_uart.c ****     /* Clear the Error flags in the ICR register */
2155:D:/iot/felix2/targets/Cloud_STM32L431_BearPi/Drivers/STM32L4xx_HAL_Driver/Src\stm32l4xx_hal_uart.c ****     __HAL_UART_CLEAR_FLAG(huart, UART_CLEAR_OREF | UART_CLEAR_NEF | UART_CLEAR_PEF | UART_CLEAR_FEF
 3109              		.loc 1 2155 0
 3110 00be 7B68     		ldr	r3, [r7, #4]
 3111 00c0 1B68     		ldr	r3, [r3]
 3112 00c2 0F22     		movs	r2, #15
 3113 00c4 1A62     		str	r2, [r3, #32]
2156:D:/iot/felix2/targets/Cloud_STM32L431_BearPi/Drivers/STM32L4xx_HAL_Driver/Src\stm32l4xx_hal_uart.c **** 
2157:D:/iot/felix2/targets/Cloud_STM32L431_BearPi/Drivers/STM32L4xx_HAL_Driver/Src\stm32l4xx_hal_uart.c ****     /* Restore huart->RxState to Ready */
2158:D:/iot/felix2/targets/Cloud_STM32L431_BearPi/Drivers/STM32L4xx_HAL_Driver/Src\stm32l4xx_hal_uart.c ****     huart->RxState = HAL_UART_STATE_READY;
 3114              		.loc 1 2158 0
 3115 00c6 7B68     		ldr	r3, [r7, #4]
 3116 00c8 2022     		movs	r2, #32
 3117 00ca 83F87220 		strb	r2, [r3, #114]
2159:D:/iot/felix2/targets/Cloud_STM32L431_BearPi/Drivers/STM32L4xx_HAL_Driver/Src\stm32l4xx_hal_uart.c **** 
2160:D:/iot/felix2/targets/Cloud_STM32L431_BearPi/Drivers/STM32L4xx_HAL_Driver/Src\stm32l4xx_hal_uart.c ****     /* As no DMA to be aborted, call directly user Abort complete callback */
2161:D:/iot/felix2/targets/Cloud_STM32L431_BearPi/Drivers/STM32L4xx_HAL_Driver/Src\stm32l4xx_hal_uart.c **** #if (USE_HAL_UART_REGISTER_CALLBACKS == 1)
2162:D:/iot/felix2/targets/Cloud_STM32L431_BearPi/Drivers/STM32L4xx_HAL_Driver/Src\stm32l4xx_hal_uart.c ****     /* Call registered Abort Receive Complete Callback */
2163:D:/iot/felix2/targets/Cloud_STM32L431_BearPi/Drivers/STM32L4xx_HAL_Driver/Src\stm32l4xx_hal_uart.c ****     huart->AbortReceiveCpltCallback(huart);
2164:D:/iot/felix2/targets/Cloud_STM32L431_BearPi/Drivers/STM32L4xx_HAL_Driver/Src\stm32l4xx_hal_uart.c **** #else
ARM GAS  C:\Users\91458\AppData\Local\Temp\ccrpKNIe.s 			page 93


2165:D:/iot/felix2/targets/Cloud_STM32L431_BearPi/Drivers/STM32L4xx_HAL_Driver/Src\stm32l4xx_hal_uart.c ****     /* Call legacy weak Abort Receive Complete Callback */
2166:D:/iot/felix2/targets/Cloud_STM32L431_BearPi/Drivers/STM32L4xx_HAL_Driver/Src\stm32l4xx_hal_uart.c ****     HAL_UART_AbortReceiveCpltCallback(huart);
 3118              		.loc 1 2166 0
 3119 00ce 7868     		ldr	r0, [r7, #4]
 3120 00d0 FFF7FEFF 		bl	HAL_UART_AbortReceiveCpltCallback
 3121              	.L161:
2167:D:/iot/felix2/targets/Cloud_STM32L431_BearPi/Drivers/STM32L4xx_HAL_Driver/Src\stm32l4xx_hal_uart.c **** #endif /* USE_HAL_UART_REGISTER_CALLBACKS */
2168:D:/iot/felix2/targets/Cloud_STM32L431_BearPi/Drivers/STM32L4xx_HAL_Driver/Src\stm32l4xx_hal_uart.c ****   }
2169:D:/iot/felix2/targets/Cloud_STM32L431_BearPi/Drivers/STM32L4xx_HAL_Driver/Src\stm32l4xx_hal_uart.c **** 
2170:D:/iot/felix2/targets/Cloud_STM32L431_BearPi/Drivers/STM32L4xx_HAL_Driver/Src\stm32l4xx_hal_uart.c ****   return HAL_OK;
 3122              		.loc 1 2170 0
 3123 00d4 0023     		movs	r3, #0
2171:D:/iot/felix2/targets/Cloud_STM32L431_BearPi/Drivers/STM32L4xx_HAL_Driver/Src\stm32l4xx_hal_uart.c **** }
 3124              		.loc 1 2171 0
 3125 00d6 1846     		mov	r0, r3
 3126 00d8 0837     		adds	r7, r7, #8
 3127              	.LCFI114:
 3128              		.cfi_def_cfa_offset 8
 3129 00da BD46     		mov	sp, r7
 3130              	.LCFI115:
 3131              		.cfi_def_cfa_register 13
 3132              		@ sp needed
 3133 00dc 80BD     		pop	{r7, pc}
 3134              	.L164:
 3135 00de 00BF     		.align	2
 3136              	.L163:
 3137 00e0 00000000 		.word	UART_DMARxOnlyAbortCallback
 3138              		.cfi_endproc
 3139              	.LFE154:
 3141              		.section	.text.HAL_UART_IRQHandler,"ax",%progbits
 3142              		.align	1
 3143              		.global	HAL_UART_IRQHandler
 3144              		.syntax unified
 3145              		.thumb
 3146              		.thumb_func
 3147              		.fpu fpv4-sp-d16
 3149              	HAL_UART_IRQHandler:
 3150              	.LFB155:
2172:D:/iot/felix2/targets/Cloud_STM32L431_BearPi/Drivers/STM32L4xx_HAL_Driver/Src\stm32l4xx_hal_uart.c **** 
2173:D:/iot/felix2/targets/Cloud_STM32L431_BearPi/Drivers/STM32L4xx_HAL_Driver/Src\stm32l4xx_hal_uart.c **** /**
2174:D:/iot/felix2/targets/Cloud_STM32L431_BearPi/Drivers/STM32L4xx_HAL_Driver/Src\stm32l4xx_hal_uart.c ****   * @brief Handle UART interrupt request.
2175:D:/iot/felix2/targets/Cloud_STM32L431_BearPi/Drivers/STM32L4xx_HAL_Driver/Src\stm32l4xx_hal_uart.c ****   * @param huart UART handle.
2176:D:/iot/felix2/targets/Cloud_STM32L431_BearPi/Drivers/STM32L4xx_HAL_Driver/Src\stm32l4xx_hal_uart.c ****   * @retval None
2177:D:/iot/felix2/targets/Cloud_STM32L431_BearPi/Drivers/STM32L4xx_HAL_Driver/Src\stm32l4xx_hal_uart.c ****   */
2178:D:/iot/felix2/targets/Cloud_STM32L431_BearPi/Drivers/STM32L4xx_HAL_Driver/Src\stm32l4xx_hal_uart.c **** void HAL_UART_IRQHandler(UART_HandleTypeDef *huart)
2179:D:/iot/felix2/targets/Cloud_STM32L431_BearPi/Drivers/STM32L4xx_HAL_Driver/Src\stm32l4xx_hal_uart.c **** {
 3151              		.loc 1 2179 0
 3152              		.cfi_startproc
 3153              		@ args = 0, pretend = 0, frame = 24
 3154              		@ frame_needed = 1, uses_anonymous_args = 0
 3155 0000 80B5     		push	{r7, lr}
 3156              	.LCFI116:
 3157              		.cfi_def_cfa_offset 8
 3158              		.cfi_offset 7, -8
 3159              		.cfi_offset 14, -4
 3160 0002 86B0     		sub	sp, sp, #24
 3161              	.LCFI117:
ARM GAS  C:\Users\91458\AppData\Local\Temp\ccrpKNIe.s 			page 94


 3162              		.cfi_def_cfa_offset 32
 3163 0004 00AF     		add	r7, sp, #0
 3164              	.LCFI118:
 3165              		.cfi_def_cfa_register 7
 3166 0006 7860     		str	r0, [r7, #4]
2180:D:/iot/felix2/targets/Cloud_STM32L431_BearPi/Drivers/STM32L4xx_HAL_Driver/Src\stm32l4xx_hal_uart.c ****   uint32_t isrflags   = READ_REG(huart->Instance->ISR);
 3167              		.loc 1 2180 0
 3168 0008 7B68     		ldr	r3, [r7, #4]
 3169 000a 1B68     		ldr	r3, [r3]
 3170 000c DB69     		ldr	r3, [r3, #28]
 3171 000e 7B61     		str	r3, [r7, #20]
2181:D:/iot/felix2/targets/Cloud_STM32L431_BearPi/Drivers/STM32L4xx_HAL_Driver/Src\stm32l4xx_hal_uart.c ****   uint32_t cr1its     = READ_REG(huart->Instance->CR1);
 3172              		.loc 1 2181 0
 3173 0010 7B68     		ldr	r3, [r7, #4]
 3174 0012 1B68     		ldr	r3, [r3]
 3175 0014 1B68     		ldr	r3, [r3]
 3176 0016 3B61     		str	r3, [r7, #16]
2182:D:/iot/felix2/targets/Cloud_STM32L431_BearPi/Drivers/STM32L4xx_HAL_Driver/Src\stm32l4xx_hal_uart.c ****   uint32_t cr3its     = READ_REG(huart->Instance->CR3);
 3177              		.loc 1 2182 0
 3178 0018 7B68     		ldr	r3, [r7, #4]
 3179 001a 1B68     		ldr	r3, [r3]
 3180 001c 9B68     		ldr	r3, [r3, #8]
 3181 001e FB60     		str	r3, [r7, #12]
2183:D:/iot/felix2/targets/Cloud_STM32L431_BearPi/Drivers/STM32L4xx_HAL_Driver/Src\stm32l4xx_hal_uart.c ****   uint32_t errorflags;
2184:D:/iot/felix2/targets/Cloud_STM32L431_BearPi/Drivers/STM32L4xx_HAL_Driver/Src\stm32l4xx_hal_uart.c **** 
2185:D:/iot/felix2/targets/Cloud_STM32L431_BearPi/Drivers/STM32L4xx_HAL_Driver/Src\stm32l4xx_hal_uart.c ****   /* If no error occurs */
2186:D:/iot/felix2/targets/Cloud_STM32L431_BearPi/Drivers/STM32L4xx_HAL_Driver/Src\stm32l4xx_hal_uart.c ****   errorflags = (isrflags & (uint32_t)(USART_ISR_PE | USART_ISR_FE | USART_ISR_ORE | USART_ISR_NE));
 3182              		.loc 1 2186 0
 3183 0020 7B69     		ldr	r3, [r7, #20]
 3184 0022 03F00F03 		and	r3, r3, #15
 3185 0026 BB60     		str	r3, [r7, #8]
2187:D:/iot/felix2/targets/Cloud_STM32L431_BearPi/Drivers/STM32L4xx_HAL_Driver/Src\stm32l4xx_hal_uart.c ****   if (errorflags == RESET)
 3186              		.loc 1 2187 0
 3187 0028 BB68     		ldr	r3, [r7, #8]
 3188 002a 002B     		cmp	r3, #0
 3189 002c 13D1     		bne	.L166
2188:D:/iot/felix2/targets/Cloud_STM32L431_BearPi/Drivers/STM32L4xx_HAL_Driver/Src\stm32l4xx_hal_uart.c ****   {
2189:D:/iot/felix2/targets/Cloud_STM32L431_BearPi/Drivers/STM32L4xx_HAL_Driver/Src\stm32l4xx_hal_uart.c ****     /* UART in mode Receiver ---------------------------------------------------*/
2190:D:/iot/felix2/targets/Cloud_STM32L431_BearPi/Drivers/STM32L4xx_HAL_Driver/Src\stm32l4xx_hal_uart.c **** #if defined(USART_CR1_FIFOEN)
2191:D:/iot/felix2/targets/Cloud_STM32L431_BearPi/Drivers/STM32L4xx_HAL_Driver/Src\stm32l4xx_hal_uart.c ****     if (((isrflags & USART_ISR_RXNE_RXFNE) != RESET)
2192:D:/iot/felix2/targets/Cloud_STM32L431_BearPi/Drivers/STM32L4xx_HAL_Driver/Src\stm32l4xx_hal_uart.c ****         && (((cr1its & USART_CR1_RXNEIE_RXFNEIE) != RESET)
2193:D:/iot/felix2/targets/Cloud_STM32L431_BearPi/Drivers/STM32L4xx_HAL_Driver/Src\stm32l4xx_hal_uart.c ****             || ((cr3its & USART_CR3_RXFTIE) != RESET)))
2194:D:/iot/felix2/targets/Cloud_STM32L431_BearPi/Drivers/STM32L4xx_HAL_Driver/Src\stm32l4xx_hal_uart.c **** #else
2195:D:/iot/felix2/targets/Cloud_STM32L431_BearPi/Drivers/STM32L4xx_HAL_Driver/Src\stm32l4xx_hal_uart.c ****     if (((isrflags & USART_ISR_RXNE) != RESET)
 3190              		.loc 1 2195 0
 3191 002e 7B69     		ldr	r3, [r7, #20]
 3192 0030 03F02003 		and	r3, r3, #32
 3193 0034 002B     		cmp	r3, #0
 3194 0036 0ED0     		beq	.L166
2196:D:/iot/felix2/targets/Cloud_STM32L431_BearPi/Drivers/STM32L4xx_HAL_Driver/Src\stm32l4xx_hal_uart.c ****         && ((cr1its & USART_CR1_RXNEIE) != RESET))
 3195              		.loc 1 2196 0
 3196 0038 3B69     		ldr	r3, [r7, #16]
 3197 003a 03F02003 		and	r3, r3, #32
 3198 003e 002B     		cmp	r3, #0
 3199 0040 09D0     		beq	.L166
2197:D:/iot/felix2/targets/Cloud_STM32L431_BearPi/Drivers/STM32L4xx_HAL_Driver/Src\stm32l4xx_hal_uart.c **** #endif
2198:D:/iot/felix2/targets/Cloud_STM32L431_BearPi/Drivers/STM32L4xx_HAL_Driver/Src\stm32l4xx_hal_uart.c ****     {
ARM GAS  C:\Users\91458\AppData\Local\Temp\ccrpKNIe.s 			page 95


2199:D:/iot/felix2/targets/Cloud_STM32L431_BearPi/Drivers/STM32L4xx_HAL_Driver/Src\stm32l4xx_hal_uart.c ****       if (huart->RxISR != NULL)
 3200              		.loc 1 2199 0
 3201 0042 7B68     		ldr	r3, [r7, #4]
 3202 0044 1B6E     		ldr	r3, [r3, #96]
 3203 0046 002B     		cmp	r3, #0
 3204 0048 00F0FD80 		beq	.L188
2200:D:/iot/felix2/targets/Cloud_STM32L431_BearPi/Drivers/STM32L4xx_HAL_Driver/Src\stm32l4xx_hal_uart.c ****       {
2201:D:/iot/felix2/targets/Cloud_STM32L431_BearPi/Drivers/STM32L4xx_HAL_Driver/Src\stm32l4xx_hal_uart.c ****         huart->RxISR(huart);
 3205              		.loc 1 2201 0
 3206 004c 7B68     		ldr	r3, [r7, #4]
 3207 004e 1B6E     		ldr	r3, [r3, #96]
 3208 0050 7868     		ldr	r0, [r7, #4]
 3209 0052 9847     		blx	r3
 3210              	.LVL2:
2202:D:/iot/felix2/targets/Cloud_STM32L431_BearPi/Drivers/STM32L4xx_HAL_Driver/Src\stm32l4xx_hal_uart.c ****       }
2203:D:/iot/felix2/targets/Cloud_STM32L431_BearPi/Drivers/STM32L4xx_HAL_Driver/Src\stm32l4xx_hal_uart.c ****       return;
 3211              		.loc 1 2203 0
 3212 0054 F7E0     		b	.L188
 3213              	.L166:
2204:D:/iot/felix2/targets/Cloud_STM32L431_BearPi/Drivers/STM32L4xx_HAL_Driver/Src\stm32l4xx_hal_uart.c ****     }
2205:D:/iot/felix2/targets/Cloud_STM32L431_BearPi/Drivers/STM32L4xx_HAL_Driver/Src\stm32l4xx_hal_uart.c ****   }
2206:D:/iot/felix2/targets/Cloud_STM32L431_BearPi/Drivers/STM32L4xx_HAL_Driver/Src\stm32l4xx_hal_uart.c **** 
2207:D:/iot/felix2/targets/Cloud_STM32L431_BearPi/Drivers/STM32L4xx_HAL_Driver/Src\stm32l4xx_hal_uart.c ****   /* If some errors occur */
2208:D:/iot/felix2/targets/Cloud_STM32L431_BearPi/Drivers/STM32L4xx_HAL_Driver/Src\stm32l4xx_hal_uart.c **** #if defined(USART_CR1_FIFOEN)
2209:D:/iot/felix2/targets/Cloud_STM32L431_BearPi/Drivers/STM32L4xx_HAL_Driver/Src\stm32l4xx_hal_uart.c ****   if ((errorflags != RESET)
2210:D:/iot/felix2/targets/Cloud_STM32L431_BearPi/Drivers/STM32L4xx_HAL_Driver/Src\stm32l4xx_hal_uart.c ****       && ((((cr3its & (USART_CR3_RXFTIE | USART_CR3_EIE)) != RESET)
2211:D:/iot/felix2/targets/Cloud_STM32L431_BearPi/Drivers/STM32L4xx_HAL_Driver/Src\stm32l4xx_hal_uart.c ****            || ((cr1its & (USART_CR1_RXNEIE_RXFNEIE | USART_CR1_PEIE)) != RESET))))
2212:D:/iot/felix2/targets/Cloud_STM32L431_BearPi/Drivers/STM32L4xx_HAL_Driver/Src\stm32l4xx_hal_uart.c **** #else
2213:D:/iot/felix2/targets/Cloud_STM32L431_BearPi/Drivers/STM32L4xx_HAL_Driver/Src\stm32l4xx_hal_uart.c ****   if ((errorflags != RESET)
 3214              		.loc 1 2213 0
 3215 0056 BB68     		ldr	r3, [r7, #8]
 3216 0058 002B     		cmp	r3, #0
 3217 005a 00F0BF80 		beq	.L169
2214:D:/iot/felix2/targets/Cloud_STM32L431_BearPi/Drivers/STM32L4xx_HAL_Driver/Src\stm32l4xx_hal_uart.c ****       && (((cr3its & USART_CR3_EIE) != RESET)
 3218              		.loc 1 2214 0
 3219 005e FB68     		ldr	r3, [r7, #12]
 3220 0060 03F00103 		and	r3, r3, #1
 3221 0064 002B     		cmp	r3, #0
 3222 0066 05D1     		bne	.L170
2215:D:/iot/felix2/targets/Cloud_STM32L431_BearPi/Drivers/STM32L4xx_HAL_Driver/Src\stm32l4xx_hal_uart.c ****           || ((cr1its & (USART_CR1_RXNEIE | USART_CR1_PEIE)) != RESET)))
 3223              		.loc 1 2215 0
 3224 0068 3B69     		ldr	r3, [r7, #16]
 3225 006a 03F49073 		and	r3, r3, #288
 3226 006e 002B     		cmp	r3, #0
 3227 0070 00F0B480 		beq	.L169
 3228              	.L170:
2216:D:/iot/felix2/targets/Cloud_STM32L431_BearPi/Drivers/STM32L4xx_HAL_Driver/Src\stm32l4xx_hal_uart.c **** #endif
2217:D:/iot/felix2/targets/Cloud_STM32L431_BearPi/Drivers/STM32L4xx_HAL_Driver/Src\stm32l4xx_hal_uart.c ****   {
2218:D:/iot/felix2/targets/Cloud_STM32L431_BearPi/Drivers/STM32L4xx_HAL_Driver/Src\stm32l4xx_hal_uart.c ****     /* UART parity error interrupt occurred -------------------------------------*/
2219:D:/iot/felix2/targets/Cloud_STM32L431_BearPi/Drivers/STM32L4xx_HAL_Driver/Src\stm32l4xx_hal_uart.c ****     if (((isrflags & USART_ISR_PE) != RESET) && ((cr1its & USART_CR1_PEIE) != RESET))
 3229              		.loc 1 2219 0
 3230 0074 7B69     		ldr	r3, [r7, #20]
 3231 0076 03F00103 		and	r3, r3, #1
 3232 007a 002B     		cmp	r3, #0
 3233 007c 0ED0     		beq	.L171
 3234              		.loc 1 2219 0 is_stmt 0 discriminator 1
 3235 007e 3B69     		ldr	r3, [r7, #16]
ARM GAS  C:\Users\91458\AppData\Local\Temp\ccrpKNIe.s 			page 96


 3236 0080 03F48073 		and	r3, r3, #256
 3237 0084 002B     		cmp	r3, #0
 3238 0086 09D0     		beq	.L171
2220:D:/iot/felix2/targets/Cloud_STM32L431_BearPi/Drivers/STM32L4xx_HAL_Driver/Src\stm32l4xx_hal_uart.c ****     {
2221:D:/iot/felix2/targets/Cloud_STM32L431_BearPi/Drivers/STM32L4xx_HAL_Driver/Src\stm32l4xx_hal_uart.c ****       __HAL_UART_CLEAR_FLAG(huart, UART_CLEAR_PEF);
 3239              		.loc 1 2221 0 is_stmt 1
 3240 0088 7B68     		ldr	r3, [r7, #4]
 3241 008a 1B68     		ldr	r3, [r3]
 3242 008c 0122     		movs	r2, #1
 3243 008e 1A62     		str	r2, [r3, #32]
2222:D:/iot/felix2/targets/Cloud_STM32L431_BearPi/Drivers/STM32L4xx_HAL_Driver/Src\stm32l4xx_hal_uart.c **** 
2223:D:/iot/felix2/targets/Cloud_STM32L431_BearPi/Drivers/STM32L4xx_HAL_Driver/Src\stm32l4xx_hal_uart.c ****       huart->ErrorCode |= HAL_UART_ERROR_PE;
 3244              		.loc 1 2223 0
 3245 0090 7B68     		ldr	r3, [r7, #4]
 3246 0092 5B6F     		ldr	r3, [r3, #116]
 3247 0094 43F00102 		orr	r2, r3, #1
 3248 0098 7B68     		ldr	r3, [r7, #4]
 3249 009a 5A67     		str	r2, [r3, #116]
 3250              	.L171:
2224:D:/iot/felix2/targets/Cloud_STM32L431_BearPi/Drivers/STM32L4xx_HAL_Driver/Src\stm32l4xx_hal_uart.c ****     }
2225:D:/iot/felix2/targets/Cloud_STM32L431_BearPi/Drivers/STM32L4xx_HAL_Driver/Src\stm32l4xx_hal_uart.c **** 
2226:D:/iot/felix2/targets/Cloud_STM32L431_BearPi/Drivers/STM32L4xx_HAL_Driver/Src\stm32l4xx_hal_uart.c ****     /* UART frame error interrupt occurred --------------------------------------*/
2227:D:/iot/felix2/targets/Cloud_STM32L431_BearPi/Drivers/STM32L4xx_HAL_Driver/Src\stm32l4xx_hal_uart.c ****     if (((isrflags & USART_ISR_FE) != RESET) && ((cr3its & USART_CR3_EIE) != RESET))
 3251              		.loc 1 2227 0
 3252 009c 7B69     		ldr	r3, [r7, #20]
 3253 009e 03F00203 		and	r3, r3, #2
 3254 00a2 002B     		cmp	r3, #0
 3255 00a4 0ED0     		beq	.L172
 3256              		.loc 1 2227 0 is_stmt 0 discriminator 1
 3257 00a6 FB68     		ldr	r3, [r7, #12]
 3258 00a8 03F00103 		and	r3, r3, #1
 3259 00ac 002B     		cmp	r3, #0
 3260 00ae 09D0     		beq	.L172
2228:D:/iot/felix2/targets/Cloud_STM32L431_BearPi/Drivers/STM32L4xx_HAL_Driver/Src\stm32l4xx_hal_uart.c ****     {
2229:D:/iot/felix2/targets/Cloud_STM32L431_BearPi/Drivers/STM32L4xx_HAL_Driver/Src\stm32l4xx_hal_uart.c ****       __HAL_UART_CLEAR_FLAG(huart, UART_CLEAR_FEF);
 3261              		.loc 1 2229 0 is_stmt 1
 3262 00b0 7B68     		ldr	r3, [r7, #4]
 3263 00b2 1B68     		ldr	r3, [r3]
 3264 00b4 0222     		movs	r2, #2
 3265 00b6 1A62     		str	r2, [r3, #32]
2230:D:/iot/felix2/targets/Cloud_STM32L431_BearPi/Drivers/STM32L4xx_HAL_Driver/Src\stm32l4xx_hal_uart.c **** 
2231:D:/iot/felix2/targets/Cloud_STM32L431_BearPi/Drivers/STM32L4xx_HAL_Driver/Src\stm32l4xx_hal_uart.c ****       huart->ErrorCode |= HAL_UART_ERROR_FE;
 3266              		.loc 1 2231 0
 3267 00b8 7B68     		ldr	r3, [r7, #4]
 3268 00ba 5B6F     		ldr	r3, [r3, #116]
 3269 00bc 43F00402 		orr	r2, r3, #4
 3270 00c0 7B68     		ldr	r3, [r7, #4]
 3271 00c2 5A67     		str	r2, [r3, #116]
 3272              	.L172:
2232:D:/iot/felix2/targets/Cloud_STM32L431_BearPi/Drivers/STM32L4xx_HAL_Driver/Src\stm32l4xx_hal_uart.c ****     }
2233:D:/iot/felix2/targets/Cloud_STM32L431_BearPi/Drivers/STM32L4xx_HAL_Driver/Src\stm32l4xx_hal_uart.c **** 
2234:D:/iot/felix2/targets/Cloud_STM32L431_BearPi/Drivers/STM32L4xx_HAL_Driver/Src\stm32l4xx_hal_uart.c ****     /* UART noise error interrupt occurred --------------------------------------*/
2235:D:/iot/felix2/targets/Cloud_STM32L431_BearPi/Drivers/STM32L4xx_HAL_Driver/Src\stm32l4xx_hal_uart.c ****     if (((isrflags & USART_ISR_NE) != RESET) && ((cr3its & USART_CR3_EIE) != RESET))
 3273              		.loc 1 2235 0
 3274 00c4 7B69     		ldr	r3, [r7, #20]
 3275 00c6 03F00403 		and	r3, r3, #4
 3276 00ca 002B     		cmp	r3, #0
ARM GAS  C:\Users\91458\AppData\Local\Temp\ccrpKNIe.s 			page 97


 3277 00cc 0ED0     		beq	.L173
 3278              		.loc 1 2235 0 is_stmt 0 discriminator 1
 3279 00ce FB68     		ldr	r3, [r7, #12]
 3280 00d0 03F00103 		and	r3, r3, #1
 3281 00d4 002B     		cmp	r3, #0
 3282 00d6 09D0     		beq	.L173
2236:D:/iot/felix2/targets/Cloud_STM32L431_BearPi/Drivers/STM32L4xx_HAL_Driver/Src\stm32l4xx_hal_uart.c ****     {
2237:D:/iot/felix2/targets/Cloud_STM32L431_BearPi/Drivers/STM32L4xx_HAL_Driver/Src\stm32l4xx_hal_uart.c ****       __HAL_UART_CLEAR_FLAG(huart, UART_CLEAR_NEF);
 3283              		.loc 1 2237 0 is_stmt 1
 3284 00d8 7B68     		ldr	r3, [r7, #4]
 3285 00da 1B68     		ldr	r3, [r3]
 3286 00dc 0422     		movs	r2, #4
 3287 00de 1A62     		str	r2, [r3, #32]
2238:D:/iot/felix2/targets/Cloud_STM32L431_BearPi/Drivers/STM32L4xx_HAL_Driver/Src\stm32l4xx_hal_uart.c **** 
2239:D:/iot/felix2/targets/Cloud_STM32L431_BearPi/Drivers/STM32L4xx_HAL_Driver/Src\stm32l4xx_hal_uart.c ****       huart->ErrorCode |= HAL_UART_ERROR_NE;
 3288              		.loc 1 2239 0
 3289 00e0 7B68     		ldr	r3, [r7, #4]
 3290 00e2 5B6F     		ldr	r3, [r3, #116]
 3291 00e4 43F00202 		orr	r2, r3, #2
 3292 00e8 7B68     		ldr	r3, [r7, #4]
 3293 00ea 5A67     		str	r2, [r3, #116]
 3294              	.L173:
2240:D:/iot/felix2/targets/Cloud_STM32L431_BearPi/Drivers/STM32L4xx_HAL_Driver/Src\stm32l4xx_hal_uart.c ****     }
2241:D:/iot/felix2/targets/Cloud_STM32L431_BearPi/Drivers/STM32L4xx_HAL_Driver/Src\stm32l4xx_hal_uart.c **** 
2242:D:/iot/felix2/targets/Cloud_STM32L431_BearPi/Drivers/STM32L4xx_HAL_Driver/Src\stm32l4xx_hal_uart.c ****     /* UART Over-Run interrupt occurred -----------------------------------------*/
2243:D:/iot/felix2/targets/Cloud_STM32L431_BearPi/Drivers/STM32L4xx_HAL_Driver/Src\stm32l4xx_hal_uart.c **** #if defined(USART_CR1_FIFOEN)
2244:D:/iot/felix2/targets/Cloud_STM32L431_BearPi/Drivers/STM32L4xx_HAL_Driver/Src\stm32l4xx_hal_uart.c ****     if (((isrflags & USART_ISR_ORE) != RESET)
2245:D:/iot/felix2/targets/Cloud_STM32L431_BearPi/Drivers/STM32L4xx_HAL_Driver/Src\stm32l4xx_hal_uart.c ****         && (((cr1its & USART_CR1_RXNEIE_RXFNEIE) != RESET) ||
2246:D:/iot/felix2/targets/Cloud_STM32L431_BearPi/Drivers/STM32L4xx_HAL_Driver/Src\stm32l4xx_hal_uart.c ****             ((cr3its & (USART_CR3_RXFTIE | USART_CR3_EIE)) != RESET)))
2247:D:/iot/felix2/targets/Cloud_STM32L431_BearPi/Drivers/STM32L4xx_HAL_Driver/Src\stm32l4xx_hal_uart.c **** #else
2248:D:/iot/felix2/targets/Cloud_STM32L431_BearPi/Drivers/STM32L4xx_HAL_Driver/Src\stm32l4xx_hal_uart.c ****     if (((isrflags & USART_ISR_ORE) != RESET)
 3295              		.loc 1 2248 0
 3296 00ec 7B69     		ldr	r3, [r7, #20]
 3297 00ee 03F00803 		and	r3, r3, #8
 3298 00f2 002B     		cmp	r3, #0
 3299 00f4 13D0     		beq	.L174
2249:D:/iot/felix2/targets/Cloud_STM32L431_BearPi/Drivers/STM32L4xx_HAL_Driver/Src\stm32l4xx_hal_uart.c ****         && (((cr1its & USART_CR1_RXNEIE) != RESET) ||
 3300              		.loc 1 2249 0
 3301 00f6 3B69     		ldr	r3, [r7, #16]
 3302 00f8 03F02003 		and	r3, r3, #32
 3303 00fc 002B     		cmp	r3, #0
 3304 00fe 04D1     		bne	.L175
2250:D:/iot/felix2/targets/Cloud_STM32L431_BearPi/Drivers/STM32L4xx_HAL_Driver/Src\stm32l4xx_hal_uart.c ****             ((cr3its & USART_CR3_EIE) != RESET)))
 3305              		.loc 1 2250 0 discriminator 1
 3306 0100 FB68     		ldr	r3, [r7, #12]
 3307 0102 03F00103 		and	r3, r3, #1
2249:D:/iot/felix2/targets/Cloud_STM32L431_BearPi/Drivers/STM32L4xx_HAL_Driver/Src\stm32l4xx_hal_uart.c ****         && (((cr1its & USART_CR1_RXNEIE) != RESET) ||
 3308              		.loc 1 2249 0 discriminator 1
 3309 0106 002B     		cmp	r3, #0
 3310 0108 09D0     		beq	.L174
 3311              	.L175:
2251:D:/iot/felix2/targets/Cloud_STM32L431_BearPi/Drivers/STM32L4xx_HAL_Driver/Src\stm32l4xx_hal_uart.c **** #endif
2252:D:/iot/felix2/targets/Cloud_STM32L431_BearPi/Drivers/STM32L4xx_HAL_Driver/Src\stm32l4xx_hal_uart.c ****     {
2253:D:/iot/felix2/targets/Cloud_STM32L431_BearPi/Drivers/STM32L4xx_HAL_Driver/Src\stm32l4xx_hal_uart.c ****       __HAL_UART_CLEAR_FLAG(huart, UART_CLEAR_OREF);
 3312              		.loc 1 2253 0
 3313 010a 7B68     		ldr	r3, [r7, #4]
 3314 010c 1B68     		ldr	r3, [r3]
ARM GAS  C:\Users\91458\AppData\Local\Temp\ccrpKNIe.s 			page 98


 3315 010e 0822     		movs	r2, #8
 3316 0110 1A62     		str	r2, [r3, #32]
2254:D:/iot/felix2/targets/Cloud_STM32L431_BearPi/Drivers/STM32L4xx_HAL_Driver/Src\stm32l4xx_hal_uart.c **** 
2255:D:/iot/felix2/targets/Cloud_STM32L431_BearPi/Drivers/STM32L4xx_HAL_Driver/Src\stm32l4xx_hal_uart.c ****       huart->ErrorCode |= HAL_UART_ERROR_ORE;
 3317              		.loc 1 2255 0
 3318 0112 7B68     		ldr	r3, [r7, #4]
 3319 0114 5B6F     		ldr	r3, [r3, #116]
 3320 0116 43F00802 		orr	r2, r3, #8
 3321 011a 7B68     		ldr	r3, [r7, #4]
 3322 011c 5A67     		str	r2, [r3, #116]
 3323              	.L174:
2256:D:/iot/felix2/targets/Cloud_STM32L431_BearPi/Drivers/STM32L4xx_HAL_Driver/Src\stm32l4xx_hal_uart.c ****     }
2257:D:/iot/felix2/targets/Cloud_STM32L431_BearPi/Drivers/STM32L4xx_HAL_Driver/Src\stm32l4xx_hal_uart.c **** 
2258:D:/iot/felix2/targets/Cloud_STM32L431_BearPi/Drivers/STM32L4xx_HAL_Driver/Src\stm32l4xx_hal_uart.c ****     /* Call UART Error Call back function if need be --------------------------*/
2259:D:/iot/felix2/targets/Cloud_STM32L431_BearPi/Drivers/STM32L4xx_HAL_Driver/Src\stm32l4xx_hal_uart.c ****     if (huart->ErrorCode != HAL_UART_ERROR_NONE)
 3324              		.loc 1 2259 0
 3325 011e 7B68     		ldr	r3, [r7, #4]
 3326 0120 5B6F     		ldr	r3, [r3, #116]
 3327 0122 002B     		cmp	r3, #0
 3328 0124 00F09180 		beq	.L189
2260:D:/iot/felix2/targets/Cloud_STM32L431_BearPi/Drivers/STM32L4xx_HAL_Driver/Src\stm32l4xx_hal_uart.c ****     {
2261:D:/iot/felix2/targets/Cloud_STM32L431_BearPi/Drivers/STM32L4xx_HAL_Driver/Src\stm32l4xx_hal_uart.c ****       /* UART in mode Receiver ---------------------------------------------------*/
2262:D:/iot/felix2/targets/Cloud_STM32L431_BearPi/Drivers/STM32L4xx_HAL_Driver/Src\stm32l4xx_hal_uart.c **** #if defined(USART_CR1_FIFOEN)
2263:D:/iot/felix2/targets/Cloud_STM32L431_BearPi/Drivers/STM32L4xx_HAL_Driver/Src\stm32l4xx_hal_uart.c ****       if (((isrflags & USART_ISR_RXNE_RXFNE) != RESET)
2264:D:/iot/felix2/targets/Cloud_STM32L431_BearPi/Drivers/STM32L4xx_HAL_Driver/Src\stm32l4xx_hal_uart.c ****           && (((cr1its & USART_CR1_RXNEIE_RXFNEIE) != RESET)
2265:D:/iot/felix2/targets/Cloud_STM32L431_BearPi/Drivers/STM32L4xx_HAL_Driver/Src\stm32l4xx_hal_uart.c ****               || ((cr3its & USART_CR3_RXFTIE) != RESET)))
2266:D:/iot/felix2/targets/Cloud_STM32L431_BearPi/Drivers/STM32L4xx_HAL_Driver/Src\stm32l4xx_hal_uart.c **** #else
2267:D:/iot/felix2/targets/Cloud_STM32L431_BearPi/Drivers/STM32L4xx_HAL_Driver/Src\stm32l4xx_hal_uart.c ****       if (((isrflags & USART_ISR_RXNE) != RESET)
 3329              		.loc 1 2267 0
 3330 0128 7B69     		ldr	r3, [r7, #20]
 3331 012a 03F02003 		and	r3, r3, #32
 3332 012e 002B     		cmp	r3, #0
 3333 0130 0CD0     		beq	.L177
2268:D:/iot/felix2/targets/Cloud_STM32L431_BearPi/Drivers/STM32L4xx_HAL_Driver/Src\stm32l4xx_hal_uart.c ****           && ((cr1its & USART_CR1_RXNEIE) != RESET))
 3334              		.loc 1 2268 0
 3335 0132 3B69     		ldr	r3, [r7, #16]
 3336 0134 03F02003 		and	r3, r3, #32
 3337 0138 002B     		cmp	r3, #0
 3338 013a 07D0     		beq	.L177
2269:D:/iot/felix2/targets/Cloud_STM32L431_BearPi/Drivers/STM32L4xx_HAL_Driver/Src\stm32l4xx_hal_uart.c **** #endif
2270:D:/iot/felix2/targets/Cloud_STM32L431_BearPi/Drivers/STM32L4xx_HAL_Driver/Src\stm32l4xx_hal_uart.c ****       {
2271:D:/iot/felix2/targets/Cloud_STM32L431_BearPi/Drivers/STM32L4xx_HAL_Driver/Src\stm32l4xx_hal_uart.c ****         if (huart->RxISR != NULL)
 3339              		.loc 1 2271 0
 3340 013c 7B68     		ldr	r3, [r7, #4]
 3341 013e 1B6E     		ldr	r3, [r3, #96]
 3342 0140 002B     		cmp	r3, #0
 3343 0142 03D0     		beq	.L177
2272:D:/iot/felix2/targets/Cloud_STM32L431_BearPi/Drivers/STM32L4xx_HAL_Driver/Src\stm32l4xx_hal_uart.c ****         {
2273:D:/iot/felix2/targets/Cloud_STM32L431_BearPi/Drivers/STM32L4xx_HAL_Driver/Src\stm32l4xx_hal_uart.c ****           huart->RxISR(huart);
 3344              		.loc 1 2273 0
 3345 0144 7B68     		ldr	r3, [r7, #4]
 3346 0146 1B6E     		ldr	r3, [r3, #96]
 3347 0148 7868     		ldr	r0, [r7, #4]
 3348 014a 9847     		blx	r3
 3349              	.LVL3:
 3350              	.L177:
2274:D:/iot/felix2/targets/Cloud_STM32L431_BearPi/Drivers/STM32L4xx_HAL_Driver/Src\stm32l4xx_hal_uart.c ****         }
ARM GAS  C:\Users\91458\AppData\Local\Temp\ccrpKNIe.s 			page 99


2275:D:/iot/felix2/targets/Cloud_STM32L431_BearPi/Drivers/STM32L4xx_HAL_Driver/Src\stm32l4xx_hal_uart.c ****       }
2276:D:/iot/felix2/targets/Cloud_STM32L431_BearPi/Drivers/STM32L4xx_HAL_Driver/Src\stm32l4xx_hal_uart.c **** 
2277:D:/iot/felix2/targets/Cloud_STM32L431_BearPi/Drivers/STM32L4xx_HAL_Driver/Src\stm32l4xx_hal_uart.c ****       /* If Overrun error occurs, or if any error occurs in DMA mode reception,
2278:D:/iot/felix2/targets/Cloud_STM32L431_BearPi/Drivers/STM32L4xx_HAL_Driver/Src\stm32l4xx_hal_uart.c ****          consider error as blocking */
2279:D:/iot/felix2/targets/Cloud_STM32L431_BearPi/Drivers/STM32L4xx_HAL_Driver/Src\stm32l4xx_hal_uart.c ****       if (((huart->ErrorCode & HAL_UART_ERROR_ORE) != RESET) ||
 3351              		.loc 1 2279 0
 3352 014c 7B68     		ldr	r3, [r7, #4]
 3353 014e 5B6F     		ldr	r3, [r3, #116]
 3354 0150 03F00803 		and	r3, r3, #8
 3355 0154 002B     		cmp	r3, #0
 3356 0156 06D1     		bne	.L178
2280:D:/iot/felix2/targets/Cloud_STM32L431_BearPi/Drivers/STM32L4xx_HAL_Driver/Src\stm32l4xx_hal_uart.c ****           (HAL_IS_BIT_SET(huart->Instance->CR3, USART_CR3_DMAR)))
 3357              		.loc 1 2280 0 discriminator 1
 3358 0158 7B68     		ldr	r3, [r7, #4]
 3359 015a 1B68     		ldr	r3, [r3]
 3360 015c 9B68     		ldr	r3, [r3, #8]
 3361 015e 03F04003 		and	r3, r3, #64
2279:D:/iot/felix2/targets/Cloud_STM32L431_BearPi/Drivers/STM32L4xx_HAL_Driver/Src\stm32l4xx_hal_uart.c ****           (HAL_IS_BIT_SET(huart->Instance->CR3, USART_CR3_DMAR)))
 3362              		.loc 1 2279 0 discriminator 1
 3363 0162 402B     		cmp	r3, #64
 3364 0164 31D1     		bne	.L179
 3365              	.L178:
2281:D:/iot/felix2/targets/Cloud_STM32L431_BearPi/Drivers/STM32L4xx_HAL_Driver/Src\stm32l4xx_hal_uart.c ****       {
2282:D:/iot/felix2/targets/Cloud_STM32L431_BearPi/Drivers/STM32L4xx_HAL_Driver/Src\stm32l4xx_hal_uart.c ****         /* Blocking error : transfer is aborted
2283:D:/iot/felix2/targets/Cloud_STM32L431_BearPi/Drivers/STM32L4xx_HAL_Driver/Src\stm32l4xx_hal_uart.c ****            Set the UART state ready to be able to start again the process,
2284:D:/iot/felix2/targets/Cloud_STM32L431_BearPi/Drivers/STM32L4xx_HAL_Driver/Src\stm32l4xx_hal_uart.c ****            Disable Rx Interrupts, and disable Rx DMA request, if ongoing */
2285:D:/iot/felix2/targets/Cloud_STM32L431_BearPi/Drivers/STM32L4xx_HAL_Driver/Src\stm32l4xx_hal_uart.c ****         UART_EndRxTransfer(huart);
 3366              		.loc 1 2285 0
 3367 0166 7868     		ldr	r0, [r7, #4]
 3368 0168 FFF7FEFF 		bl	UART_EndRxTransfer
2286:D:/iot/felix2/targets/Cloud_STM32L431_BearPi/Drivers/STM32L4xx_HAL_Driver/Src\stm32l4xx_hal_uart.c **** 
2287:D:/iot/felix2/targets/Cloud_STM32L431_BearPi/Drivers/STM32L4xx_HAL_Driver/Src\stm32l4xx_hal_uart.c ****         /* Disable the UART DMA Rx request if enabled */
2288:D:/iot/felix2/targets/Cloud_STM32L431_BearPi/Drivers/STM32L4xx_HAL_Driver/Src\stm32l4xx_hal_uart.c ****         if (HAL_IS_BIT_SET(huart->Instance->CR3, USART_CR3_DMAR))
 3369              		.loc 1 2288 0
 3370 016c 7B68     		ldr	r3, [r7, #4]
 3371 016e 1B68     		ldr	r3, [r3]
 3372 0170 9B68     		ldr	r3, [r3, #8]
 3373 0172 03F04003 		and	r3, r3, #64
 3374 0176 402B     		cmp	r3, #64
 3375 0178 23D1     		bne	.L180
2289:D:/iot/felix2/targets/Cloud_STM32L431_BearPi/Drivers/STM32L4xx_HAL_Driver/Src\stm32l4xx_hal_uart.c ****         {
2290:D:/iot/felix2/targets/Cloud_STM32L431_BearPi/Drivers/STM32L4xx_HAL_Driver/Src\stm32l4xx_hal_uart.c ****           CLEAR_BIT(huart->Instance->CR3, USART_CR3_DMAR);
 3376              		.loc 1 2290 0
 3377 017a 7B68     		ldr	r3, [r7, #4]
 3378 017c 1B68     		ldr	r3, [r3]
 3379 017e 9A68     		ldr	r2, [r3, #8]
 3380 0180 7B68     		ldr	r3, [r7, #4]
 3381 0182 1B68     		ldr	r3, [r3]
 3382 0184 22F04002 		bic	r2, r2, #64
 3383 0188 9A60     		str	r2, [r3, #8]
2291:D:/iot/felix2/targets/Cloud_STM32L431_BearPi/Drivers/STM32L4xx_HAL_Driver/Src\stm32l4xx_hal_uart.c **** 
2292:D:/iot/felix2/targets/Cloud_STM32L431_BearPi/Drivers/STM32L4xx_HAL_Driver/Src\stm32l4xx_hal_uart.c ****           /* Abort the UART DMA Rx channel */
2293:D:/iot/felix2/targets/Cloud_STM32L431_BearPi/Drivers/STM32L4xx_HAL_Driver/Src\stm32l4xx_hal_uart.c ****           if (huart->hdmarx != NULL)
 3384              		.loc 1 2293 0
 3385 018a 7B68     		ldr	r3, [r7, #4]
 3386 018c DB6E     		ldr	r3, [r3, #108]
 3387 018e 002B     		cmp	r3, #0
ARM GAS  C:\Users\91458\AppData\Local\Temp\ccrpKNIe.s 			page 100


 3388 0190 13D0     		beq	.L181
2294:D:/iot/felix2/targets/Cloud_STM32L431_BearPi/Drivers/STM32L4xx_HAL_Driver/Src\stm32l4xx_hal_uart.c ****           {
2295:D:/iot/felix2/targets/Cloud_STM32L431_BearPi/Drivers/STM32L4xx_HAL_Driver/Src\stm32l4xx_hal_uart.c ****             /* Set the UART DMA Abort callback :
2296:D:/iot/felix2/targets/Cloud_STM32L431_BearPi/Drivers/STM32L4xx_HAL_Driver/Src\stm32l4xx_hal_uart.c ****                will lead to call HAL_UART_ErrorCallback() at end of DMA abort procedure */
2297:D:/iot/felix2/targets/Cloud_STM32L431_BearPi/Drivers/STM32L4xx_HAL_Driver/Src\stm32l4xx_hal_uart.c ****             huart->hdmarx->XferAbortCallback = UART_DMAAbortOnError;
 3389              		.loc 1 2297 0
 3390 0192 7B68     		ldr	r3, [r7, #4]
 3391 0194 DB6E     		ldr	r3, [r3, #108]
 3392 0196 304A     		ldr	r2, .L192
 3393 0198 9A63     		str	r2, [r3, #56]
2298:D:/iot/felix2/targets/Cloud_STM32L431_BearPi/Drivers/STM32L4xx_HAL_Driver/Src\stm32l4xx_hal_uart.c **** 
2299:D:/iot/felix2/targets/Cloud_STM32L431_BearPi/Drivers/STM32L4xx_HAL_Driver/Src\stm32l4xx_hal_uart.c ****             /* Abort DMA RX */
2300:D:/iot/felix2/targets/Cloud_STM32L431_BearPi/Drivers/STM32L4xx_HAL_Driver/Src\stm32l4xx_hal_uart.c ****             if (HAL_DMA_Abort_IT(huart->hdmarx) != HAL_OK)
 3394              		.loc 1 2300 0
 3395 019a 7B68     		ldr	r3, [r7, #4]
 3396 019c DB6E     		ldr	r3, [r3, #108]
 3397 019e 1846     		mov	r0, r3
 3398 01a0 FFF7FEFF 		bl	HAL_DMA_Abort_IT
 3399 01a4 0346     		mov	r3, r0
 3400 01a6 002B     		cmp	r3, #0
 3401 01a8 16D0     		beq	.L190
2301:D:/iot/felix2/targets/Cloud_STM32L431_BearPi/Drivers/STM32L4xx_HAL_Driver/Src\stm32l4xx_hal_uart.c ****             {
2302:D:/iot/felix2/targets/Cloud_STM32L431_BearPi/Drivers/STM32L4xx_HAL_Driver/Src\stm32l4xx_hal_uart.c ****               /* Call Directly huart->hdmarx->XferAbortCallback function in case of error */
2303:D:/iot/felix2/targets/Cloud_STM32L431_BearPi/Drivers/STM32L4xx_HAL_Driver/Src\stm32l4xx_hal_uart.c ****               huart->hdmarx->XferAbortCallback(huart->hdmarx);
 3402              		.loc 1 2303 0
 3403 01aa 7B68     		ldr	r3, [r7, #4]
 3404 01ac DB6E     		ldr	r3, [r3, #108]
 3405 01ae 9B6B     		ldr	r3, [r3, #56]
 3406 01b0 7A68     		ldr	r2, [r7, #4]
 3407 01b2 D26E     		ldr	r2, [r2, #108]
 3408 01b4 1046     		mov	r0, r2
 3409 01b6 9847     		blx	r3
 3410              	.LVL4:
2288:D:/iot/felix2/targets/Cloud_STM32L431_BearPi/Drivers/STM32L4xx_HAL_Driver/Src\stm32l4xx_hal_uart.c ****         {
 3411              		.loc 1 2288 0
 3412 01b8 0EE0     		b	.L190
 3413              	.L181:
2304:D:/iot/felix2/targets/Cloud_STM32L431_BearPi/Drivers/STM32L4xx_HAL_Driver/Src\stm32l4xx_hal_uart.c ****             }
2305:D:/iot/felix2/targets/Cloud_STM32L431_BearPi/Drivers/STM32L4xx_HAL_Driver/Src\stm32l4xx_hal_uart.c ****           }
2306:D:/iot/felix2/targets/Cloud_STM32L431_BearPi/Drivers/STM32L4xx_HAL_Driver/Src\stm32l4xx_hal_uart.c ****           else
2307:D:/iot/felix2/targets/Cloud_STM32L431_BearPi/Drivers/STM32L4xx_HAL_Driver/Src\stm32l4xx_hal_uart.c ****           {
2308:D:/iot/felix2/targets/Cloud_STM32L431_BearPi/Drivers/STM32L4xx_HAL_Driver/Src\stm32l4xx_hal_uart.c ****             /* Call user error callback */
2309:D:/iot/felix2/targets/Cloud_STM32L431_BearPi/Drivers/STM32L4xx_HAL_Driver/Src\stm32l4xx_hal_uart.c **** #if (USE_HAL_UART_REGISTER_CALLBACKS == 1)
2310:D:/iot/felix2/targets/Cloud_STM32L431_BearPi/Drivers/STM32L4xx_HAL_Driver/Src\stm32l4xx_hal_uart.c ****             /*Call registered error callback*/
2311:D:/iot/felix2/targets/Cloud_STM32L431_BearPi/Drivers/STM32L4xx_HAL_Driver/Src\stm32l4xx_hal_uart.c ****             huart->ErrorCallback(huart);
2312:D:/iot/felix2/targets/Cloud_STM32L431_BearPi/Drivers/STM32L4xx_HAL_Driver/Src\stm32l4xx_hal_uart.c **** #else
2313:D:/iot/felix2/targets/Cloud_STM32L431_BearPi/Drivers/STM32L4xx_HAL_Driver/Src\stm32l4xx_hal_uart.c ****             /*Call legacy weak error callback*/
2314:D:/iot/felix2/targets/Cloud_STM32L431_BearPi/Drivers/STM32L4xx_HAL_Driver/Src\stm32l4xx_hal_uart.c ****             HAL_UART_ErrorCallback(huart);
 3414              		.loc 1 2314 0
 3415 01ba 7868     		ldr	r0, [r7, #4]
 3416 01bc FFF7FEFF 		bl	HAL_UART_ErrorCallback
2288:D:/iot/felix2/targets/Cloud_STM32L431_BearPi/Drivers/STM32L4xx_HAL_Driver/Src\stm32l4xx_hal_uart.c ****         {
 3417              		.loc 1 2288 0
 3418 01c0 0AE0     		b	.L190
 3419              	.L180:
2315:D:/iot/felix2/targets/Cloud_STM32L431_BearPi/Drivers/STM32L4xx_HAL_Driver/Src\stm32l4xx_hal_uart.c **** #endif /* USE_HAL_UART_REGISTER_CALLBACKS */
2316:D:/iot/felix2/targets/Cloud_STM32L431_BearPi/Drivers/STM32L4xx_HAL_Driver/Src\stm32l4xx_hal_uart.c **** 
ARM GAS  C:\Users\91458\AppData\Local\Temp\ccrpKNIe.s 			page 101


2317:D:/iot/felix2/targets/Cloud_STM32L431_BearPi/Drivers/STM32L4xx_HAL_Driver/Src\stm32l4xx_hal_uart.c ****           }
2318:D:/iot/felix2/targets/Cloud_STM32L431_BearPi/Drivers/STM32L4xx_HAL_Driver/Src\stm32l4xx_hal_uart.c ****         }
2319:D:/iot/felix2/targets/Cloud_STM32L431_BearPi/Drivers/STM32L4xx_HAL_Driver/Src\stm32l4xx_hal_uart.c ****         else
2320:D:/iot/felix2/targets/Cloud_STM32L431_BearPi/Drivers/STM32L4xx_HAL_Driver/Src\stm32l4xx_hal_uart.c ****         {
2321:D:/iot/felix2/targets/Cloud_STM32L431_BearPi/Drivers/STM32L4xx_HAL_Driver/Src\stm32l4xx_hal_uart.c ****           /* Call user error callback */
2322:D:/iot/felix2/targets/Cloud_STM32L431_BearPi/Drivers/STM32L4xx_HAL_Driver/Src\stm32l4xx_hal_uart.c **** #if (USE_HAL_UART_REGISTER_CALLBACKS == 1)
2323:D:/iot/felix2/targets/Cloud_STM32L431_BearPi/Drivers/STM32L4xx_HAL_Driver/Src\stm32l4xx_hal_uart.c ****           /*Call registered error callback*/
2324:D:/iot/felix2/targets/Cloud_STM32L431_BearPi/Drivers/STM32L4xx_HAL_Driver/Src\stm32l4xx_hal_uart.c ****           huart->ErrorCallback(huart);
2325:D:/iot/felix2/targets/Cloud_STM32L431_BearPi/Drivers/STM32L4xx_HAL_Driver/Src\stm32l4xx_hal_uart.c **** #else
2326:D:/iot/felix2/targets/Cloud_STM32L431_BearPi/Drivers/STM32L4xx_HAL_Driver/Src\stm32l4xx_hal_uart.c ****           /*Call legacy weak error callback*/
2327:D:/iot/felix2/targets/Cloud_STM32L431_BearPi/Drivers/STM32L4xx_HAL_Driver/Src\stm32l4xx_hal_uart.c ****           HAL_UART_ErrorCallback(huart);
 3420              		.loc 1 2327 0
 3421 01c2 7868     		ldr	r0, [r7, #4]
 3422 01c4 FFF7FEFF 		bl	HAL_UART_ErrorCallback
2288:D:/iot/felix2/targets/Cloud_STM32L431_BearPi/Drivers/STM32L4xx_HAL_Driver/Src\stm32l4xx_hal_uart.c ****         {
 3423              		.loc 1 2288 0
 3424 01c8 06E0     		b	.L190
 3425              	.L179:
2328:D:/iot/felix2/targets/Cloud_STM32L431_BearPi/Drivers/STM32L4xx_HAL_Driver/Src\stm32l4xx_hal_uart.c **** #endif /* USE_HAL_UART_REGISTER_CALLBACKS */
2329:D:/iot/felix2/targets/Cloud_STM32L431_BearPi/Drivers/STM32L4xx_HAL_Driver/Src\stm32l4xx_hal_uart.c ****         }
2330:D:/iot/felix2/targets/Cloud_STM32L431_BearPi/Drivers/STM32L4xx_HAL_Driver/Src\stm32l4xx_hal_uart.c ****       }
2331:D:/iot/felix2/targets/Cloud_STM32L431_BearPi/Drivers/STM32L4xx_HAL_Driver/Src\stm32l4xx_hal_uart.c ****       else
2332:D:/iot/felix2/targets/Cloud_STM32L431_BearPi/Drivers/STM32L4xx_HAL_Driver/Src\stm32l4xx_hal_uart.c ****       {
2333:D:/iot/felix2/targets/Cloud_STM32L431_BearPi/Drivers/STM32L4xx_HAL_Driver/Src\stm32l4xx_hal_uart.c ****         /* Non Blocking error : transfer could go on.
2334:D:/iot/felix2/targets/Cloud_STM32L431_BearPi/Drivers/STM32L4xx_HAL_Driver/Src\stm32l4xx_hal_uart.c ****            Error is notified to user through user error callback */
2335:D:/iot/felix2/targets/Cloud_STM32L431_BearPi/Drivers/STM32L4xx_HAL_Driver/Src\stm32l4xx_hal_uart.c **** #if (USE_HAL_UART_REGISTER_CALLBACKS == 1)
2336:D:/iot/felix2/targets/Cloud_STM32L431_BearPi/Drivers/STM32L4xx_HAL_Driver/Src\stm32l4xx_hal_uart.c ****         /*Call registered error callback*/
2337:D:/iot/felix2/targets/Cloud_STM32L431_BearPi/Drivers/STM32L4xx_HAL_Driver/Src\stm32l4xx_hal_uart.c ****         huart->ErrorCallback(huart);
2338:D:/iot/felix2/targets/Cloud_STM32L431_BearPi/Drivers/STM32L4xx_HAL_Driver/Src\stm32l4xx_hal_uart.c **** #else
2339:D:/iot/felix2/targets/Cloud_STM32L431_BearPi/Drivers/STM32L4xx_HAL_Driver/Src\stm32l4xx_hal_uart.c ****         /*Call legacy weak error callback*/
2340:D:/iot/felix2/targets/Cloud_STM32L431_BearPi/Drivers/STM32L4xx_HAL_Driver/Src\stm32l4xx_hal_uart.c ****         HAL_UART_ErrorCallback(huart);
 3426              		.loc 1 2340 0
 3427 01ca 7868     		ldr	r0, [r7, #4]
 3428 01cc FFF7FEFF 		bl	HAL_UART_ErrorCallback
2341:D:/iot/felix2/targets/Cloud_STM32L431_BearPi/Drivers/STM32L4xx_HAL_Driver/Src\stm32l4xx_hal_uart.c **** #endif /* USE_HAL_UART_REGISTER_CALLBACKS */
2342:D:/iot/felix2/targets/Cloud_STM32L431_BearPi/Drivers/STM32L4xx_HAL_Driver/Src\stm32l4xx_hal_uart.c ****         huart->ErrorCode = HAL_UART_ERROR_NONE;
 3429              		.loc 1 2342 0
 3430 01d0 7B68     		ldr	r3, [r7, #4]
 3431 01d2 0022     		movs	r2, #0
 3432 01d4 5A67     		str	r2, [r3, #116]
2343:D:/iot/felix2/targets/Cloud_STM32L431_BearPi/Drivers/STM32L4xx_HAL_Driver/Src\stm32l4xx_hal_uart.c ****       }
2344:D:/iot/felix2/targets/Cloud_STM32L431_BearPi/Drivers/STM32L4xx_HAL_Driver/Src\stm32l4xx_hal_uart.c ****     }
2345:D:/iot/felix2/targets/Cloud_STM32L431_BearPi/Drivers/STM32L4xx_HAL_Driver/Src\stm32l4xx_hal_uart.c ****     return;
 3433              		.loc 1 2345 0
 3434 01d6 38E0     		b	.L189
 3435              	.L190:
2288:D:/iot/felix2/targets/Cloud_STM32L431_BearPi/Drivers/STM32L4xx_HAL_Driver/Src\stm32l4xx_hal_uart.c ****         {
 3436              		.loc 1 2288 0
 3437 01d8 00BF     		nop
 3438              		.loc 1 2345 0
 3439 01da 36E0     		b	.L189
 3440              	.L169:
2346:D:/iot/felix2/targets/Cloud_STM32L431_BearPi/Drivers/STM32L4xx_HAL_Driver/Src\stm32l4xx_hal_uart.c **** 
2347:D:/iot/felix2/targets/Cloud_STM32L431_BearPi/Drivers/STM32L4xx_HAL_Driver/Src\stm32l4xx_hal_uart.c ****   } /* End if some error occurs */
2348:D:/iot/felix2/targets/Cloud_STM32L431_BearPi/Drivers/STM32L4xx_HAL_Driver/Src\stm32l4xx_hal_uart.c **** 
2349:D:/iot/felix2/targets/Cloud_STM32L431_BearPi/Drivers/STM32L4xx_HAL_Driver/Src\stm32l4xx_hal_uart.c ****   /* UART wakeup from Stop mode interrupt occurred ---------------------------*/
2350:D:/iot/felix2/targets/Cloud_STM32L431_BearPi/Drivers/STM32L4xx_HAL_Driver/Src\stm32l4xx_hal_uart.c ****   if (((isrflags & USART_ISR_WUF) != RESET) && ((cr3its & USART_CR3_WUFIE) != RESET))
ARM GAS  C:\Users\91458\AppData\Local\Temp\ccrpKNIe.s 			page 102


 3441              		.loc 1 2350 0
 3442 01dc 7B69     		ldr	r3, [r7, #20]
 3443 01de 03F48013 		and	r3, r3, #1048576
 3444 01e2 002B     		cmp	r3, #0
 3445 01e4 0DD0     		beq	.L185
 3446              		.loc 1 2350 0 is_stmt 0 discriminator 1
 3447 01e6 FB68     		ldr	r3, [r7, #12]
 3448 01e8 03F48003 		and	r3, r3, #4194304
 3449 01ec 002B     		cmp	r3, #0
 3450 01ee 08D0     		beq	.L185
2351:D:/iot/felix2/targets/Cloud_STM32L431_BearPi/Drivers/STM32L4xx_HAL_Driver/Src\stm32l4xx_hal_uart.c ****   {
2352:D:/iot/felix2/targets/Cloud_STM32L431_BearPi/Drivers/STM32L4xx_HAL_Driver/Src\stm32l4xx_hal_uart.c ****     __HAL_UART_CLEAR_FLAG(huart, UART_CLEAR_WUF);
 3451              		.loc 1 2352 0 is_stmt 1
 3452 01f0 7B68     		ldr	r3, [r7, #4]
 3453 01f2 1B68     		ldr	r3, [r3]
 3454 01f4 4FF48012 		mov	r2, #1048576
 3455 01f8 1A62     		str	r2, [r3, #32]
2353:D:/iot/felix2/targets/Cloud_STM32L431_BearPi/Drivers/STM32L4xx_HAL_Driver/Src\stm32l4xx_hal_uart.c **** 
2354:D:/iot/felix2/targets/Cloud_STM32L431_BearPi/Drivers/STM32L4xx_HAL_Driver/Src\stm32l4xx_hal_uart.c ****     /* UART Rx state is not reset as a reception process might be ongoing.
2355:D:/iot/felix2/targets/Cloud_STM32L431_BearPi/Drivers/STM32L4xx_HAL_Driver/Src\stm32l4xx_hal_uart.c ****        If UART handle state fields need to be reset to READY, this could be done in Wakeup callback
2356:D:/iot/felix2/targets/Cloud_STM32L431_BearPi/Drivers/STM32L4xx_HAL_Driver/Src\stm32l4xx_hal_uart.c **** 
2357:D:/iot/felix2/targets/Cloud_STM32L431_BearPi/Drivers/STM32L4xx_HAL_Driver/Src\stm32l4xx_hal_uart.c **** #if (USE_HAL_UART_REGISTER_CALLBACKS == 1)
2358:D:/iot/felix2/targets/Cloud_STM32L431_BearPi/Drivers/STM32L4xx_HAL_Driver/Src\stm32l4xx_hal_uart.c ****     /* Call registered Wakeup Callback */
2359:D:/iot/felix2/targets/Cloud_STM32L431_BearPi/Drivers/STM32L4xx_HAL_Driver/Src\stm32l4xx_hal_uart.c ****     huart->WakeupCallback(huart);
2360:D:/iot/felix2/targets/Cloud_STM32L431_BearPi/Drivers/STM32L4xx_HAL_Driver/Src\stm32l4xx_hal_uart.c **** #else
2361:D:/iot/felix2/targets/Cloud_STM32L431_BearPi/Drivers/STM32L4xx_HAL_Driver/Src\stm32l4xx_hal_uart.c ****     /* Call legacy weak Wakeup Callback */
2362:D:/iot/felix2/targets/Cloud_STM32L431_BearPi/Drivers/STM32L4xx_HAL_Driver/Src\stm32l4xx_hal_uart.c ****     HAL_UARTEx_WakeupCallback(huart);
 3456              		.loc 1 2362 0
 3457 01fa 7868     		ldr	r0, [r7, #4]
 3458 01fc FFF7FEFF 		bl	HAL_UARTEx_WakeupCallback
2363:D:/iot/felix2/targets/Cloud_STM32L431_BearPi/Drivers/STM32L4xx_HAL_Driver/Src\stm32l4xx_hal_uart.c **** #endif /* USE_HAL_UART_REGISTER_CALLBACKS */
2364:D:/iot/felix2/targets/Cloud_STM32L431_BearPi/Drivers/STM32L4xx_HAL_Driver/Src\stm32l4xx_hal_uart.c ****     return;
 3459              		.loc 1 2364 0
 3460 0200 26E0     		b	.L165
 3461              	.L185:
2365:D:/iot/felix2/targets/Cloud_STM32L431_BearPi/Drivers/STM32L4xx_HAL_Driver/Src\stm32l4xx_hal_uart.c ****   }
2366:D:/iot/felix2/targets/Cloud_STM32L431_BearPi/Drivers/STM32L4xx_HAL_Driver/Src\stm32l4xx_hal_uart.c **** 
2367:D:/iot/felix2/targets/Cloud_STM32L431_BearPi/Drivers/STM32L4xx_HAL_Driver/Src\stm32l4xx_hal_uart.c ****   /* UART in mode Transmitter ------------------------------------------------*/
2368:D:/iot/felix2/targets/Cloud_STM32L431_BearPi/Drivers/STM32L4xx_HAL_Driver/Src\stm32l4xx_hal_uart.c **** #if defined(USART_CR1_FIFOEN)
2369:D:/iot/felix2/targets/Cloud_STM32L431_BearPi/Drivers/STM32L4xx_HAL_Driver/Src\stm32l4xx_hal_uart.c ****   if (((isrflags & USART_ISR_TXE_TXFNF) != RESET)
2370:D:/iot/felix2/targets/Cloud_STM32L431_BearPi/Drivers/STM32L4xx_HAL_Driver/Src\stm32l4xx_hal_uart.c ****       && (((cr1its & USART_CR1_TXEIE_TXFNFIE) != RESET)
2371:D:/iot/felix2/targets/Cloud_STM32L431_BearPi/Drivers/STM32L4xx_HAL_Driver/Src\stm32l4xx_hal_uart.c ****           || ((cr3its & USART_CR3_TXFTIE) != RESET)))
2372:D:/iot/felix2/targets/Cloud_STM32L431_BearPi/Drivers/STM32L4xx_HAL_Driver/Src\stm32l4xx_hal_uart.c **** #else
2373:D:/iot/felix2/targets/Cloud_STM32L431_BearPi/Drivers/STM32L4xx_HAL_Driver/Src\stm32l4xx_hal_uart.c ****   if (((isrflags & USART_ISR_TXE) != RESET)
 3462              		.loc 1 2373 0
 3463 0202 7B69     		ldr	r3, [r7, #20]
 3464 0204 03F08003 		and	r3, r3, #128
 3465 0208 002B     		cmp	r3, #0
 3466 020a 0DD0     		beq	.L186
2374:D:/iot/felix2/targets/Cloud_STM32L431_BearPi/Drivers/STM32L4xx_HAL_Driver/Src\stm32l4xx_hal_uart.c ****       && ((cr1its & USART_CR1_TXEIE) != RESET))
 3467              		.loc 1 2374 0
 3468 020c 3B69     		ldr	r3, [r7, #16]
 3469 020e 03F08003 		and	r3, r3, #128
 3470 0212 002B     		cmp	r3, #0
 3471 0214 08D0     		beq	.L186
2375:D:/iot/felix2/targets/Cloud_STM32L431_BearPi/Drivers/STM32L4xx_HAL_Driver/Src\stm32l4xx_hal_uart.c **** #endif
2376:D:/iot/felix2/targets/Cloud_STM32L431_BearPi/Drivers/STM32L4xx_HAL_Driver/Src\stm32l4xx_hal_uart.c ****   {
ARM GAS  C:\Users\91458\AppData\Local\Temp\ccrpKNIe.s 			page 103


2377:D:/iot/felix2/targets/Cloud_STM32L431_BearPi/Drivers/STM32L4xx_HAL_Driver/Src\stm32l4xx_hal_uart.c ****     if (huart->TxISR != NULL)
 3472              		.loc 1 2377 0
 3473 0216 7B68     		ldr	r3, [r7, #4]
 3474 0218 5B6E     		ldr	r3, [r3, #100]
 3475 021a 002B     		cmp	r3, #0
 3476 021c 17D0     		beq	.L191
2378:D:/iot/felix2/targets/Cloud_STM32L431_BearPi/Drivers/STM32L4xx_HAL_Driver/Src\stm32l4xx_hal_uart.c ****     {
2379:D:/iot/felix2/targets/Cloud_STM32L431_BearPi/Drivers/STM32L4xx_HAL_Driver/Src\stm32l4xx_hal_uart.c ****       huart->TxISR(huart);
 3477              		.loc 1 2379 0
 3478 021e 7B68     		ldr	r3, [r7, #4]
 3479 0220 5B6E     		ldr	r3, [r3, #100]
 3480 0222 7868     		ldr	r0, [r7, #4]
 3481 0224 9847     		blx	r3
 3482              	.LVL5:
2380:D:/iot/felix2/targets/Cloud_STM32L431_BearPi/Drivers/STM32L4xx_HAL_Driver/Src\stm32l4xx_hal_uart.c ****     }
2381:D:/iot/felix2/targets/Cloud_STM32L431_BearPi/Drivers/STM32L4xx_HAL_Driver/Src\stm32l4xx_hal_uart.c ****     return;
 3483              		.loc 1 2381 0
 3484 0226 12E0     		b	.L191
 3485              	.L186:
2382:D:/iot/felix2/targets/Cloud_STM32L431_BearPi/Drivers/STM32L4xx_HAL_Driver/Src\stm32l4xx_hal_uart.c ****   }
2383:D:/iot/felix2/targets/Cloud_STM32L431_BearPi/Drivers/STM32L4xx_HAL_Driver/Src\stm32l4xx_hal_uart.c **** 
2384:D:/iot/felix2/targets/Cloud_STM32L431_BearPi/Drivers/STM32L4xx_HAL_Driver/Src\stm32l4xx_hal_uart.c ****   /* UART in mode Transmitter (transmission end) -----------------------------*/
2385:D:/iot/felix2/targets/Cloud_STM32L431_BearPi/Drivers/STM32L4xx_HAL_Driver/Src\stm32l4xx_hal_uart.c ****   if (((isrflags & USART_ISR_TC) != RESET) && ((cr1its & USART_CR1_TCIE) != RESET))
 3486              		.loc 1 2385 0
 3487 0228 7B69     		ldr	r3, [r7, #20]
 3488 022a 03F04003 		and	r3, r3, #64
 3489 022e 002B     		cmp	r3, #0
 3490 0230 0ED0     		beq	.L165
 3491              		.loc 1 2385 0 is_stmt 0 discriminator 1
 3492 0232 3B69     		ldr	r3, [r7, #16]
 3493 0234 03F04003 		and	r3, r3, #64
 3494 0238 002B     		cmp	r3, #0
 3495 023a 09D0     		beq	.L165
2386:D:/iot/felix2/targets/Cloud_STM32L431_BearPi/Drivers/STM32L4xx_HAL_Driver/Src\stm32l4xx_hal_uart.c ****   {
2387:D:/iot/felix2/targets/Cloud_STM32L431_BearPi/Drivers/STM32L4xx_HAL_Driver/Src\stm32l4xx_hal_uart.c ****     UART_EndTransmit_IT(huart);
 3496              		.loc 1 2387 0 is_stmt 1
 3497 023c 7868     		ldr	r0, [r7, #4]
 3498 023e FFF7FEFF 		bl	UART_EndTransmit_IT
2388:D:/iot/felix2/targets/Cloud_STM32L431_BearPi/Drivers/STM32L4xx_HAL_Driver/Src\stm32l4xx_hal_uart.c ****     return;
 3499              		.loc 1 2388 0
 3500 0242 00BF     		nop
 3501 0244 04E0     		b	.L165
 3502              	.L188:
2203:D:/iot/felix2/targets/Cloud_STM32L431_BearPi/Drivers/STM32L4xx_HAL_Driver/Src\stm32l4xx_hal_uart.c ****     }
 3503              		.loc 1 2203 0
 3504 0246 00BF     		nop
 3505 0248 02E0     		b	.L165
 3506              	.L189:
2345:D:/iot/felix2/targets/Cloud_STM32L431_BearPi/Drivers/STM32L4xx_HAL_Driver/Src\stm32l4xx_hal_uart.c **** 
 3507              		.loc 1 2345 0
 3508 024a 00BF     		nop
 3509 024c 00E0     		b	.L165
 3510              	.L191:
2381:D:/iot/felix2/targets/Cloud_STM32L431_BearPi/Drivers/STM32L4xx_HAL_Driver/Src\stm32l4xx_hal_uart.c ****   }
 3511              		.loc 1 2381 0
 3512 024e 00BF     		nop
 3513              	.L165:
ARM GAS  C:\Users\91458\AppData\Local\Temp\ccrpKNIe.s 			page 104


2389:D:/iot/felix2/targets/Cloud_STM32L431_BearPi/Drivers/STM32L4xx_HAL_Driver/Src\stm32l4xx_hal_uart.c ****   }
2390:D:/iot/felix2/targets/Cloud_STM32L431_BearPi/Drivers/STM32L4xx_HAL_Driver/Src\stm32l4xx_hal_uart.c **** 
2391:D:/iot/felix2/targets/Cloud_STM32L431_BearPi/Drivers/STM32L4xx_HAL_Driver/Src\stm32l4xx_hal_uart.c **** #if defined(USART_CR1_FIFOEN)
2392:D:/iot/felix2/targets/Cloud_STM32L431_BearPi/Drivers/STM32L4xx_HAL_Driver/Src\stm32l4xx_hal_uart.c ****   /* UART TX Fifo Empty occurred ----------------------------------------------*/
2393:D:/iot/felix2/targets/Cloud_STM32L431_BearPi/Drivers/STM32L4xx_HAL_Driver/Src\stm32l4xx_hal_uart.c ****   if (((isrflags & USART_ISR_TXFE) != RESET) && ((cr1its & USART_CR1_TXFEIE) != RESET))
2394:D:/iot/felix2/targets/Cloud_STM32L431_BearPi/Drivers/STM32L4xx_HAL_Driver/Src\stm32l4xx_hal_uart.c ****   {
2395:D:/iot/felix2/targets/Cloud_STM32L431_BearPi/Drivers/STM32L4xx_HAL_Driver/Src\stm32l4xx_hal_uart.c **** #if (USE_HAL_UART_REGISTER_CALLBACKS == 1)
2396:D:/iot/felix2/targets/Cloud_STM32L431_BearPi/Drivers/STM32L4xx_HAL_Driver/Src\stm32l4xx_hal_uart.c ****     /* Call registered Tx Fifo Empty Callback */
2397:D:/iot/felix2/targets/Cloud_STM32L431_BearPi/Drivers/STM32L4xx_HAL_Driver/Src\stm32l4xx_hal_uart.c ****     huart->TxFifoEmptyCallback(huart);
2398:D:/iot/felix2/targets/Cloud_STM32L431_BearPi/Drivers/STM32L4xx_HAL_Driver/Src\stm32l4xx_hal_uart.c **** #else
2399:D:/iot/felix2/targets/Cloud_STM32L431_BearPi/Drivers/STM32L4xx_HAL_Driver/Src\stm32l4xx_hal_uart.c ****     /* Call legacy weak Tx Fifo Empty Callback */
2400:D:/iot/felix2/targets/Cloud_STM32L431_BearPi/Drivers/STM32L4xx_HAL_Driver/Src\stm32l4xx_hal_uart.c ****     HAL_UARTEx_TxFifoEmptyCallback(huart);
2401:D:/iot/felix2/targets/Cloud_STM32L431_BearPi/Drivers/STM32L4xx_HAL_Driver/Src\stm32l4xx_hal_uart.c **** #endif /* USE_HAL_UART_REGISTER_CALLBACKS */
2402:D:/iot/felix2/targets/Cloud_STM32L431_BearPi/Drivers/STM32L4xx_HAL_Driver/Src\stm32l4xx_hal_uart.c ****     return;
2403:D:/iot/felix2/targets/Cloud_STM32L431_BearPi/Drivers/STM32L4xx_HAL_Driver/Src\stm32l4xx_hal_uart.c ****   }
2404:D:/iot/felix2/targets/Cloud_STM32L431_BearPi/Drivers/STM32L4xx_HAL_Driver/Src\stm32l4xx_hal_uart.c **** 
2405:D:/iot/felix2/targets/Cloud_STM32L431_BearPi/Drivers/STM32L4xx_HAL_Driver/Src\stm32l4xx_hal_uart.c ****   /* UART RX Fifo Full occurred ----------------------------------------------*/
2406:D:/iot/felix2/targets/Cloud_STM32L431_BearPi/Drivers/STM32L4xx_HAL_Driver/Src\stm32l4xx_hal_uart.c ****   if (((isrflags & USART_ISR_RXFF) != RESET) && ((cr1its & USART_CR1_RXFFIE) != RESET))
2407:D:/iot/felix2/targets/Cloud_STM32L431_BearPi/Drivers/STM32L4xx_HAL_Driver/Src\stm32l4xx_hal_uart.c ****   {
2408:D:/iot/felix2/targets/Cloud_STM32L431_BearPi/Drivers/STM32L4xx_HAL_Driver/Src\stm32l4xx_hal_uart.c **** #if (USE_HAL_UART_REGISTER_CALLBACKS == 1)
2409:D:/iot/felix2/targets/Cloud_STM32L431_BearPi/Drivers/STM32L4xx_HAL_Driver/Src\stm32l4xx_hal_uart.c ****     /* Call registered Rx Fifo Full Callback */
2410:D:/iot/felix2/targets/Cloud_STM32L431_BearPi/Drivers/STM32L4xx_HAL_Driver/Src\stm32l4xx_hal_uart.c ****     huart->RxFifoFullCallback(huart);
2411:D:/iot/felix2/targets/Cloud_STM32L431_BearPi/Drivers/STM32L4xx_HAL_Driver/Src\stm32l4xx_hal_uart.c **** #else
2412:D:/iot/felix2/targets/Cloud_STM32L431_BearPi/Drivers/STM32L4xx_HAL_Driver/Src\stm32l4xx_hal_uart.c ****     /* Call legacy weak Rx Fifo Full Callback */
2413:D:/iot/felix2/targets/Cloud_STM32L431_BearPi/Drivers/STM32L4xx_HAL_Driver/Src\stm32l4xx_hal_uart.c ****     HAL_UARTEx_RxFifoFullCallback(huart);
2414:D:/iot/felix2/targets/Cloud_STM32L431_BearPi/Drivers/STM32L4xx_HAL_Driver/Src\stm32l4xx_hal_uart.c **** #endif /* USE_HAL_UART_REGISTER_CALLBACKS */
2415:D:/iot/felix2/targets/Cloud_STM32L431_BearPi/Drivers/STM32L4xx_HAL_Driver/Src\stm32l4xx_hal_uart.c ****     return;
2416:D:/iot/felix2/targets/Cloud_STM32L431_BearPi/Drivers/STM32L4xx_HAL_Driver/Src\stm32l4xx_hal_uart.c ****   }
2417:D:/iot/felix2/targets/Cloud_STM32L431_BearPi/Drivers/STM32L4xx_HAL_Driver/Src\stm32l4xx_hal_uart.c **** #endif
2418:D:/iot/felix2/targets/Cloud_STM32L431_BearPi/Drivers/STM32L4xx_HAL_Driver/Src\stm32l4xx_hal_uart.c **** }
 3514              		.loc 1 2418 0
 3515 0250 1837     		adds	r7, r7, #24
 3516              	.LCFI119:
 3517              		.cfi_def_cfa_offset 8
 3518 0252 BD46     		mov	sp, r7
 3519              	.LCFI120:
 3520              		.cfi_def_cfa_register 13
 3521              		@ sp needed
 3522 0254 80BD     		pop	{r7, pc}
 3523              	.L193:
 3524 0256 00BF     		.align	2
 3525              	.L192:
 3526 0258 00000000 		.word	UART_DMAAbortOnError
 3527              		.cfi_endproc
 3528              	.LFE155:
 3530              		.section	.text.HAL_UART_TxCpltCallback,"ax",%progbits
 3531              		.align	1
 3532              		.weak	HAL_UART_TxCpltCallback
 3533              		.syntax unified
 3534              		.thumb
 3535              		.thumb_func
 3536              		.fpu fpv4-sp-d16
 3538              	HAL_UART_TxCpltCallback:
 3539              	.LFB156:
2419:D:/iot/felix2/targets/Cloud_STM32L431_BearPi/Drivers/STM32L4xx_HAL_Driver/Src\stm32l4xx_hal_uart.c **** 
2420:D:/iot/felix2/targets/Cloud_STM32L431_BearPi/Drivers/STM32L4xx_HAL_Driver/Src\stm32l4xx_hal_uart.c **** /**
2421:D:/iot/felix2/targets/Cloud_STM32L431_BearPi/Drivers/STM32L4xx_HAL_Driver/Src\stm32l4xx_hal_uart.c ****   * @brief Tx Transfer completed callback.
ARM GAS  C:\Users\91458\AppData\Local\Temp\ccrpKNIe.s 			page 105


2422:D:/iot/felix2/targets/Cloud_STM32L431_BearPi/Drivers/STM32L4xx_HAL_Driver/Src\stm32l4xx_hal_uart.c ****   * @param huart UART handle.
2423:D:/iot/felix2/targets/Cloud_STM32L431_BearPi/Drivers/STM32L4xx_HAL_Driver/Src\stm32l4xx_hal_uart.c ****   * @retval None
2424:D:/iot/felix2/targets/Cloud_STM32L431_BearPi/Drivers/STM32L4xx_HAL_Driver/Src\stm32l4xx_hal_uart.c ****   */
2425:D:/iot/felix2/targets/Cloud_STM32L431_BearPi/Drivers/STM32L4xx_HAL_Driver/Src\stm32l4xx_hal_uart.c **** __weak void HAL_UART_TxCpltCallback(UART_HandleTypeDef *huart)
2426:D:/iot/felix2/targets/Cloud_STM32L431_BearPi/Drivers/STM32L4xx_HAL_Driver/Src\stm32l4xx_hal_uart.c **** {
 3540              		.loc 1 2426 0
 3541              		.cfi_startproc
 3542              		@ args = 0, pretend = 0, frame = 8
 3543              		@ frame_needed = 1, uses_anonymous_args = 0
 3544              		@ link register save eliminated.
 3545 0000 80B4     		push	{r7}
 3546              	.LCFI121:
 3547              		.cfi_def_cfa_offset 4
 3548              		.cfi_offset 7, -4
 3549 0002 83B0     		sub	sp, sp, #12
 3550              	.LCFI122:
 3551              		.cfi_def_cfa_offset 16
 3552 0004 00AF     		add	r7, sp, #0
 3553              	.LCFI123:
 3554              		.cfi_def_cfa_register 7
 3555 0006 7860     		str	r0, [r7, #4]
2427:D:/iot/felix2/targets/Cloud_STM32L431_BearPi/Drivers/STM32L4xx_HAL_Driver/Src\stm32l4xx_hal_uart.c ****   /* Prevent unused argument(s) compilation warning */
2428:D:/iot/felix2/targets/Cloud_STM32L431_BearPi/Drivers/STM32L4xx_HAL_Driver/Src\stm32l4xx_hal_uart.c ****   UNUSED(huart);
2429:D:/iot/felix2/targets/Cloud_STM32L431_BearPi/Drivers/STM32L4xx_HAL_Driver/Src\stm32l4xx_hal_uart.c **** 
2430:D:/iot/felix2/targets/Cloud_STM32L431_BearPi/Drivers/STM32L4xx_HAL_Driver/Src\stm32l4xx_hal_uart.c ****   /* NOTE : This function should not be modified, when the callback is needed,
2431:D:/iot/felix2/targets/Cloud_STM32L431_BearPi/Drivers/STM32L4xx_HAL_Driver/Src\stm32l4xx_hal_uart.c ****             the HAL_UART_TxCpltCallback can be implemented in the user file.
2432:D:/iot/felix2/targets/Cloud_STM32L431_BearPi/Drivers/STM32L4xx_HAL_Driver/Src\stm32l4xx_hal_uart.c ****    */
2433:D:/iot/felix2/targets/Cloud_STM32L431_BearPi/Drivers/STM32L4xx_HAL_Driver/Src\stm32l4xx_hal_uart.c **** }
 3556              		.loc 1 2433 0
 3557 0008 00BF     		nop
 3558 000a 0C37     		adds	r7, r7, #12
 3559              	.LCFI124:
 3560              		.cfi_def_cfa_offset 4
 3561 000c BD46     		mov	sp, r7
 3562              	.LCFI125:
 3563              		.cfi_def_cfa_register 13
 3564              		@ sp needed
 3565 000e 5DF8047B 		ldr	r7, [sp], #4
 3566              	.LCFI126:
 3567              		.cfi_restore 7
 3568              		.cfi_def_cfa_offset 0
 3569 0012 7047     		bx	lr
 3570              		.cfi_endproc
 3571              	.LFE156:
 3573              		.section	.text.HAL_UART_TxHalfCpltCallback,"ax",%progbits
 3574              		.align	1
 3575              		.weak	HAL_UART_TxHalfCpltCallback
 3576              		.syntax unified
 3577              		.thumb
 3578              		.thumb_func
 3579              		.fpu fpv4-sp-d16
 3581              	HAL_UART_TxHalfCpltCallback:
 3582              	.LFB157:
2434:D:/iot/felix2/targets/Cloud_STM32L431_BearPi/Drivers/STM32L4xx_HAL_Driver/Src\stm32l4xx_hal_uart.c **** 
2435:D:/iot/felix2/targets/Cloud_STM32L431_BearPi/Drivers/STM32L4xx_HAL_Driver/Src\stm32l4xx_hal_uart.c **** /**
2436:D:/iot/felix2/targets/Cloud_STM32L431_BearPi/Drivers/STM32L4xx_HAL_Driver/Src\stm32l4xx_hal_uart.c ****   * @brief  Tx Half Transfer completed callback.
2437:D:/iot/felix2/targets/Cloud_STM32L431_BearPi/Drivers/STM32L4xx_HAL_Driver/Src\stm32l4xx_hal_uart.c ****   * @param huart UART handle.
ARM GAS  C:\Users\91458\AppData\Local\Temp\ccrpKNIe.s 			page 106


2438:D:/iot/felix2/targets/Cloud_STM32L431_BearPi/Drivers/STM32L4xx_HAL_Driver/Src\stm32l4xx_hal_uart.c ****   * @retval None
2439:D:/iot/felix2/targets/Cloud_STM32L431_BearPi/Drivers/STM32L4xx_HAL_Driver/Src\stm32l4xx_hal_uart.c ****   */
2440:D:/iot/felix2/targets/Cloud_STM32L431_BearPi/Drivers/STM32L4xx_HAL_Driver/Src\stm32l4xx_hal_uart.c **** __weak void HAL_UART_TxHalfCpltCallback(UART_HandleTypeDef *huart)
2441:D:/iot/felix2/targets/Cloud_STM32L431_BearPi/Drivers/STM32L4xx_HAL_Driver/Src\stm32l4xx_hal_uart.c **** {
 3583              		.loc 1 2441 0
 3584              		.cfi_startproc
 3585              		@ args = 0, pretend = 0, frame = 8
 3586              		@ frame_needed = 1, uses_anonymous_args = 0
 3587              		@ link register save eliminated.
 3588 0000 80B4     		push	{r7}
 3589              	.LCFI127:
 3590              		.cfi_def_cfa_offset 4
 3591              		.cfi_offset 7, -4
 3592 0002 83B0     		sub	sp, sp, #12
 3593              	.LCFI128:
 3594              		.cfi_def_cfa_offset 16
 3595 0004 00AF     		add	r7, sp, #0
 3596              	.LCFI129:
 3597              		.cfi_def_cfa_register 7
 3598 0006 7860     		str	r0, [r7, #4]
2442:D:/iot/felix2/targets/Cloud_STM32L431_BearPi/Drivers/STM32L4xx_HAL_Driver/Src\stm32l4xx_hal_uart.c ****   /* Prevent unused argument(s) compilation warning */
2443:D:/iot/felix2/targets/Cloud_STM32L431_BearPi/Drivers/STM32L4xx_HAL_Driver/Src\stm32l4xx_hal_uart.c ****   UNUSED(huart);
2444:D:/iot/felix2/targets/Cloud_STM32L431_BearPi/Drivers/STM32L4xx_HAL_Driver/Src\stm32l4xx_hal_uart.c **** 
2445:D:/iot/felix2/targets/Cloud_STM32L431_BearPi/Drivers/STM32L4xx_HAL_Driver/Src\stm32l4xx_hal_uart.c ****   /* NOTE: This function should not be modified, when the callback is needed,
2446:D:/iot/felix2/targets/Cloud_STM32L431_BearPi/Drivers/STM32L4xx_HAL_Driver/Src\stm32l4xx_hal_uart.c ****            the HAL_UART_TxHalfCpltCallback can be implemented in the user file.
2447:D:/iot/felix2/targets/Cloud_STM32L431_BearPi/Drivers/STM32L4xx_HAL_Driver/Src\stm32l4xx_hal_uart.c ****    */
2448:D:/iot/felix2/targets/Cloud_STM32L431_BearPi/Drivers/STM32L4xx_HAL_Driver/Src\stm32l4xx_hal_uart.c **** }
 3599              		.loc 1 2448 0
 3600 0008 00BF     		nop
 3601 000a 0C37     		adds	r7, r7, #12
 3602              	.LCFI130:
 3603              		.cfi_def_cfa_offset 4
 3604 000c BD46     		mov	sp, r7
 3605              	.LCFI131:
 3606              		.cfi_def_cfa_register 13
 3607              		@ sp needed
 3608 000e 5DF8047B 		ldr	r7, [sp], #4
 3609              	.LCFI132:
 3610              		.cfi_restore 7
 3611              		.cfi_def_cfa_offset 0
 3612 0012 7047     		bx	lr
 3613              		.cfi_endproc
 3614              	.LFE157:
 3616              		.section	.text.HAL_UART_RxCpltCallback,"ax",%progbits
 3617              		.align	1
 3618              		.weak	HAL_UART_RxCpltCallback
 3619              		.syntax unified
 3620              		.thumb
 3621              		.thumb_func
 3622              		.fpu fpv4-sp-d16
 3624              	HAL_UART_RxCpltCallback:
 3625              	.LFB158:
2449:D:/iot/felix2/targets/Cloud_STM32L431_BearPi/Drivers/STM32L4xx_HAL_Driver/Src\stm32l4xx_hal_uart.c **** 
2450:D:/iot/felix2/targets/Cloud_STM32L431_BearPi/Drivers/STM32L4xx_HAL_Driver/Src\stm32l4xx_hal_uart.c **** /**
2451:D:/iot/felix2/targets/Cloud_STM32L431_BearPi/Drivers/STM32L4xx_HAL_Driver/Src\stm32l4xx_hal_uart.c ****   * @brief Rx Transfer completed callback.
2452:D:/iot/felix2/targets/Cloud_STM32L431_BearPi/Drivers/STM32L4xx_HAL_Driver/Src\stm32l4xx_hal_uart.c ****   * @param huart UART handle.
2453:D:/iot/felix2/targets/Cloud_STM32L431_BearPi/Drivers/STM32L4xx_HAL_Driver/Src\stm32l4xx_hal_uart.c ****   * @retval None
ARM GAS  C:\Users\91458\AppData\Local\Temp\ccrpKNIe.s 			page 107


2454:D:/iot/felix2/targets/Cloud_STM32L431_BearPi/Drivers/STM32L4xx_HAL_Driver/Src\stm32l4xx_hal_uart.c ****   */
2455:D:/iot/felix2/targets/Cloud_STM32L431_BearPi/Drivers/STM32L4xx_HAL_Driver/Src\stm32l4xx_hal_uart.c **** __weak void HAL_UART_RxCpltCallback(UART_HandleTypeDef *huart)
2456:D:/iot/felix2/targets/Cloud_STM32L431_BearPi/Drivers/STM32L4xx_HAL_Driver/Src\stm32l4xx_hal_uart.c **** {
 3626              		.loc 1 2456 0
 3627              		.cfi_startproc
 3628              		@ args = 0, pretend = 0, frame = 8
 3629              		@ frame_needed = 1, uses_anonymous_args = 0
 3630              		@ link register save eliminated.
 3631 0000 80B4     		push	{r7}
 3632              	.LCFI133:
 3633              		.cfi_def_cfa_offset 4
 3634              		.cfi_offset 7, -4
 3635 0002 83B0     		sub	sp, sp, #12
 3636              	.LCFI134:
 3637              		.cfi_def_cfa_offset 16
 3638 0004 00AF     		add	r7, sp, #0
 3639              	.LCFI135:
 3640              		.cfi_def_cfa_register 7
 3641 0006 7860     		str	r0, [r7, #4]
2457:D:/iot/felix2/targets/Cloud_STM32L431_BearPi/Drivers/STM32L4xx_HAL_Driver/Src\stm32l4xx_hal_uart.c ****   /* Prevent unused argument(s) compilation warning */
2458:D:/iot/felix2/targets/Cloud_STM32L431_BearPi/Drivers/STM32L4xx_HAL_Driver/Src\stm32l4xx_hal_uart.c ****   UNUSED(huart);
2459:D:/iot/felix2/targets/Cloud_STM32L431_BearPi/Drivers/STM32L4xx_HAL_Driver/Src\stm32l4xx_hal_uart.c **** 
2460:D:/iot/felix2/targets/Cloud_STM32L431_BearPi/Drivers/STM32L4xx_HAL_Driver/Src\stm32l4xx_hal_uart.c ****   /* NOTE : This function should not be modified, when the callback is needed,
2461:D:/iot/felix2/targets/Cloud_STM32L431_BearPi/Drivers/STM32L4xx_HAL_Driver/Src\stm32l4xx_hal_uart.c ****             the HAL_UART_RxCpltCallback can be implemented in the user file.
2462:D:/iot/felix2/targets/Cloud_STM32L431_BearPi/Drivers/STM32L4xx_HAL_Driver/Src\stm32l4xx_hal_uart.c ****    */
2463:D:/iot/felix2/targets/Cloud_STM32L431_BearPi/Drivers/STM32L4xx_HAL_Driver/Src\stm32l4xx_hal_uart.c **** }
 3642              		.loc 1 2463 0
 3643 0008 00BF     		nop
 3644 000a 0C37     		adds	r7, r7, #12
 3645              	.LCFI136:
 3646              		.cfi_def_cfa_offset 4
 3647 000c BD46     		mov	sp, r7
 3648              	.LCFI137:
 3649              		.cfi_def_cfa_register 13
 3650              		@ sp needed
 3651 000e 5DF8047B 		ldr	r7, [sp], #4
 3652              	.LCFI138:
 3653              		.cfi_restore 7
 3654              		.cfi_def_cfa_offset 0
 3655 0012 7047     		bx	lr
 3656              		.cfi_endproc
 3657              	.LFE158:
 3659              		.section	.text.HAL_UART_RxHalfCpltCallback,"ax",%progbits
 3660              		.align	1
 3661              		.weak	HAL_UART_RxHalfCpltCallback
 3662              		.syntax unified
 3663              		.thumb
 3664              		.thumb_func
 3665              		.fpu fpv4-sp-d16
 3667              	HAL_UART_RxHalfCpltCallback:
 3668              	.LFB159:
2464:D:/iot/felix2/targets/Cloud_STM32L431_BearPi/Drivers/STM32L4xx_HAL_Driver/Src\stm32l4xx_hal_uart.c **** 
2465:D:/iot/felix2/targets/Cloud_STM32L431_BearPi/Drivers/STM32L4xx_HAL_Driver/Src\stm32l4xx_hal_uart.c **** /**
2466:D:/iot/felix2/targets/Cloud_STM32L431_BearPi/Drivers/STM32L4xx_HAL_Driver/Src\stm32l4xx_hal_uart.c ****   * @brief  Rx Half Transfer completed callback.
2467:D:/iot/felix2/targets/Cloud_STM32L431_BearPi/Drivers/STM32L4xx_HAL_Driver/Src\stm32l4xx_hal_uart.c ****   * @param huart UART handle.
2468:D:/iot/felix2/targets/Cloud_STM32L431_BearPi/Drivers/STM32L4xx_HAL_Driver/Src\stm32l4xx_hal_uart.c ****   * @retval None
2469:D:/iot/felix2/targets/Cloud_STM32L431_BearPi/Drivers/STM32L4xx_HAL_Driver/Src\stm32l4xx_hal_uart.c ****   */
ARM GAS  C:\Users\91458\AppData\Local\Temp\ccrpKNIe.s 			page 108


2470:D:/iot/felix2/targets/Cloud_STM32L431_BearPi/Drivers/STM32L4xx_HAL_Driver/Src\stm32l4xx_hal_uart.c **** __weak void HAL_UART_RxHalfCpltCallback(UART_HandleTypeDef *huart)
2471:D:/iot/felix2/targets/Cloud_STM32L431_BearPi/Drivers/STM32L4xx_HAL_Driver/Src\stm32l4xx_hal_uart.c **** {
 3669              		.loc 1 2471 0
 3670              		.cfi_startproc
 3671              		@ args = 0, pretend = 0, frame = 8
 3672              		@ frame_needed = 1, uses_anonymous_args = 0
 3673              		@ link register save eliminated.
 3674 0000 80B4     		push	{r7}
 3675              	.LCFI139:
 3676              		.cfi_def_cfa_offset 4
 3677              		.cfi_offset 7, -4
 3678 0002 83B0     		sub	sp, sp, #12
 3679              	.LCFI140:
 3680              		.cfi_def_cfa_offset 16
 3681 0004 00AF     		add	r7, sp, #0
 3682              	.LCFI141:
 3683              		.cfi_def_cfa_register 7
 3684 0006 7860     		str	r0, [r7, #4]
2472:D:/iot/felix2/targets/Cloud_STM32L431_BearPi/Drivers/STM32L4xx_HAL_Driver/Src\stm32l4xx_hal_uart.c ****   /* Prevent unused argument(s) compilation warning */
2473:D:/iot/felix2/targets/Cloud_STM32L431_BearPi/Drivers/STM32L4xx_HAL_Driver/Src\stm32l4xx_hal_uart.c ****   UNUSED(huart);
2474:D:/iot/felix2/targets/Cloud_STM32L431_BearPi/Drivers/STM32L4xx_HAL_Driver/Src\stm32l4xx_hal_uart.c **** 
2475:D:/iot/felix2/targets/Cloud_STM32L431_BearPi/Drivers/STM32L4xx_HAL_Driver/Src\stm32l4xx_hal_uart.c ****   /* NOTE: This function should not be modified, when the callback is needed,
2476:D:/iot/felix2/targets/Cloud_STM32L431_BearPi/Drivers/STM32L4xx_HAL_Driver/Src\stm32l4xx_hal_uart.c ****            the HAL_UART_RxHalfCpltCallback can be implemented in the user file.
2477:D:/iot/felix2/targets/Cloud_STM32L431_BearPi/Drivers/STM32L4xx_HAL_Driver/Src\stm32l4xx_hal_uart.c ****    */
2478:D:/iot/felix2/targets/Cloud_STM32L431_BearPi/Drivers/STM32L4xx_HAL_Driver/Src\stm32l4xx_hal_uart.c **** }
 3685              		.loc 1 2478 0
 3686 0008 00BF     		nop
 3687 000a 0C37     		adds	r7, r7, #12
 3688              	.LCFI142:
 3689              		.cfi_def_cfa_offset 4
 3690 000c BD46     		mov	sp, r7
 3691              	.LCFI143:
 3692              		.cfi_def_cfa_register 13
 3693              		@ sp needed
 3694 000e 5DF8047B 		ldr	r7, [sp], #4
 3695              	.LCFI144:
 3696              		.cfi_restore 7
 3697              		.cfi_def_cfa_offset 0
 3698 0012 7047     		bx	lr
 3699              		.cfi_endproc
 3700              	.LFE159:
 3702              		.section	.text.HAL_UART_ErrorCallback,"ax",%progbits
 3703              		.align	1
 3704              		.weak	HAL_UART_ErrorCallback
 3705              		.syntax unified
 3706              		.thumb
 3707              		.thumb_func
 3708              		.fpu fpv4-sp-d16
 3710              	HAL_UART_ErrorCallback:
 3711              	.LFB160:
2479:D:/iot/felix2/targets/Cloud_STM32L431_BearPi/Drivers/STM32L4xx_HAL_Driver/Src\stm32l4xx_hal_uart.c **** 
2480:D:/iot/felix2/targets/Cloud_STM32L431_BearPi/Drivers/STM32L4xx_HAL_Driver/Src\stm32l4xx_hal_uart.c **** /**
2481:D:/iot/felix2/targets/Cloud_STM32L431_BearPi/Drivers/STM32L4xx_HAL_Driver/Src\stm32l4xx_hal_uart.c ****   * @brief UART error callback.
2482:D:/iot/felix2/targets/Cloud_STM32L431_BearPi/Drivers/STM32L4xx_HAL_Driver/Src\stm32l4xx_hal_uart.c ****   * @param huart UART handle.
2483:D:/iot/felix2/targets/Cloud_STM32L431_BearPi/Drivers/STM32L4xx_HAL_Driver/Src\stm32l4xx_hal_uart.c ****   * @retval None
2484:D:/iot/felix2/targets/Cloud_STM32L431_BearPi/Drivers/STM32L4xx_HAL_Driver/Src\stm32l4xx_hal_uart.c ****   */
2485:D:/iot/felix2/targets/Cloud_STM32L431_BearPi/Drivers/STM32L4xx_HAL_Driver/Src\stm32l4xx_hal_uart.c **** __weak void HAL_UART_ErrorCallback(UART_HandleTypeDef *huart)
ARM GAS  C:\Users\91458\AppData\Local\Temp\ccrpKNIe.s 			page 109


2486:D:/iot/felix2/targets/Cloud_STM32L431_BearPi/Drivers/STM32L4xx_HAL_Driver/Src\stm32l4xx_hal_uart.c **** {
 3712              		.loc 1 2486 0
 3713              		.cfi_startproc
 3714              		@ args = 0, pretend = 0, frame = 8
 3715              		@ frame_needed = 1, uses_anonymous_args = 0
 3716              		@ link register save eliminated.
 3717 0000 80B4     		push	{r7}
 3718              	.LCFI145:
 3719              		.cfi_def_cfa_offset 4
 3720              		.cfi_offset 7, -4
 3721 0002 83B0     		sub	sp, sp, #12
 3722              	.LCFI146:
 3723              		.cfi_def_cfa_offset 16
 3724 0004 00AF     		add	r7, sp, #0
 3725              	.LCFI147:
 3726              		.cfi_def_cfa_register 7
 3727 0006 7860     		str	r0, [r7, #4]
2487:D:/iot/felix2/targets/Cloud_STM32L431_BearPi/Drivers/STM32L4xx_HAL_Driver/Src\stm32l4xx_hal_uart.c ****   /* Prevent unused argument(s) compilation warning */
2488:D:/iot/felix2/targets/Cloud_STM32L431_BearPi/Drivers/STM32L4xx_HAL_Driver/Src\stm32l4xx_hal_uart.c ****   UNUSED(huart);
2489:D:/iot/felix2/targets/Cloud_STM32L431_BearPi/Drivers/STM32L4xx_HAL_Driver/Src\stm32l4xx_hal_uart.c **** 
2490:D:/iot/felix2/targets/Cloud_STM32L431_BearPi/Drivers/STM32L4xx_HAL_Driver/Src\stm32l4xx_hal_uart.c ****   /* NOTE : This function should not be modified, when the callback is needed,
2491:D:/iot/felix2/targets/Cloud_STM32L431_BearPi/Drivers/STM32L4xx_HAL_Driver/Src\stm32l4xx_hal_uart.c ****             the HAL_UART_ErrorCallback can be implemented in the user file.
2492:D:/iot/felix2/targets/Cloud_STM32L431_BearPi/Drivers/STM32L4xx_HAL_Driver/Src\stm32l4xx_hal_uart.c ****    */
2493:D:/iot/felix2/targets/Cloud_STM32L431_BearPi/Drivers/STM32L4xx_HAL_Driver/Src\stm32l4xx_hal_uart.c **** }
 3728              		.loc 1 2493 0
 3729 0008 00BF     		nop
 3730 000a 0C37     		adds	r7, r7, #12
 3731              	.LCFI148:
 3732              		.cfi_def_cfa_offset 4
 3733 000c BD46     		mov	sp, r7
 3734              	.LCFI149:
 3735              		.cfi_def_cfa_register 13
 3736              		@ sp needed
 3737 000e 5DF8047B 		ldr	r7, [sp], #4
 3738              	.LCFI150:
 3739              		.cfi_restore 7
 3740              		.cfi_def_cfa_offset 0
 3741 0012 7047     		bx	lr
 3742              		.cfi_endproc
 3743              	.LFE160:
 3745              		.section	.text.HAL_UART_AbortCpltCallback,"ax",%progbits
 3746              		.align	1
 3747              		.weak	HAL_UART_AbortCpltCallback
 3748              		.syntax unified
 3749              		.thumb
 3750              		.thumb_func
 3751              		.fpu fpv4-sp-d16
 3753              	HAL_UART_AbortCpltCallback:
 3754              	.LFB161:
2494:D:/iot/felix2/targets/Cloud_STM32L431_BearPi/Drivers/STM32L4xx_HAL_Driver/Src\stm32l4xx_hal_uart.c **** 
2495:D:/iot/felix2/targets/Cloud_STM32L431_BearPi/Drivers/STM32L4xx_HAL_Driver/Src\stm32l4xx_hal_uart.c **** /**
2496:D:/iot/felix2/targets/Cloud_STM32L431_BearPi/Drivers/STM32L4xx_HAL_Driver/Src\stm32l4xx_hal_uart.c ****   * @brief  UART Abort Complete callback.
2497:D:/iot/felix2/targets/Cloud_STM32L431_BearPi/Drivers/STM32L4xx_HAL_Driver/Src\stm32l4xx_hal_uart.c ****   * @param  huart UART handle.
2498:D:/iot/felix2/targets/Cloud_STM32L431_BearPi/Drivers/STM32L4xx_HAL_Driver/Src\stm32l4xx_hal_uart.c ****   * @retval None
2499:D:/iot/felix2/targets/Cloud_STM32L431_BearPi/Drivers/STM32L4xx_HAL_Driver/Src\stm32l4xx_hal_uart.c ****   */
2500:D:/iot/felix2/targets/Cloud_STM32L431_BearPi/Drivers/STM32L4xx_HAL_Driver/Src\stm32l4xx_hal_uart.c **** __weak void HAL_UART_AbortCpltCallback(UART_HandleTypeDef *huart)
2501:D:/iot/felix2/targets/Cloud_STM32L431_BearPi/Drivers/STM32L4xx_HAL_Driver/Src\stm32l4xx_hal_uart.c **** {
ARM GAS  C:\Users\91458\AppData\Local\Temp\ccrpKNIe.s 			page 110


 3755              		.loc 1 2501 0
 3756              		.cfi_startproc
 3757              		@ args = 0, pretend = 0, frame = 8
 3758              		@ frame_needed = 1, uses_anonymous_args = 0
 3759              		@ link register save eliminated.
 3760 0000 80B4     		push	{r7}
 3761              	.LCFI151:
 3762              		.cfi_def_cfa_offset 4
 3763              		.cfi_offset 7, -4
 3764 0002 83B0     		sub	sp, sp, #12
 3765              	.LCFI152:
 3766              		.cfi_def_cfa_offset 16
 3767 0004 00AF     		add	r7, sp, #0
 3768              	.LCFI153:
 3769              		.cfi_def_cfa_register 7
 3770 0006 7860     		str	r0, [r7, #4]
2502:D:/iot/felix2/targets/Cloud_STM32L431_BearPi/Drivers/STM32L4xx_HAL_Driver/Src\stm32l4xx_hal_uart.c ****   /* Prevent unused argument(s) compilation warning */
2503:D:/iot/felix2/targets/Cloud_STM32L431_BearPi/Drivers/STM32L4xx_HAL_Driver/Src\stm32l4xx_hal_uart.c ****   UNUSED(huart);
2504:D:/iot/felix2/targets/Cloud_STM32L431_BearPi/Drivers/STM32L4xx_HAL_Driver/Src\stm32l4xx_hal_uart.c **** 
2505:D:/iot/felix2/targets/Cloud_STM32L431_BearPi/Drivers/STM32L4xx_HAL_Driver/Src\stm32l4xx_hal_uart.c ****   /* NOTE : This function should not be modified, when the callback is needed,
2506:D:/iot/felix2/targets/Cloud_STM32L431_BearPi/Drivers/STM32L4xx_HAL_Driver/Src\stm32l4xx_hal_uart.c ****             the HAL_UART_AbortCpltCallback can be implemented in the user file.
2507:D:/iot/felix2/targets/Cloud_STM32L431_BearPi/Drivers/STM32L4xx_HAL_Driver/Src\stm32l4xx_hal_uart.c ****    */
2508:D:/iot/felix2/targets/Cloud_STM32L431_BearPi/Drivers/STM32L4xx_HAL_Driver/Src\stm32l4xx_hal_uart.c **** }
 3771              		.loc 1 2508 0
 3772 0008 00BF     		nop
 3773 000a 0C37     		adds	r7, r7, #12
 3774              	.LCFI154:
 3775              		.cfi_def_cfa_offset 4
 3776 000c BD46     		mov	sp, r7
 3777              	.LCFI155:
 3778              		.cfi_def_cfa_register 13
 3779              		@ sp needed
 3780 000e 5DF8047B 		ldr	r7, [sp], #4
 3781              	.LCFI156:
 3782              		.cfi_restore 7
 3783              		.cfi_def_cfa_offset 0
 3784 0012 7047     		bx	lr
 3785              		.cfi_endproc
 3786              	.LFE161:
 3788              		.section	.text.HAL_UART_AbortTransmitCpltCallback,"ax",%progbits
 3789              		.align	1
 3790              		.weak	HAL_UART_AbortTransmitCpltCallback
 3791              		.syntax unified
 3792              		.thumb
 3793              		.thumb_func
 3794              		.fpu fpv4-sp-d16
 3796              	HAL_UART_AbortTransmitCpltCallback:
 3797              	.LFB162:
2509:D:/iot/felix2/targets/Cloud_STM32L431_BearPi/Drivers/STM32L4xx_HAL_Driver/Src\stm32l4xx_hal_uart.c **** 
2510:D:/iot/felix2/targets/Cloud_STM32L431_BearPi/Drivers/STM32L4xx_HAL_Driver/Src\stm32l4xx_hal_uart.c **** /**
2511:D:/iot/felix2/targets/Cloud_STM32L431_BearPi/Drivers/STM32L4xx_HAL_Driver/Src\stm32l4xx_hal_uart.c ****   * @brief  UART Abort Complete callback.
2512:D:/iot/felix2/targets/Cloud_STM32L431_BearPi/Drivers/STM32L4xx_HAL_Driver/Src\stm32l4xx_hal_uart.c ****   * @param  huart UART handle.
2513:D:/iot/felix2/targets/Cloud_STM32L431_BearPi/Drivers/STM32L4xx_HAL_Driver/Src\stm32l4xx_hal_uart.c ****   * @retval None
2514:D:/iot/felix2/targets/Cloud_STM32L431_BearPi/Drivers/STM32L4xx_HAL_Driver/Src\stm32l4xx_hal_uart.c ****   */
2515:D:/iot/felix2/targets/Cloud_STM32L431_BearPi/Drivers/STM32L4xx_HAL_Driver/Src\stm32l4xx_hal_uart.c **** __weak void HAL_UART_AbortTransmitCpltCallback(UART_HandleTypeDef *huart)
2516:D:/iot/felix2/targets/Cloud_STM32L431_BearPi/Drivers/STM32L4xx_HAL_Driver/Src\stm32l4xx_hal_uart.c **** {
 3798              		.loc 1 2516 0
ARM GAS  C:\Users\91458\AppData\Local\Temp\ccrpKNIe.s 			page 111


 3799              		.cfi_startproc
 3800              		@ args = 0, pretend = 0, frame = 8
 3801              		@ frame_needed = 1, uses_anonymous_args = 0
 3802              		@ link register save eliminated.
 3803 0000 80B4     		push	{r7}
 3804              	.LCFI157:
 3805              		.cfi_def_cfa_offset 4
 3806              		.cfi_offset 7, -4
 3807 0002 83B0     		sub	sp, sp, #12
 3808              	.LCFI158:
 3809              		.cfi_def_cfa_offset 16
 3810 0004 00AF     		add	r7, sp, #0
 3811              	.LCFI159:
 3812              		.cfi_def_cfa_register 7
 3813 0006 7860     		str	r0, [r7, #4]
2517:D:/iot/felix2/targets/Cloud_STM32L431_BearPi/Drivers/STM32L4xx_HAL_Driver/Src\stm32l4xx_hal_uart.c ****   /* Prevent unused argument(s) compilation warning */
2518:D:/iot/felix2/targets/Cloud_STM32L431_BearPi/Drivers/STM32L4xx_HAL_Driver/Src\stm32l4xx_hal_uart.c ****   UNUSED(huart);
2519:D:/iot/felix2/targets/Cloud_STM32L431_BearPi/Drivers/STM32L4xx_HAL_Driver/Src\stm32l4xx_hal_uart.c **** 
2520:D:/iot/felix2/targets/Cloud_STM32L431_BearPi/Drivers/STM32L4xx_HAL_Driver/Src\stm32l4xx_hal_uart.c ****   /* NOTE : This function should not be modified, when the callback is needed,
2521:D:/iot/felix2/targets/Cloud_STM32L431_BearPi/Drivers/STM32L4xx_HAL_Driver/Src\stm32l4xx_hal_uart.c ****             the HAL_UART_AbortTransmitCpltCallback can be implemented in the user file.
2522:D:/iot/felix2/targets/Cloud_STM32L431_BearPi/Drivers/STM32L4xx_HAL_Driver/Src\stm32l4xx_hal_uart.c ****    */
2523:D:/iot/felix2/targets/Cloud_STM32L431_BearPi/Drivers/STM32L4xx_HAL_Driver/Src\stm32l4xx_hal_uart.c **** }
 3814              		.loc 1 2523 0
 3815 0008 00BF     		nop
 3816 000a 0C37     		adds	r7, r7, #12
 3817              	.LCFI160:
 3818              		.cfi_def_cfa_offset 4
 3819 000c BD46     		mov	sp, r7
 3820              	.LCFI161:
 3821              		.cfi_def_cfa_register 13
 3822              		@ sp needed
 3823 000e 5DF8047B 		ldr	r7, [sp], #4
 3824              	.LCFI162:
 3825              		.cfi_restore 7
 3826              		.cfi_def_cfa_offset 0
 3827 0012 7047     		bx	lr
 3828              		.cfi_endproc
 3829              	.LFE162:
 3831              		.section	.text.HAL_UART_AbortReceiveCpltCallback,"ax",%progbits
 3832              		.align	1
 3833              		.weak	HAL_UART_AbortReceiveCpltCallback
 3834              		.syntax unified
 3835              		.thumb
 3836              		.thumb_func
 3837              		.fpu fpv4-sp-d16
 3839              	HAL_UART_AbortReceiveCpltCallback:
 3840              	.LFB163:
2524:D:/iot/felix2/targets/Cloud_STM32L431_BearPi/Drivers/STM32L4xx_HAL_Driver/Src\stm32l4xx_hal_uart.c **** 
2525:D:/iot/felix2/targets/Cloud_STM32L431_BearPi/Drivers/STM32L4xx_HAL_Driver/Src\stm32l4xx_hal_uart.c **** /**
2526:D:/iot/felix2/targets/Cloud_STM32L431_BearPi/Drivers/STM32L4xx_HAL_Driver/Src\stm32l4xx_hal_uart.c ****   * @brief  UART Abort Receive Complete callback.
2527:D:/iot/felix2/targets/Cloud_STM32L431_BearPi/Drivers/STM32L4xx_HAL_Driver/Src\stm32l4xx_hal_uart.c ****   * @param  huart UART handle.
2528:D:/iot/felix2/targets/Cloud_STM32L431_BearPi/Drivers/STM32L4xx_HAL_Driver/Src\stm32l4xx_hal_uart.c ****   * @retval None
2529:D:/iot/felix2/targets/Cloud_STM32L431_BearPi/Drivers/STM32L4xx_HAL_Driver/Src\stm32l4xx_hal_uart.c ****   */
2530:D:/iot/felix2/targets/Cloud_STM32L431_BearPi/Drivers/STM32L4xx_HAL_Driver/Src\stm32l4xx_hal_uart.c **** __weak void HAL_UART_AbortReceiveCpltCallback(UART_HandleTypeDef *huart)
2531:D:/iot/felix2/targets/Cloud_STM32L431_BearPi/Drivers/STM32L4xx_HAL_Driver/Src\stm32l4xx_hal_uart.c **** {
 3841              		.loc 1 2531 0
 3842              		.cfi_startproc
ARM GAS  C:\Users\91458\AppData\Local\Temp\ccrpKNIe.s 			page 112


 3843              		@ args = 0, pretend = 0, frame = 8
 3844              		@ frame_needed = 1, uses_anonymous_args = 0
 3845              		@ link register save eliminated.
 3846 0000 80B4     		push	{r7}
 3847              	.LCFI163:
 3848              		.cfi_def_cfa_offset 4
 3849              		.cfi_offset 7, -4
 3850 0002 83B0     		sub	sp, sp, #12
 3851              	.LCFI164:
 3852              		.cfi_def_cfa_offset 16
 3853 0004 00AF     		add	r7, sp, #0
 3854              	.LCFI165:
 3855              		.cfi_def_cfa_register 7
 3856 0006 7860     		str	r0, [r7, #4]
2532:D:/iot/felix2/targets/Cloud_STM32L431_BearPi/Drivers/STM32L4xx_HAL_Driver/Src\stm32l4xx_hal_uart.c ****   /* Prevent unused argument(s) compilation warning */
2533:D:/iot/felix2/targets/Cloud_STM32L431_BearPi/Drivers/STM32L4xx_HAL_Driver/Src\stm32l4xx_hal_uart.c ****   UNUSED(huart);
2534:D:/iot/felix2/targets/Cloud_STM32L431_BearPi/Drivers/STM32L4xx_HAL_Driver/Src\stm32l4xx_hal_uart.c **** 
2535:D:/iot/felix2/targets/Cloud_STM32L431_BearPi/Drivers/STM32L4xx_HAL_Driver/Src\stm32l4xx_hal_uart.c ****   /* NOTE : This function should not be modified, when the callback is needed,
2536:D:/iot/felix2/targets/Cloud_STM32L431_BearPi/Drivers/STM32L4xx_HAL_Driver/Src\stm32l4xx_hal_uart.c ****             the HAL_UART_AbortReceiveCpltCallback can be implemented in the user file.
2537:D:/iot/felix2/targets/Cloud_STM32L431_BearPi/Drivers/STM32L4xx_HAL_Driver/Src\stm32l4xx_hal_uart.c ****    */
2538:D:/iot/felix2/targets/Cloud_STM32L431_BearPi/Drivers/STM32L4xx_HAL_Driver/Src\stm32l4xx_hal_uart.c **** }
 3857              		.loc 1 2538 0
 3858 0008 00BF     		nop
 3859 000a 0C37     		adds	r7, r7, #12
 3860              	.LCFI166:
 3861              		.cfi_def_cfa_offset 4
 3862 000c BD46     		mov	sp, r7
 3863              	.LCFI167:
 3864              		.cfi_def_cfa_register 13
 3865              		@ sp needed
 3866 000e 5DF8047B 		ldr	r7, [sp], #4
 3867              	.LCFI168:
 3868              		.cfi_restore 7
 3869              		.cfi_def_cfa_offset 0
 3870 0012 7047     		bx	lr
 3871              		.cfi_endproc
 3872              	.LFE163:
 3874              		.section	.text.HAL_MultiProcessor_EnableMuteMode,"ax",%progbits
 3875              		.align	1
 3876              		.global	HAL_MultiProcessor_EnableMuteMode
 3877              		.syntax unified
 3878              		.thumb
 3879              		.thumb_func
 3880              		.fpu fpv4-sp-d16
 3882              	HAL_MultiProcessor_EnableMuteMode:
 3883              	.LFB164:
2539:D:/iot/felix2/targets/Cloud_STM32L431_BearPi/Drivers/STM32L4xx_HAL_Driver/Src\stm32l4xx_hal_uart.c **** 
2540:D:/iot/felix2/targets/Cloud_STM32L431_BearPi/Drivers/STM32L4xx_HAL_Driver/Src\stm32l4xx_hal_uart.c **** /**
2541:D:/iot/felix2/targets/Cloud_STM32L431_BearPi/Drivers/STM32L4xx_HAL_Driver/Src\stm32l4xx_hal_uart.c ****   * @}
2542:D:/iot/felix2/targets/Cloud_STM32L431_BearPi/Drivers/STM32L4xx_HAL_Driver/Src\stm32l4xx_hal_uart.c ****   */
2543:D:/iot/felix2/targets/Cloud_STM32L431_BearPi/Drivers/STM32L4xx_HAL_Driver/Src\stm32l4xx_hal_uart.c **** 
2544:D:/iot/felix2/targets/Cloud_STM32L431_BearPi/Drivers/STM32L4xx_HAL_Driver/Src\stm32l4xx_hal_uart.c **** /** @defgroup UART_Exported_Functions_Group3 Peripheral Control functions
2545:D:/iot/felix2/targets/Cloud_STM32L431_BearPi/Drivers/STM32L4xx_HAL_Driver/Src\stm32l4xx_hal_uart.c ****   *  @brief   UART control functions
2546:D:/iot/felix2/targets/Cloud_STM32L431_BearPi/Drivers/STM32L4xx_HAL_Driver/Src\stm32l4xx_hal_uart.c ****   *
2547:D:/iot/felix2/targets/Cloud_STM32L431_BearPi/Drivers/STM32L4xx_HAL_Driver/Src\stm32l4xx_hal_uart.c **** @verbatim
2548:D:/iot/felix2/targets/Cloud_STM32L431_BearPi/Drivers/STM32L4xx_HAL_Driver/Src\stm32l4xx_hal_uart.c ****  ===============================================================================
2549:D:/iot/felix2/targets/Cloud_STM32L431_BearPi/Drivers/STM32L4xx_HAL_Driver/Src\stm32l4xx_hal_uart.c ****                       ##### Peripheral Control functions #####
ARM GAS  C:\Users\91458\AppData\Local\Temp\ccrpKNIe.s 			page 113


2550:D:/iot/felix2/targets/Cloud_STM32L431_BearPi/Drivers/STM32L4xx_HAL_Driver/Src\stm32l4xx_hal_uart.c ****  ===============================================================================
2551:D:/iot/felix2/targets/Cloud_STM32L431_BearPi/Drivers/STM32L4xx_HAL_Driver/Src\stm32l4xx_hal_uart.c ****     [..]
2552:D:/iot/felix2/targets/Cloud_STM32L431_BearPi/Drivers/STM32L4xx_HAL_Driver/Src\stm32l4xx_hal_uart.c ****     This subsection provides a set of functions allowing to control the UART.
2553:D:/iot/felix2/targets/Cloud_STM32L431_BearPi/Drivers/STM32L4xx_HAL_Driver/Src\stm32l4xx_hal_uart.c ****      (+) HAL_MultiProcessor_EnableMuteMode() API enables mute mode
2554:D:/iot/felix2/targets/Cloud_STM32L431_BearPi/Drivers/STM32L4xx_HAL_Driver/Src\stm32l4xx_hal_uart.c ****      (+) HAL_MultiProcessor_DisableMuteMode() API disables mute mode
2555:D:/iot/felix2/targets/Cloud_STM32L431_BearPi/Drivers/STM32L4xx_HAL_Driver/Src\stm32l4xx_hal_uart.c ****      (+) HAL_MultiProcessor_EnterMuteMode() API enters mute mode
2556:D:/iot/felix2/targets/Cloud_STM32L431_BearPi/Drivers/STM32L4xx_HAL_Driver/Src\stm32l4xx_hal_uart.c ****      (+) HAL_MultiProcessor_EnableMuteMode() API enables mute mode
2557:D:/iot/felix2/targets/Cloud_STM32L431_BearPi/Drivers/STM32L4xx_HAL_Driver/Src\stm32l4xx_hal_uart.c ****      (+) UART_SetConfig() API configures the UART peripheral
2558:D:/iot/felix2/targets/Cloud_STM32L431_BearPi/Drivers/STM32L4xx_HAL_Driver/Src\stm32l4xx_hal_uart.c ****      (+) UART_AdvFeatureConfig() API optionally configures the UART advanced features
2559:D:/iot/felix2/targets/Cloud_STM32L431_BearPi/Drivers/STM32L4xx_HAL_Driver/Src\stm32l4xx_hal_uart.c ****      (+) UART_CheckIdleState() API ensures that TEACK and/or REACK are set after initialization
2560:D:/iot/felix2/targets/Cloud_STM32L431_BearPi/Drivers/STM32L4xx_HAL_Driver/Src\stm32l4xx_hal_uart.c ****      (+) UART_Wakeup_AddressConfig() API configures the wake-up from stop mode parameters
2561:D:/iot/felix2/targets/Cloud_STM32L431_BearPi/Drivers/STM32L4xx_HAL_Driver/Src\stm32l4xx_hal_uart.c ****      (+) HAL_HalfDuplex_EnableTransmitter() API disables receiver and enables transmitter
2562:D:/iot/felix2/targets/Cloud_STM32L431_BearPi/Drivers/STM32L4xx_HAL_Driver/Src\stm32l4xx_hal_uart.c ****      (+) HAL_HalfDuplex_EnableReceiver() API disables transmitter and enables receiver
2563:D:/iot/felix2/targets/Cloud_STM32L431_BearPi/Drivers/STM32L4xx_HAL_Driver/Src\stm32l4xx_hal_uart.c ****      (+) HAL_LIN_SendBreak() API transmits the break characters
2564:D:/iot/felix2/targets/Cloud_STM32L431_BearPi/Drivers/STM32L4xx_HAL_Driver/Src\stm32l4xx_hal_uart.c **** @endverbatim
2565:D:/iot/felix2/targets/Cloud_STM32L431_BearPi/Drivers/STM32L4xx_HAL_Driver/Src\stm32l4xx_hal_uart.c ****   * @{
2566:D:/iot/felix2/targets/Cloud_STM32L431_BearPi/Drivers/STM32L4xx_HAL_Driver/Src\stm32l4xx_hal_uart.c ****   */
2567:D:/iot/felix2/targets/Cloud_STM32L431_BearPi/Drivers/STM32L4xx_HAL_Driver/Src\stm32l4xx_hal_uart.c **** 
2568:D:/iot/felix2/targets/Cloud_STM32L431_BearPi/Drivers/STM32L4xx_HAL_Driver/Src\stm32l4xx_hal_uart.c **** /**
2569:D:/iot/felix2/targets/Cloud_STM32L431_BearPi/Drivers/STM32L4xx_HAL_Driver/Src\stm32l4xx_hal_uart.c ****   * @brief Enable UART in mute mode (does not mean UART enters mute mode;
2570:D:/iot/felix2/targets/Cloud_STM32L431_BearPi/Drivers/STM32L4xx_HAL_Driver/Src\stm32l4xx_hal_uart.c ****   * to enter mute mode, HAL_MultiProcessor_EnterMuteMode() API must be called).
2571:D:/iot/felix2/targets/Cloud_STM32L431_BearPi/Drivers/STM32L4xx_HAL_Driver/Src\stm32l4xx_hal_uart.c ****   * @param huart UART handle.
2572:D:/iot/felix2/targets/Cloud_STM32L431_BearPi/Drivers/STM32L4xx_HAL_Driver/Src\stm32l4xx_hal_uart.c ****   * @retval HAL status
2573:D:/iot/felix2/targets/Cloud_STM32L431_BearPi/Drivers/STM32L4xx_HAL_Driver/Src\stm32l4xx_hal_uart.c ****   */
2574:D:/iot/felix2/targets/Cloud_STM32L431_BearPi/Drivers/STM32L4xx_HAL_Driver/Src\stm32l4xx_hal_uart.c **** HAL_StatusTypeDef HAL_MultiProcessor_EnableMuteMode(UART_HandleTypeDef *huart)
2575:D:/iot/felix2/targets/Cloud_STM32L431_BearPi/Drivers/STM32L4xx_HAL_Driver/Src\stm32l4xx_hal_uart.c **** {
 3884              		.loc 1 2575 0
 3885              		.cfi_startproc
 3886              		@ args = 0, pretend = 0, frame = 8
 3887              		@ frame_needed = 1, uses_anonymous_args = 0
 3888 0000 80B5     		push	{r7, lr}
 3889              	.LCFI169:
 3890              		.cfi_def_cfa_offset 8
 3891              		.cfi_offset 7, -8
 3892              		.cfi_offset 14, -4
 3893 0002 82B0     		sub	sp, sp, #8
 3894              	.LCFI170:
 3895              		.cfi_def_cfa_offset 16
 3896 0004 00AF     		add	r7, sp, #0
 3897              	.LCFI171:
 3898              		.cfi_def_cfa_register 7
 3899 0006 7860     		str	r0, [r7, #4]
2576:D:/iot/felix2/targets/Cloud_STM32L431_BearPi/Drivers/STM32L4xx_HAL_Driver/Src\stm32l4xx_hal_uart.c ****   /* Process Locked */
2577:D:/iot/felix2/targets/Cloud_STM32L431_BearPi/Drivers/STM32L4xx_HAL_Driver/Src\stm32l4xx_hal_uart.c ****   __HAL_LOCK(huart);
 3900              		.loc 1 2577 0
 3901 0008 7B68     		ldr	r3, [r7, #4]
 3902 000a 93F87030 		ldrb	r3, [r3, #112]	@ zero_extendqisi2
 3903 000e 012B     		cmp	r3, #1
 3904 0010 01D1     		bne	.L203
 3905              		.loc 1 2577 0 is_stmt 0 discriminator 1
 3906 0012 0223     		movs	r3, #2
 3907 0014 17E0     		b	.L204
 3908              	.L203:
 3909              		.loc 1 2577 0 discriminator 2
 3910 0016 7B68     		ldr	r3, [r7, #4]
 3911 0018 0122     		movs	r2, #1
 3912 001a 83F87020 		strb	r2, [r3, #112]
ARM GAS  C:\Users\91458\AppData\Local\Temp\ccrpKNIe.s 			page 114


2578:D:/iot/felix2/targets/Cloud_STM32L431_BearPi/Drivers/STM32L4xx_HAL_Driver/Src\stm32l4xx_hal_uart.c **** 
2579:D:/iot/felix2/targets/Cloud_STM32L431_BearPi/Drivers/STM32L4xx_HAL_Driver/Src\stm32l4xx_hal_uart.c ****   huart->gState = HAL_UART_STATE_BUSY;
 3913              		.loc 1 2579 0 is_stmt 1 discriminator 2
 3914 001e 7B68     		ldr	r3, [r7, #4]
 3915 0020 2422     		movs	r2, #36
 3916 0022 83F87120 		strb	r2, [r3, #113]
2580:D:/iot/felix2/targets/Cloud_STM32L431_BearPi/Drivers/STM32L4xx_HAL_Driver/Src\stm32l4xx_hal_uart.c **** 
2581:D:/iot/felix2/targets/Cloud_STM32L431_BearPi/Drivers/STM32L4xx_HAL_Driver/Src\stm32l4xx_hal_uart.c ****   /* Enable USART mute mode by setting the MME bit in the CR1 register */
2582:D:/iot/felix2/targets/Cloud_STM32L431_BearPi/Drivers/STM32L4xx_HAL_Driver/Src\stm32l4xx_hal_uart.c ****   SET_BIT(huart->Instance->CR1, USART_CR1_MME);
 3917              		.loc 1 2582 0 discriminator 2
 3918 0026 7B68     		ldr	r3, [r7, #4]
 3919 0028 1B68     		ldr	r3, [r3]
 3920 002a 1A68     		ldr	r2, [r3]
 3921 002c 7B68     		ldr	r3, [r7, #4]
 3922 002e 1B68     		ldr	r3, [r3]
 3923 0030 42F40052 		orr	r2, r2, #8192
 3924 0034 1A60     		str	r2, [r3]
2583:D:/iot/felix2/targets/Cloud_STM32L431_BearPi/Drivers/STM32L4xx_HAL_Driver/Src\stm32l4xx_hal_uart.c **** 
2584:D:/iot/felix2/targets/Cloud_STM32L431_BearPi/Drivers/STM32L4xx_HAL_Driver/Src\stm32l4xx_hal_uart.c ****   huart->gState = HAL_UART_STATE_READY;
 3925              		.loc 1 2584 0 discriminator 2
 3926 0036 7B68     		ldr	r3, [r7, #4]
 3927 0038 2022     		movs	r2, #32
 3928 003a 83F87120 		strb	r2, [r3, #113]
2585:D:/iot/felix2/targets/Cloud_STM32L431_BearPi/Drivers/STM32L4xx_HAL_Driver/Src\stm32l4xx_hal_uart.c **** 
2586:D:/iot/felix2/targets/Cloud_STM32L431_BearPi/Drivers/STM32L4xx_HAL_Driver/Src\stm32l4xx_hal_uart.c ****   return (UART_CheckIdleState(huart));
 3929              		.loc 1 2586 0 discriminator 2
 3930 003e 7868     		ldr	r0, [r7, #4]
 3931 0040 FFF7FEFF 		bl	UART_CheckIdleState
 3932 0044 0346     		mov	r3, r0
 3933              	.L204:
2587:D:/iot/felix2/targets/Cloud_STM32L431_BearPi/Drivers/STM32L4xx_HAL_Driver/Src\stm32l4xx_hal_uart.c **** }
 3934              		.loc 1 2587 0
 3935 0046 1846     		mov	r0, r3
 3936 0048 0837     		adds	r7, r7, #8
 3937              	.LCFI172:
 3938              		.cfi_def_cfa_offset 8
 3939 004a BD46     		mov	sp, r7
 3940              	.LCFI173:
 3941              		.cfi_def_cfa_register 13
 3942              		@ sp needed
 3943 004c 80BD     		pop	{r7, pc}
 3944              		.cfi_endproc
 3945              	.LFE164:
 3947              		.section	.text.HAL_MultiProcessor_DisableMuteMode,"ax",%progbits
 3948              		.align	1
 3949              		.global	HAL_MultiProcessor_DisableMuteMode
 3950              		.syntax unified
 3951              		.thumb
 3952              		.thumb_func
 3953              		.fpu fpv4-sp-d16
 3955              	HAL_MultiProcessor_DisableMuteMode:
 3956              	.LFB165:
2588:D:/iot/felix2/targets/Cloud_STM32L431_BearPi/Drivers/STM32L4xx_HAL_Driver/Src\stm32l4xx_hal_uart.c **** 
2589:D:/iot/felix2/targets/Cloud_STM32L431_BearPi/Drivers/STM32L4xx_HAL_Driver/Src\stm32l4xx_hal_uart.c **** /**
2590:D:/iot/felix2/targets/Cloud_STM32L431_BearPi/Drivers/STM32L4xx_HAL_Driver/Src\stm32l4xx_hal_uart.c ****   * @brief Disable UART mute mode (does not mean the UART actually exits mute mode
2591:D:/iot/felix2/targets/Cloud_STM32L431_BearPi/Drivers/STM32L4xx_HAL_Driver/Src\stm32l4xx_hal_uart.c ****   * as it may not have been in mute mode at this very moment).
2592:D:/iot/felix2/targets/Cloud_STM32L431_BearPi/Drivers/STM32L4xx_HAL_Driver/Src\stm32l4xx_hal_uart.c ****   * @param huart UART handle.
ARM GAS  C:\Users\91458\AppData\Local\Temp\ccrpKNIe.s 			page 115


2593:D:/iot/felix2/targets/Cloud_STM32L431_BearPi/Drivers/STM32L4xx_HAL_Driver/Src\stm32l4xx_hal_uart.c ****   * @retval HAL status
2594:D:/iot/felix2/targets/Cloud_STM32L431_BearPi/Drivers/STM32L4xx_HAL_Driver/Src\stm32l4xx_hal_uart.c ****   */
2595:D:/iot/felix2/targets/Cloud_STM32L431_BearPi/Drivers/STM32L4xx_HAL_Driver/Src\stm32l4xx_hal_uart.c **** HAL_StatusTypeDef HAL_MultiProcessor_DisableMuteMode(UART_HandleTypeDef *huart)
2596:D:/iot/felix2/targets/Cloud_STM32L431_BearPi/Drivers/STM32L4xx_HAL_Driver/Src\stm32l4xx_hal_uart.c **** {
 3957              		.loc 1 2596 0
 3958              		.cfi_startproc
 3959              		@ args = 0, pretend = 0, frame = 8
 3960              		@ frame_needed = 1, uses_anonymous_args = 0
 3961 0000 80B5     		push	{r7, lr}
 3962              	.LCFI174:
 3963              		.cfi_def_cfa_offset 8
 3964              		.cfi_offset 7, -8
 3965              		.cfi_offset 14, -4
 3966 0002 82B0     		sub	sp, sp, #8
 3967              	.LCFI175:
 3968              		.cfi_def_cfa_offset 16
 3969 0004 00AF     		add	r7, sp, #0
 3970              	.LCFI176:
 3971              		.cfi_def_cfa_register 7
 3972 0006 7860     		str	r0, [r7, #4]
2597:D:/iot/felix2/targets/Cloud_STM32L431_BearPi/Drivers/STM32L4xx_HAL_Driver/Src\stm32l4xx_hal_uart.c ****   /* Process Locked */
2598:D:/iot/felix2/targets/Cloud_STM32L431_BearPi/Drivers/STM32L4xx_HAL_Driver/Src\stm32l4xx_hal_uart.c ****   __HAL_LOCK(huart);
 3973              		.loc 1 2598 0
 3974 0008 7B68     		ldr	r3, [r7, #4]
 3975 000a 93F87030 		ldrb	r3, [r3, #112]	@ zero_extendqisi2
 3976 000e 012B     		cmp	r3, #1
 3977 0010 01D1     		bne	.L206
 3978              		.loc 1 2598 0 is_stmt 0 discriminator 1
 3979 0012 0223     		movs	r3, #2
 3980 0014 17E0     		b	.L207
 3981              	.L206:
 3982              		.loc 1 2598 0 discriminator 2
 3983 0016 7B68     		ldr	r3, [r7, #4]
 3984 0018 0122     		movs	r2, #1
 3985 001a 83F87020 		strb	r2, [r3, #112]
2599:D:/iot/felix2/targets/Cloud_STM32L431_BearPi/Drivers/STM32L4xx_HAL_Driver/Src\stm32l4xx_hal_uart.c **** 
2600:D:/iot/felix2/targets/Cloud_STM32L431_BearPi/Drivers/STM32L4xx_HAL_Driver/Src\stm32l4xx_hal_uart.c ****   huart->gState = HAL_UART_STATE_BUSY;
 3986              		.loc 1 2600 0 is_stmt 1 discriminator 2
 3987 001e 7B68     		ldr	r3, [r7, #4]
 3988 0020 2422     		movs	r2, #36
 3989 0022 83F87120 		strb	r2, [r3, #113]
2601:D:/iot/felix2/targets/Cloud_STM32L431_BearPi/Drivers/STM32L4xx_HAL_Driver/Src\stm32l4xx_hal_uart.c **** 
2602:D:/iot/felix2/targets/Cloud_STM32L431_BearPi/Drivers/STM32L4xx_HAL_Driver/Src\stm32l4xx_hal_uart.c ****   /* Disable USART mute mode by clearing the MME bit in the CR1 register */
2603:D:/iot/felix2/targets/Cloud_STM32L431_BearPi/Drivers/STM32L4xx_HAL_Driver/Src\stm32l4xx_hal_uart.c ****   CLEAR_BIT(huart->Instance->CR1, USART_CR1_MME);
 3990              		.loc 1 2603 0 discriminator 2
 3991 0026 7B68     		ldr	r3, [r7, #4]
 3992 0028 1B68     		ldr	r3, [r3]
 3993 002a 1A68     		ldr	r2, [r3]
 3994 002c 7B68     		ldr	r3, [r7, #4]
 3995 002e 1B68     		ldr	r3, [r3]
 3996 0030 22F40052 		bic	r2, r2, #8192
 3997 0034 1A60     		str	r2, [r3]
2604:D:/iot/felix2/targets/Cloud_STM32L431_BearPi/Drivers/STM32L4xx_HAL_Driver/Src\stm32l4xx_hal_uart.c **** 
2605:D:/iot/felix2/targets/Cloud_STM32L431_BearPi/Drivers/STM32L4xx_HAL_Driver/Src\stm32l4xx_hal_uart.c ****   huart->gState = HAL_UART_STATE_READY;
 3998              		.loc 1 2605 0 discriminator 2
 3999 0036 7B68     		ldr	r3, [r7, #4]
 4000 0038 2022     		movs	r2, #32
ARM GAS  C:\Users\91458\AppData\Local\Temp\ccrpKNIe.s 			page 116


 4001 003a 83F87120 		strb	r2, [r3, #113]
2606:D:/iot/felix2/targets/Cloud_STM32L431_BearPi/Drivers/STM32L4xx_HAL_Driver/Src\stm32l4xx_hal_uart.c **** 
2607:D:/iot/felix2/targets/Cloud_STM32L431_BearPi/Drivers/STM32L4xx_HAL_Driver/Src\stm32l4xx_hal_uart.c ****   return (UART_CheckIdleState(huart));
 4002              		.loc 1 2607 0 discriminator 2
 4003 003e 7868     		ldr	r0, [r7, #4]
 4004 0040 FFF7FEFF 		bl	UART_CheckIdleState
 4005 0044 0346     		mov	r3, r0
 4006              	.L207:
2608:D:/iot/felix2/targets/Cloud_STM32L431_BearPi/Drivers/STM32L4xx_HAL_Driver/Src\stm32l4xx_hal_uart.c **** }
 4007              		.loc 1 2608 0
 4008 0046 1846     		mov	r0, r3
 4009 0048 0837     		adds	r7, r7, #8
 4010              	.LCFI177:
 4011              		.cfi_def_cfa_offset 8
 4012 004a BD46     		mov	sp, r7
 4013              	.LCFI178:
 4014              		.cfi_def_cfa_register 13
 4015              		@ sp needed
 4016 004c 80BD     		pop	{r7, pc}
 4017              		.cfi_endproc
 4018              	.LFE165:
 4020              		.section	.text.HAL_MultiProcessor_EnterMuteMode,"ax",%progbits
 4021              		.align	1
 4022              		.global	HAL_MultiProcessor_EnterMuteMode
 4023              		.syntax unified
 4024              		.thumb
 4025              		.thumb_func
 4026              		.fpu fpv4-sp-d16
 4028              	HAL_MultiProcessor_EnterMuteMode:
 4029              	.LFB166:
2609:D:/iot/felix2/targets/Cloud_STM32L431_BearPi/Drivers/STM32L4xx_HAL_Driver/Src\stm32l4xx_hal_uart.c **** 
2610:D:/iot/felix2/targets/Cloud_STM32L431_BearPi/Drivers/STM32L4xx_HAL_Driver/Src\stm32l4xx_hal_uart.c **** /**
2611:D:/iot/felix2/targets/Cloud_STM32L431_BearPi/Drivers/STM32L4xx_HAL_Driver/Src\stm32l4xx_hal_uart.c ****   * @brief Enter UART mute mode (means UART actually enters mute mode).
2612:D:/iot/felix2/targets/Cloud_STM32L431_BearPi/Drivers/STM32L4xx_HAL_Driver/Src\stm32l4xx_hal_uart.c ****   * @note  To exit from mute mode, HAL_MultiProcessor_DisableMuteMode() API must be called.
2613:D:/iot/felix2/targets/Cloud_STM32L431_BearPi/Drivers/STM32L4xx_HAL_Driver/Src\stm32l4xx_hal_uart.c ****   * @param huart UART handle.
2614:D:/iot/felix2/targets/Cloud_STM32L431_BearPi/Drivers/STM32L4xx_HAL_Driver/Src\stm32l4xx_hal_uart.c ****   * @retval None
2615:D:/iot/felix2/targets/Cloud_STM32L431_BearPi/Drivers/STM32L4xx_HAL_Driver/Src\stm32l4xx_hal_uart.c ****   */
2616:D:/iot/felix2/targets/Cloud_STM32L431_BearPi/Drivers/STM32L4xx_HAL_Driver/Src\stm32l4xx_hal_uart.c **** void HAL_MultiProcessor_EnterMuteMode(UART_HandleTypeDef *huart)
2617:D:/iot/felix2/targets/Cloud_STM32L431_BearPi/Drivers/STM32L4xx_HAL_Driver/Src\stm32l4xx_hal_uart.c **** {
 4030              		.loc 1 2617 0
 4031              		.cfi_startproc
 4032              		@ args = 0, pretend = 0, frame = 8
 4033              		@ frame_needed = 1, uses_anonymous_args = 0
 4034              		@ link register save eliminated.
 4035 0000 80B4     		push	{r7}
 4036              	.LCFI179:
 4037              		.cfi_def_cfa_offset 4
 4038              		.cfi_offset 7, -4
 4039 0002 83B0     		sub	sp, sp, #12
 4040              	.LCFI180:
 4041              		.cfi_def_cfa_offset 16
 4042 0004 00AF     		add	r7, sp, #0
 4043              	.LCFI181:
 4044              		.cfi_def_cfa_register 7
 4045 0006 7860     		str	r0, [r7, #4]
2618:D:/iot/felix2/targets/Cloud_STM32L431_BearPi/Drivers/STM32L4xx_HAL_Driver/Src\stm32l4xx_hal_uart.c ****   __HAL_UART_SEND_REQ(huart, UART_MUTE_MODE_REQUEST);
 4046              		.loc 1 2618 0
ARM GAS  C:\Users\91458\AppData\Local\Temp\ccrpKNIe.s 			page 117


 4047 0008 7B68     		ldr	r3, [r7, #4]
 4048 000a 1B68     		ldr	r3, [r3]
 4049 000c 1B8B     		ldrh	r3, [r3, #24]	@ movhi
 4050 000e 9AB2     		uxth	r2, r3
 4051 0010 7B68     		ldr	r3, [r7, #4]
 4052 0012 1B68     		ldr	r3, [r3]
 4053 0014 42F00402 		orr	r2, r2, #4
 4054 0018 92B2     		uxth	r2, r2
 4055 001a 1A83     		strh	r2, [r3, #24]	@ movhi
2619:D:/iot/felix2/targets/Cloud_STM32L431_BearPi/Drivers/STM32L4xx_HAL_Driver/Src\stm32l4xx_hal_uart.c **** }
 4056              		.loc 1 2619 0
 4057 001c 00BF     		nop
 4058 001e 0C37     		adds	r7, r7, #12
 4059              	.LCFI182:
 4060              		.cfi_def_cfa_offset 4
 4061 0020 BD46     		mov	sp, r7
 4062              	.LCFI183:
 4063              		.cfi_def_cfa_register 13
 4064              		@ sp needed
 4065 0022 5DF8047B 		ldr	r7, [sp], #4
 4066              	.LCFI184:
 4067              		.cfi_restore 7
 4068              		.cfi_def_cfa_offset 0
 4069 0026 7047     		bx	lr
 4070              		.cfi_endproc
 4071              	.LFE166:
 4073              		.section	.text.HAL_HalfDuplex_EnableTransmitter,"ax",%progbits
 4074              		.align	1
 4075              		.global	HAL_HalfDuplex_EnableTransmitter
 4076              		.syntax unified
 4077              		.thumb
 4078              		.thumb_func
 4079              		.fpu fpv4-sp-d16
 4081              	HAL_HalfDuplex_EnableTransmitter:
 4082              	.LFB167:
2620:D:/iot/felix2/targets/Cloud_STM32L431_BearPi/Drivers/STM32L4xx_HAL_Driver/Src\stm32l4xx_hal_uart.c **** 
2621:D:/iot/felix2/targets/Cloud_STM32L431_BearPi/Drivers/STM32L4xx_HAL_Driver/Src\stm32l4xx_hal_uart.c **** /**
2622:D:/iot/felix2/targets/Cloud_STM32L431_BearPi/Drivers/STM32L4xx_HAL_Driver/Src\stm32l4xx_hal_uart.c ****   * @brief  Enable the UART transmitter and disable the UART receiver.
2623:D:/iot/felix2/targets/Cloud_STM32L431_BearPi/Drivers/STM32L4xx_HAL_Driver/Src\stm32l4xx_hal_uart.c ****   * @param huart UART handle.
2624:D:/iot/felix2/targets/Cloud_STM32L431_BearPi/Drivers/STM32L4xx_HAL_Driver/Src\stm32l4xx_hal_uart.c ****   * @retval HAL status
2625:D:/iot/felix2/targets/Cloud_STM32L431_BearPi/Drivers/STM32L4xx_HAL_Driver/Src\stm32l4xx_hal_uart.c ****   */
2626:D:/iot/felix2/targets/Cloud_STM32L431_BearPi/Drivers/STM32L4xx_HAL_Driver/Src\stm32l4xx_hal_uart.c **** HAL_StatusTypeDef HAL_HalfDuplex_EnableTransmitter(UART_HandleTypeDef *huart)
2627:D:/iot/felix2/targets/Cloud_STM32L431_BearPi/Drivers/STM32L4xx_HAL_Driver/Src\stm32l4xx_hal_uart.c **** {
 4083              		.loc 1 2627 0
 4084              		.cfi_startproc
 4085              		@ args = 0, pretend = 0, frame = 8
 4086              		@ frame_needed = 1, uses_anonymous_args = 0
 4087              		@ link register save eliminated.
 4088 0000 80B4     		push	{r7}
 4089              	.LCFI185:
 4090              		.cfi_def_cfa_offset 4
 4091              		.cfi_offset 7, -4
 4092 0002 83B0     		sub	sp, sp, #12
 4093              	.LCFI186:
 4094              		.cfi_def_cfa_offset 16
 4095 0004 00AF     		add	r7, sp, #0
 4096              	.LCFI187:
ARM GAS  C:\Users\91458\AppData\Local\Temp\ccrpKNIe.s 			page 118


 4097              		.cfi_def_cfa_register 7
 4098 0006 7860     		str	r0, [r7, #4]
2628:D:/iot/felix2/targets/Cloud_STM32L431_BearPi/Drivers/STM32L4xx_HAL_Driver/Src\stm32l4xx_hal_uart.c ****   /* Process Locked */
2629:D:/iot/felix2/targets/Cloud_STM32L431_BearPi/Drivers/STM32L4xx_HAL_Driver/Src\stm32l4xx_hal_uart.c ****   __HAL_LOCK(huart);
 4099              		.loc 1 2629 0
 4100 0008 7B68     		ldr	r3, [r7, #4]
 4101 000a 93F87030 		ldrb	r3, [r3, #112]	@ zero_extendqisi2
 4102 000e 012B     		cmp	r3, #1
 4103 0010 01D1     		bne	.L210
 4104              		.loc 1 2629 0 is_stmt 0 discriminator 1
 4105 0012 0223     		movs	r3, #2
 4106 0014 20E0     		b	.L211
 4107              	.L210:
 4108              		.loc 1 2629 0 discriminator 2
 4109 0016 7B68     		ldr	r3, [r7, #4]
 4110 0018 0122     		movs	r2, #1
 4111 001a 83F87020 		strb	r2, [r3, #112]
2630:D:/iot/felix2/targets/Cloud_STM32L431_BearPi/Drivers/STM32L4xx_HAL_Driver/Src\stm32l4xx_hal_uart.c ****   huart->gState = HAL_UART_STATE_BUSY;
 4112              		.loc 1 2630 0 is_stmt 1 discriminator 2
 4113 001e 7B68     		ldr	r3, [r7, #4]
 4114 0020 2422     		movs	r2, #36
 4115 0022 83F87120 		strb	r2, [r3, #113]
2631:D:/iot/felix2/targets/Cloud_STM32L431_BearPi/Drivers/STM32L4xx_HAL_Driver/Src\stm32l4xx_hal_uart.c **** 
2632:D:/iot/felix2/targets/Cloud_STM32L431_BearPi/Drivers/STM32L4xx_HAL_Driver/Src\stm32l4xx_hal_uart.c ****   /* Clear TE and RE bits */
2633:D:/iot/felix2/targets/Cloud_STM32L431_BearPi/Drivers/STM32L4xx_HAL_Driver/Src\stm32l4xx_hal_uart.c ****   CLEAR_BIT(huart->Instance->CR1, (USART_CR1_TE | USART_CR1_RE));
 4116              		.loc 1 2633 0 discriminator 2
 4117 0026 7B68     		ldr	r3, [r7, #4]
 4118 0028 1B68     		ldr	r3, [r3]
 4119 002a 1A68     		ldr	r2, [r3]
 4120 002c 7B68     		ldr	r3, [r7, #4]
 4121 002e 1B68     		ldr	r3, [r3]
 4122 0030 22F00C02 		bic	r2, r2, #12
 4123 0034 1A60     		str	r2, [r3]
2634:D:/iot/felix2/targets/Cloud_STM32L431_BearPi/Drivers/STM32L4xx_HAL_Driver/Src\stm32l4xx_hal_uart.c **** 
2635:D:/iot/felix2/targets/Cloud_STM32L431_BearPi/Drivers/STM32L4xx_HAL_Driver/Src\stm32l4xx_hal_uart.c ****   /* Enable the USART's transmit interface by setting the TE bit in the USART CR1 register */
2636:D:/iot/felix2/targets/Cloud_STM32L431_BearPi/Drivers/STM32L4xx_HAL_Driver/Src\stm32l4xx_hal_uart.c ****   SET_BIT(huart->Instance->CR1, USART_CR1_TE);
 4124              		.loc 1 2636 0 discriminator 2
 4125 0036 7B68     		ldr	r3, [r7, #4]
 4126 0038 1B68     		ldr	r3, [r3]
 4127 003a 1A68     		ldr	r2, [r3]
 4128 003c 7B68     		ldr	r3, [r7, #4]
 4129 003e 1B68     		ldr	r3, [r3]
 4130 0040 42F00802 		orr	r2, r2, #8
 4131 0044 1A60     		str	r2, [r3]
2637:D:/iot/felix2/targets/Cloud_STM32L431_BearPi/Drivers/STM32L4xx_HAL_Driver/Src\stm32l4xx_hal_uart.c **** 
2638:D:/iot/felix2/targets/Cloud_STM32L431_BearPi/Drivers/STM32L4xx_HAL_Driver/Src\stm32l4xx_hal_uart.c ****   huart->gState = HAL_UART_STATE_READY;
 4132              		.loc 1 2638 0 discriminator 2
 4133 0046 7B68     		ldr	r3, [r7, #4]
 4134 0048 2022     		movs	r2, #32
 4135 004a 83F87120 		strb	r2, [r3, #113]
2639:D:/iot/felix2/targets/Cloud_STM32L431_BearPi/Drivers/STM32L4xx_HAL_Driver/Src\stm32l4xx_hal_uart.c **** 
2640:D:/iot/felix2/targets/Cloud_STM32L431_BearPi/Drivers/STM32L4xx_HAL_Driver/Src\stm32l4xx_hal_uart.c ****   /* Process Unlocked */
2641:D:/iot/felix2/targets/Cloud_STM32L431_BearPi/Drivers/STM32L4xx_HAL_Driver/Src\stm32l4xx_hal_uart.c ****   __HAL_UNLOCK(huart);
 4136              		.loc 1 2641 0 discriminator 2
 4137 004e 7B68     		ldr	r3, [r7, #4]
 4138 0050 0022     		movs	r2, #0
 4139 0052 83F87020 		strb	r2, [r3, #112]
ARM GAS  C:\Users\91458\AppData\Local\Temp\ccrpKNIe.s 			page 119


2642:D:/iot/felix2/targets/Cloud_STM32L431_BearPi/Drivers/STM32L4xx_HAL_Driver/Src\stm32l4xx_hal_uart.c **** 
2643:D:/iot/felix2/targets/Cloud_STM32L431_BearPi/Drivers/STM32L4xx_HAL_Driver/Src\stm32l4xx_hal_uart.c ****   return HAL_OK;
 4140              		.loc 1 2643 0 discriminator 2
 4141 0056 0023     		movs	r3, #0
 4142              	.L211:
2644:D:/iot/felix2/targets/Cloud_STM32L431_BearPi/Drivers/STM32L4xx_HAL_Driver/Src\stm32l4xx_hal_uart.c **** }
 4143              		.loc 1 2644 0
 4144 0058 1846     		mov	r0, r3
 4145 005a 0C37     		adds	r7, r7, #12
 4146              	.LCFI188:
 4147              		.cfi_def_cfa_offset 4
 4148 005c BD46     		mov	sp, r7
 4149              	.LCFI189:
 4150              		.cfi_def_cfa_register 13
 4151              		@ sp needed
 4152 005e 5DF8047B 		ldr	r7, [sp], #4
 4153              	.LCFI190:
 4154              		.cfi_restore 7
 4155              		.cfi_def_cfa_offset 0
 4156 0062 7047     		bx	lr
 4157              		.cfi_endproc
 4158              	.LFE167:
 4160              		.section	.text.HAL_HalfDuplex_EnableReceiver,"ax",%progbits
 4161              		.align	1
 4162              		.global	HAL_HalfDuplex_EnableReceiver
 4163              		.syntax unified
 4164              		.thumb
 4165              		.thumb_func
 4166              		.fpu fpv4-sp-d16
 4168              	HAL_HalfDuplex_EnableReceiver:
 4169              	.LFB168:
2645:D:/iot/felix2/targets/Cloud_STM32L431_BearPi/Drivers/STM32L4xx_HAL_Driver/Src\stm32l4xx_hal_uart.c **** 
2646:D:/iot/felix2/targets/Cloud_STM32L431_BearPi/Drivers/STM32L4xx_HAL_Driver/Src\stm32l4xx_hal_uart.c **** /**
2647:D:/iot/felix2/targets/Cloud_STM32L431_BearPi/Drivers/STM32L4xx_HAL_Driver/Src\stm32l4xx_hal_uart.c ****   * @brief  Enable the UART receiver and disable the UART transmitter.
2648:D:/iot/felix2/targets/Cloud_STM32L431_BearPi/Drivers/STM32L4xx_HAL_Driver/Src\stm32l4xx_hal_uart.c ****   * @param huart UART handle.
2649:D:/iot/felix2/targets/Cloud_STM32L431_BearPi/Drivers/STM32L4xx_HAL_Driver/Src\stm32l4xx_hal_uart.c ****   * @retval HAL status.
2650:D:/iot/felix2/targets/Cloud_STM32L431_BearPi/Drivers/STM32L4xx_HAL_Driver/Src\stm32l4xx_hal_uart.c ****   */
2651:D:/iot/felix2/targets/Cloud_STM32L431_BearPi/Drivers/STM32L4xx_HAL_Driver/Src\stm32l4xx_hal_uart.c **** HAL_StatusTypeDef HAL_HalfDuplex_EnableReceiver(UART_HandleTypeDef *huart)
2652:D:/iot/felix2/targets/Cloud_STM32L431_BearPi/Drivers/STM32L4xx_HAL_Driver/Src\stm32l4xx_hal_uart.c **** {
 4170              		.loc 1 2652 0
 4171              		.cfi_startproc
 4172              		@ args = 0, pretend = 0, frame = 8
 4173              		@ frame_needed = 1, uses_anonymous_args = 0
 4174              		@ link register save eliminated.
 4175 0000 80B4     		push	{r7}
 4176              	.LCFI191:
 4177              		.cfi_def_cfa_offset 4
 4178              		.cfi_offset 7, -4
 4179 0002 83B0     		sub	sp, sp, #12
 4180              	.LCFI192:
 4181              		.cfi_def_cfa_offset 16
 4182 0004 00AF     		add	r7, sp, #0
 4183              	.LCFI193:
 4184              		.cfi_def_cfa_register 7
 4185 0006 7860     		str	r0, [r7, #4]
2653:D:/iot/felix2/targets/Cloud_STM32L431_BearPi/Drivers/STM32L4xx_HAL_Driver/Src\stm32l4xx_hal_uart.c ****   /* Process Locked */
2654:D:/iot/felix2/targets/Cloud_STM32L431_BearPi/Drivers/STM32L4xx_HAL_Driver/Src\stm32l4xx_hal_uart.c ****   __HAL_LOCK(huart);
ARM GAS  C:\Users\91458\AppData\Local\Temp\ccrpKNIe.s 			page 120


 4186              		.loc 1 2654 0
 4187 0008 7B68     		ldr	r3, [r7, #4]
 4188 000a 93F87030 		ldrb	r3, [r3, #112]	@ zero_extendqisi2
 4189 000e 012B     		cmp	r3, #1
 4190 0010 01D1     		bne	.L213
 4191              		.loc 1 2654 0 is_stmt 0 discriminator 1
 4192 0012 0223     		movs	r3, #2
 4193 0014 20E0     		b	.L214
 4194              	.L213:
 4195              		.loc 1 2654 0 discriminator 2
 4196 0016 7B68     		ldr	r3, [r7, #4]
 4197 0018 0122     		movs	r2, #1
 4198 001a 83F87020 		strb	r2, [r3, #112]
2655:D:/iot/felix2/targets/Cloud_STM32L431_BearPi/Drivers/STM32L4xx_HAL_Driver/Src\stm32l4xx_hal_uart.c ****   huart->gState = HAL_UART_STATE_BUSY;
 4199              		.loc 1 2655 0 is_stmt 1 discriminator 2
 4200 001e 7B68     		ldr	r3, [r7, #4]
 4201 0020 2422     		movs	r2, #36
 4202 0022 83F87120 		strb	r2, [r3, #113]
2656:D:/iot/felix2/targets/Cloud_STM32L431_BearPi/Drivers/STM32L4xx_HAL_Driver/Src\stm32l4xx_hal_uart.c **** 
2657:D:/iot/felix2/targets/Cloud_STM32L431_BearPi/Drivers/STM32L4xx_HAL_Driver/Src\stm32l4xx_hal_uart.c ****   /* Clear TE and RE bits */
2658:D:/iot/felix2/targets/Cloud_STM32L431_BearPi/Drivers/STM32L4xx_HAL_Driver/Src\stm32l4xx_hal_uart.c ****   CLEAR_BIT(huart->Instance->CR1, (USART_CR1_TE | USART_CR1_RE));
 4203              		.loc 1 2658 0 discriminator 2
 4204 0026 7B68     		ldr	r3, [r7, #4]
 4205 0028 1B68     		ldr	r3, [r3]
 4206 002a 1A68     		ldr	r2, [r3]
 4207 002c 7B68     		ldr	r3, [r7, #4]
 4208 002e 1B68     		ldr	r3, [r3]
 4209 0030 22F00C02 		bic	r2, r2, #12
 4210 0034 1A60     		str	r2, [r3]
2659:D:/iot/felix2/targets/Cloud_STM32L431_BearPi/Drivers/STM32L4xx_HAL_Driver/Src\stm32l4xx_hal_uart.c **** 
2660:D:/iot/felix2/targets/Cloud_STM32L431_BearPi/Drivers/STM32L4xx_HAL_Driver/Src\stm32l4xx_hal_uart.c ****   /* Enable the USART's receive interface by setting the RE bit in the USART CR1 register */
2661:D:/iot/felix2/targets/Cloud_STM32L431_BearPi/Drivers/STM32L4xx_HAL_Driver/Src\stm32l4xx_hal_uart.c ****   SET_BIT(huart->Instance->CR1, USART_CR1_RE);
 4211              		.loc 1 2661 0 discriminator 2
 4212 0036 7B68     		ldr	r3, [r7, #4]
 4213 0038 1B68     		ldr	r3, [r3]
 4214 003a 1A68     		ldr	r2, [r3]
 4215 003c 7B68     		ldr	r3, [r7, #4]
 4216 003e 1B68     		ldr	r3, [r3]
 4217 0040 42F00402 		orr	r2, r2, #4
 4218 0044 1A60     		str	r2, [r3]
2662:D:/iot/felix2/targets/Cloud_STM32L431_BearPi/Drivers/STM32L4xx_HAL_Driver/Src\stm32l4xx_hal_uart.c **** 
2663:D:/iot/felix2/targets/Cloud_STM32L431_BearPi/Drivers/STM32L4xx_HAL_Driver/Src\stm32l4xx_hal_uart.c ****   huart->gState = HAL_UART_STATE_READY;
 4219              		.loc 1 2663 0 discriminator 2
 4220 0046 7B68     		ldr	r3, [r7, #4]
 4221 0048 2022     		movs	r2, #32
 4222 004a 83F87120 		strb	r2, [r3, #113]
2664:D:/iot/felix2/targets/Cloud_STM32L431_BearPi/Drivers/STM32L4xx_HAL_Driver/Src\stm32l4xx_hal_uart.c **** 
2665:D:/iot/felix2/targets/Cloud_STM32L431_BearPi/Drivers/STM32L4xx_HAL_Driver/Src\stm32l4xx_hal_uart.c ****   /* Process Unlocked */
2666:D:/iot/felix2/targets/Cloud_STM32L431_BearPi/Drivers/STM32L4xx_HAL_Driver/Src\stm32l4xx_hal_uart.c ****   __HAL_UNLOCK(huart);
 4223              		.loc 1 2666 0 discriminator 2
 4224 004e 7B68     		ldr	r3, [r7, #4]
 4225 0050 0022     		movs	r2, #0
 4226 0052 83F87020 		strb	r2, [r3, #112]
2667:D:/iot/felix2/targets/Cloud_STM32L431_BearPi/Drivers/STM32L4xx_HAL_Driver/Src\stm32l4xx_hal_uart.c **** 
2668:D:/iot/felix2/targets/Cloud_STM32L431_BearPi/Drivers/STM32L4xx_HAL_Driver/Src\stm32l4xx_hal_uart.c ****   return HAL_OK;
 4227              		.loc 1 2668 0 discriminator 2
 4228 0056 0023     		movs	r3, #0
ARM GAS  C:\Users\91458\AppData\Local\Temp\ccrpKNIe.s 			page 121


 4229              	.L214:
2669:D:/iot/felix2/targets/Cloud_STM32L431_BearPi/Drivers/STM32L4xx_HAL_Driver/Src\stm32l4xx_hal_uart.c **** }
 4230              		.loc 1 2669 0
 4231 0058 1846     		mov	r0, r3
 4232 005a 0C37     		adds	r7, r7, #12
 4233              	.LCFI194:
 4234              		.cfi_def_cfa_offset 4
 4235 005c BD46     		mov	sp, r7
 4236              	.LCFI195:
 4237              		.cfi_def_cfa_register 13
 4238              		@ sp needed
 4239 005e 5DF8047B 		ldr	r7, [sp], #4
 4240              	.LCFI196:
 4241              		.cfi_restore 7
 4242              		.cfi_def_cfa_offset 0
 4243 0062 7047     		bx	lr
 4244              		.cfi_endproc
 4245              	.LFE168:
 4247              		.section	.text.HAL_LIN_SendBreak,"ax",%progbits
 4248              		.align	1
 4249              		.global	HAL_LIN_SendBreak
 4250              		.syntax unified
 4251              		.thumb
 4252              		.thumb_func
 4253              		.fpu fpv4-sp-d16
 4255              	HAL_LIN_SendBreak:
 4256              	.LFB169:
2670:D:/iot/felix2/targets/Cloud_STM32L431_BearPi/Drivers/STM32L4xx_HAL_Driver/Src\stm32l4xx_hal_uart.c **** 
2671:D:/iot/felix2/targets/Cloud_STM32L431_BearPi/Drivers/STM32L4xx_HAL_Driver/Src\stm32l4xx_hal_uart.c **** 
2672:D:/iot/felix2/targets/Cloud_STM32L431_BearPi/Drivers/STM32L4xx_HAL_Driver/Src\stm32l4xx_hal_uart.c **** /**
2673:D:/iot/felix2/targets/Cloud_STM32L431_BearPi/Drivers/STM32L4xx_HAL_Driver/Src\stm32l4xx_hal_uart.c ****   * @brief  Transmit break characters.
2674:D:/iot/felix2/targets/Cloud_STM32L431_BearPi/Drivers/STM32L4xx_HAL_Driver/Src\stm32l4xx_hal_uart.c ****   * @param huart UART handle.
2675:D:/iot/felix2/targets/Cloud_STM32L431_BearPi/Drivers/STM32L4xx_HAL_Driver/Src\stm32l4xx_hal_uart.c ****   * @retval HAL status
2676:D:/iot/felix2/targets/Cloud_STM32L431_BearPi/Drivers/STM32L4xx_HAL_Driver/Src\stm32l4xx_hal_uart.c ****   */
2677:D:/iot/felix2/targets/Cloud_STM32L431_BearPi/Drivers/STM32L4xx_HAL_Driver/Src\stm32l4xx_hal_uart.c **** HAL_StatusTypeDef HAL_LIN_SendBreak(UART_HandleTypeDef *huart)
2678:D:/iot/felix2/targets/Cloud_STM32L431_BearPi/Drivers/STM32L4xx_HAL_Driver/Src\stm32l4xx_hal_uart.c **** {
 4257              		.loc 1 2678 0
 4258              		.cfi_startproc
 4259              		@ args = 0, pretend = 0, frame = 8
 4260              		@ frame_needed = 1, uses_anonymous_args = 0
 4261              		@ link register save eliminated.
 4262 0000 80B4     		push	{r7}
 4263              	.LCFI197:
 4264              		.cfi_def_cfa_offset 4
 4265              		.cfi_offset 7, -4
 4266 0002 83B0     		sub	sp, sp, #12
 4267              	.LCFI198:
 4268              		.cfi_def_cfa_offset 16
 4269 0004 00AF     		add	r7, sp, #0
 4270              	.LCFI199:
 4271              		.cfi_def_cfa_register 7
 4272 0006 7860     		str	r0, [r7, #4]
2679:D:/iot/felix2/targets/Cloud_STM32L431_BearPi/Drivers/STM32L4xx_HAL_Driver/Src\stm32l4xx_hal_uart.c ****   /* Check the parameters */
2680:D:/iot/felix2/targets/Cloud_STM32L431_BearPi/Drivers/STM32L4xx_HAL_Driver/Src\stm32l4xx_hal_uart.c ****   assert_param(IS_UART_LIN_INSTANCE(huart->Instance));
2681:D:/iot/felix2/targets/Cloud_STM32L431_BearPi/Drivers/STM32L4xx_HAL_Driver/Src\stm32l4xx_hal_uart.c **** 
2682:D:/iot/felix2/targets/Cloud_STM32L431_BearPi/Drivers/STM32L4xx_HAL_Driver/Src\stm32l4xx_hal_uart.c ****   /* Process Locked */
2683:D:/iot/felix2/targets/Cloud_STM32L431_BearPi/Drivers/STM32L4xx_HAL_Driver/Src\stm32l4xx_hal_uart.c ****   __HAL_LOCK(huart);
ARM GAS  C:\Users\91458\AppData\Local\Temp\ccrpKNIe.s 			page 122


 4273              		.loc 1 2683 0
 4274 0008 7B68     		ldr	r3, [r7, #4]
 4275 000a 93F87030 		ldrb	r3, [r3, #112]	@ zero_extendqisi2
 4276 000e 012B     		cmp	r3, #1
 4277 0010 01D1     		bne	.L216
 4278              		.loc 1 2683 0 is_stmt 0 discriminator 1
 4279 0012 0223     		movs	r3, #2
 4280 0014 1AE0     		b	.L217
 4281              	.L216:
 4282              		.loc 1 2683 0 discriminator 2
 4283 0016 7B68     		ldr	r3, [r7, #4]
 4284 0018 0122     		movs	r2, #1
 4285 001a 83F87020 		strb	r2, [r3, #112]
2684:D:/iot/felix2/targets/Cloud_STM32L431_BearPi/Drivers/STM32L4xx_HAL_Driver/Src\stm32l4xx_hal_uart.c **** 
2685:D:/iot/felix2/targets/Cloud_STM32L431_BearPi/Drivers/STM32L4xx_HAL_Driver/Src\stm32l4xx_hal_uart.c ****   huart->gState = HAL_UART_STATE_BUSY;
 4286              		.loc 1 2685 0 is_stmt 1 discriminator 2
 4287 001e 7B68     		ldr	r3, [r7, #4]
 4288 0020 2422     		movs	r2, #36
 4289 0022 83F87120 		strb	r2, [r3, #113]
2686:D:/iot/felix2/targets/Cloud_STM32L431_BearPi/Drivers/STM32L4xx_HAL_Driver/Src\stm32l4xx_hal_uart.c **** 
2687:D:/iot/felix2/targets/Cloud_STM32L431_BearPi/Drivers/STM32L4xx_HAL_Driver/Src\stm32l4xx_hal_uart.c ****   /* Send break characters */
2688:D:/iot/felix2/targets/Cloud_STM32L431_BearPi/Drivers/STM32L4xx_HAL_Driver/Src\stm32l4xx_hal_uart.c ****   SET_BIT(huart->Instance->RQR, UART_SENDBREAK_REQUEST);
 4290              		.loc 1 2688 0 discriminator 2
 4291 0026 7B68     		ldr	r3, [r7, #4]
 4292 0028 1B68     		ldr	r3, [r3]
 4293 002a 1B8B     		ldrh	r3, [r3, #24]	@ movhi
 4294 002c 9AB2     		uxth	r2, r3
 4295 002e 7B68     		ldr	r3, [r7, #4]
 4296 0030 1B68     		ldr	r3, [r3]
 4297 0032 42F00202 		orr	r2, r2, #2
 4298 0036 92B2     		uxth	r2, r2
 4299 0038 1A83     		strh	r2, [r3, #24]	@ movhi
2689:D:/iot/felix2/targets/Cloud_STM32L431_BearPi/Drivers/STM32L4xx_HAL_Driver/Src\stm32l4xx_hal_uart.c **** 
2690:D:/iot/felix2/targets/Cloud_STM32L431_BearPi/Drivers/STM32L4xx_HAL_Driver/Src\stm32l4xx_hal_uart.c ****   huart->gState = HAL_UART_STATE_READY;
 4300              		.loc 1 2690 0 discriminator 2
 4301 003a 7B68     		ldr	r3, [r7, #4]
 4302 003c 2022     		movs	r2, #32
 4303 003e 83F87120 		strb	r2, [r3, #113]
2691:D:/iot/felix2/targets/Cloud_STM32L431_BearPi/Drivers/STM32L4xx_HAL_Driver/Src\stm32l4xx_hal_uart.c **** 
2692:D:/iot/felix2/targets/Cloud_STM32L431_BearPi/Drivers/STM32L4xx_HAL_Driver/Src\stm32l4xx_hal_uart.c ****   /* Process Unlocked */
2693:D:/iot/felix2/targets/Cloud_STM32L431_BearPi/Drivers/STM32L4xx_HAL_Driver/Src\stm32l4xx_hal_uart.c ****   __HAL_UNLOCK(huart);
 4304              		.loc 1 2693 0 discriminator 2
 4305 0042 7B68     		ldr	r3, [r7, #4]
 4306 0044 0022     		movs	r2, #0
 4307 0046 83F87020 		strb	r2, [r3, #112]
2694:D:/iot/felix2/targets/Cloud_STM32L431_BearPi/Drivers/STM32L4xx_HAL_Driver/Src\stm32l4xx_hal_uart.c **** 
2695:D:/iot/felix2/targets/Cloud_STM32L431_BearPi/Drivers/STM32L4xx_HAL_Driver/Src\stm32l4xx_hal_uart.c ****   return HAL_OK;
 4308              		.loc 1 2695 0 discriminator 2
 4309 004a 0023     		movs	r3, #0
 4310              	.L217:
2696:D:/iot/felix2/targets/Cloud_STM32L431_BearPi/Drivers/STM32L4xx_HAL_Driver/Src\stm32l4xx_hal_uart.c **** }
 4311              		.loc 1 2696 0
 4312 004c 1846     		mov	r0, r3
 4313 004e 0C37     		adds	r7, r7, #12
 4314              	.LCFI200:
 4315              		.cfi_def_cfa_offset 4
 4316 0050 BD46     		mov	sp, r7
ARM GAS  C:\Users\91458\AppData\Local\Temp\ccrpKNIe.s 			page 123


 4317              	.LCFI201:
 4318              		.cfi_def_cfa_register 13
 4319              		@ sp needed
 4320 0052 5DF8047B 		ldr	r7, [sp], #4
 4321              	.LCFI202:
 4322              		.cfi_restore 7
 4323              		.cfi_def_cfa_offset 0
 4324 0056 7047     		bx	lr
 4325              		.cfi_endproc
 4326              	.LFE169:
 4328              		.section	.text.HAL_UART_GetState,"ax",%progbits
 4329              		.align	1
 4330              		.global	HAL_UART_GetState
 4331              		.syntax unified
 4332              		.thumb
 4333              		.thumb_func
 4334              		.fpu fpv4-sp-d16
 4336              	HAL_UART_GetState:
 4337              	.LFB170:
2697:D:/iot/felix2/targets/Cloud_STM32L431_BearPi/Drivers/STM32L4xx_HAL_Driver/Src\stm32l4xx_hal_uart.c **** 
2698:D:/iot/felix2/targets/Cloud_STM32L431_BearPi/Drivers/STM32L4xx_HAL_Driver/Src\stm32l4xx_hal_uart.c **** /**
2699:D:/iot/felix2/targets/Cloud_STM32L431_BearPi/Drivers/STM32L4xx_HAL_Driver/Src\stm32l4xx_hal_uart.c ****   * @}
2700:D:/iot/felix2/targets/Cloud_STM32L431_BearPi/Drivers/STM32L4xx_HAL_Driver/Src\stm32l4xx_hal_uart.c ****   */
2701:D:/iot/felix2/targets/Cloud_STM32L431_BearPi/Drivers/STM32L4xx_HAL_Driver/Src\stm32l4xx_hal_uart.c **** 
2702:D:/iot/felix2/targets/Cloud_STM32L431_BearPi/Drivers/STM32L4xx_HAL_Driver/Src\stm32l4xx_hal_uart.c **** /** @defgroup UART_Exported_Functions_Group4 Peripheral State and Error functions
2703:D:/iot/felix2/targets/Cloud_STM32L431_BearPi/Drivers/STM32L4xx_HAL_Driver/Src\stm32l4xx_hal_uart.c ****  *  @brief   UART Peripheral State functions
2704:D:/iot/felix2/targets/Cloud_STM32L431_BearPi/Drivers/STM32L4xx_HAL_Driver/Src\stm32l4xx_hal_uart.c ****  *
2705:D:/iot/felix2/targets/Cloud_STM32L431_BearPi/Drivers/STM32L4xx_HAL_Driver/Src\stm32l4xx_hal_uart.c **** @verbatim
2706:D:/iot/felix2/targets/Cloud_STM32L431_BearPi/Drivers/STM32L4xx_HAL_Driver/Src\stm32l4xx_hal_uart.c ****   ==============================================================================
2707:D:/iot/felix2/targets/Cloud_STM32L431_BearPi/Drivers/STM32L4xx_HAL_Driver/Src\stm32l4xx_hal_uart.c ****             ##### Peripheral State and Error functions #####
2708:D:/iot/felix2/targets/Cloud_STM32L431_BearPi/Drivers/STM32L4xx_HAL_Driver/Src\stm32l4xx_hal_uart.c ****   ==============================================================================
2709:D:/iot/felix2/targets/Cloud_STM32L431_BearPi/Drivers/STM32L4xx_HAL_Driver/Src\stm32l4xx_hal_uart.c ****     [..]
2710:D:/iot/felix2/targets/Cloud_STM32L431_BearPi/Drivers/STM32L4xx_HAL_Driver/Src\stm32l4xx_hal_uart.c ****     This subsection provides functions allowing to :
2711:D:/iot/felix2/targets/Cloud_STM32L431_BearPi/Drivers/STM32L4xx_HAL_Driver/Src\stm32l4xx_hal_uart.c ****       (+) Return the UART handle state.
2712:D:/iot/felix2/targets/Cloud_STM32L431_BearPi/Drivers/STM32L4xx_HAL_Driver/Src\stm32l4xx_hal_uart.c ****       (+) Return the UART handle error code
2713:D:/iot/felix2/targets/Cloud_STM32L431_BearPi/Drivers/STM32L4xx_HAL_Driver/Src\stm32l4xx_hal_uart.c **** 
2714:D:/iot/felix2/targets/Cloud_STM32L431_BearPi/Drivers/STM32L4xx_HAL_Driver/Src\stm32l4xx_hal_uart.c **** @endverbatim
2715:D:/iot/felix2/targets/Cloud_STM32L431_BearPi/Drivers/STM32L4xx_HAL_Driver/Src\stm32l4xx_hal_uart.c ****   * @{
2716:D:/iot/felix2/targets/Cloud_STM32L431_BearPi/Drivers/STM32L4xx_HAL_Driver/Src\stm32l4xx_hal_uart.c ****   */
2717:D:/iot/felix2/targets/Cloud_STM32L431_BearPi/Drivers/STM32L4xx_HAL_Driver/Src\stm32l4xx_hal_uart.c **** 
2718:D:/iot/felix2/targets/Cloud_STM32L431_BearPi/Drivers/STM32L4xx_HAL_Driver/Src\stm32l4xx_hal_uart.c **** /**
2719:D:/iot/felix2/targets/Cloud_STM32L431_BearPi/Drivers/STM32L4xx_HAL_Driver/Src\stm32l4xx_hal_uart.c ****   * @brief Return the UART handle state.
2720:D:/iot/felix2/targets/Cloud_STM32L431_BearPi/Drivers/STM32L4xx_HAL_Driver/Src\stm32l4xx_hal_uart.c ****   * @param  huart Pointer to a UART_HandleTypeDef structure that contains
2721:D:/iot/felix2/targets/Cloud_STM32L431_BearPi/Drivers/STM32L4xx_HAL_Driver/Src\stm32l4xx_hal_uart.c ****   *              the configuration information for the specified UART.
2722:D:/iot/felix2/targets/Cloud_STM32L431_BearPi/Drivers/STM32L4xx_HAL_Driver/Src\stm32l4xx_hal_uart.c ****   * @retval HAL state
2723:D:/iot/felix2/targets/Cloud_STM32L431_BearPi/Drivers/STM32L4xx_HAL_Driver/Src\stm32l4xx_hal_uart.c ****   */
2724:D:/iot/felix2/targets/Cloud_STM32L431_BearPi/Drivers/STM32L4xx_HAL_Driver/Src\stm32l4xx_hal_uart.c **** HAL_UART_StateTypeDef HAL_UART_GetState(UART_HandleTypeDef *huart)
2725:D:/iot/felix2/targets/Cloud_STM32L431_BearPi/Drivers/STM32L4xx_HAL_Driver/Src\stm32l4xx_hal_uart.c **** {
 4338              		.loc 1 2725 0
 4339              		.cfi_startproc
 4340              		@ args = 0, pretend = 0, frame = 16
 4341              		@ frame_needed = 1, uses_anonymous_args = 0
 4342              		@ link register save eliminated.
 4343 0000 80B4     		push	{r7}
 4344              	.LCFI203:
 4345              		.cfi_def_cfa_offset 4
 4346              		.cfi_offset 7, -4
ARM GAS  C:\Users\91458\AppData\Local\Temp\ccrpKNIe.s 			page 124


 4347 0002 85B0     		sub	sp, sp, #20
 4348              	.LCFI204:
 4349              		.cfi_def_cfa_offset 24
 4350 0004 00AF     		add	r7, sp, #0
 4351              	.LCFI205:
 4352              		.cfi_def_cfa_register 7
 4353 0006 7860     		str	r0, [r7, #4]
2726:D:/iot/felix2/targets/Cloud_STM32L431_BearPi/Drivers/STM32L4xx_HAL_Driver/Src\stm32l4xx_hal_uart.c ****   uint32_t temp1 = 0x00U, temp2 = 0x00U;
 4354              		.loc 1 2726 0
 4355 0008 0023     		movs	r3, #0
 4356 000a FB60     		str	r3, [r7, #12]
 4357 000c 0023     		movs	r3, #0
 4358 000e BB60     		str	r3, [r7, #8]
2727:D:/iot/felix2/targets/Cloud_STM32L431_BearPi/Drivers/STM32L4xx_HAL_Driver/Src\stm32l4xx_hal_uart.c ****   temp1 = huart->gState;
 4359              		.loc 1 2727 0
 4360 0010 7B68     		ldr	r3, [r7, #4]
 4361 0012 93F87130 		ldrb	r3, [r3, #113]
 4362 0016 DBB2     		uxtb	r3, r3
 4363 0018 FB60     		str	r3, [r7, #12]
2728:D:/iot/felix2/targets/Cloud_STM32L431_BearPi/Drivers/STM32L4xx_HAL_Driver/Src\stm32l4xx_hal_uart.c ****   temp2 = huart->RxState;
 4364              		.loc 1 2728 0
 4365 001a 7B68     		ldr	r3, [r7, #4]
 4366 001c 93F87230 		ldrb	r3, [r3, #114]
 4367 0020 DBB2     		uxtb	r3, r3
 4368 0022 BB60     		str	r3, [r7, #8]
2729:D:/iot/felix2/targets/Cloud_STM32L431_BearPi/Drivers/STM32L4xx_HAL_Driver/Src\stm32l4xx_hal_uart.c **** 
2730:D:/iot/felix2/targets/Cloud_STM32L431_BearPi/Drivers/STM32L4xx_HAL_Driver/Src\stm32l4xx_hal_uart.c ****   return (HAL_UART_StateTypeDef)(temp1 | temp2);
 4369              		.loc 1 2730 0
 4370 0024 FB68     		ldr	r3, [r7, #12]
 4371 0026 DAB2     		uxtb	r2, r3
 4372 0028 BB68     		ldr	r3, [r7, #8]
 4373 002a DBB2     		uxtb	r3, r3
 4374 002c 1343     		orrs	r3, r3, r2
 4375 002e DBB2     		uxtb	r3, r3
2731:D:/iot/felix2/targets/Cloud_STM32L431_BearPi/Drivers/STM32L4xx_HAL_Driver/Src\stm32l4xx_hal_uart.c **** }
 4376              		.loc 1 2731 0
 4377 0030 1846     		mov	r0, r3
 4378 0032 1437     		adds	r7, r7, #20
 4379              	.LCFI206:
 4380              		.cfi_def_cfa_offset 4
 4381 0034 BD46     		mov	sp, r7
 4382              	.LCFI207:
 4383              		.cfi_def_cfa_register 13
 4384              		@ sp needed
 4385 0036 5DF8047B 		ldr	r7, [sp], #4
 4386              	.LCFI208:
 4387              		.cfi_restore 7
 4388              		.cfi_def_cfa_offset 0
 4389 003a 7047     		bx	lr
 4390              		.cfi_endproc
 4391              	.LFE170:
 4393              		.section	.text.HAL_UART_GetError,"ax",%progbits
 4394              		.align	1
 4395              		.global	HAL_UART_GetError
 4396              		.syntax unified
 4397              		.thumb
 4398              		.thumb_func
ARM GAS  C:\Users\91458\AppData\Local\Temp\ccrpKNIe.s 			page 125


 4399              		.fpu fpv4-sp-d16
 4401              	HAL_UART_GetError:
 4402              	.LFB171:
2732:D:/iot/felix2/targets/Cloud_STM32L431_BearPi/Drivers/STM32L4xx_HAL_Driver/Src\stm32l4xx_hal_uart.c **** 
2733:D:/iot/felix2/targets/Cloud_STM32L431_BearPi/Drivers/STM32L4xx_HAL_Driver/Src\stm32l4xx_hal_uart.c **** /**
2734:D:/iot/felix2/targets/Cloud_STM32L431_BearPi/Drivers/STM32L4xx_HAL_Driver/Src\stm32l4xx_hal_uart.c **** * @brief  Return the UART handle error code.
2735:D:/iot/felix2/targets/Cloud_STM32L431_BearPi/Drivers/STM32L4xx_HAL_Driver/Src\stm32l4xx_hal_uart.c ****   * @param  huart Pointer to a UART_HandleTypeDef structure that contains
2736:D:/iot/felix2/targets/Cloud_STM32L431_BearPi/Drivers/STM32L4xx_HAL_Driver/Src\stm32l4xx_hal_uart.c ****   *              the configuration information for the specified UART.
2737:D:/iot/felix2/targets/Cloud_STM32L431_BearPi/Drivers/STM32L4xx_HAL_Driver/Src\stm32l4xx_hal_uart.c **** * @retval UART Error Code
2738:D:/iot/felix2/targets/Cloud_STM32L431_BearPi/Drivers/STM32L4xx_HAL_Driver/Src\stm32l4xx_hal_uart.c **** */
2739:D:/iot/felix2/targets/Cloud_STM32L431_BearPi/Drivers/STM32L4xx_HAL_Driver/Src\stm32l4xx_hal_uart.c **** uint32_t HAL_UART_GetError(UART_HandleTypeDef *huart)
2740:D:/iot/felix2/targets/Cloud_STM32L431_BearPi/Drivers/STM32L4xx_HAL_Driver/Src\stm32l4xx_hal_uart.c **** {
 4403              		.loc 1 2740 0
 4404              		.cfi_startproc
 4405              		@ args = 0, pretend = 0, frame = 8
 4406              		@ frame_needed = 1, uses_anonymous_args = 0
 4407              		@ link register save eliminated.
 4408 0000 80B4     		push	{r7}
 4409              	.LCFI209:
 4410              		.cfi_def_cfa_offset 4
 4411              		.cfi_offset 7, -4
 4412 0002 83B0     		sub	sp, sp, #12
 4413              	.LCFI210:
 4414              		.cfi_def_cfa_offset 16
 4415 0004 00AF     		add	r7, sp, #0
 4416              	.LCFI211:
 4417              		.cfi_def_cfa_register 7
 4418 0006 7860     		str	r0, [r7, #4]
2741:D:/iot/felix2/targets/Cloud_STM32L431_BearPi/Drivers/STM32L4xx_HAL_Driver/Src\stm32l4xx_hal_uart.c ****   return huart->ErrorCode;
 4419              		.loc 1 2741 0
 4420 0008 7B68     		ldr	r3, [r7, #4]
 4421 000a 5B6F     		ldr	r3, [r3, #116]
2742:D:/iot/felix2/targets/Cloud_STM32L431_BearPi/Drivers/STM32L4xx_HAL_Driver/Src\stm32l4xx_hal_uart.c **** }
 4422              		.loc 1 2742 0
 4423 000c 1846     		mov	r0, r3
 4424 000e 0C37     		adds	r7, r7, #12
 4425              	.LCFI212:
 4426              		.cfi_def_cfa_offset 4
 4427 0010 BD46     		mov	sp, r7
 4428              	.LCFI213:
 4429              		.cfi_def_cfa_register 13
 4430              		@ sp needed
 4431 0012 5DF8047B 		ldr	r7, [sp], #4
 4432              	.LCFI214:
 4433              		.cfi_restore 7
 4434              		.cfi_def_cfa_offset 0
 4435 0016 7047     		bx	lr
 4436              		.cfi_endproc
 4437              	.LFE171:
 4439              		.global	__aeabi_uldivmod
 4440              		.section	.text.UART_SetConfig,"ax",%progbits
 4441              		.align	1
 4442              		.global	UART_SetConfig
 4443              		.syntax unified
 4444              		.thumb
 4445              		.thumb_func
 4446              		.fpu fpv4-sp-d16
ARM GAS  C:\Users\91458\AppData\Local\Temp\ccrpKNIe.s 			page 126


 4448              	UART_SetConfig:
 4449              	.LFB172:
2743:D:/iot/felix2/targets/Cloud_STM32L431_BearPi/Drivers/STM32L4xx_HAL_Driver/Src\stm32l4xx_hal_uart.c **** /**
2744:D:/iot/felix2/targets/Cloud_STM32L431_BearPi/Drivers/STM32L4xx_HAL_Driver/Src\stm32l4xx_hal_uart.c ****   * @}
2745:D:/iot/felix2/targets/Cloud_STM32L431_BearPi/Drivers/STM32L4xx_HAL_Driver/Src\stm32l4xx_hal_uart.c ****   */
2746:D:/iot/felix2/targets/Cloud_STM32L431_BearPi/Drivers/STM32L4xx_HAL_Driver/Src\stm32l4xx_hal_uart.c **** 
2747:D:/iot/felix2/targets/Cloud_STM32L431_BearPi/Drivers/STM32L4xx_HAL_Driver/Src\stm32l4xx_hal_uart.c **** /**
2748:D:/iot/felix2/targets/Cloud_STM32L431_BearPi/Drivers/STM32L4xx_HAL_Driver/Src\stm32l4xx_hal_uart.c ****   * @}
2749:D:/iot/felix2/targets/Cloud_STM32L431_BearPi/Drivers/STM32L4xx_HAL_Driver/Src\stm32l4xx_hal_uart.c ****   */
2750:D:/iot/felix2/targets/Cloud_STM32L431_BearPi/Drivers/STM32L4xx_HAL_Driver/Src\stm32l4xx_hal_uart.c **** 
2751:D:/iot/felix2/targets/Cloud_STM32L431_BearPi/Drivers/STM32L4xx_HAL_Driver/Src\stm32l4xx_hal_uart.c **** /** @defgroup UART_Private_Functions UART Private Functions
2752:D:/iot/felix2/targets/Cloud_STM32L431_BearPi/Drivers/STM32L4xx_HAL_Driver/Src\stm32l4xx_hal_uart.c ****   * @{
2753:D:/iot/felix2/targets/Cloud_STM32L431_BearPi/Drivers/STM32L4xx_HAL_Driver/Src\stm32l4xx_hal_uart.c ****   */
2754:D:/iot/felix2/targets/Cloud_STM32L431_BearPi/Drivers/STM32L4xx_HAL_Driver/Src\stm32l4xx_hal_uart.c **** 
2755:D:/iot/felix2/targets/Cloud_STM32L431_BearPi/Drivers/STM32L4xx_HAL_Driver/Src\stm32l4xx_hal_uart.c **** /**
2756:D:/iot/felix2/targets/Cloud_STM32L431_BearPi/Drivers/STM32L4xx_HAL_Driver/Src\stm32l4xx_hal_uart.c ****   * @brief  Initialize the callbacks to their default values.
2757:D:/iot/felix2/targets/Cloud_STM32L431_BearPi/Drivers/STM32L4xx_HAL_Driver/Src\stm32l4xx_hal_uart.c ****   * @param  huart UART handle.
2758:D:/iot/felix2/targets/Cloud_STM32L431_BearPi/Drivers/STM32L4xx_HAL_Driver/Src\stm32l4xx_hal_uart.c ****   * @retval none
2759:D:/iot/felix2/targets/Cloud_STM32L431_BearPi/Drivers/STM32L4xx_HAL_Driver/Src\stm32l4xx_hal_uart.c ****   */
2760:D:/iot/felix2/targets/Cloud_STM32L431_BearPi/Drivers/STM32L4xx_HAL_Driver/Src\stm32l4xx_hal_uart.c **** #if (USE_HAL_UART_REGISTER_CALLBACKS == 1)
2761:D:/iot/felix2/targets/Cloud_STM32L431_BearPi/Drivers/STM32L4xx_HAL_Driver/Src\stm32l4xx_hal_uart.c **** void UART_InitCallbacksToDefault(UART_HandleTypeDef *huart)
2762:D:/iot/felix2/targets/Cloud_STM32L431_BearPi/Drivers/STM32L4xx_HAL_Driver/Src\stm32l4xx_hal_uart.c **** {
2763:D:/iot/felix2/targets/Cloud_STM32L431_BearPi/Drivers/STM32L4xx_HAL_Driver/Src\stm32l4xx_hal_uart.c ****   /* Init the UART Callback settings */
2764:D:/iot/felix2/targets/Cloud_STM32L431_BearPi/Drivers/STM32L4xx_HAL_Driver/Src\stm32l4xx_hal_uart.c ****   huart->TxHalfCpltCallback        = HAL_UART_TxHalfCpltCallback;        /* Legacy weak TxHalfCpltC
2765:D:/iot/felix2/targets/Cloud_STM32L431_BearPi/Drivers/STM32L4xx_HAL_Driver/Src\stm32l4xx_hal_uart.c ****   huart->TxCpltCallback            = HAL_UART_TxCpltCallback;            /* Legacy weak TxCpltCallb
2766:D:/iot/felix2/targets/Cloud_STM32L431_BearPi/Drivers/STM32L4xx_HAL_Driver/Src\stm32l4xx_hal_uart.c ****   huart->RxHalfCpltCallback        = HAL_UART_RxHalfCpltCallback;        /* Legacy weak RxHalfCpltC
2767:D:/iot/felix2/targets/Cloud_STM32L431_BearPi/Drivers/STM32L4xx_HAL_Driver/Src\stm32l4xx_hal_uart.c ****   huart->RxCpltCallback            = HAL_UART_RxCpltCallback;            /* Legacy weak RxCpltCallb
2768:D:/iot/felix2/targets/Cloud_STM32L431_BearPi/Drivers/STM32L4xx_HAL_Driver/Src\stm32l4xx_hal_uart.c ****   huart->ErrorCallback             = HAL_UART_ErrorCallback;             /* Legacy weak ErrorCallba
2769:D:/iot/felix2/targets/Cloud_STM32L431_BearPi/Drivers/STM32L4xx_HAL_Driver/Src\stm32l4xx_hal_uart.c ****   huart->AbortCpltCallback         = HAL_UART_AbortCpltCallback;         /* Legacy weak AbortCpltCa
2770:D:/iot/felix2/targets/Cloud_STM32L431_BearPi/Drivers/STM32L4xx_HAL_Driver/Src\stm32l4xx_hal_uart.c ****   huart->AbortTransmitCpltCallback = HAL_UART_AbortTransmitCpltCallback; /* Legacy weak AbortTransm
2771:D:/iot/felix2/targets/Cloud_STM32L431_BearPi/Drivers/STM32L4xx_HAL_Driver/Src\stm32l4xx_hal_uart.c ****   huart->AbortReceiveCpltCallback  = HAL_UART_AbortReceiveCpltCallback;  /* Legacy weak AbortReceiv
2772:D:/iot/felix2/targets/Cloud_STM32L431_BearPi/Drivers/STM32L4xx_HAL_Driver/Src\stm32l4xx_hal_uart.c ****   huart->WakeupCallback            = HAL_UARTEx_WakeupCallback;          /* Legacy weak WakeupCallb
2773:D:/iot/felix2/targets/Cloud_STM32L431_BearPi/Drivers/STM32L4xx_HAL_Driver/Src\stm32l4xx_hal_uart.c **** #if defined(USART_CR1_FIFOEN)
2774:D:/iot/felix2/targets/Cloud_STM32L431_BearPi/Drivers/STM32L4xx_HAL_Driver/Src\stm32l4xx_hal_uart.c ****   huart->RxFifoFullCallback        = HAL_UARTEx_RxFifoFullCallback;      /* Legacy weak RxFifoFullC
2775:D:/iot/felix2/targets/Cloud_STM32L431_BearPi/Drivers/STM32L4xx_HAL_Driver/Src\stm32l4xx_hal_uart.c ****   huart->TxFifoEmptyCallback       = HAL_UARTEx_TxFifoEmptyCallback;     /* Legacy weak TxFifoEmpty
2776:D:/iot/felix2/targets/Cloud_STM32L431_BearPi/Drivers/STM32L4xx_HAL_Driver/Src\stm32l4xx_hal_uart.c **** #endif
2777:D:/iot/felix2/targets/Cloud_STM32L431_BearPi/Drivers/STM32L4xx_HAL_Driver/Src\stm32l4xx_hal_uart.c **** 
2778:D:/iot/felix2/targets/Cloud_STM32L431_BearPi/Drivers/STM32L4xx_HAL_Driver/Src\stm32l4xx_hal_uart.c **** }
2779:D:/iot/felix2/targets/Cloud_STM32L431_BearPi/Drivers/STM32L4xx_HAL_Driver/Src\stm32l4xx_hal_uart.c **** #endif /* USE_HAL_UART_REGISTER_CALLBACKS */
2780:D:/iot/felix2/targets/Cloud_STM32L431_BearPi/Drivers/STM32L4xx_HAL_Driver/Src\stm32l4xx_hal_uart.c **** 
2781:D:/iot/felix2/targets/Cloud_STM32L431_BearPi/Drivers/STM32L4xx_HAL_Driver/Src\stm32l4xx_hal_uart.c **** /**
2782:D:/iot/felix2/targets/Cloud_STM32L431_BearPi/Drivers/STM32L4xx_HAL_Driver/Src\stm32l4xx_hal_uart.c ****   * @brief Configure the UART peripheral.
2783:D:/iot/felix2/targets/Cloud_STM32L431_BearPi/Drivers/STM32L4xx_HAL_Driver/Src\stm32l4xx_hal_uart.c ****   * @param huart UART handle.
2784:D:/iot/felix2/targets/Cloud_STM32L431_BearPi/Drivers/STM32L4xx_HAL_Driver/Src\stm32l4xx_hal_uart.c ****   * @retval HAL status
2785:D:/iot/felix2/targets/Cloud_STM32L431_BearPi/Drivers/STM32L4xx_HAL_Driver/Src\stm32l4xx_hal_uart.c ****   */
2786:D:/iot/felix2/targets/Cloud_STM32L431_BearPi/Drivers/STM32L4xx_HAL_Driver/Src\stm32l4xx_hal_uart.c **** HAL_StatusTypeDef UART_SetConfig(UART_HandleTypeDef *huart)
2787:D:/iot/felix2/targets/Cloud_STM32L431_BearPi/Drivers/STM32L4xx_HAL_Driver/Src\stm32l4xx_hal_uart.c **** {
 4450              		.loc 1 2787 0
 4451              		.cfi_startproc
 4452              		@ args = 0, pretend = 0, frame = 32
 4453              		@ frame_needed = 1, uses_anonymous_args = 0
 4454 0000 2DE99048 		push	{r4, r7, fp, lr}
 4455              	.LCFI215:
 4456              		.cfi_def_cfa_offset 16
 4457              		.cfi_offset 4, -16
 4458              		.cfi_offset 7, -12
 4459              		.cfi_offset 11, -8
ARM GAS  C:\Users\91458\AppData\Local\Temp\ccrpKNIe.s 			page 127


 4460              		.cfi_offset 14, -4
 4461 0004 88B0     		sub	sp, sp, #32
 4462              	.LCFI216:
 4463              		.cfi_def_cfa_offset 48
 4464 0006 00AF     		add	r7, sp, #0
 4465              	.LCFI217:
 4466              		.cfi_def_cfa_register 7
 4467 0008 7860     		str	r0, [r7, #4]
2788:D:/iot/felix2/targets/Cloud_STM32L431_BearPi/Drivers/STM32L4xx_HAL_Driver/Src\stm32l4xx_hal_uart.c ****   uint32_t tmpreg                     = 0x00000000U;
 4468              		.loc 1 2788 0
 4469 000a 0023     		movs	r3, #0
 4470 000c FB61     		str	r3, [r7, #28]
2789:D:/iot/felix2/targets/Cloud_STM32L431_BearPi/Drivers/STM32L4xx_HAL_Driver/Src\stm32l4xx_hal_uart.c ****   UART_ClockSourceTypeDef clocksource = UART_CLOCKSOURCE_UNDEFINED;
 4471              		.loc 1 2789 0
 4472 000e 1023     		movs	r3, #16
 4473 0010 FB76     		strb	r3, [r7, #27]
2790:D:/iot/felix2/targets/Cloud_STM32L431_BearPi/Drivers/STM32L4xx_HAL_Driver/Src\stm32l4xx_hal_uart.c ****   uint16_t brrtemp                    = 0x0000U;
 4474              		.loc 1 2790 0
 4475 0012 0023     		movs	r3, #0
 4476 0014 7B81     		strh	r3, [r7, #10]	@ movhi
2791:D:/iot/felix2/targets/Cloud_STM32L431_BearPi/Drivers/STM32L4xx_HAL_Driver/Src\stm32l4xx_hal_uart.c ****   uint32_t usartdiv                   = 0x00000000U;
 4477              		.loc 1 2791 0
 4478 0016 0023     		movs	r3, #0
 4479 0018 7B61     		str	r3, [r7, #20]
2792:D:/iot/felix2/targets/Cloud_STM32L431_BearPi/Drivers/STM32L4xx_HAL_Driver/Src\stm32l4xx_hal_uart.c ****   HAL_StatusTypeDef ret               = HAL_OK;
 4480              		.loc 1 2792 0
 4481 001a 0023     		movs	r3, #0
 4482 001c FB74     		strb	r3, [r7, #19]
2793:D:/iot/felix2/targets/Cloud_STM32L431_BearPi/Drivers/STM32L4xx_HAL_Driver/Src\stm32l4xx_hal_uart.c ****   uint32_t lpuart_ker_ck_pres         = 0x00000000U;
 4483              		.loc 1 2793 0
 4484 001e 0023     		movs	r3, #0
 4485 0020 FB60     		str	r3, [r7, #12]
2794:D:/iot/felix2/targets/Cloud_STM32L431_BearPi/Drivers/STM32L4xx_HAL_Driver/Src\stm32l4xx_hal_uart.c **** 
2795:D:/iot/felix2/targets/Cloud_STM32L431_BearPi/Drivers/STM32L4xx_HAL_Driver/Src\stm32l4xx_hal_uart.c ****   /* Check the parameters */
2796:D:/iot/felix2/targets/Cloud_STM32L431_BearPi/Drivers/STM32L4xx_HAL_Driver/Src\stm32l4xx_hal_uart.c ****   assert_param(IS_UART_BAUDRATE(huart->Init.BaudRate));
2797:D:/iot/felix2/targets/Cloud_STM32L431_BearPi/Drivers/STM32L4xx_HAL_Driver/Src\stm32l4xx_hal_uart.c ****   assert_param(IS_UART_WORD_LENGTH(huart->Init.WordLength));
2798:D:/iot/felix2/targets/Cloud_STM32L431_BearPi/Drivers/STM32L4xx_HAL_Driver/Src\stm32l4xx_hal_uart.c ****   if (UART_INSTANCE_LOWPOWER(huart))
2799:D:/iot/felix2/targets/Cloud_STM32L431_BearPi/Drivers/STM32L4xx_HAL_Driver/Src\stm32l4xx_hal_uart.c ****   {
2800:D:/iot/felix2/targets/Cloud_STM32L431_BearPi/Drivers/STM32L4xx_HAL_Driver/Src\stm32l4xx_hal_uart.c ****     assert_param(IS_LPUART_STOPBITS(huart->Init.StopBits));
2801:D:/iot/felix2/targets/Cloud_STM32L431_BearPi/Drivers/STM32L4xx_HAL_Driver/Src\stm32l4xx_hal_uart.c ****   }
2802:D:/iot/felix2/targets/Cloud_STM32L431_BearPi/Drivers/STM32L4xx_HAL_Driver/Src\stm32l4xx_hal_uart.c ****   else
2803:D:/iot/felix2/targets/Cloud_STM32L431_BearPi/Drivers/STM32L4xx_HAL_Driver/Src\stm32l4xx_hal_uart.c ****   {
2804:D:/iot/felix2/targets/Cloud_STM32L431_BearPi/Drivers/STM32L4xx_HAL_Driver/Src\stm32l4xx_hal_uart.c ****     assert_param(IS_UART_STOPBITS(huart->Init.StopBits));
2805:D:/iot/felix2/targets/Cloud_STM32L431_BearPi/Drivers/STM32L4xx_HAL_Driver/Src\stm32l4xx_hal_uart.c ****     assert_param(IS_UART_ONE_BIT_SAMPLE(huart->Init.OneBitSampling));
2806:D:/iot/felix2/targets/Cloud_STM32L431_BearPi/Drivers/STM32L4xx_HAL_Driver/Src\stm32l4xx_hal_uart.c ****   }
2807:D:/iot/felix2/targets/Cloud_STM32L431_BearPi/Drivers/STM32L4xx_HAL_Driver/Src\stm32l4xx_hal_uart.c **** 
2808:D:/iot/felix2/targets/Cloud_STM32L431_BearPi/Drivers/STM32L4xx_HAL_Driver/Src\stm32l4xx_hal_uart.c ****   assert_param(IS_UART_PARITY(huart->Init.Parity));
2809:D:/iot/felix2/targets/Cloud_STM32L431_BearPi/Drivers/STM32L4xx_HAL_Driver/Src\stm32l4xx_hal_uart.c ****   assert_param(IS_UART_MODE(huart->Init.Mode));
2810:D:/iot/felix2/targets/Cloud_STM32L431_BearPi/Drivers/STM32L4xx_HAL_Driver/Src\stm32l4xx_hal_uart.c ****   assert_param(IS_UART_HARDWARE_FLOW_CONTROL(huart->Init.HwFlowCtl));
2811:D:/iot/felix2/targets/Cloud_STM32L431_BearPi/Drivers/STM32L4xx_HAL_Driver/Src\stm32l4xx_hal_uart.c ****   assert_param(IS_UART_OVERSAMPLING(huart->Init.OverSampling));
2812:D:/iot/felix2/targets/Cloud_STM32L431_BearPi/Drivers/STM32L4xx_HAL_Driver/Src\stm32l4xx_hal_uart.c **** #if defined(USART_PRESC_PRESCALER)
2813:D:/iot/felix2/targets/Cloud_STM32L431_BearPi/Drivers/STM32L4xx_HAL_Driver/Src\stm32l4xx_hal_uart.c ****   assert_param(IS_UART_PRESCALER(huart->Init.ClockPrescaler));
2814:D:/iot/felix2/targets/Cloud_STM32L431_BearPi/Drivers/STM32L4xx_HAL_Driver/Src\stm32l4xx_hal_uart.c **** #endif
2815:D:/iot/felix2/targets/Cloud_STM32L431_BearPi/Drivers/STM32L4xx_HAL_Driver/Src\stm32l4xx_hal_uart.c **** 
2816:D:/iot/felix2/targets/Cloud_STM32L431_BearPi/Drivers/STM32L4xx_HAL_Driver/Src\stm32l4xx_hal_uart.c ****   /*-------------------------- USART CR1 Configuration -----------------------*/
2817:D:/iot/felix2/targets/Cloud_STM32L431_BearPi/Drivers/STM32L4xx_HAL_Driver/Src\stm32l4xx_hal_uart.c ****   /* Clear M, PCE, PS, TE, RE and OVER8 bits and configure
2818:D:/iot/felix2/targets/Cloud_STM32L431_BearPi/Drivers/STM32L4xx_HAL_Driver/Src\stm32l4xx_hal_uart.c ****   *  the UART Word Length, Parity, Mode and oversampling:
ARM GAS  C:\Users\91458\AppData\Local\Temp\ccrpKNIe.s 			page 128


2819:D:/iot/felix2/targets/Cloud_STM32L431_BearPi/Drivers/STM32L4xx_HAL_Driver/Src\stm32l4xx_hal_uart.c ****   *  set the M bits according to huart->Init.WordLength value
2820:D:/iot/felix2/targets/Cloud_STM32L431_BearPi/Drivers/STM32L4xx_HAL_Driver/Src\stm32l4xx_hal_uart.c ****   *  set PCE and PS bits according to huart->Init.Parity value
2821:D:/iot/felix2/targets/Cloud_STM32L431_BearPi/Drivers/STM32L4xx_HAL_Driver/Src\stm32l4xx_hal_uart.c ****   *  set TE and RE bits according to huart->Init.Mode value
2822:D:/iot/felix2/targets/Cloud_STM32L431_BearPi/Drivers/STM32L4xx_HAL_Driver/Src\stm32l4xx_hal_uart.c ****   *  set OVER8 bit according to huart->Init.OverSampling value */
2823:D:/iot/felix2/targets/Cloud_STM32L431_BearPi/Drivers/STM32L4xx_HAL_Driver/Src\stm32l4xx_hal_uart.c ****   tmpreg = (uint32_t)huart->Init.WordLength | huart->Init.Parity | huart->Init.Mode | huart->Init.O
 4486              		.loc 1 2823 0
 4487 0022 7B68     		ldr	r3, [r7, #4]
 4488 0024 9A68     		ldr	r2, [r3, #8]
 4489 0026 7B68     		ldr	r3, [r7, #4]
 4490 0028 1B69     		ldr	r3, [r3, #16]
 4491 002a 1A43     		orrs	r2, r2, r3
 4492 002c 7B68     		ldr	r3, [r7, #4]
 4493 002e 5B69     		ldr	r3, [r3, #20]
 4494 0030 1A43     		orrs	r2, r2, r3
 4495 0032 7B68     		ldr	r3, [r7, #4]
 4496 0034 DB69     		ldr	r3, [r3, #28]
 4497 0036 1343     		orrs	r3, r3, r2
 4498 0038 FB61     		str	r3, [r7, #28]
2824:D:/iot/felix2/targets/Cloud_STM32L431_BearPi/Drivers/STM32L4xx_HAL_Driver/Src\stm32l4xx_hal_uart.c **** #if defined(USART_CR1_FIFOEN)
2825:D:/iot/felix2/targets/Cloud_STM32L431_BearPi/Drivers/STM32L4xx_HAL_Driver/Src\stm32l4xx_hal_uart.c ****   tmpreg |= (uint32_t)huart->FifoMode;
2826:D:/iot/felix2/targets/Cloud_STM32L431_BearPi/Drivers/STM32L4xx_HAL_Driver/Src\stm32l4xx_hal_uart.c **** #endif
2827:D:/iot/felix2/targets/Cloud_STM32L431_BearPi/Drivers/STM32L4xx_HAL_Driver/Src\stm32l4xx_hal_uart.c ****   MODIFY_REG(huart->Instance->CR1, USART_CR1_FIELDS, tmpreg);
 4499              		.loc 1 2827 0
 4500 003a 7B68     		ldr	r3, [r7, #4]
 4501 003c 1B68     		ldr	r3, [r3]
 4502 003e 1A68     		ldr	r2, [r3]
 4503 0040 AE4B     		ldr	r3, .L297
 4504 0042 1340     		ands	r3, r3, r2
 4505 0044 7A68     		ldr	r2, [r7, #4]
 4506 0046 1268     		ldr	r2, [r2]
 4507 0048 F969     		ldr	r1, [r7, #28]
 4508 004a 0B43     		orrs	r3, r3, r1
 4509 004c 1360     		str	r3, [r2]
2828:D:/iot/felix2/targets/Cloud_STM32L431_BearPi/Drivers/STM32L4xx_HAL_Driver/Src\stm32l4xx_hal_uart.c **** 
2829:D:/iot/felix2/targets/Cloud_STM32L431_BearPi/Drivers/STM32L4xx_HAL_Driver/Src\stm32l4xx_hal_uart.c ****   /*-------------------------- USART CR2 Configuration -----------------------*/
2830:D:/iot/felix2/targets/Cloud_STM32L431_BearPi/Drivers/STM32L4xx_HAL_Driver/Src\stm32l4xx_hal_uart.c ****   /* Configure the UART Stop Bits: Set STOP[13:12] bits according
2831:D:/iot/felix2/targets/Cloud_STM32L431_BearPi/Drivers/STM32L4xx_HAL_Driver/Src\stm32l4xx_hal_uart.c ****   * to huart->Init.StopBits value */
2832:D:/iot/felix2/targets/Cloud_STM32L431_BearPi/Drivers/STM32L4xx_HAL_Driver/Src\stm32l4xx_hal_uart.c ****   MODIFY_REG(huart->Instance->CR2, USART_CR2_STOP, huart->Init.StopBits);
 4510              		.loc 1 2832 0
 4511 004e 7B68     		ldr	r3, [r7, #4]
 4512 0050 1B68     		ldr	r3, [r3]
 4513 0052 5B68     		ldr	r3, [r3, #4]
 4514 0054 23F44051 		bic	r1, r3, #12288
 4515 0058 7B68     		ldr	r3, [r7, #4]
 4516 005a DA68     		ldr	r2, [r3, #12]
 4517 005c 7B68     		ldr	r3, [r7, #4]
 4518 005e 1B68     		ldr	r3, [r3]
 4519 0060 0A43     		orrs	r2, r2, r1
 4520 0062 5A60     		str	r2, [r3, #4]
2833:D:/iot/felix2/targets/Cloud_STM32L431_BearPi/Drivers/STM32L4xx_HAL_Driver/Src\stm32l4xx_hal_uart.c **** 
2834:D:/iot/felix2/targets/Cloud_STM32L431_BearPi/Drivers/STM32L4xx_HAL_Driver/Src\stm32l4xx_hal_uart.c ****   /*-------------------------- USART CR3 Configuration -----------------------*/
2835:D:/iot/felix2/targets/Cloud_STM32L431_BearPi/Drivers/STM32L4xx_HAL_Driver/Src\stm32l4xx_hal_uart.c ****   /* Configure
2836:D:/iot/felix2/targets/Cloud_STM32L431_BearPi/Drivers/STM32L4xx_HAL_Driver/Src\stm32l4xx_hal_uart.c ****   * - UART HardWare Flow Control: set CTSE and RTSE bits according
2837:D:/iot/felix2/targets/Cloud_STM32L431_BearPi/Drivers/STM32L4xx_HAL_Driver/Src\stm32l4xx_hal_uart.c ****   *   to huart->Init.HwFlowCtl value
2838:D:/iot/felix2/targets/Cloud_STM32L431_BearPi/Drivers/STM32L4xx_HAL_Driver/Src\stm32l4xx_hal_uart.c ****   * - one-bit sampling method versus three samples' majority rule according
2839:D:/iot/felix2/targets/Cloud_STM32L431_BearPi/Drivers/STM32L4xx_HAL_Driver/Src\stm32l4xx_hal_uart.c ****   *   to huart->Init.OneBitSampling (not applicable to LPUART) */
2840:D:/iot/felix2/targets/Cloud_STM32L431_BearPi/Drivers/STM32L4xx_HAL_Driver/Src\stm32l4xx_hal_uart.c ****   tmpreg = (uint32_t)huart->Init.HwFlowCtl;
ARM GAS  C:\Users\91458\AppData\Local\Temp\ccrpKNIe.s 			page 129


 4521              		.loc 1 2840 0
 4522 0064 7B68     		ldr	r3, [r7, #4]
 4523 0066 9B69     		ldr	r3, [r3, #24]
 4524 0068 FB61     		str	r3, [r7, #28]
2841:D:/iot/felix2/targets/Cloud_STM32L431_BearPi/Drivers/STM32L4xx_HAL_Driver/Src\stm32l4xx_hal_uart.c **** 
2842:D:/iot/felix2/targets/Cloud_STM32L431_BearPi/Drivers/STM32L4xx_HAL_Driver/Src\stm32l4xx_hal_uart.c ****   if (!(UART_INSTANCE_LOWPOWER(huart)))
 4525              		.loc 1 2842 0
 4526 006a 7B68     		ldr	r3, [r7, #4]
 4527 006c 1B68     		ldr	r3, [r3]
 4528 006e A44A     		ldr	r2, .L297+4
 4529 0070 9342     		cmp	r3, r2
 4530 0072 04D0     		beq	.L223
2843:D:/iot/felix2/targets/Cloud_STM32L431_BearPi/Drivers/STM32L4xx_HAL_Driver/Src\stm32l4xx_hal_uart.c ****   {
2844:D:/iot/felix2/targets/Cloud_STM32L431_BearPi/Drivers/STM32L4xx_HAL_Driver/Src\stm32l4xx_hal_uart.c ****     tmpreg |= huart->Init.OneBitSampling;
 4531              		.loc 1 2844 0
 4532 0074 7B68     		ldr	r3, [r7, #4]
 4533 0076 1B6A     		ldr	r3, [r3, #32]
 4534 0078 FA69     		ldr	r2, [r7, #28]
 4535 007a 1343     		orrs	r3, r3, r2
 4536 007c FB61     		str	r3, [r7, #28]
 4537              	.L223:
2845:D:/iot/felix2/targets/Cloud_STM32L431_BearPi/Drivers/STM32L4xx_HAL_Driver/Src\stm32l4xx_hal_uart.c ****   }
2846:D:/iot/felix2/targets/Cloud_STM32L431_BearPi/Drivers/STM32L4xx_HAL_Driver/Src\stm32l4xx_hal_uart.c ****   MODIFY_REG(huart->Instance->CR3, USART_CR3_FIELDS, tmpreg);
 4538              		.loc 1 2846 0
 4539 007e 7B68     		ldr	r3, [r7, #4]
 4540 0080 1B68     		ldr	r3, [r3]
 4541 0082 9B68     		ldr	r3, [r3, #8]
 4542 0084 23F43061 		bic	r1, r3, #2816
 4543 0088 7B68     		ldr	r3, [r7, #4]
 4544 008a 1B68     		ldr	r3, [r3]
 4545 008c FA69     		ldr	r2, [r7, #28]
 4546 008e 0A43     		orrs	r2, r2, r1
 4547 0090 9A60     		str	r2, [r3, #8]
2847:D:/iot/felix2/targets/Cloud_STM32L431_BearPi/Drivers/STM32L4xx_HAL_Driver/Src\stm32l4xx_hal_uart.c **** 
2848:D:/iot/felix2/targets/Cloud_STM32L431_BearPi/Drivers/STM32L4xx_HAL_Driver/Src\stm32l4xx_hal_uart.c **** #if defined(USART_PRESC_PRESCALER)
2849:D:/iot/felix2/targets/Cloud_STM32L431_BearPi/Drivers/STM32L4xx_HAL_Driver/Src\stm32l4xx_hal_uart.c ****   /*-------------------------- USART PRESC Configuration -----------------------*/
2850:D:/iot/felix2/targets/Cloud_STM32L431_BearPi/Drivers/STM32L4xx_HAL_Driver/Src\stm32l4xx_hal_uart.c ****   /* Configure
2851:D:/iot/felix2/targets/Cloud_STM32L431_BearPi/Drivers/STM32L4xx_HAL_Driver/Src\stm32l4xx_hal_uart.c ****   * - UART Clock Prescaler : set PRESCALER according to huart->Init.ClockPrescaler value */
2852:D:/iot/felix2/targets/Cloud_STM32L431_BearPi/Drivers/STM32L4xx_HAL_Driver/Src\stm32l4xx_hal_uart.c ****   MODIFY_REG(huart->Instance->PRESC, USART_PRESC_PRESCALER, huart->Init.ClockPrescaler);
2853:D:/iot/felix2/targets/Cloud_STM32L431_BearPi/Drivers/STM32L4xx_HAL_Driver/Src\stm32l4xx_hal_uart.c **** #endif
2854:D:/iot/felix2/targets/Cloud_STM32L431_BearPi/Drivers/STM32L4xx_HAL_Driver/Src\stm32l4xx_hal_uart.c **** 
2855:D:/iot/felix2/targets/Cloud_STM32L431_BearPi/Drivers/STM32L4xx_HAL_Driver/Src\stm32l4xx_hal_uart.c ****   /*-------------------------- USART BRR Configuration -----------------------*/
2856:D:/iot/felix2/targets/Cloud_STM32L431_BearPi/Drivers/STM32L4xx_HAL_Driver/Src\stm32l4xx_hal_uart.c ****   UART_GETCLOCKSOURCE(huart, clocksource);
 4548              		.loc 1 2856 0
 4549 0092 7B68     		ldr	r3, [r7, #4]
 4550 0094 1B68     		ldr	r3, [r3]
 4551 0096 9B4A     		ldr	r2, .L297+8
 4552 0098 9342     		cmp	r3, r2
 4553 009a 21D1     		bne	.L224
 4554              		.loc 1 2856 0 is_stmt 0 discriminator 1
 4555 009c 9A4B     		ldr	r3, .L297+12
 4556 009e D3F88830 		ldr	r3, [r3, #136]
 4557 00a2 03F00303 		and	r3, r3, #3
 4558 00a6 032B     		cmp	r3, #3
 4559 00a8 16D8     		bhi	.L225
 4560 00aa 01A2     		adr	r2, .L227
 4561 00ac 52F823F0 		ldr	pc, [r2, r3, lsl #2]
ARM GAS  C:\Users\91458\AppData\Local\Temp\ccrpKNIe.s 			page 130


 4562              		.p2align 2
 4563              	.L227:
 4564 00b0 C1000000 		.word	.L226+1
 4565 00b4 CD000000 		.word	.L228+1
 4566 00b8 C7000000 		.word	.L229+1
 4567 00bc D3000000 		.word	.L230+1
 4568              		.p2align 1
 4569              	.L226:
 4570              		.loc 1 2856 0 discriminator 4
 4571 00c0 0123     		movs	r3, #1
 4572 00c2 FB76     		strb	r3, [r7, #27]
 4573 00c4 96E0     		b	.L232
 4574              	.L229:
 4575              		.loc 1 2856 0 discriminator 6
 4576 00c6 0223     		movs	r3, #2
 4577 00c8 FB76     		strb	r3, [r7, #27]
 4578 00ca 93E0     		b	.L232
 4579              	.L228:
 4580              		.loc 1 2856 0 discriminator 5
 4581 00cc 0423     		movs	r3, #4
 4582 00ce FB76     		strb	r3, [r7, #27]
 4583 00d0 90E0     		b	.L232
 4584              	.L230:
 4585              		.loc 1 2856 0 discriminator 7
 4586 00d2 0823     		movs	r3, #8
 4587 00d4 FB76     		strb	r3, [r7, #27]
 4588 00d6 8DE0     		b	.L232
 4589              	.L225:
 4590              		.loc 1 2856 0 discriminator 3
 4591 00d8 1023     		movs	r3, #16
 4592 00da FB76     		strb	r3, [r7, #27]
 4593 00dc 00BF     		nop
 4594 00de 89E0     		b	.L232
 4595              	.L224:
 4596              		.loc 1 2856 0 discriminator 2
 4597 00e0 7B68     		ldr	r3, [r7, #4]
 4598 00e2 1B68     		ldr	r3, [r3]
 4599 00e4 894A     		ldr	r2, .L297+16
 4600 00e6 9342     		cmp	r3, r2
 4601 00e8 34D1     		bne	.L233
 4602              		.loc 1 2856 0 discriminator 13
 4603 00ea 874B     		ldr	r3, .L297+12
 4604 00ec D3F88830 		ldr	r3, [r3, #136]
 4605 00f0 03F00C03 		and	r3, r3, #12
 4606 00f4 0C2B     		cmp	r3, #12
 4607 00f6 29D8     		bhi	.L234
 4608 00f8 01A2     		adr	r2, .L236
 4609 00fa 52F823F0 		ldr	pc, [r2, r3, lsl #2]
 4610 00fe 00BF     		.p2align 2
 4611              	.L236:
 4612 0100 35010000 		.word	.L235+1
 4613 0104 4D010000 		.word	.L234+1
 4614 0108 4D010000 		.word	.L234+1
 4615 010c 4D010000 		.word	.L234+1
 4616 0110 41010000 		.word	.L237+1
 4617 0114 4D010000 		.word	.L234+1
 4618 0118 4D010000 		.word	.L234+1
ARM GAS  C:\Users\91458\AppData\Local\Temp\ccrpKNIe.s 			page 131


 4619 011c 4D010000 		.word	.L234+1
 4620 0120 3B010000 		.word	.L238+1
 4621 0124 4D010000 		.word	.L234+1
 4622 0128 4D010000 		.word	.L234+1
 4623 012c 4D010000 		.word	.L234+1
 4624 0130 47010000 		.word	.L239+1
 4625              		.p2align 1
 4626              	.L235:
 4627              		.loc 1 2856 0 discriminator 16
 4628 0134 0023     		movs	r3, #0
 4629 0136 FB76     		strb	r3, [r7, #27]
 4630 0138 5CE0     		b	.L232
 4631              	.L238:
 4632              		.loc 1 2856 0 discriminator 18
 4633 013a 0223     		movs	r3, #2
 4634 013c FB76     		strb	r3, [r7, #27]
 4635 013e 59E0     		b	.L232
 4636              	.L237:
 4637              		.loc 1 2856 0 discriminator 17
 4638 0140 0423     		movs	r3, #4
 4639 0142 FB76     		strb	r3, [r7, #27]
 4640 0144 56E0     		b	.L232
 4641              	.L239:
 4642              		.loc 1 2856 0 discriminator 19
 4643 0146 0823     		movs	r3, #8
 4644 0148 FB76     		strb	r3, [r7, #27]
 4645 014a 53E0     		b	.L232
 4646              	.L234:
 4647              		.loc 1 2856 0 discriminator 15
 4648 014c 1023     		movs	r3, #16
 4649 014e FB76     		strb	r3, [r7, #27]
 4650 0150 00BF     		nop
 4651 0152 4FE0     		b	.L232
 4652              	.L233:
 4653              		.loc 1 2856 0 discriminator 14
 4654 0154 7B68     		ldr	r3, [r7, #4]
 4655 0156 1B68     		ldr	r3, [r3]
 4656 0158 6D4A     		ldr	r2, .L297+20
 4657 015a 9342     		cmp	r3, r2
 4658 015c 20D1     		bne	.L241
 4659              		.loc 1 2856 0 discriminator 25
 4660 015e 6A4B     		ldr	r3, .L297+12
 4661 0160 D3F88830 		ldr	r3, [r3, #136]
 4662 0164 03F03003 		and	r3, r3, #48
 4663 0168 102B     		cmp	r3, #16
 4664 016a 0FD0     		beq	.L243
 4665 016c 102B     		cmp	r3, #16
 4666 016e 02D8     		bhi	.L244
 4667 0170 002B     		cmp	r3, #0
 4668 0172 05D0     		beq	.L245
 4669              		.loc 1 2856 0
 4670 0174 10E0     		b	.L242
 4671              	.L244:
 4672              		.loc 1 2856 0 discriminator 25
 4673 0176 202B     		cmp	r3, #32
 4674 0178 05D0     		beq	.L246
 4675 017a 302B     		cmp	r3, #48
ARM GAS  C:\Users\91458\AppData\Local\Temp\ccrpKNIe.s 			page 132


 4676 017c 09D0     		beq	.L247
 4677              		.loc 1 2856 0
 4678 017e 0BE0     		b	.L242
 4679              	.L245:
 4680              		.loc 1 2856 0 discriminator 28
 4681 0180 0023     		movs	r3, #0
 4682 0182 FB76     		strb	r3, [r7, #27]
 4683 0184 36E0     		b	.L232
 4684              	.L246:
 4685              		.loc 1 2856 0 discriminator 30
 4686 0186 0223     		movs	r3, #2
 4687 0188 FB76     		strb	r3, [r7, #27]
 4688 018a 33E0     		b	.L232
 4689              	.L243:
 4690              		.loc 1 2856 0 discriminator 29
 4691 018c 0423     		movs	r3, #4
 4692 018e FB76     		strb	r3, [r7, #27]
 4693 0190 30E0     		b	.L232
 4694              	.L247:
 4695              		.loc 1 2856 0 discriminator 31
 4696 0192 0823     		movs	r3, #8
 4697 0194 FB76     		strb	r3, [r7, #27]
 4698 0196 2DE0     		b	.L232
 4699              	.L242:
 4700              		.loc 1 2856 0 discriminator 27
 4701 0198 1023     		movs	r3, #16
 4702 019a FB76     		strb	r3, [r7, #27]
 4703 019c 00BF     		nop
 4704 019e 29E0     		b	.L232
 4705              	.L241:
 4706              		.loc 1 2856 0 discriminator 26
 4707 01a0 7B68     		ldr	r3, [r7, #4]
 4708 01a2 1B68     		ldr	r3, [r3]
 4709 01a4 564A     		ldr	r2, .L297+4
 4710 01a6 9342     		cmp	r3, r2
 4711 01a8 23D1     		bne	.L296
 4712              		.loc 1 2856 0 discriminator 37
 4713 01aa 574B     		ldr	r3, .L297+12
 4714 01ac D3F88830 		ldr	r3, [r3, #136]
 4715 01b0 03F44063 		and	r3, r3, #3072
 4716 01b4 B3F5806F 		cmp	r3, #1024
 4717 01b8 12D0     		beq	.L250
 4718 01ba B3F5806F 		cmp	r3, #1024
 4719 01be 02D8     		bhi	.L251
 4720 01c0 002B     		cmp	r3, #0
 4721 01c2 07D0     		beq	.L252
 4722              		.loc 1 2856 0
 4723 01c4 12E0     		b	.L249
 4724              	.L251:
 4725              		.loc 1 2856 0 discriminator 37
 4726 01c6 B3F5006F 		cmp	r3, #2048
 4727 01ca 06D0     		beq	.L253
 4728 01cc B3F5406F 		cmp	r3, #3072
 4729 01d0 09D0     		beq	.L254
 4730              		.loc 1 2856 0
 4731 01d2 0BE0     		b	.L249
 4732              	.L252:
ARM GAS  C:\Users\91458\AppData\Local\Temp\ccrpKNIe.s 			page 133


 4733              		.loc 1 2856 0 discriminator 39
 4734 01d4 0023     		movs	r3, #0
 4735 01d6 FB76     		strb	r3, [r7, #27]
 4736 01d8 0CE0     		b	.L232
 4737              	.L253:
 4738              		.loc 1 2856 0 discriminator 41
 4739 01da 0223     		movs	r3, #2
 4740 01dc FB76     		strb	r3, [r7, #27]
 4741 01de 09E0     		b	.L232
 4742              	.L250:
 4743              		.loc 1 2856 0 discriminator 40
 4744 01e0 0423     		movs	r3, #4
 4745 01e2 FB76     		strb	r3, [r7, #27]
 4746 01e4 06E0     		b	.L232
 4747              	.L254:
 4748              		.loc 1 2856 0 discriminator 42
 4749 01e6 0823     		movs	r3, #8
 4750 01e8 FB76     		strb	r3, [r7, #27]
 4751 01ea 03E0     		b	.L232
 4752              	.L249:
 4753              		.loc 1 2856 0 discriminator 38
 4754 01ec 1023     		movs	r3, #16
 4755 01ee FB76     		strb	r3, [r7, #27]
 4756 01f0 00E0     		b	.L232
 4757              	.L296:
 4758              		.loc 1 2856 0
 4759 01f2 00BF     		nop
 4760              	.L232:
2857:D:/iot/felix2/targets/Cloud_STM32L431_BearPi/Drivers/STM32L4xx_HAL_Driver/Src\stm32l4xx_hal_uart.c **** 
2858:D:/iot/felix2/targets/Cloud_STM32L431_BearPi/Drivers/STM32L4xx_HAL_Driver/Src\stm32l4xx_hal_uart.c ****   /* Check LPUART instance */
2859:D:/iot/felix2/targets/Cloud_STM32L431_BearPi/Drivers/STM32L4xx_HAL_Driver/Src\stm32l4xx_hal_uart.c ****   if (UART_INSTANCE_LOWPOWER(huart))
 4761              		.loc 1 2859 0 is_stmt 1
 4762 01f4 7B68     		ldr	r3, [r7, #4]
 4763 01f6 1B68     		ldr	r3, [r3]
 4764 01f8 414A     		ldr	r2, .L297+4
 4765 01fa 9342     		cmp	r3, r2
 4766 01fc 40F0F480 		bne	.L255
2860:D:/iot/felix2/targets/Cloud_STM32L431_BearPi/Drivers/STM32L4xx_HAL_Driver/Src\stm32l4xx_hal_uart.c ****   {
2861:D:/iot/felix2/targets/Cloud_STM32L431_BearPi/Drivers/STM32L4xx_HAL_Driver/Src\stm32l4xx_hal_uart.c ****     /* Retrieve frequency clock */
2862:D:/iot/felix2/targets/Cloud_STM32L431_BearPi/Drivers/STM32L4xx_HAL_Driver/Src\stm32l4xx_hal_uart.c ****     switch (clocksource)
 4767              		.loc 1 2862 0
 4768 0200 FB7E     		ldrb	r3, [r7, #27]	@ zero_extendqisi2
 4769 0202 082B     		cmp	r3, #8
 4770 0204 23D8     		bhi	.L256
 4771 0206 01A2     		adr	r2, .L258
 4772 0208 52F823F0 		ldr	pc, [r2, r3, lsl #2]
 4773              		.p2align 2
 4774              	.L258:
 4775 020c 31020000 		.word	.L257+1
 4776 0210 4F020000 		.word	.L256+1
 4777 0214 39020000 		.word	.L259+1
 4778 0218 4F020000 		.word	.L256+1
 4779 021c 3F020000 		.word	.L260+1
 4780 0220 4F020000 		.word	.L256+1
 4781 0224 4F020000 		.word	.L256+1
 4782 0228 4F020000 		.word	.L256+1
 4783 022c 47020000 		.word	.L261+1
ARM GAS  C:\Users\91458\AppData\Local\Temp\ccrpKNIe.s 			page 134


 4784              		.p2align 1
 4785              	.L257:
2863:D:/iot/felix2/targets/Cloud_STM32L431_BearPi/Drivers/STM32L4xx_HAL_Driver/Src\stm32l4xx_hal_uart.c ****     {
2864:D:/iot/felix2/targets/Cloud_STM32L431_BearPi/Drivers/STM32L4xx_HAL_Driver/Src\stm32l4xx_hal_uart.c ****       case UART_CLOCKSOURCE_PCLK1:
2865:D:/iot/felix2/targets/Cloud_STM32L431_BearPi/Drivers/STM32L4xx_HAL_Driver/Src\stm32l4xx_hal_uart.c **** #if defined(USART_PRESC_PRESCALER)
2866:D:/iot/felix2/targets/Cloud_STM32L431_BearPi/Drivers/STM32L4xx_HAL_Driver/Src\stm32l4xx_hal_uart.c ****         lpuart_ker_ck_pres = (HAL_RCC_GetPCLK1Freq() / UART_GET_DIV_FACTOR(huart->Init.ClockPrescal
2867:D:/iot/felix2/targets/Cloud_STM32L431_BearPi/Drivers/STM32L4xx_HAL_Driver/Src\stm32l4xx_hal_uart.c **** #else
2868:D:/iot/felix2/targets/Cloud_STM32L431_BearPi/Drivers/STM32L4xx_HAL_Driver/Src\stm32l4xx_hal_uart.c ****         lpuart_ker_ck_pres = HAL_RCC_GetPCLK1Freq();
 4786              		.loc 1 2868 0
 4787 0230 FFF7FEFF 		bl	HAL_RCC_GetPCLK1Freq
 4788 0234 F860     		str	r0, [r7, #12]
2869:D:/iot/felix2/targets/Cloud_STM32L431_BearPi/Drivers/STM32L4xx_HAL_Driver/Src\stm32l4xx_hal_uart.c **** #endif
2870:D:/iot/felix2/targets/Cloud_STM32L431_BearPi/Drivers/STM32L4xx_HAL_Driver/Src\stm32l4xx_hal_uart.c ****         break;
 4789              		.loc 1 2870 0
 4790 0236 0DE0     		b	.L262
 4791              	.L259:
2871:D:/iot/felix2/targets/Cloud_STM32L431_BearPi/Drivers/STM32L4xx_HAL_Driver/Src\stm32l4xx_hal_uart.c ****       case UART_CLOCKSOURCE_HSI:
2872:D:/iot/felix2/targets/Cloud_STM32L431_BearPi/Drivers/STM32L4xx_HAL_Driver/Src\stm32l4xx_hal_uart.c **** #if defined(USART_PRESC_PRESCALER)
2873:D:/iot/felix2/targets/Cloud_STM32L431_BearPi/Drivers/STM32L4xx_HAL_Driver/Src\stm32l4xx_hal_uart.c ****         lpuart_ker_ck_pres = ((uint32_t)HSI_VALUE / UART_GET_DIV_FACTOR(huart->Init.ClockPrescaler)
2874:D:/iot/felix2/targets/Cloud_STM32L431_BearPi/Drivers/STM32L4xx_HAL_Driver/Src\stm32l4xx_hal_uart.c **** #else
2875:D:/iot/felix2/targets/Cloud_STM32L431_BearPi/Drivers/STM32L4xx_HAL_Driver/Src\stm32l4xx_hal_uart.c ****         lpuart_ker_ck_pres = (uint32_t)HSI_VALUE;
 4792              		.loc 1 2875 0
 4793 0238 364B     		ldr	r3, .L297+24
 4794 023a FB60     		str	r3, [r7, #12]
2876:D:/iot/felix2/targets/Cloud_STM32L431_BearPi/Drivers/STM32L4xx_HAL_Driver/Src\stm32l4xx_hal_uart.c **** #endif
2877:D:/iot/felix2/targets/Cloud_STM32L431_BearPi/Drivers/STM32L4xx_HAL_Driver/Src\stm32l4xx_hal_uart.c ****         break;
 4795              		.loc 1 2877 0
 4796 023c 0AE0     		b	.L262
 4797              	.L260:
2878:D:/iot/felix2/targets/Cloud_STM32L431_BearPi/Drivers/STM32L4xx_HAL_Driver/Src\stm32l4xx_hal_uart.c ****       case UART_CLOCKSOURCE_SYSCLK:
2879:D:/iot/felix2/targets/Cloud_STM32L431_BearPi/Drivers/STM32L4xx_HAL_Driver/Src\stm32l4xx_hal_uart.c **** #if defined(USART_PRESC_PRESCALER)
2880:D:/iot/felix2/targets/Cloud_STM32L431_BearPi/Drivers/STM32L4xx_HAL_Driver/Src\stm32l4xx_hal_uart.c ****         lpuart_ker_ck_pres = (HAL_RCC_GetSysClockFreq() / UART_GET_DIV_FACTOR(huart->Init.ClockPres
2881:D:/iot/felix2/targets/Cloud_STM32L431_BearPi/Drivers/STM32L4xx_HAL_Driver/Src\stm32l4xx_hal_uart.c **** #else
2882:D:/iot/felix2/targets/Cloud_STM32L431_BearPi/Drivers/STM32L4xx_HAL_Driver/Src\stm32l4xx_hal_uart.c ****         lpuart_ker_ck_pres = HAL_RCC_GetSysClockFreq();
 4798              		.loc 1 2882 0
 4799 023e FFF7FEFF 		bl	HAL_RCC_GetSysClockFreq
 4800 0242 F860     		str	r0, [r7, #12]
2883:D:/iot/felix2/targets/Cloud_STM32L431_BearPi/Drivers/STM32L4xx_HAL_Driver/Src\stm32l4xx_hal_uart.c **** #endif
2884:D:/iot/felix2/targets/Cloud_STM32L431_BearPi/Drivers/STM32L4xx_HAL_Driver/Src\stm32l4xx_hal_uart.c ****         break;
 4801              		.loc 1 2884 0
 4802 0244 06E0     		b	.L262
 4803              	.L261:
2885:D:/iot/felix2/targets/Cloud_STM32L431_BearPi/Drivers/STM32L4xx_HAL_Driver/Src\stm32l4xx_hal_uart.c ****       case UART_CLOCKSOURCE_LSE:
2886:D:/iot/felix2/targets/Cloud_STM32L431_BearPi/Drivers/STM32L4xx_HAL_Driver/Src\stm32l4xx_hal_uart.c **** #if defined(USART_PRESC_PRESCALER)
2887:D:/iot/felix2/targets/Cloud_STM32L431_BearPi/Drivers/STM32L4xx_HAL_Driver/Src\stm32l4xx_hal_uart.c ****         lpuart_ker_ck_pres = ((uint32_t)LSE_VALUE / UART_GET_DIV_FACTOR(huart->Init.ClockPrescaler)
2888:D:/iot/felix2/targets/Cloud_STM32L431_BearPi/Drivers/STM32L4xx_HAL_Driver/Src\stm32l4xx_hal_uart.c **** #else
2889:D:/iot/felix2/targets/Cloud_STM32L431_BearPi/Drivers/STM32L4xx_HAL_Driver/Src\stm32l4xx_hal_uart.c ****         lpuart_ker_ck_pres = (uint32_t)LSE_VALUE;
 4804              		.loc 1 2889 0
 4805 0246 4FF40043 		mov	r3, #32768
 4806 024a FB60     		str	r3, [r7, #12]
2890:D:/iot/felix2/targets/Cloud_STM32L431_BearPi/Drivers/STM32L4xx_HAL_Driver/Src\stm32l4xx_hal_uart.c **** #endif
2891:D:/iot/felix2/targets/Cloud_STM32L431_BearPi/Drivers/STM32L4xx_HAL_Driver/Src\stm32l4xx_hal_uart.c ****         break;
 4807              		.loc 1 2891 0
 4808 024c 02E0     		b	.L262
 4809              	.L256:
2892:D:/iot/felix2/targets/Cloud_STM32L431_BearPi/Drivers/STM32L4xx_HAL_Driver/Src\stm32l4xx_hal_uart.c ****       case UART_CLOCKSOURCE_UNDEFINED:
2893:D:/iot/felix2/targets/Cloud_STM32L431_BearPi/Drivers/STM32L4xx_HAL_Driver/Src\stm32l4xx_hal_uart.c ****       default:
ARM GAS  C:\Users\91458\AppData\Local\Temp\ccrpKNIe.s 			page 135


2894:D:/iot/felix2/targets/Cloud_STM32L431_BearPi/Drivers/STM32L4xx_HAL_Driver/Src\stm32l4xx_hal_uart.c ****         ret = HAL_ERROR;
 4810              		.loc 1 2894 0
 4811 024e 0123     		movs	r3, #1
 4812 0250 FB74     		strb	r3, [r7, #19]
2895:D:/iot/felix2/targets/Cloud_STM32L431_BearPi/Drivers/STM32L4xx_HAL_Driver/Src\stm32l4xx_hal_uart.c ****         break;
 4813              		.loc 1 2895 0
 4814 0252 00BF     		nop
 4815              	.L262:
2896:D:/iot/felix2/targets/Cloud_STM32L431_BearPi/Drivers/STM32L4xx_HAL_Driver/Src\stm32l4xx_hal_uart.c ****     }
2897:D:/iot/felix2/targets/Cloud_STM32L431_BearPi/Drivers/STM32L4xx_HAL_Driver/Src\stm32l4xx_hal_uart.c **** 
2898:D:/iot/felix2/targets/Cloud_STM32L431_BearPi/Drivers/STM32L4xx_HAL_Driver/Src\stm32l4xx_hal_uart.c ****     /* if proper clock source reported */
2899:D:/iot/felix2/targets/Cloud_STM32L431_BearPi/Drivers/STM32L4xx_HAL_Driver/Src\stm32l4xx_hal_uart.c ****     if (lpuart_ker_ck_pres != 0U)
 4816              		.loc 1 2899 0
 4817 0254 FB68     		ldr	r3, [r7, #12]
 4818 0256 002B     		cmp	r3, #0
 4819 0258 00F0B981 		beq	.L274
2900:D:/iot/felix2/targets/Cloud_STM32L431_BearPi/Drivers/STM32L4xx_HAL_Driver/Src\stm32l4xx_hal_uart.c ****     {
2901:D:/iot/felix2/targets/Cloud_STM32L431_BearPi/Drivers/STM32L4xx_HAL_Driver/Src\stm32l4xx_hal_uart.c ****       /* ensure that Frequency clock is in the range [3 * baudrate, 4096 * baudrate] */
2902:D:/iot/felix2/targets/Cloud_STM32L431_BearPi/Drivers/STM32L4xx_HAL_Driver/Src\stm32l4xx_hal_uart.c ****       if ((lpuart_ker_ck_pres < (3 * huart->Init.BaudRate)) ||
 4820              		.loc 1 2902 0
 4821 025c 7B68     		ldr	r3, [r7, #4]
 4822 025e 5A68     		ldr	r2, [r3, #4]
 4823 0260 1346     		mov	r3, r2
 4824 0262 5B00     		lsls	r3, r3, #1
 4825 0264 1344     		add	r3, r3, r2
 4826 0266 FA68     		ldr	r2, [r7, #12]
 4827 0268 9A42     		cmp	r2, r3
 4828 026a 05D3     		bcc	.L264
2903:D:/iot/felix2/targets/Cloud_STM32L431_BearPi/Drivers/STM32L4xx_HAL_Driver/Src\stm32l4xx_hal_uart.c ****           (lpuart_ker_ck_pres > (4096 * huart->Init.BaudRate)))
 4829              		.loc 1 2903 0 discriminator 1
 4830 026c 7B68     		ldr	r3, [r7, #4]
 4831 026e 5B68     		ldr	r3, [r3, #4]
 4832 0270 1B03     		lsls	r3, r3, #12
2902:D:/iot/felix2/targets/Cloud_STM32L431_BearPi/Drivers/STM32L4xx_HAL_Driver/Src\stm32l4xx_hal_uart.c ****           (lpuart_ker_ck_pres > (4096 * huart->Init.BaudRate)))
 4833              		.loc 1 2902 0 discriminator 1
 4834 0272 FA68     		ldr	r2, [r7, #12]
 4835 0274 9A42     		cmp	r2, r3
 4836 0276 02D9     		bls	.L265
 4837              	.L264:
2904:D:/iot/felix2/targets/Cloud_STM32L431_BearPi/Drivers/STM32L4xx_HAL_Driver/Src\stm32l4xx_hal_uart.c ****       {
2905:D:/iot/felix2/targets/Cloud_STM32L431_BearPi/Drivers/STM32L4xx_HAL_Driver/Src\stm32l4xx_hal_uart.c ****         ret = HAL_ERROR;
 4838              		.loc 1 2905 0
 4839 0278 0123     		movs	r3, #1
 4840 027a FB74     		strb	r3, [r7, #19]
 4841 027c A7E1     		b	.L274
 4842              	.L265:
2906:D:/iot/felix2/targets/Cloud_STM32L431_BearPi/Drivers/STM32L4xx_HAL_Driver/Src\stm32l4xx_hal_uart.c ****       }
2907:D:/iot/felix2/targets/Cloud_STM32L431_BearPi/Drivers/STM32L4xx_HAL_Driver/Src\stm32l4xx_hal_uart.c ****       else
2908:D:/iot/felix2/targets/Cloud_STM32L431_BearPi/Drivers/STM32L4xx_HAL_Driver/Src\stm32l4xx_hal_uart.c ****       {
2909:D:/iot/felix2/targets/Cloud_STM32L431_BearPi/Drivers/STM32L4xx_HAL_Driver/Src\stm32l4xx_hal_uart.c ****         switch (clocksource)
 4843              		.loc 1 2909 0
 4844 027e FB7E     		ldrb	r3, [r7, #27]	@ zero_extendqisi2
 4845 0280 082B     		cmp	r3, #8
 4846 0282 00F29E80 		bhi	.L266
 4847 0286 01A2     		adr	r2, .L268
 4848 0288 52F823F0 		ldr	pc, [r2, r3, lsl #2]
 4849              		.p2align 2
ARM GAS  C:\Users\91458\AppData\Local\Temp\ccrpKNIe.s 			page 136


 4850              	.L268:
 4851 028c B1020000 		.word	.L267+1
 4852 0290 C3030000 		.word	.L266+1
 4853 0294 19030000 		.word	.L269+1
 4854 0298 C3030000 		.word	.L266+1
 4855 029c 4D030000 		.word	.L270+1
 4856 02a0 C3030000 		.word	.L266+1
 4857 02a4 C3030000 		.word	.L266+1
 4858 02a8 C3030000 		.word	.L266+1
 4859 02ac 99030000 		.word	.L271+1
 4860              		.p2align 1
 4861              	.L267:
2910:D:/iot/felix2/targets/Cloud_STM32L431_BearPi/Drivers/STM32L4xx_HAL_Driver/Src\stm32l4xx_hal_uart.c ****         {
2911:D:/iot/felix2/targets/Cloud_STM32L431_BearPi/Drivers/STM32L4xx_HAL_Driver/Src\stm32l4xx_hal_uart.c ****           case UART_CLOCKSOURCE_PCLK1:
2912:D:/iot/felix2/targets/Cloud_STM32L431_BearPi/Drivers/STM32L4xx_HAL_Driver/Src\stm32l4xx_hal_uart.c **** #if defined(USART_PRESC_PRESCALER)
2913:D:/iot/felix2/targets/Cloud_STM32L431_BearPi/Drivers/STM32L4xx_HAL_Driver/Src\stm32l4xx_hal_uart.c ****             usartdiv = (uint32_t)(UART_DIV_LPUART(HAL_RCC_GetPCLK1Freq(), huart->Init.BaudRate, hua
2914:D:/iot/felix2/targets/Cloud_STM32L431_BearPi/Drivers/STM32L4xx_HAL_Driver/Src\stm32l4xx_hal_uart.c **** #else
2915:D:/iot/felix2/targets/Cloud_STM32L431_BearPi/Drivers/STM32L4xx_HAL_Driver/Src\stm32l4xx_hal_uart.c ****             usartdiv = (uint32_t)(UART_DIV_LPUART(HAL_RCC_GetPCLK1Freq(), huart->Init.BaudRate));
 4862              		.loc 1 2915 0
 4863 02b0 FFF7FEFF 		bl	HAL_RCC_GetPCLK1Freq
 4864 02b4 0346     		mov	r3, r0
 4865 02b6 1946     		mov	r1, r3
 4866 02b8 4FF00002 		mov	r2, #0
 4867 02bc 4FF00003 		mov	r3, #0
 4868 02c0 4FF00004 		mov	r4, #0
 4869 02c4 1402     		lsls	r4, r2, #8
 4870 02c6 44EA1164 		orr	r4, r4, r1, lsr #24
 4871 02ca 0B02     		lsls	r3, r1, #8
 4872 02cc 7A68     		ldr	r2, [r7, #4]
 4873 02ce 5268     		ldr	r2, [r2, #4]
 4874 02d0 5208     		lsrs	r2, r2, #1
 4875 02d2 1146     		mov	r1, r2
 4876 02d4 4FF00002 		mov	r2, #0
 4877 02d8 13EB010B 		adds	fp, r3, r1
 4878 02dc 44EB020C 		adc	ip, r4, r2
 4879 02e0 5846     		mov	r0, fp
 4880 02e2 6146     		mov	r1, ip
 4881 02e4 7B68     		ldr	r3, [r7, #4]
 4882 02e6 5B68     		ldr	r3, [r3, #4]
 4883 02e8 4FF00004 		mov	r4, #0
 4884 02ec 1A46     		mov	r2, r3
 4885 02ee 2346     		mov	r3, r4
 4886 02f0 FFF7FEFF 		bl	__aeabi_uldivmod
 4887              	.LVL6:
 4888 02f4 0346     		mov	r3, r0
 4889 02f6 0C46     		mov	r4, r1
 4890 02f8 7B61     		str	r3, [r7, #20]
2916:D:/iot/felix2/targets/Cloud_STM32L431_BearPi/Drivers/STM32L4xx_HAL_Driver/Src\stm32l4xx_hal_uart.c **** #endif
2917:D:/iot/felix2/targets/Cloud_STM32L431_BearPi/Drivers/STM32L4xx_HAL_Driver/Src\stm32l4xx_hal_uart.c ****             break;
 4891              		.loc 1 2917 0
 4892 02fa 65E0     		b	.L272
 4893              	.L298:
 4894              		.align	2
 4895              	.L297:
 4896 02fc F369FFEF 		.word	-268473869
 4897 0300 00800040 		.word	1073774592
 4898 0304 00380140 		.word	1073821696
ARM GAS  C:\Users\91458\AppData\Local\Temp\ccrpKNIe.s 			page 137


 4899 0308 00100240 		.word	1073876992
 4900 030c 00440040 		.word	1073759232
 4901 0310 00480040 		.word	1073760256
 4902 0314 0024F400 		.word	16000000
 4903              	.L269:
2918:D:/iot/felix2/targets/Cloud_STM32L431_BearPi/Drivers/STM32L4xx_HAL_Driver/Src\stm32l4xx_hal_uart.c ****           case UART_CLOCKSOURCE_HSI:
2919:D:/iot/felix2/targets/Cloud_STM32L431_BearPi/Drivers/STM32L4xx_HAL_Driver/Src\stm32l4xx_hal_uart.c **** #if defined(USART_PRESC_PRESCALER)
2920:D:/iot/felix2/targets/Cloud_STM32L431_BearPi/Drivers/STM32L4xx_HAL_Driver/Src\stm32l4xx_hal_uart.c ****             usartdiv = (uint32_t)(UART_DIV_LPUART(HSI_VALUE, huart->Init.BaudRate, huart->Init.Cloc
2921:D:/iot/felix2/targets/Cloud_STM32L431_BearPi/Drivers/STM32L4xx_HAL_Driver/Src\stm32l4xx_hal_uart.c **** #else
2922:D:/iot/felix2/targets/Cloud_STM32L431_BearPi/Drivers/STM32L4xx_HAL_Driver/Src\stm32l4xx_hal_uart.c ****             usartdiv = (uint32_t)(UART_DIV_LPUART(HSI_VALUE, huart->Init.BaudRate));
 4904              		.loc 1 2922 0
 4905 0318 7B68     		ldr	r3, [r7, #4]
 4906 031a 5B68     		ldr	r3, [r3, #4]
 4907 031c 5B08     		lsrs	r3, r3, #1
 4908 031e 4FF00004 		mov	r4, #0
 4909 0322 B149     		ldr	r1, .L299
 4910 0324 4FF00002 		mov	r2, #0
 4911 0328 13EB010B 		adds	fp, r3, r1
 4912 032c 44EB020C 		adc	ip, r4, r2
 4913 0330 5846     		mov	r0, fp
 4914 0332 6146     		mov	r1, ip
 4915 0334 7B68     		ldr	r3, [r7, #4]
 4916 0336 5B68     		ldr	r3, [r3, #4]
 4917 0338 4FF00004 		mov	r4, #0
 4918 033c 1A46     		mov	r2, r3
 4919 033e 2346     		mov	r3, r4
 4920 0340 FFF7FEFF 		bl	__aeabi_uldivmod
 4921              	.LVL7:
 4922 0344 0346     		mov	r3, r0
 4923 0346 0C46     		mov	r4, r1
 4924 0348 7B61     		str	r3, [r7, #20]
2923:D:/iot/felix2/targets/Cloud_STM32L431_BearPi/Drivers/STM32L4xx_HAL_Driver/Src\stm32l4xx_hal_uart.c **** #endif
2924:D:/iot/felix2/targets/Cloud_STM32L431_BearPi/Drivers/STM32L4xx_HAL_Driver/Src\stm32l4xx_hal_uart.c ****             break;
 4925              		.loc 1 2924 0
 4926 034a 3DE0     		b	.L272
 4927              	.L270:
2925:D:/iot/felix2/targets/Cloud_STM32L431_BearPi/Drivers/STM32L4xx_HAL_Driver/Src\stm32l4xx_hal_uart.c ****           case UART_CLOCKSOURCE_SYSCLK:
2926:D:/iot/felix2/targets/Cloud_STM32L431_BearPi/Drivers/STM32L4xx_HAL_Driver/Src\stm32l4xx_hal_uart.c **** #if defined(USART_PRESC_PRESCALER)
2927:D:/iot/felix2/targets/Cloud_STM32L431_BearPi/Drivers/STM32L4xx_HAL_Driver/Src\stm32l4xx_hal_uart.c ****             usartdiv = (uint32_t)(UART_DIV_LPUART(HAL_RCC_GetSysClockFreq(), huart->Init.BaudRate, 
2928:D:/iot/felix2/targets/Cloud_STM32L431_BearPi/Drivers/STM32L4xx_HAL_Driver/Src\stm32l4xx_hal_uart.c **** #else
2929:D:/iot/felix2/targets/Cloud_STM32L431_BearPi/Drivers/STM32L4xx_HAL_Driver/Src\stm32l4xx_hal_uart.c ****             usartdiv = (uint32_t)(UART_DIV_LPUART(HAL_RCC_GetSysClockFreq(), huart->Init.BaudRate))
 4928              		.loc 1 2929 0
 4929 034c FFF7FEFF 		bl	HAL_RCC_GetSysClockFreq
 4930 0350 0346     		mov	r3, r0
 4931 0352 1946     		mov	r1, r3
 4932 0354 4FF00002 		mov	r2, #0
 4933 0358 4FF00003 		mov	r3, #0
 4934 035c 4FF00004 		mov	r4, #0
 4935 0360 1402     		lsls	r4, r2, #8
 4936 0362 44EA1164 		orr	r4, r4, r1, lsr #24
 4937 0366 0B02     		lsls	r3, r1, #8
 4938 0368 7A68     		ldr	r2, [r7, #4]
 4939 036a 5268     		ldr	r2, [r2, #4]
 4940 036c 5208     		lsrs	r2, r2, #1
 4941 036e 1146     		mov	r1, r2
 4942 0370 4FF00002 		mov	r2, #0
 4943 0374 13EB010B 		adds	fp, r3, r1
ARM GAS  C:\Users\91458\AppData\Local\Temp\ccrpKNIe.s 			page 138


 4944 0378 44EB020C 		adc	ip, r4, r2
 4945 037c 5846     		mov	r0, fp
 4946 037e 6146     		mov	r1, ip
 4947 0380 7B68     		ldr	r3, [r7, #4]
 4948 0382 5B68     		ldr	r3, [r3, #4]
 4949 0384 4FF00004 		mov	r4, #0
 4950 0388 1A46     		mov	r2, r3
 4951 038a 2346     		mov	r3, r4
 4952 038c FFF7FEFF 		bl	__aeabi_uldivmod
 4953              	.LVL8:
 4954 0390 0346     		mov	r3, r0
 4955 0392 0C46     		mov	r4, r1
 4956 0394 7B61     		str	r3, [r7, #20]
2930:D:/iot/felix2/targets/Cloud_STM32L431_BearPi/Drivers/STM32L4xx_HAL_Driver/Src\stm32l4xx_hal_uart.c **** #endif
2931:D:/iot/felix2/targets/Cloud_STM32L431_BearPi/Drivers/STM32L4xx_HAL_Driver/Src\stm32l4xx_hal_uart.c ****             break;
 4957              		.loc 1 2931 0
 4958 0396 17E0     		b	.L272
 4959              	.L271:
2932:D:/iot/felix2/targets/Cloud_STM32L431_BearPi/Drivers/STM32L4xx_HAL_Driver/Src\stm32l4xx_hal_uart.c ****           case UART_CLOCKSOURCE_LSE:
2933:D:/iot/felix2/targets/Cloud_STM32L431_BearPi/Drivers/STM32L4xx_HAL_Driver/Src\stm32l4xx_hal_uart.c **** #if defined(USART_PRESC_PRESCALER)
2934:D:/iot/felix2/targets/Cloud_STM32L431_BearPi/Drivers/STM32L4xx_HAL_Driver/Src\stm32l4xx_hal_uart.c ****             usartdiv = (uint32_t)(UART_DIV_LPUART(LSE_VALUE, huart->Init.BaudRate, huart->Init.Cloc
2935:D:/iot/felix2/targets/Cloud_STM32L431_BearPi/Drivers/STM32L4xx_HAL_Driver/Src\stm32l4xx_hal_uart.c **** #else
2936:D:/iot/felix2/targets/Cloud_STM32L431_BearPi/Drivers/STM32L4xx_HAL_Driver/Src\stm32l4xx_hal_uart.c ****             usartdiv = (uint32_t)(UART_DIV_LPUART(LSE_VALUE, huart->Init.BaudRate));
 4960              		.loc 1 2936 0
 4961 0398 7B68     		ldr	r3, [r7, #4]
 4962 039a 5B68     		ldr	r3, [r3, #4]
 4963 039c 5B08     		lsrs	r3, r3, #1
 4964 039e 4FF00004 		mov	r4, #0
 4965 03a2 13F50000 		adds	r0, r3, #8388608
 4966 03a6 44F10001 		adc	r1, r4, #0
 4967 03aa 7B68     		ldr	r3, [r7, #4]
 4968 03ac 5B68     		ldr	r3, [r3, #4]
 4969 03ae 4FF00004 		mov	r4, #0
 4970 03b2 1A46     		mov	r2, r3
 4971 03b4 2346     		mov	r3, r4
 4972 03b6 FFF7FEFF 		bl	__aeabi_uldivmod
 4973              	.LVL9:
 4974 03ba 0346     		mov	r3, r0
 4975 03bc 0C46     		mov	r4, r1
 4976 03be 7B61     		str	r3, [r7, #20]
2937:D:/iot/felix2/targets/Cloud_STM32L431_BearPi/Drivers/STM32L4xx_HAL_Driver/Src\stm32l4xx_hal_uart.c **** #endif
2938:D:/iot/felix2/targets/Cloud_STM32L431_BearPi/Drivers/STM32L4xx_HAL_Driver/Src\stm32l4xx_hal_uart.c ****             break;
 4977              		.loc 1 2938 0
 4978 03c0 02E0     		b	.L272
 4979              	.L266:
2939:D:/iot/felix2/targets/Cloud_STM32L431_BearPi/Drivers/STM32L4xx_HAL_Driver/Src\stm32l4xx_hal_uart.c ****           case UART_CLOCKSOURCE_UNDEFINED:
2940:D:/iot/felix2/targets/Cloud_STM32L431_BearPi/Drivers/STM32L4xx_HAL_Driver/Src\stm32l4xx_hal_uart.c ****           default:
2941:D:/iot/felix2/targets/Cloud_STM32L431_BearPi/Drivers/STM32L4xx_HAL_Driver/Src\stm32l4xx_hal_uart.c ****             ret = HAL_ERROR;
 4980              		.loc 1 2941 0
 4981 03c2 0123     		movs	r3, #1
 4982 03c4 FB74     		strb	r3, [r7, #19]
2942:D:/iot/felix2/targets/Cloud_STM32L431_BearPi/Drivers/STM32L4xx_HAL_Driver/Src\stm32l4xx_hal_uart.c ****             break;
 4983              		.loc 1 2942 0
 4984 03c6 00BF     		nop
 4985              	.L272:
2943:D:/iot/felix2/targets/Cloud_STM32L431_BearPi/Drivers/STM32L4xx_HAL_Driver/Src\stm32l4xx_hal_uart.c ****         }
2944:D:/iot/felix2/targets/Cloud_STM32L431_BearPi/Drivers/STM32L4xx_HAL_Driver/Src\stm32l4xx_hal_uart.c **** 
ARM GAS  C:\Users\91458\AppData\Local\Temp\ccrpKNIe.s 			page 139


2945:D:/iot/felix2/targets/Cloud_STM32L431_BearPi/Drivers/STM32L4xx_HAL_Driver/Src\stm32l4xx_hal_uart.c ****         /* It is forbidden to write values lower than 0x300 in the LPUART_BRR register */
2946:D:/iot/felix2/targets/Cloud_STM32L431_BearPi/Drivers/STM32L4xx_HAL_Driver/Src\stm32l4xx_hal_uart.c ****         if ((usartdiv >= LPUART_BRR_MIN) && (usartdiv <= LPUART_BRR_MAX))
 4986              		.loc 1 2946 0
 4987 03c8 7B69     		ldr	r3, [r7, #20]
 4988 03ca B3F5407F 		cmp	r3, #768
 4989 03ce 08D3     		bcc	.L273
 4990              		.loc 1 2946 0 is_stmt 0 discriminator 1
 4991 03d0 7B69     		ldr	r3, [r7, #20]
 4992 03d2 B3F5801F 		cmp	r3, #1048576
 4993 03d6 04D2     		bcs	.L273
2947:D:/iot/felix2/targets/Cloud_STM32L431_BearPi/Drivers/STM32L4xx_HAL_Driver/Src\stm32l4xx_hal_uart.c ****         {
2948:D:/iot/felix2/targets/Cloud_STM32L431_BearPi/Drivers/STM32L4xx_HAL_Driver/Src\stm32l4xx_hal_uart.c ****           huart->Instance->BRR = usartdiv;
 4994              		.loc 1 2948 0 is_stmt 1
 4995 03d8 7B68     		ldr	r3, [r7, #4]
 4996 03da 1B68     		ldr	r3, [r3]
 4997 03dc 7A69     		ldr	r2, [r7, #20]
 4998 03de DA60     		str	r2, [r3, #12]
 4999 03e0 F5E0     		b	.L274
 5000              	.L273:
2949:D:/iot/felix2/targets/Cloud_STM32L431_BearPi/Drivers/STM32L4xx_HAL_Driver/Src\stm32l4xx_hal_uart.c ****         }
2950:D:/iot/felix2/targets/Cloud_STM32L431_BearPi/Drivers/STM32L4xx_HAL_Driver/Src\stm32l4xx_hal_uart.c ****         else
2951:D:/iot/felix2/targets/Cloud_STM32L431_BearPi/Drivers/STM32L4xx_HAL_Driver/Src\stm32l4xx_hal_uart.c ****         {
2952:D:/iot/felix2/targets/Cloud_STM32L431_BearPi/Drivers/STM32L4xx_HAL_Driver/Src\stm32l4xx_hal_uart.c ****           ret = HAL_ERROR;
 5001              		.loc 1 2952 0
 5002 03e2 0123     		movs	r3, #1
 5003 03e4 FB74     		strb	r3, [r7, #19]
 5004 03e6 F2E0     		b	.L274
 5005              	.L255:
2953:D:/iot/felix2/targets/Cloud_STM32L431_BearPi/Drivers/STM32L4xx_HAL_Driver/Src\stm32l4xx_hal_uart.c ****         }
2954:D:/iot/felix2/targets/Cloud_STM32L431_BearPi/Drivers/STM32L4xx_HAL_Driver/Src\stm32l4xx_hal_uart.c ****       }  /*   if ( (tmpreg < (3 * huart->Init.BaudRate) ) || (tmpreg > (4096 * huart->Init.BaudRate
2955:D:/iot/felix2/targets/Cloud_STM32L431_BearPi/Drivers/STM32L4xx_HAL_Driver/Src\stm32l4xx_hal_uart.c ****     } /* if (tmpreg != 0) */
2956:D:/iot/felix2/targets/Cloud_STM32L431_BearPi/Drivers/STM32L4xx_HAL_Driver/Src\stm32l4xx_hal_uart.c ****   }
2957:D:/iot/felix2/targets/Cloud_STM32L431_BearPi/Drivers/STM32L4xx_HAL_Driver/Src\stm32l4xx_hal_uart.c ****   /* Check UART Over Sampling to set Baud Rate Register */
2958:D:/iot/felix2/targets/Cloud_STM32L431_BearPi/Drivers/STM32L4xx_HAL_Driver/Src\stm32l4xx_hal_uart.c ****   else if (huart->Init.OverSampling == UART_OVERSAMPLING_8)
 5006              		.loc 1 2958 0
 5007 03e8 7B68     		ldr	r3, [r7, #4]
 5008 03ea DB69     		ldr	r3, [r3, #28]
 5009 03ec B3F5004F 		cmp	r3, #32768
 5010 03f0 7FD1     		bne	.L275
2959:D:/iot/felix2/targets/Cloud_STM32L431_BearPi/Drivers/STM32L4xx_HAL_Driver/Src\stm32l4xx_hal_uart.c ****   {
2960:D:/iot/felix2/targets/Cloud_STM32L431_BearPi/Drivers/STM32L4xx_HAL_Driver/Src\stm32l4xx_hal_uart.c ****     switch (clocksource)
 5011              		.loc 1 2960 0
 5012 03f2 FB7E     		ldrb	r3, [r7, #27]	@ zero_extendqisi2
 5013 03f4 082B     		cmp	r3, #8
 5014 03f6 5CD8     		bhi	.L276
 5015 03f8 01A2     		adr	r2, .L278
 5016 03fa 52F823F0 		ldr	pc, [r2, r3, lsl #2]
 5017 03fe 00BF     		.p2align 2
 5018              	.L278:
 5019 0400 25040000 		.word	.L277+1
 5020 0404 43040000 		.word	.L279+1
 5021 0408 61040000 		.word	.L280+1
 5022 040c B3040000 		.word	.L276+1
 5023 0410 7D040000 		.word	.L281+1
 5024 0414 B3040000 		.word	.L276+1
 5025 0418 B3040000 		.word	.L276+1
 5026 041c B3040000 		.word	.L276+1
ARM GAS  C:\Users\91458\AppData\Local\Temp\ccrpKNIe.s 			page 140


 5027 0420 9B040000 		.word	.L282+1
 5028              		.p2align 1
 5029              	.L277:
2961:D:/iot/felix2/targets/Cloud_STM32L431_BearPi/Drivers/STM32L4xx_HAL_Driver/Src\stm32l4xx_hal_uart.c ****     {
2962:D:/iot/felix2/targets/Cloud_STM32L431_BearPi/Drivers/STM32L4xx_HAL_Driver/Src\stm32l4xx_hal_uart.c ****       case UART_CLOCKSOURCE_PCLK1:
2963:D:/iot/felix2/targets/Cloud_STM32L431_BearPi/Drivers/STM32L4xx_HAL_Driver/Src\stm32l4xx_hal_uart.c **** #if defined(USART_PRESC_PRESCALER)
2964:D:/iot/felix2/targets/Cloud_STM32L431_BearPi/Drivers/STM32L4xx_HAL_Driver/Src\stm32l4xx_hal_uart.c ****         usartdiv = (uint16_t)(UART_DIV_SAMPLING8(HAL_RCC_GetPCLK1Freq(), huart->Init.BaudRate, huar
2965:D:/iot/felix2/targets/Cloud_STM32L431_BearPi/Drivers/STM32L4xx_HAL_Driver/Src\stm32l4xx_hal_uart.c **** #else
2966:D:/iot/felix2/targets/Cloud_STM32L431_BearPi/Drivers/STM32L4xx_HAL_Driver/Src\stm32l4xx_hal_uart.c ****         usartdiv = (uint16_t)(UART_DIV_SAMPLING8(HAL_RCC_GetPCLK1Freq(), huart->Init.BaudRate));
 5030              		.loc 1 2966 0
 5031 0424 FFF7FEFF 		bl	HAL_RCC_GetPCLK1Freq
 5032 0428 0346     		mov	r3, r0
 5033 042a 5A00     		lsls	r2, r3, #1
 5034 042c 7B68     		ldr	r3, [r7, #4]
 5035 042e 5B68     		ldr	r3, [r3, #4]
 5036 0430 5B08     		lsrs	r3, r3, #1
 5037 0432 1A44     		add	r2, r2, r3
 5038 0434 7B68     		ldr	r3, [r7, #4]
 5039 0436 5B68     		ldr	r3, [r3, #4]
 5040 0438 B2FBF3F3 		udiv	r3, r2, r3
 5041 043c 9BB2     		uxth	r3, r3
 5042 043e 7B61     		str	r3, [r7, #20]
2967:D:/iot/felix2/targets/Cloud_STM32L431_BearPi/Drivers/STM32L4xx_HAL_Driver/Src\stm32l4xx_hal_uart.c **** #endif
2968:D:/iot/felix2/targets/Cloud_STM32L431_BearPi/Drivers/STM32L4xx_HAL_Driver/Src\stm32l4xx_hal_uart.c ****         break;
 5043              		.loc 1 2968 0
 5044 0440 3AE0     		b	.L283
 5045              	.L279:
2969:D:/iot/felix2/targets/Cloud_STM32L431_BearPi/Drivers/STM32L4xx_HAL_Driver/Src\stm32l4xx_hal_uart.c ****       case UART_CLOCKSOURCE_PCLK2:
2970:D:/iot/felix2/targets/Cloud_STM32L431_BearPi/Drivers/STM32L4xx_HAL_Driver/Src\stm32l4xx_hal_uart.c **** #if defined(USART_PRESC_PRESCALER)
2971:D:/iot/felix2/targets/Cloud_STM32L431_BearPi/Drivers/STM32L4xx_HAL_Driver/Src\stm32l4xx_hal_uart.c ****         usartdiv = (uint16_t)(UART_DIV_SAMPLING8(HAL_RCC_GetPCLK2Freq(), huart->Init.BaudRate, huar
2972:D:/iot/felix2/targets/Cloud_STM32L431_BearPi/Drivers/STM32L4xx_HAL_Driver/Src\stm32l4xx_hal_uart.c **** #else
2973:D:/iot/felix2/targets/Cloud_STM32L431_BearPi/Drivers/STM32L4xx_HAL_Driver/Src\stm32l4xx_hal_uart.c ****         usartdiv = (uint16_t)(UART_DIV_SAMPLING8(HAL_RCC_GetPCLK2Freq(), huart->Init.BaudRate));
 5046              		.loc 1 2973 0
 5047 0442 FFF7FEFF 		bl	HAL_RCC_GetPCLK2Freq
 5048 0446 0346     		mov	r3, r0
 5049 0448 5A00     		lsls	r2, r3, #1
 5050 044a 7B68     		ldr	r3, [r7, #4]
 5051 044c 5B68     		ldr	r3, [r3, #4]
 5052 044e 5B08     		lsrs	r3, r3, #1
 5053 0450 1A44     		add	r2, r2, r3
 5054 0452 7B68     		ldr	r3, [r7, #4]
 5055 0454 5B68     		ldr	r3, [r3, #4]
 5056 0456 B2FBF3F3 		udiv	r3, r2, r3
 5057 045a 9BB2     		uxth	r3, r3
 5058 045c 7B61     		str	r3, [r7, #20]
2974:D:/iot/felix2/targets/Cloud_STM32L431_BearPi/Drivers/STM32L4xx_HAL_Driver/Src\stm32l4xx_hal_uart.c **** #endif
2975:D:/iot/felix2/targets/Cloud_STM32L431_BearPi/Drivers/STM32L4xx_HAL_Driver/Src\stm32l4xx_hal_uart.c ****         break;
 5059              		.loc 1 2975 0
 5060 045e 2BE0     		b	.L283
 5061              	.L280:
2976:D:/iot/felix2/targets/Cloud_STM32L431_BearPi/Drivers/STM32L4xx_HAL_Driver/Src\stm32l4xx_hal_uart.c ****       case UART_CLOCKSOURCE_HSI:
2977:D:/iot/felix2/targets/Cloud_STM32L431_BearPi/Drivers/STM32L4xx_HAL_Driver/Src\stm32l4xx_hal_uart.c **** #if defined(USART_PRESC_PRESCALER)
2978:D:/iot/felix2/targets/Cloud_STM32L431_BearPi/Drivers/STM32L4xx_HAL_Driver/Src\stm32l4xx_hal_uart.c ****         usartdiv = (uint16_t)(UART_DIV_SAMPLING8(HSI_VALUE, huart->Init.BaudRate, huart->Init.Clock
2979:D:/iot/felix2/targets/Cloud_STM32L431_BearPi/Drivers/STM32L4xx_HAL_Driver/Src\stm32l4xx_hal_uart.c **** #else
2980:D:/iot/felix2/targets/Cloud_STM32L431_BearPi/Drivers/STM32L4xx_HAL_Driver/Src\stm32l4xx_hal_uart.c ****         usartdiv = (uint16_t)(UART_DIV_SAMPLING8(HSI_VALUE, huart->Init.BaudRate));
 5062              		.loc 1 2980 0
 5063 0460 7B68     		ldr	r3, [r7, #4]
ARM GAS  C:\Users\91458\AppData\Local\Temp\ccrpKNIe.s 			page 141


 5064 0462 5B68     		ldr	r3, [r3, #4]
 5065 0464 5B08     		lsrs	r3, r3, #1
 5066 0466 03F1F473 		add	r3, r3, #31981568
 5067 046a 03F59043 		add	r3, r3, #18432
 5068 046e 7A68     		ldr	r2, [r7, #4]
 5069 0470 5268     		ldr	r2, [r2, #4]
 5070 0472 B3FBF2F3 		udiv	r3, r3, r2
 5071 0476 9BB2     		uxth	r3, r3
 5072 0478 7B61     		str	r3, [r7, #20]
2981:D:/iot/felix2/targets/Cloud_STM32L431_BearPi/Drivers/STM32L4xx_HAL_Driver/Src\stm32l4xx_hal_uart.c **** #endif
2982:D:/iot/felix2/targets/Cloud_STM32L431_BearPi/Drivers/STM32L4xx_HAL_Driver/Src\stm32l4xx_hal_uart.c ****         break;
 5073              		.loc 1 2982 0
 5074 047a 1DE0     		b	.L283
 5075              	.L281:
2983:D:/iot/felix2/targets/Cloud_STM32L431_BearPi/Drivers/STM32L4xx_HAL_Driver/Src\stm32l4xx_hal_uart.c ****       case UART_CLOCKSOURCE_SYSCLK:
2984:D:/iot/felix2/targets/Cloud_STM32L431_BearPi/Drivers/STM32L4xx_HAL_Driver/Src\stm32l4xx_hal_uart.c **** #if defined(USART_PRESC_PRESCALER)
2985:D:/iot/felix2/targets/Cloud_STM32L431_BearPi/Drivers/STM32L4xx_HAL_Driver/Src\stm32l4xx_hal_uart.c ****         usartdiv = (uint16_t)(UART_DIV_SAMPLING8(HAL_RCC_GetSysClockFreq(), huart->Init.BaudRate, h
2986:D:/iot/felix2/targets/Cloud_STM32L431_BearPi/Drivers/STM32L4xx_HAL_Driver/Src\stm32l4xx_hal_uart.c **** #else
2987:D:/iot/felix2/targets/Cloud_STM32L431_BearPi/Drivers/STM32L4xx_HAL_Driver/Src\stm32l4xx_hal_uart.c ****         usartdiv = (uint16_t)(UART_DIV_SAMPLING8(HAL_RCC_GetSysClockFreq(), huart->Init.BaudRate));
 5076              		.loc 1 2987 0
 5077 047c FFF7FEFF 		bl	HAL_RCC_GetSysClockFreq
 5078 0480 0346     		mov	r3, r0
 5079 0482 5A00     		lsls	r2, r3, #1
 5080 0484 7B68     		ldr	r3, [r7, #4]
 5081 0486 5B68     		ldr	r3, [r3, #4]
 5082 0488 5B08     		lsrs	r3, r3, #1
 5083 048a 1A44     		add	r2, r2, r3
 5084 048c 7B68     		ldr	r3, [r7, #4]
 5085 048e 5B68     		ldr	r3, [r3, #4]
 5086 0490 B2FBF3F3 		udiv	r3, r2, r3
 5087 0494 9BB2     		uxth	r3, r3
 5088 0496 7B61     		str	r3, [r7, #20]
2988:D:/iot/felix2/targets/Cloud_STM32L431_BearPi/Drivers/STM32L4xx_HAL_Driver/Src\stm32l4xx_hal_uart.c **** #endif
2989:D:/iot/felix2/targets/Cloud_STM32L431_BearPi/Drivers/STM32L4xx_HAL_Driver/Src\stm32l4xx_hal_uart.c ****         break;
 5089              		.loc 1 2989 0
 5090 0498 0EE0     		b	.L283
 5091              	.L282:
2990:D:/iot/felix2/targets/Cloud_STM32L431_BearPi/Drivers/STM32L4xx_HAL_Driver/Src\stm32l4xx_hal_uart.c ****       case UART_CLOCKSOURCE_LSE:
2991:D:/iot/felix2/targets/Cloud_STM32L431_BearPi/Drivers/STM32L4xx_HAL_Driver/Src\stm32l4xx_hal_uart.c **** #if defined(USART_PRESC_PRESCALER)
2992:D:/iot/felix2/targets/Cloud_STM32L431_BearPi/Drivers/STM32L4xx_HAL_Driver/Src\stm32l4xx_hal_uart.c ****         usartdiv = (uint16_t)(UART_DIV_SAMPLING8(LSE_VALUE, huart->Init.BaudRate, huart->Init.Clock
2993:D:/iot/felix2/targets/Cloud_STM32L431_BearPi/Drivers/STM32L4xx_HAL_Driver/Src\stm32l4xx_hal_uart.c **** #else
2994:D:/iot/felix2/targets/Cloud_STM32L431_BearPi/Drivers/STM32L4xx_HAL_Driver/Src\stm32l4xx_hal_uart.c ****         usartdiv = (uint16_t)(UART_DIV_SAMPLING8(LSE_VALUE, huart->Init.BaudRate));
 5092              		.loc 1 2994 0
 5093 049a 7B68     		ldr	r3, [r7, #4]
 5094 049c 5B68     		ldr	r3, [r3, #4]
 5095 049e 5B08     		lsrs	r3, r3, #1
 5096 04a0 03F58032 		add	r2, r3, #65536
 5097 04a4 7B68     		ldr	r3, [r7, #4]
 5098 04a6 5B68     		ldr	r3, [r3, #4]
 5099 04a8 B2FBF3F3 		udiv	r3, r2, r3
 5100 04ac 9BB2     		uxth	r3, r3
 5101 04ae 7B61     		str	r3, [r7, #20]
2995:D:/iot/felix2/targets/Cloud_STM32L431_BearPi/Drivers/STM32L4xx_HAL_Driver/Src\stm32l4xx_hal_uart.c **** #endif
2996:D:/iot/felix2/targets/Cloud_STM32L431_BearPi/Drivers/STM32L4xx_HAL_Driver/Src\stm32l4xx_hal_uart.c ****         break;
 5102              		.loc 1 2996 0
 5103 04b0 02E0     		b	.L283
 5104              	.L276:
ARM GAS  C:\Users\91458\AppData\Local\Temp\ccrpKNIe.s 			page 142


2997:D:/iot/felix2/targets/Cloud_STM32L431_BearPi/Drivers/STM32L4xx_HAL_Driver/Src\stm32l4xx_hal_uart.c ****       case UART_CLOCKSOURCE_UNDEFINED:
2998:D:/iot/felix2/targets/Cloud_STM32L431_BearPi/Drivers/STM32L4xx_HAL_Driver/Src\stm32l4xx_hal_uart.c ****       default:
2999:D:/iot/felix2/targets/Cloud_STM32L431_BearPi/Drivers/STM32L4xx_HAL_Driver/Src\stm32l4xx_hal_uart.c ****         ret = HAL_ERROR;
 5105              		.loc 1 2999 0
 5106 04b2 0123     		movs	r3, #1
 5107 04b4 FB74     		strb	r3, [r7, #19]
3000:D:/iot/felix2/targets/Cloud_STM32L431_BearPi/Drivers/STM32L4xx_HAL_Driver/Src\stm32l4xx_hal_uart.c ****         break;
 5108              		.loc 1 3000 0
 5109 04b6 00BF     		nop
 5110              	.L283:
3001:D:/iot/felix2/targets/Cloud_STM32L431_BearPi/Drivers/STM32L4xx_HAL_Driver/Src\stm32l4xx_hal_uart.c ****     }
3002:D:/iot/felix2/targets/Cloud_STM32L431_BearPi/Drivers/STM32L4xx_HAL_Driver/Src\stm32l4xx_hal_uart.c **** 
3003:D:/iot/felix2/targets/Cloud_STM32L431_BearPi/Drivers/STM32L4xx_HAL_Driver/Src\stm32l4xx_hal_uart.c ****     /* USARTDIV must be greater than or equal to 0d16 */
3004:D:/iot/felix2/targets/Cloud_STM32L431_BearPi/Drivers/STM32L4xx_HAL_Driver/Src\stm32l4xx_hal_uart.c ****     if ((usartdiv >= UART_BRR_MIN) && (usartdiv <= UART_BRR_MAX))
 5111              		.loc 1 3004 0
 5112 04b8 7B69     		ldr	r3, [r7, #20]
 5113 04ba 0F2B     		cmp	r3, #15
 5114 04bc 16D9     		bls	.L284
 5115              		.loc 1 3004 0 is_stmt 0 discriminator 1
 5116 04be 7B69     		ldr	r3, [r7, #20]
 5117 04c0 B3F5803F 		cmp	r3, #65536
 5118 04c4 12D2     		bcs	.L284
3005:D:/iot/felix2/targets/Cloud_STM32L431_BearPi/Drivers/STM32L4xx_HAL_Driver/Src\stm32l4xx_hal_uart.c ****     {
3006:D:/iot/felix2/targets/Cloud_STM32L431_BearPi/Drivers/STM32L4xx_HAL_Driver/Src\stm32l4xx_hal_uart.c ****       brrtemp = usartdiv & 0xFFF0U;
 5119              		.loc 1 3006 0 is_stmt 1
 5120 04c6 7B69     		ldr	r3, [r7, #20]
 5121 04c8 9BB2     		uxth	r3, r3
 5122 04ca 23F00F03 		bic	r3, r3, #15
 5123 04ce 7B81     		strh	r3, [r7, #10]	@ movhi
3007:D:/iot/felix2/targets/Cloud_STM32L431_BearPi/Drivers/STM32L4xx_HAL_Driver/Src\stm32l4xx_hal_uart.c ****       brrtemp |= (uint16_t)((usartdiv & (uint16_t)0x000FU) >> 1U);
 5124              		.loc 1 3007 0
 5125 04d0 7B69     		ldr	r3, [r7, #20]
 5126 04d2 5B08     		lsrs	r3, r3, #1
 5127 04d4 9BB2     		uxth	r3, r3
 5128 04d6 03F00703 		and	r3, r3, #7
 5129 04da 9AB2     		uxth	r2, r3
 5130 04dc 7B89     		ldrh	r3, [r7, #10]	@ movhi
 5131 04de 1343     		orrs	r3, r3, r2
 5132 04e0 7B81     		strh	r3, [r7, #10]	@ movhi
3008:D:/iot/felix2/targets/Cloud_STM32L431_BearPi/Drivers/STM32L4xx_HAL_Driver/Src\stm32l4xx_hal_uart.c ****       huart->Instance->BRR = brrtemp;
 5133              		.loc 1 3008 0
 5134 04e2 7B68     		ldr	r3, [r7, #4]
 5135 04e4 1B68     		ldr	r3, [r3]
 5136 04e6 7A89     		ldrh	r2, [r7, #10]
 5137 04e8 DA60     		str	r2, [r3, #12]
 5138 04ea 70E0     		b	.L274
 5139              	.L284:
3009:D:/iot/felix2/targets/Cloud_STM32L431_BearPi/Drivers/STM32L4xx_HAL_Driver/Src\stm32l4xx_hal_uart.c ****     }
3010:D:/iot/felix2/targets/Cloud_STM32L431_BearPi/Drivers/STM32L4xx_HAL_Driver/Src\stm32l4xx_hal_uart.c ****     else
3011:D:/iot/felix2/targets/Cloud_STM32L431_BearPi/Drivers/STM32L4xx_HAL_Driver/Src\stm32l4xx_hal_uart.c ****     {
3012:D:/iot/felix2/targets/Cloud_STM32L431_BearPi/Drivers/STM32L4xx_HAL_Driver/Src\stm32l4xx_hal_uart.c ****       ret = HAL_ERROR;
 5140              		.loc 1 3012 0
 5141 04ec 0123     		movs	r3, #1
 5142 04ee FB74     		strb	r3, [r7, #19]
 5143 04f0 6DE0     		b	.L274
 5144              	.L275:
3013:D:/iot/felix2/targets/Cloud_STM32L431_BearPi/Drivers/STM32L4xx_HAL_Driver/Src\stm32l4xx_hal_uart.c ****     }
ARM GAS  C:\Users\91458\AppData\Local\Temp\ccrpKNIe.s 			page 143


3014:D:/iot/felix2/targets/Cloud_STM32L431_BearPi/Drivers/STM32L4xx_HAL_Driver/Src\stm32l4xx_hal_uart.c ****   }
3015:D:/iot/felix2/targets/Cloud_STM32L431_BearPi/Drivers/STM32L4xx_HAL_Driver/Src\stm32l4xx_hal_uart.c ****   else
3016:D:/iot/felix2/targets/Cloud_STM32L431_BearPi/Drivers/STM32L4xx_HAL_Driver/Src\stm32l4xx_hal_uart.c ****   {
3017:D:/iot/felix2/targets/Cloud_STM32L431_BearPi/Drivers/STM32L4xx_HAL_Driver/Src\stm32l4xx_hal_uart.c ****     switch (clocksource)
 5145              		.loc 1 3017 0
 5146 04f2 FB7E     		ldrb	r3, [r7, #27]	@ zero_extendqisi2
 5147 04f4 082B     		cmp	r3, #8
 5148 04f6 59D8     		bhi	.L286
 5149 04f8 01A2     		adr	r2, .L288
 5150 04fa 52F823F0 		ldr	pc, [r2, r3, lsl #2]
 5151 04fe 00BF     		.p2align 2
 5152              	.L288:
 5153 0500 25050000 		.word	.L287+1
 5154 0504 41050000 		.word	.L289+1
 5155 0508 5D050000 		.word	.L290+1
 5156 050c AD050000 		.word	.L286+1
 5157 0510 79050000 		.word	.L291+1
 5158 0514 AD050000 		.word	.L286+1
 5159 0518 AD050000 		.word	.L286+1
 5160 051c AD050000 		.word	.L286+1
 5161 0520 95050000 		.word	.L292+1
 5162              		.p2align 1
 5163              	.L287:
3018:D:/iot/felix2/targets/Cloud_STM32L431_BearPi/Drivers/STM32L4xx_HAL_Driver/Src\stm32l4xx_hal_uart.c ****     {
3019:D:/iot/felix2/targets/Cloud_STM32L431_BearPi/Drivers/STM32L4xx_HAL_Driver/Src\stm32l4xx_hal_uart.c ****       case UART_CLOCKSOURCE_PCLK1:
3020:D:/iot/felix2/targets/Cloud_STM32L431_BearPi/Drivers/STM32L4xx_HAL_Driver/Src\stm32l4xx_hal_uart.c **** #if defined(USART_PRESC_PRESCALER)
3021:D:/iot/felix2/targets/Cloud_STM32L431_BearPi/Drivers/STM32L4xx_HAL_Driver/Src\stm32l4xx_hal_uart.c ****         usartdiv = (uint16_t)(UART_DIV_SAMPLING16(HAL_RCC_GetPCLK1Freq(), huart->Init.BaudRate, hua
3022:D:/iot/felix2/targets/Cloud_STM32L431_BearPi/Drivers/STM32L4xx_HAL_Driver/Src\stm32l4xx_hal_uart.c **** #else
3023:D:/iot/felix2/targets/Cloud_STM32L431_BearPi/Drivers/STM32L4xx_HAL_Driver/Src\stm32l4xx_hal_uart.c ****         usartdiv = (uint16_t)(UART_DIV_SAMPLING16(HAL_RCC_GetPCLK1Freq(), huart->Init.BaudRate));
 5164              		.loc 1 3023 0
 5165 0524 FFF7FEFF 		bl	HAL_RCC_GetPCLK1Freq
 5166 0528 0246     		mov	r2, r0
 5167 052a 7B68     		ldr	r3, [r7, #4]
 5168 052c 5B68     		ldr	r3, [r3, #4]
 5169 052e 5B08     		lsrs	r3, r3, #1
 5170 0530 1A44     		add	r2, r2, r3
 5171 0532 7B68     		ldr	r3, [r7, #4]
 5172 0534 5B68     		ldr	r3, [r3, #4]
 5173 0536 B2FBF3F3 		udiv	r3, r2, r3
 5174 053a 9BB2     		uxth	r3, r3
 5175 053c 7B61     		str	r3, [r7, #20]
3024:D:/iot/felix2/targets/Cloud_STM32L431_BearPi/Drivers/STM32L4xx_HAL_Driver/Src\stm32l4xx_hal_uart.c **** #endif
3025:D:/iot/felix2/targets/Cloud_STM32L431_BearPi/Drivers/STM32L4xx_HAL_Driver/Src\stm32l4xx_hal_uart.c ****         break;
 5176              		.loc 1 3025 0
 5177 053e 38E0     		b	.L293
 5178              	.L289:
3026:D:/iot/felix2/targets/Cloud_STM32L431_BearPi/Drivers/STM32L4xx_HAL_Driver/Src\stm32l4xx_hal_uart.c ****       case UART_CLOCKSOURCE_PCLK2:
3027:D:/iot/felix2/targets/Cloud_STM32L431_BearPi/Drivers/STM32L4xx_HAL_Driver/Src\stm32l4xx_hal_uart.c **** #if defined(USART_PRESC_PRESCALER)
3028:D:/iot/felix2/targets/Cloud_STM32L431_BearPi/Drivers/STM32L4xx_HAL_Driver/Src\stm32l4xx_hal_uart.c ****         usartdiv = (uint16_t)(UART_DIV_SAMPLING16(HAL_RCC_GetPCLK2Freq(), huart->Init.BaudRate, hua
3029:D:/iot/felix2/targets/Cloud_STM32L431_BearPi/Drivers/STM32L4xx_HAL_Driver/Src\stm32l4xx_hal_uart.c **** #else
3030:D:/iot/felix2/targets/Cloud_STM32L431_BearPi/Drivers/STM32L4xx_HAL_Driver/Src\stm32l4xx_hal_uart.c ****         usartdiv = (uint16_t)(UART_DIV_SAMPLING16(HAL_RCC_GetPCLK2Freq(), huart->Init.BaudRate));
 5179              		.loc 1 3030 0
 5180 0540 FFF7FEFF 		bl	HAL_RCC_GetPCLK2Freq
 5181 0544 0246     		mov	r2, r0
 5182 0546 7B68     		ldr	r3, [r7, #4]
 5183 0548 5B68     		ldr	r3, [r3, #4]
 5184 054a 5B08     		lsrs	r3, r3, #1
ARM GAS  C:\Users\91458\AppData\Local\Temp\ccrpKNIe.s 			page 144


 5185 054c 1A44     		add	r2, r2, r3
 5186 054e 7B68     		ldr	r3, [r7, #4]
 5187 0550 5B68     		ldr	r3, [r3, #4]
 5188 0552 B2FBF3F3 		udiv	r3, r2, r3
 5189 0556 9BB2     		uxth	r3, r3
 5190 0558 7B61     		str	r3, [r7, #20]
3031:D:/iot/felix2/targets/Cloud_STM32L431_BearPi/Drivers/STM32L4xx_HAL_Driver/Src\stm32l4xx_hal_uart.c **** #endif
3032:D:/iot/felix2/targets/Cloud_STM32L431_BearPi/Drivers/STM32L4xx_HAL_Driver/Src\stm32l4xx_hal_uart.c ****         break;
 5191              		.loc 1 3032 0
 5192 055a 2AE0     		b	.L293
 5193              	.L290:
3033:D:/iot/felix2/targets/Cloud_STM32L431_BearPi/Drivers/STM32L4xx_HAL_Driver/Src\stm32l4xx_hal_uart.c ****       case UART_CLOCKSOURCE_HSI:
3034:D:/iot/felix2/targets/Cloud_STM32L431_BearPi/Drivers/STM32L4xx_HAL_Driver/Src\stm32l4xx_hal_uart.c **** #if defined(USART_PRESC_PRESCALER)
3035:D:/iot/felix2/targets/Cloud_STM32L431_BearPi/Drivers/STM32L4xx_HAL_Driver/Src\stm32l4xx_hal_uart.c ****         usartdiv = (uint16_t)(UART_DIV_SAMPLING16(HSI_VALUE, huart->Init.BaudRate, huart->Init.Cloc
3036:D:/iot/felix2/targets/Cloud_STM32L431_BearPi/Drivers/STM32L4xx_HAL_Driver/Src\stm32l4xx_hal_uart.c **** #else
3037:D:/iot/felix2/targets/Cloud_STM32L431_BearPi/Drivers/STM32L4xx_HAL_Driver/Src\stm32l4xx_hal_uart.c ****         usartdiv = (uint16_t)(UART_DIV_SAMPLING16(HSI_VALUE, huart->Init.BaudRate));
 5194              		.loc 1 3037 0
 5195 055c 7B68     		ldr	r3, [r7, #4]
 5196 055e 5B68     		ldr	r3, [r3, #4]
 5197 0560 5B08     		lsrs	r3, r3, #1
 5198 0562 03F57403 		add	r3, r3, #15990784
 5199 0566 03F51053 		add	r3, r3, #9216
 5200 056a 7A68     		ldr	r2, [r7, #4]
 5201 056c 5268     		ldr	r2, [r2, #4]
 5202 056e B3FBF2F3 		udiv	r3, r3, r2
 5203 0572 9BB2     		uxth	r3, r3
 5204 0574 7B61     		str	r3, [r7, #20]
3038:D:/iot/felix2/targets/Cloud_STM32L431_BearPi/Drivers/STM32L4xx_HAL_Driver/Src\stm32l4xx_hal_uart.c **** #endif
3039:D:/iot/felix2/targets/Cloud_STM32L431_BearPi/Drivers/STM32L4xx_HAL_Driver/Src\stm32l4xx_hal_uart.c ****         break;
 5205              		.loc 1 3039 0
 5206 0576 1CE0     		b	.L293
 5207              	.L291:
3040:D:/iot/felix2/targets/Cloud_STM32L431_BearPi/Drivers/STM32L4xx_HAL_Driver/Src\stm32l4xx_hal_uart.c ****       case UART_CLOCKSOURCE_SYSCLK:
3041:D:/iot/felix2/targets/Cloud_STM32L431_BearPi/Drivers/STM32L4xx_HAL_Driver/Src\stm32l4xx_hal_uart.c **** #if defined(USART_PRESC_PRESCALER)
3042:D:/iot/felix2/targets/Cloud_STM32L431_BearPi/Drivers/STM32L4xx_HAL_Driver/Src\stm32l4xx_hal_uart.c ****         usartdiv = (uint16_t)(UART_DIV_SAMPLING16(HAL_RCC_GetSysClockFreq(), huart->Init.BaudRate, 
3043:D:/iot/felix2/targets/Cloud_STM32L431_BearPi/Drivers/STM32L4xx_HAL_Driver/Src\stm32l4xx_hal_uart.c **** #else
3044:D:/iot/felix2/targets/Cloud_STM32L431_BearPi/Drivers/STM32L4xx_HAL_Driver/Src\stm32l4xx_hal_uart.c ****         usartdiv = (uint16_t)(UART_DIV_SAMPLING16(HAL_RCC_GetSysClockFreq(), huart->Init.BaudRate))
 5208              		.loc 1 3044 0
 5209 0578 FFF7FEFF 		bl	HAL_RCC_GetSysClockFreq
 5210 057c 0246     		mov	r2, r0
 5211 057e 7B68     		ldr	r3, [r7, #4]
 5212 0580 5B68     		ldr	r3, [r3, #4]
 5213 0582 5B08     		lsrs	r3, r3, #1
 5214 0584 1A44     		add	r2, r2, r3
 5215 0586 7B68     		ldr	r3, [r7, #4]
 5216 0588 5B68     		ldr	r3, [r3, #4]
 5217 058a B2FBF3F3 		udiv	r3, r2, r3
 5218 058e 9BB2     		uxth	r3, r3
 5219 0590 7B61     		str	r3, [r7, #20]
3045:D:/iot/felix2/targets/Cloud_STM32L431_BearPi/Drivers/STM32L4xx_HAL_Driver/Src\stm32l4xx_hal_uart.c **** #endif
3046:D:/iot/felix2/targets/Cloud_STM32L431_BearPi/Drivers/STM32L4xx_HAL_Driver/Src\stm32l4xx_hal_uart.c ****         break;
 5220              		.loc 1 3046 0
 5221 0592 0EE0     		b	.L293
 5222              	.L292:
3047:D:/iot/felix2/targets/Cloud_STM32L431_BearPi/Drivers/STM32L4xx_HAL_Driver/Src\stm32l4xx_hal_uart.c ****       case UART_CLOCKSOURCE_LSE:
3048:D:/iot/felix2/targets/Cloud_STM32L431_BearPi/Drivers/STM32L4xx_HAL_Driver/Src\stm32l4xx_hal_uart.c **** #if defined(USART_PRESC_PRESCALER)
3049:D:/iot/felix2/targets/Cloud_STM32L431_BearPi/Drivers/STM32L4xx_HAL_Driver/Src\stm32l4xx_hal_uart.c ****         usartdiv = (uint16_t)(UART_DIV_SAMPLING16(LSE_VALUE, huart->Init.BaudRate, huart->Init.Cloc
ARM GAS  C:\Users\91458\AppData\Local\Temp\ccrpKNIe.s 			page 145


3050:D:/iot/felix2/targets/Cloud_STM32L431_BearPi/Drivers/STM32L4xx_HAL_Driver/Src\stm32l4xx_hal_uart.c **** #else
3051:D:/iot/felix2/targets/Cloud_STM32L431_BearPi/Drivers/STM32L4xx_HAL_Driver/Src\stm32l4xx_hal_uart.c ****         usartdiv = (uint16_t)(UART_DIV_SAMPLING16(LSE_VALUE, huart->Init.BaudRate));
 5223              		.loc 1 3051 0
 5224 0594 7B68     		ldr	r3, [r7, #4]
 5225 0596 5B68     		ldr	r3, [r3, #4]
 5226 0598 5B08     		lsrs	r3, r3, #1
 5227 059a 03F50042 		add	r2, r3, #32768
 5228 059e 7B68     		ldr	r3, [r7, #4]
 5229 05a0 5B68     		ldr	r3, [r3, #4]
 5230 05a2 B2FBF3F3 		udiv	r3, r2, r3
 5231 05a6 9BB2     		uxth	r3, r3
 5232 05a8 7B61     		str	r3, [r7, #20]
3052:D:/iot/felix2/targets/Cloud_STM32L431_BearPi/Drivers/STM32L4xx_HAL_Driver/Src\stm32l4xx_hal_uart.c **** #endif
3053:D:/iot/felix2/targets/Cloud_STM32L431_BearPi/Drivers/STM32L4xx_HAL_Driver/Src\stm32l4xx_hal_uart.c ****         break;
 5233              		.loc 1 3053 0
 5234 05aa 02E0     		b	.L293
 5235              	.L286:
3054:D:/iot/felix2/targets/Cloud_STM32L431_BearPi/Drivers/STM32L4xx_HAL_Driver/Src\stm32l4xx_hal_uart.c ****       case UART_CLOCKSOURCE_UNDEFINED:
3055:D:/iot/felix2/targets/Cloud_STM32L431_BearPi/Drivers/STM32L4xx_HAL_Driver/Src\stm32l4xx_hal_uart.c ****       default:
3056:D:/iot/felix2/targets/Cloud_STM32L431_BearPi/Drivers/STM32L4xx_HAL_Driver/Src\stm32l4xx_hal_uart.c ****         ret = HAL_ERROR;
 5236              		.loc 1 3056 0
 5237 05ac 0123     		movs	r3, #1
 5238 05ae FB74     		strb	r3, [r7, #19]
3057:D:/iot/felix2/targets/Cloud_STM32L431_BearPi/Drivers/STM32L4xx_HAL_Driver/Src\stm32l4xx_hal_uart.c ****         break;
 5239              		.loc 1 3057 0
 5240 05b0 00BF     		nop
 5241              	.L293:
3058:D:/iot/felix2/targets/Cloud_STM32L431_BearPi/Drivers/STM32L4xx_HAL_Driver/Src\stm32l4xx_hal_uart.c ****     }
3059:D:/iot/felix2/targets/Cloud_STM32L431_BearPi/Drivers/STM32L4xx_HAL_Driver/Src\stm32l4xx_hal_uart.c **** 
3060:D:/iot/felix2/targets/Cloud_STM32L431_BearPi/Drivers/STM32L4xx_HAL_Driver/Src\stm32l4xx_hal_uart.c ****     /* USARTDIV must be greater than or equal to 0d16 */
3061:D:/iot/felix2/targets/Cloud_STM32L431_BearPi/Drivers/STM32L4xx_HAL_Driver/Src\stm32l4xx_hal_uart.c ****     if ((usartdiv >= UART_BRR_MIN) && (usartdiv <= UART_BRR_MAX))
 5242              		.loc 1 3061 0
 5243 05b2 7B69     		ldr	r3, [r7, #20]
 5244 05b4 0F2B     		cmp	r3, #15
 5245 05b6 08D9     		bls	.L294
 5246              		.loc 1 3061 0 is_stmt 0 discriminator 1
 5247 05b8 7B69     		ldr	r3, [r7, #20]
 5248 05ba B3F5803F 		cmp	r3, #65536
 5249 05be 04D2     		bcs	.L294
3062:D:/iot/felix2/targets/Cloud_STM32L431_BearPi/Drivers/STM32L4xx_HAL_Driver/Src\stm32l4xx_hal_uart.c ****     {
3063:D:/iot/felix2/targets/Cloud_STM32L431_BearPi/Drivers/STM32L4xx_HAL_Driver/Src\stm32l4xx_hal_uart.c ****       huart->Instance->BRR = usartdiv;
 5250              		.loc 1 3063 0 is_stmt 1
 5251 05c0 7B68     		ldr	r3, [r7, #4]
 5252 05c2 1B68     		ldr	r3, [r3]
 5253 05c4 7A69     		ldr	r2, [r7, #20]
 5254 05c6 DA60     		str	r2, [r3, #12]
 5255 05c8 01E0     		b	.L274
 5256              	.L294:
3064:D:/iot/felix2/targets/Cloud_STM32L431_BearPi/Drivers/STM32L4xx_HAL_Driver/Src\stm32l4xx_hal_uart.c ****     }
3065:D:/iot/felix2/targets/Cloud_STM32L431_BearPi/Drivers/STM32L4xx_HAL_Driver/Src\stm32l4xx_hal_uart.c ****     else
3066:D:/iot/felix2/targets/Cloud_STM32L431_BearPi/Drivers/STM32L4xx_HAL_Driver/Src\stm32l4xx_hal_uart.c ****     {
3067:D:/iot/felix2/targets/Cloud_STM32L431_BearPi/Drivers/STM32L4xx_HAL_Driver/Src\stm32l4xx_hal_uart.c ****       ret = HAL_ERROR;
 5257              		.loc 1 3067 0
 5258 05ca 0123     		movs	r3, #1
 5259 05cc FB74     		strb	r3, [r7, #19]
 5260              	.L274:
3068:D:/iot/felix2/targets/Cloud_STM32L431_BearPi/Drivers/STM32L4xx_HAL_Driver/Src\stm32l4xx_hal_uart.c ****     }
ARM GAS  C:\Users\91458\AppData\Local\Temp\ccrpKNIe.s 			page 146


3069:D:/iot/felix2/targets/Cloud_STM32L431_BearPi/Drivers/STM32L4xx_HAL_Driver/Src\stm32l4xx_hal_uart.c ****   }
3070:D:/iot/felix2/targets/Cloud_STM32L431_BearPi/Drivers/STM32L4xx_HAL_Driver/Src\stm32l4xx_hal_uart.c **** 
3071:D:/iot/felix2/targets/Cloud_STM32L431_BearPi/Drivers/STM32L4xx_HAL_Driver/Src\stm32l4xx_hal_uart.c **** #if defined(USART_CR1_FIFOEN)
3072:D:/iot/felix2/targets/Cloud_STM32L431_BearPi/Drivers/STM32L4xx_HAL_Driver/Src\stm32l4xx_hal_uart.c ****   /* Initialize the number of data to process during RX/TX ISR execution */
3073:D:/iot/felix2/targets/Cloud_STM32L431_BearPi/Drivers/STM32L4xx_HAL_Driver/Src\stm32l4xx_hal_uart.c ****   huart->NbTxDataToProcess = 1;
3074:D:/iot/felix2/targets/Cloud_STM32L431_BearPi/Drivers/STM32L4xx_HAL_Driver/Src\stm32l4xx_hal_uart.c ****   huart->NbRxDataToProcess = 1;
3075:D:/iot/felix2/targets/Cloud_STM32L431_BearPi/Drivers/STM32L4xx_HAL_Driver/Src\stm32l4xx_hal_uart.c **** #endif
3076:D:/iot/felix2/targets/Cloud_STM32L431_BearPi/Drivers/STM32L4xx_HAL_Driver/Src\stm32l4xx_hal_uart.c **** 
3077:D:/iot/felix2/targets/Cloud_STM32L431_BearPi/Drivers/STM32L4xx_HAL_Driver/Src\stm32l4xx_hal_uart.c ****   /* Clear ISR function pointers */
3078:D:/iot/felix2/targets/Cloud_STM32L431_BearPi/Drivers/STM32L4xx_HAL_Driver/Src\stm32l4xx_hal_uart.c ****   huart->RxISR = NULL;
 5261              		.loc 1 3078 0
 5262 05ce 7B68     		ldr	r3, [r7, #4]
 5263 05d0 0022     		movs	r2, #0
 5264 05d2 1A66     		str	r2, [r3, #96]
3079:D:/iot/felix2/targets/Cloud_STM32L431_BearPi/Drivers/STM32L4xx_HAL_Driver/Src\stm32l4xx_hal_uart.c ****   huart->TxISR = NULL;
 5265              		.loc 1 3079 0
 5266 05d4 7B68     		ldr	r3, [r7, #4]
 5267 05d6 0022     		movs	r2, #0
 5268 05d8 5A66     		str	r2, [r3, #100]
3080:D:/iot/felix2/targets/Cloud_STM32L431_BearPi/Drivers/STM32L4xx_HAL_Driver/Src\stm32l4xx_hal_uart.c **** 
3081:D:/iot/felix2/targets/Cloud_STM32L431_BearPi/Drivers/STM32L4xx_HAL_Driver/Src\stm32l4xx_hal_uart.c ****   return ret;
 5269              		.loc 1 3081 0
 5270 05da FB7C     		ldrb	r3, [r7, #19]	@ zero_extendqisi2
3082:D:/iot/felix2/targets/Cloud_STM32L431_BearPi/Drivers/STM32L4xx_HAL_Driver/Src\stm32l4xx_hal_uart.c **** }
 5271              		.loc 1 3082 0
 5272 05dc 1846     		mov	r0, r3
 5273 05de 2037     		adds	r7, r7, #32
 5274              	.LCFI218:
 5275              		.cfi_def_cfa_offset 16
 5276 05e0 BD46     		mov	sp, r7
 5277              	.LCFI219:
 5278              		.cfi_def_cfa_register 13
 5279              		@ sp needed
 5280 05e2 BDE89088 		pop	{r4, r7, fp, pc}
 5281              	.L300:
 5282 05e6 00BF     		.align	2
 5283              	.L299:
 5284 05e8 000024F4 		.word	-198967296
 5285              		.cfi_endproc
 5286              	.LFE172:
 5288              		.section	.text.UART_AdvFeatureConfig,"ax",%progbits
 5289              		.align	1
 5290              		.global	UART_AdvFeatureConfig
 5291              		.syntax unified
 5292              		.thumb
 5293              		.thumb_func
 5294              		.fpu fpv4-sp-d16
 5296              	UART_AdvFeatureConfig:
 5297              	.LFB173:
3083:D:/iot/felix2/targets/Cloud_STM32L431_BearPi/Drivers/STM32L4xx_HAL_Driver/Src\stm32l4xx_hal_uart.c **** 
3084:D:/iot/felix2/targets/Cloud_STM32L431_BearPi/Drivers/STM32L4xx_HAL_Driver/Src\stm32l4xx_hal_uart.c **** /**
3085:D:/iot/felix2/targets/Cloud_STM32L431_BearPi/Drivers/STM32L4xx_HAL_Driver/Src\stm32l4xx_hal_uart.c ****   * @brief Configure the UART peripheral advanced features.
3086:D:/iot/felix2/targets/Cloud_STM32L431_BearPi/Drivers/STM32L4xx_HAL_Driver/Src\stm32l4xx_hal_uart.c ****   * @param huart UART handle.
3087:D:/iot/felix2/targets/Cloud_STM32L431_BearPi/Drivers/STM32L4xx_HAL_Driver/Src\stm32l4xx_hal_uart.c ****   * @retval None
3088:D:/iot/felix2/targets/Cloud_STM32L431_BearPi/Drivers/STM32L4xx_HAL_Driver/Src\stm32l4xx_hal_uart.c ****   */
3089:D:/iot/felix2/targets/Cloud_STM32L431_BearPi/Drivers/STM32L4xx_HAL_Driver/Src\stm32l4xx_hal_uart.c **** void UART_AdvFeatureConfig(UART_HandleTypeDef *huart)
3090:D:/iot/felix2/targets/Cloud_STM32L431_BearPi/Drivers/STM32L4xx_HAL_Driver/Src\stm32l4xx_hal_uart.c **** {
ARM GAS  C:\Users\91458\AppData\Local\Temp\ccrpKNIe.s 			page 147


 5298              		.loc 1 3090 0
 5299              		.cfi_startproc
 5300              		@ args = 0, pretend = 0, frame = 8
 5301              		@ frame_needed = 1, uses_anonymous_args = 0
 5302              		@ link register save eliminated.
 5303 0000 80B4     		push	{r7}
 5304              	.LCFI220:
 5305              		.cfi_def_cfa_offset 4
 5306              		.cfi_offset 7, -4
 5307 0002 83B0     		sub	sp, sp, #12
 5308              	.LCFI221:
 5309              		.cfi_def_cfa_offset 16
 5310 0004 00AF     		add	r7, sp, #0
 5311              	.LCFI222:
 5312              		.cfi_def_cfa_register 7
 5313 0006 7860     		str	r0, [r7, #4]
3091:D:/iot/felix2/targets/Cloud_STM32L431_BearPi/Drivers/STM32L4xx_HAL_Driver/Src\stm32l4xx_hal_uart.c ****   /* Check whether the set of advanced features to configure is properly set */
3092:D:/iot/felix2/targets/Cloud_STM32L431_BearPi/Drivers/STM32L4xx_HAL_Driver/Src\stm32l4xx_hal_uart.c ****   assert_param(IS_UART_ADVFEATURE_INIT(huart->AdvancedInit.AdvFeatureInit));
3093:D:/iot/felix2/targets/Cloud_STM32L431_BearPi/Drivers/STM32L4xx_HAL_Driver/Src\stm32l4xx_hal_uart.c **** 
3094:D:/iot/felix2/targets/Cloud_STM32L431_BearPi/Drivers/STM32L4xx_HAL_Driver/Src\stm32l4xx_hal_uart.c ****   /* if required, configure TX pin active level inversion */
3095:D:/iot/felix2/targets/Cloud_STM32L431_BearPi/Drivers/STM32L4xx_HAL_Driver/Src\stm32l4xx_hal_uart.c ****   if (HAL_IS_BIT_SET(huart->AdvancedInit.AdvFeatureInit, UART_ADVFEATURE_TXINVERT_INIT))
 5314              		.loc 1 3095 0
 5315 0008 7B68     		ldr	r3, [r7, #4]
 5316 000a 5B6A     		ldr	r3, [r3, #36]
 5317 000c 03F00103 		and	r3, r3, #1
 5318 0010 002B     		cmp	r3, #0
 5319 0012 0AD0     		beq	.L302
3096:D:/iot/felix2/targets/Cloud_STM32L431_BearPi/Drivers/STM32L4xx_HAL_Driver/Src\stm32l4xx_hal_uart.c ****   {
3097:D:/iot/felix2/targets/Cloud_STM32L431_BearPi/Drivers/STM32L4xx_HAL_Driver/Src\stm32l4xx_hal_uart.c ****     assert_param(IS_UART_ADVFEATURE_TXINV(huart->AdvancedInit.TxPinLevelInvert));
3098:D:/iot/felix2/targets/Cloud_STM32L431_BearPi/Drivers/STM32L4xx_HAL_Driver/Src\stm32l4xx_hal_uart.c ****     MODIFY_REG(huart->Instance->CR2, USART_CR2_TXINV, huart->AdvancedInit.TxPinLevelInvert);
 5320              		.loc 1 3098 0
 5321 0014 7B68     		ldr	r3, [r7, #4]
 5322 0016 1B68     		ldr	r3, [r3]
 5323 0018 5B68     		ldr	r3, [r3, #4]
 5324 001a 23F40031 		bic	r1, r3, #131072
 5325 001e 7B68     		ldr	r3, [r7, #4]
 5326 0020 9A6A     		ldr	r2, [r3, #40]
 5327 0022 7B68     		ldr	r3, [r7, #4]
 5328 0024 1B68     		ldr	r3, [r3]
 5329 0026 0A43     		orrs	r2, r2, r1
 5330 0028 5A60     		str	r2, [r3, #4]
 5331              	.L302:
3099:D:/iot/felix2/targets/Cloud_STM32L431_BearPi/Drivers/STM32L4xx_HAL_Driver/Src\stm32l4xx_hal_uart.c ****   }
3100:D:/iot/felix2/targets/Cloud_STM32L431_BearPi/Drivers/STM32L4xx_HAL_Driver/Src\stm32l4xx_hal_uart.c **** 
3101:D:/iot/felix2/targets/Cloud_STM32L431_BearPi/Drivers/STM32L4xx_HAL_Driver/Src\stm32l4xx_hal_uart.c ****   /* if required, configure RX pin active level inversion */
3102:D:/iot/felix2/targets/Cloud_STM32L431_BearPi/Drivers/STM32L4xx_HAL_Driver/Src\stm32l4xx_hal_uart.c ****   if (HAL_IS_BIT_SET(huart->AdvancedInit.AdvFeatureInit, UART_ADVFEATURE_RXINVERT_INIT))
 5332              		.loc 1 3102 0
 5333 002a 7B68     		ldr	r3, [r7, #4]
 5334 002c 5B6A     		ldr	r3, [r3, #36]
 5335 002e 03F00203 		and	r3, r3, #2
 5336 0032 002B     		cmp	r3, #0
 5337 0034 0AD0     		beq	.L303
3103:D:/iot/felix2/targets/Cloud_STM32L431_BearPi/Drivers/STM32L4xx_HAL_Driver/Src\stm32l4xx_hal_uart.c ****   {
3104:D:/iot/felix2/targets/Cloud_STM32L431_BearPi/Drivers/STM32L4xx_HAL_Driver/Src\stm32l4xx_hal_uart.c ****     assert_param(IS_UART_ADVFEATURE_RXINV(huart->AdvancedInit.RxPinLevelInvert));
3105:D:/iot/felix2/targets/Cloud_STM32L431_BearPi/Drivers/STM32L4xx_HAL_Driver/Src\stm32l4xx_hal_uart.c ****     MODIFY_REG(huart->Instance->CR2, USART_CR2_RXINV, huart->AdvancedInit.RxPinLevelInvert);
 5338              		.loc 1 3105 0
 5339 0036 7B68     		ldr	r3, [r7, #4]
ARM GAS  C:\Users\91458\AppData\Local\Temp\ccrpKNIe.s 			page 148


 5340 0038 1B68     		ldr	r3, [r3]
 5341 003a 5B68     		ldr	r3, [r3, #4]
 5342 003c 23F48031 		bic	r1, r3, #65536
 5343 0040 7B68     		ldr	r3, [r7, #4]
 5344 0042 DA6A     		ldr	r2, [r3, #44]
 5345 0044 7B68     		ldr	r3, [r7, #4]
 5346 0046 1B68     		ldr	r3, [r3]
 5347 0048 0A43     		orrs	r2, r2, r1
 5348 004a 5A60     		str	r2, [r3, #4]
 5349              	.L303:
3106:D:/iot/felix2/targets/Cloud_STM32L431_BearPi/Drivers/STM32L4xx_HAL_Driver/Src\stm32l4xx_hal_uart.c ****   }
3107:D:/iot/felix2/targets/Cloud_STM32L431_BearPi/Drivers/STM32L4xx_HAL_Driver/Src\stm32l4xx_hal_uart.c **** 
3108:D:/iot/felix2/targets/Cloud_STM32L431_BearPi/Drivers/STM32L4xx_HAL_Driver/Src\stm32l4xx_hal_uart.c ****   /* if required, configure data inversion */
3109:D:/iot/felix2/targets/Cloud_STM32L431_BearPi/Drivers/STM32L4xx_HAL_Driver/Src\stm32l4xx_hal_uart.c ****   if (HAL_IS_BIT_SET(huart->AdvancedInit.AdvFeatureInit, UART_ADVFEATURE_DATAINVERT_INIT))
 5350              		.loc 1 3109 0
 5351 004c 7B68     		ldr	r3, [r7, #4]
 5352 004e 5B6A     		ldr	r3, [r3, #36]
 5353 0050 03F00403 		and	r3, r3, #4
 5354 0054 002B     		cmp	r3, #0
 5355 0056 0AD0     		beq	.L304
3110:D:/iot/felix2/targets/Cloud_STM32L431_BearPi/Drivers/STM32L4xx_HAL_Driver/Src\stm32l4xx_hal_uart.c ****   {
3111:D:/iot/felix2/targets/Cloud_STM32L431_BearPi/Drivers/STM32L4xx_HAL_Driver/Src\stm32l4xx_hal_uart.c ****     assert_param(IS_UART_ADVFEATURE_DATAINV(huart->AdvancedInit.DataInvert));
3112:D:/iot/felix2/targets/Cloud_STM32L431_BearPi/Drivers/STM32L4xx_HAL_Driver/Src\stm32l4xx_hal_uart.c ****     MODIFY_REG(huart->Instance->CR2, USART_CR2_DATAINV, huart->AdvancedInit.DataInvert);
 5356              		.loc 1 3112 0
 5357 0058 7B68     		ldr	r3, [r7, #4]
 5358 005a 1B68     		ldr	r3, [r3]
 5359 005c 5B68     		ldr	r3, [r3, #4]
 5360 005e 23F48021 		bic	r1, r3, #262144
 5361 0062 7B68     		ldr	r3, [r7, #4]
 5362 0064 1A6B     		ldr	r2, [r3, #48]
 5363 0066 7B68     		ldr	r3, [r7, #4]
 5364 0068 1B68     		ldr	r3, [r3]
 5365 006a 0A43     		orrs	r2, r2, r1
 5366 006c 5A60     		str	r2, [r3, #4]
 5367              	.L304:
3113:D:/iot/felix2/targets/Cloud_STM32L431_BearPi/Drivers/STM32L4xx_HAL_Driver/Src\stm32l4xx_hal_uart.c ****   }
3114:D:/iot/felix2/targets/Cloud_STM32L431_BearPi/Drivers/STM32L4xx_HAL_Driver/Src\stm32l4xx_hal_uart.c **** 
3115:D:/iot/felix2/targets/Cloud_STM32L431_BearPi/Drivers/STM32L4xx_HAL_Driver/Src\stm32l4xx_hal_uart.c ****   /* if required, configure RX/TX pins swap */
3116:D:/iot/felix2/targets/Cloud_STM32L431_BearPi/Drivers/STM32L4xx_HAL_Driver/Src\stm32l4xx_hal_uart.c ****   if (HAL_IS_BIT_SET(huart->AdvancedInit.AdvFeatureInit, UART_ADVFEATURE_SWAP_INIT))
 5368              		.loc 1 3116 0
 5369 006e 7B68     		ldr	r3, [r7, #4]
 5370 0070 5B6A     		ldr	r3, [r3, #36]
 5371 0072 03F00803 		and	r3, r3, #8
 5372 0076 002B     		cmp	r3, #0
 5373 0078 0AD0     		beq	.L305
3117:D:/iot/felix2/targets/Cloud_STM32L431_BearPi/Drivers/STM32L4xx_HAL_Driver/Src\stm32l4xx_hal_uart.c ****   {
3118:D:/iot/felix2/targets/Cloud_STM32L431_BearPi/Drivers/STM32L4xx_HAL_Driver/Src\stm32l4xx_hal_uart.c ****     assert_param(IS_UART_ADVFEATURE_SWAP(huart->AdvancedInit.Swap));
3119:D:/iot/felix2/targets/Cloud_STM32L431_BearPi/Drivers/STM32L4xx_HAL_Driver/Src\stm32l4xx_hal_uart.c ****     MODIFY_REG(huart->Instance->CR2, USART_CR2_SWAP, huart->AdvancedInit.Swap);
 5374              		.loc 1 3119 0
 5375 007a 7B68     		ldr	r3, [r7, #4]
 5376 007c 1B68     		ldr	r3, [r3]
 5377 007e 5B68     		ldr	r3, [r3, #4]
 5378 0080 23F40041 		bic	r1, r3, #32768
 5379 0084 7B68     		ldr	r3, [r7, #4]
 5380 0086 5A6B     		ldr	r2, [r3, #52]
 5381 0088 7B68     		ldr	r3, [r7, #4]
 5382 008a 1B68     		ldr	r3, [r3]
ARM GAS  C:\Users\91458\AppData\Local\Temp\ccrpKNIe.s 			page 149


 5383 008c 0A43     		orrs	r2, r2, r1
 5384 008e 5A60     		str	r2, [r3, #4]
 5385              	.L305:
3120:D:/iot/felix2/targets/Cloud_STM32L431_BearPi/Drivers/STM32L4xx_HAL_Driver/Src\stm32l4xx_hal_uart.c ****   }
3121:D:/iot/felix2/targets/Cloud_STM32L431_BearPi/Drivers/STM32L4xx_HAL_Driver/Src\stm32l4xx_hal_uart.c **** 
3122:D:/iot/felix2/targets/Cloud_STM32L431_BearPi/Drivers/STM32L4xx_HAL_Driver/Src\stm32l4xx_hal_uart.c ****   /* if required, configure RX overrun detection disabling */
3123:D:/iot/felix2/targets/Cloud_STM32L431_BearPi/Drivers/STM32L4xx_HAL_Driver/Src\stm32l4xx_hal_uart.c ****   if (HAL_IS_BIT_SET(huart->AdvancedInit.AdvFeatureInit, UART_ADVFEATURE_RXOVERRUNDISABLE_INIT))
 5386              		.loc 1 3123 0
 5387 0090 7B68     		ldr	r3, [r7, #4]
 5388 0092 5B6A     		ldr	r3, [r3, #36]
 5389 0094 03F01003 		and	r3, r3, #16
 5390 0098 002B     		cmp	r3, #0
 5391 009a 0AD0     		beq	.L306
3124:D:/iot/felix2/targets/Cloud_STM32L431_BearPi/Drivers/STM32L4xx_HAL_Driver/Src\stm32l4xx_hal_uart.c ****   {
3125:D:/iot/felix2/targets/Cloud_STM32L431_BearPi/Drivers/STM32L4xx_HAL_Driver/Src\stm32l4xx_hal_uart.c ****     assert_param(IS_UART_OVERRUN(huart->AdvancedInit.OverrunDisable));
3126:D:/iot/felix2/targets/Cloud_STM32L431_BearPi/Drivers/STM32L4xx_HAL_Driver/Src\stm32l4xx_hal_uart.c ****     MODIFY_REG(huart->Instance->CR3, USART_CR3_OVRDIS, huart->AdvancedInit.OverrunDisable);
 5392              		.loc 1 3126 0
 5393 009c 7B68     		ldr	r3, [r7, #4]
 5394 009e 1B68     		ldr	r3, [r3]
 5395 00a0 9B68     		ldr	r3, [r3, #8]
 5396 00a2 23F48051 		bic	r1, r3, #4096
 5397 00a6 7B68     		ldr	r3, [r7, #4]
 5398 00a8 9A6B     		ldr	r2, [r3, #56]
 5399 00aa 7B68     		ldr	r3, [r7, #4]
 5400 00ac 1B68     		ldr	r3, [r3]
 5401 00ae 0A43     		orrs	r2, r2, r1
 5402 00b0 9A60     		str	r2, [r3, #8]
 5403              	.L306:
3127:D:/iot/felix2/targets/Cloud_STM32L431_BearPi/Drivers/STM32L4xx_HAL_Driver/Src\stm32l4xx_hal_uart.c ****   }
3128:D:/iot/felix2/targets/Cloud_STM32L431_BearPi/Drivers/STM32L4xx_HAL_Driver/Src\stm32l4xx_hal_uart.c **** 
3129:D:/iot/felix2/targets/Cloud_STM32L431_BearPi/Drivers/STM32L4xx_HAL_Driver/Src\stm32l4xx_hal_uart.c ****   /* if required, configure DMA disabling on reception error */
3130:D:/iot/felix2/targets/Cloud_STM32L431_BearPi/Drivers/STM32L4xx_HAL_Driver/Src\stm32l4xx_hal_uart.c ****   if (HAL_IS_BIT_SET(huart->AdvancedInit.AdvFeatureInit, UART_ADVFEATURE_DMADISABLEONERROR_INIT))
 5404              		.loc 1 3130 0
 5405 00b2 7B68     		ldr	r3, [r7, #4]
 5406 00b4 5B6A     		ldr	r3, [r3, #36]
 5407 00b6 03F02003 		and	r3, r3, #32
 5408 00ba 002B     		cmp	r3, #0
 5409 00bc 0AD0     		beq	.L307
3131:D:/iot/felix2/targets/Cloud_STM32L431_BearPi/Drivers/STM32L4xx_HAL_Driver/Src\stm32l4xx_hal_uart.c ****   {
3132:D:/iot/felix2/targets/Cloud_STM32L431_BearPi/Drivers/STM32L4xx_HAL_Driver/Src\stm32l4xx_hal_uart.c ****     assert_param(IS_UART_ADVFEATURE_DMAONRXERROR(huart->AdvancedInit.DMADisableonRxError));
3133:D:/iot/felix2/targets/Cloud_STM32L431_BearPi/Drivers/STM32L4xx_HAL_Driver/Src\stm32l4xx_hal_uart.c ****     MODIFY_REG(huart->Instance->CR3, USART_CR3_DDRE, huart->AdvancedInit.DMADisableonRxError);
 5410              		.loc 1 3133 0
 5411 00be 7B68     		ldr	r3, [r7, #4]
 5412 00c0 1B68     		ldr	r3, [r3]
 5413 00c2 9B68     		ldr	r3, [r3, #8]
 5414 00c4 23F40051 		bic	r1, r3, #8192
 5415 00c8 7B68     		ldr	r3, [r7, #4]
 5416 00ca DA6B     		ldr	r2, [r3, #60]
 5417 00cc 7B68     		ldr	r3, [r7, #4]
 5418 00ce 1B68     		ldr	r3, [r3]
 5419 00d0 0A43     		orrs	r2, r2, r1
 5420 00d2 9A60     		str	r2, [r3, #8]
 5421              	.L307:
3134:D:/iot/felix2/targets/Cloud_STM32L431_BearPi/Drivers/STM32L4xx_HAL_Driver/Src\stm32l4xx_hal_uart.c ****   }
3135:D:/iot/felix2/targets/Cloud_STM32L431_BearPi/Drivers/STM32L4xx_HAL_Driver/Src\stm32l4xx_hal_uart.c **** 
3136:D:/iot/felix2/targets/Cloud_STM32L431_BearPi/Drivers/STM32L4xx_HAL_Driver/Src\stm32l4xx_hal_uart.c ****   /* if required, configure auto Baud rate detection scheme */
3137:D:/iot/felix2/targets/Cloud_STM32L431_BearPi/Drivers/STM32L4xx_HAL_Driver/Src\stm32l4xx_hal_uart.c ****   if (HAL_IS_BIT_SET(huart->AdvancedInit.AdvFeatureInit, UART_ADVFEATURE_AUTOBAUDRATE_INIT))
ARM GAS  C:\Users\91458\AppData\Local\Temp\ccrpKNIe.s 			page 150


 5422              		.loc 1 3137 0
 5423 00d4 7B68     		ldr	r3, [r7, #4]
 5424 00d6 5B6A     		ldr	r3, [r3, #36]
 5425 00d8 03F04003 		and	r3, r3, #64
 5426 00dc 002B     		cmp	r3, #0
 5427 00de 1AD0     		beq	.L308
3138:D:/iot/felix2/targets/Cloud_STM32L431_BearPi/Drivers/STM32L4xx_HAL_Driver/Src\stm32l4xx_hal_uart.c ****   {
3139:D:/iot/felix2/targets/Cloud_STM32L431_BearPi/Drivers/STM32L4xx_HAL_Driver/Src\stm32l4xx_hal_uart.c ****     assert_param(IS_USART_AUTOBAUDRATE_DETECTION_INSTANCE(huart->Instance));
3140:D:/iot/felix2/targets/Cloud_STM32L431_BearPi/Drivers/STM32L4xx_HAL_Driver/Src\stm32l4xx_hal_uart.c ****     assert_param(IS_UART_ADVFEATURE_AUTOBAUDRATE(huart->AdvancedInit.AutoBaudRateEnable));
3141:D:/iot/felix2/targets/Cloud_STM32L431_BearPi/Drivers/STM32L4xx_HAL_Driver/Src\stm32l4xx_hal_uart.c ****     MODIFY_REG(huart->Instance->CR2, USART_CR2_ABREN, huart->AdvancedInit.AutoBaudRateEnable);
 5428              		.loc 1 3141 0
 5429 00e0 7B68     		ldr	r3, [r7, #4]
 5430 00e2 1B68     		ldr	r3, [r3]
 5431 00e4 5B68     		ldr	r3, [r3, #4]
 5432 00e6 23F48011 		bic	r1, r3, #1048576
 5433 00ea 7B68     		ldr	r3, [r7, #4]
 5434 00ec 1A6C     		ldr	r2, [r3, #64]
 5435 00ee 7B68     		ldr	r3, [r7, #4]
 5436 00f0 1B68     		ldr	r3, [r3]
 5437 00f2 0A43     		orrs	r2, r2, r1
 5438 00f4 5A60     		str	r2, [r3, #4]
3142:D:/iot/felix2/targets/Cloud_STM32L431_BearPi/Drivers/STM32L4xx_HAL_Driver/Src\stm32l4xx_hal_uart.c ****     /* set auto Baudrate detection parameters if detection is enabled */
3143:D:/iot/felix2/targets/Cloud_STM32L431_BearPi/Drivers/STM32L4xx_HAL_Driver/Src\stm32l4xx_hal_uart.c ****     if (huart->AdvancedInit.AutoBaudRateEnable == UART_ADVFEATURE_AUTOBAUDRATE_ENABLE)
 5439              		.loc 1 3143 0
 5440 00f6 7B68     		ldr	r3, [r7, #4]
 5441 00f8 1B6C     		ldr	r3, [r3, #64]
 5442 00fa B3F5801F 		cmp	r3, #1048576
 5443 00fe 0AD1     		bne	.L308
3144:D:/iot/felix2/targets/Cloud_STM32L431_BearPi/Drivers/STM32L4xx_HAL_Driver/Src\stm32l4xx_hal_uart.c ****     {
3145:D:/iot/felix2/targets/Cloud_STM32L431_BearPi/Drivers/STM32L4xx_HAL_Driver/Src\stm32l4xx_hal_uart.c ****       assert_param(IS_UART_ADVFEATURE_AUTOBAUDRATEMODE(huart->AdvancedInit.AutoBaudRateMode));
3146:D:/iot/felix2/targets/Cloud_STM32L431_BearPi/Drivers/STM32L4xx_HAL_Driver/Src\stm32l4xx_hal_uart.c ****       MODIFY_REG(huart->Instance->CR2, USART_CR2_ABRMODE, huart->AdvancedInit.AutoBaudRateMode);
 5444              		.loc 1 3146 0
 5445 0100 7B68     		ldr	r3, [r7, #4]
 5446 0102 1B68     		ldr	r3, [r3]
 5447 0104 5B68     		ldr	r3, [r3, #4]
 5448 0106 23F4C001 		bic	r1, r3, #6291456
 5449 010a 7B68     		ldr	r3, [r7, #4]
 5450 010c 5A6C     		ldr	r2, [r3, #68]
 5451 010e 7B68     		ldr	r3, [r7, #4]
 5452 0110 1B68     		ldr	r3, [r3]
 5453 0112 0A43     		orrs	r2, r2, r1
 5454 0114 5A60     		str	r2, [r3, #4]
 5455              	.L308:
3147:D:/iot/felix2/targets/Cloud_STM32L431_BearPi/Drivers/STM32L4xx_HAL_Driver/Src\stm32l4xx_hal_uart.c ****     }
3148:D:/iot/felix2/targets/Cloud_STM32L431_BearPi/Drivers/STM32L4xx_HAL_Driver/Src\stm32l4xx_hal_uart.c ****   }
3149:D:/iot/felix2/targets/Cloud_STM32L431_BearPi/Drivers/STM32L4xx_HAL_Driver/Src\stm32l4xx_hal_uart.c **** 
3150:D:/iot/felix2/targets/Cloud_STM32L431_BearPi/Drivers/STM32L4xx_HAL_Driver/Src\stm32l4xx_hal_uart.c ****   /* if required, configure MSB first on communication line */
3151:D:/iot/felix2/targets/Cloud_STM32L431_BearPi/Drivers/STM32L4xx_HAL_Driver/Src\stm32l4xx_hal_uart.c ****   if (HAL_IS_BIT_SET(huart->AdvancedInit.AdvFeatureInit, UART_ADVFEATURE_MSBFIRST_INIT))
 5456              		.loc 1 3151 0
 5457 0116 7B68     		ldr	r3, [r7, #4]
 5458 0118 5B6A     		ldr	r3, [r3, #36]
 5459 011a 03F08003 		and	r3, r3, #128
 5460 011e 002B     		cmp	r3, #0
 5461 0120 0AD0     		beq	.L310
3152:D:/iot/felix2/targets/Cloud_STM32L431_BearPi/Drivers/STM32L4xx_HAL_Driver/Src\stm32l4xx_hal_uart.c ****   {
3153:D:/iot/felix2/targets/Cloud_STM32L431_BearPi/Drivers/STM32L4xx_HAL_Driver/Src\stm32l4xx_hal_uart.c ****     assert_param(IS_UART_ADVFEATURE_MSBFIRST(huart->AdvancedInit.MSBFirst));
3154:D:/iot/felix2/targets/Cloud_STM32L431_BearPi/Drivers/STM32L4xx_HAL_Driver/Src\stm32l4xx_hal_uart.c ****     MODIFY_REG(huart->Instance->CR2, USART_CR2_MSBFIRST, huart->AdvancedInit.MSBFirst);
ARM GAS  C:\Users\91458\AppData\Local\Temp\ccrpKNIe.s 			page 151


 5462              		.loc 1 3154 0
 5463 0122 7B68     		ldr	r3, [r7, #4]
 5464 0124 1B68     		ldr	r3, [r3]
 5465 0126 5B68     		ldr	r3, [r3, #4]
 5466 0128 23F40021 		bic	r1, r3, #524288
 5467 012c 7B68     		ldr	r3, [r7, #4]
 5468 012e 9A6C     		ldr	r2, [r3, #72]
 5469 0130 7B68     		ldr	r3, [r7, #4]
 5470 0132 1B68     		ldr	r3, [r3]
 5471 0134 0A43     		orrs	r2, r2, r1
 5472 0136 5A60     		str	r2, [r3, #4]
 5473              	.L310:
3155:D:/iot/felix2/targets/Cloud_STM32L431_BearPi/Drivers/STM32L4xx_HAL_Driver/Src\stm32l4xx_hal_uart.c ****   }
3156:D:/iot/felix2/targets/Cloud_STM32L431_BearPi/Drivers/STM32L4xx_HAL_Driver/Src\stm32l4xx_hal_uart.c **** }
 5474              		.loc 1 3156 0
 5475 0138 00BF     		nop
 5476 013a 0C37     		adds	r7, r7, #12
 5477              	.LCFI223:
 5478              		.cfi_def_cfa_offset 4
 5479 013c BD46     		mov	sp, r7
 5480              	.LCFI224:
 5481              		.cfi_def_cfa_register 13
 5482              		@ sp needed
 5483 013e 5DF8047B 		ldr	r7, [sp], #4
 5484              	.LCFI225:
 5485              		.cfi_restore 7
 5486              		.cfi_def_cfa_offset 0
 5487 0142 7047     		bx	lr
 5488              		.cfi_endproc
 5489              	.LFE173:
 5491              		.section	.text.UART_CheckIdleState,"ax",%progbits
 5492              		.align	1
 5493              		.global	UART_CheckIdleState
 5494              		.syntax unified
 5495              		.thumb
 5496              		.thumb_func
 5497              		.fpu fpv4-sp-d16
 5499              	UART_CheckIdleState:
 5500              	.LFB174:
3157:D:/iot/felix2/targets/Cloud_STM32L431_BearPi/Drivers/STM32L4xx_HAL_Driver/Src\stm32l4xx_hal_uart.c **** 
3158:D:/iot/felix2/targets/Cloud_STM32L431_BearPi/Drivers/STM32L4xx_HAL_Driver/Src\stm32l4xx_hal_uart.c **** /**
3159:D:/iot/felix2/targets/Cloud_STM32L431_BearPi/Drivers/STM32L4xx_HAL_Driver/Src\stm32l4xx_hal_uart.c ****   * @brief Check the UART Idle State.
3160:D:/iot/felix2/targets/Cloud_STM32L431_BearPi/Drivers/STM32L4xx_HAL_Driver/Src\stm32l4xx_hal_uart.c ****   * @param huart UART handle.
3161:D:/iot/felix2/targets/Cloud_STM32L431_BearPi/Drivers/STM32L4xx_HAL_Driver/Src\stm32l4xx_hal_uart.c ****   * @retval HAL status
3162:D:/iot/felix2/targets/Cloud_STM32L431_BearPi/Drivers/STM32L4xx_HAL_Driver/Src\stm32l4xx_hal_uart.c ****   */
3163:D:/iot/felix2/targets/Cloud_STM32L431_BearPi/Drivers/STM32L4xx_HAL_Driver/Src\stm32l4xx_hal_uart.c **** HAL_StatusTypeDef UART_CheckIdleState(UART_HandleTypeDef *huart)
3164:D:/iot/felix2/targets/Cloud_STM32L431_BearPi/Drivers/STM32L4xx_HAL_Driver/Src\stm32l4xx_hal_uart.c **** {
 5501              		.loc 1 3164 0
 5502              		.cfi_startproc
 5503              		@ args = 0, pretend = 0, frame = 16
 5504              		@ frame_needed = 1, uses_anonymous_args = 0
 5505 0000 80B5     		push	{r7, lr}
 5506              	.LCFI226:
 5507              		.cfi_def_cfa_offset 8
 5508              		.cfi_offset 7, -8
 5509              		.cfi_offset 14, -4
 5510 0002 86B0     		sub	sp, sp, #24
ARM GAS  C:\Users\91458\AppData\Local\Temp\ccrpKNIe.s 			page 152


 5511              	.LCFI227:
 5512              		.cfi_def_cfa_offset 32
 5513 0004 02AF     		add	r7, sp, #8
 5514              	.LCFI228:
 5515              		.cfi_def_cfa 7, 24
 5516 0006 7860     		str	r0, [r7, #4]
3165:D:/iot/felix2/targets/Cloud_STM32L431_BearPi/Drivers/STM32L4xx_HAL_Driver/Src\stm32l4xx_hal_uart.c ****   uint32_t tickstart = 0U;
 5517              		.loc 1 3165 0
 5518 0008 0023     		movs	r3, #0
 5519 000a FB60     		str	r3, [r7, #12]
3166:D:/iot/felix2/targets/Cloud_STM32L431_BearPi/Drivers/STM32L4xx_HAL_Driver/Src\stm32l4xx_hal_uart.c **** 
3167:D:/iot/felix2/targets/Cloud_STM32L431_BearPi/Drivers/STM32L4xx_HAL_Driver/Src\stm32l4xx_hal_uart.c ****   /* Initialize the UART ErrorCode */
3168:D:/iot/felix2/targets/Cloud_STM32L431_BearPi/Drivers/STM32L4xx_HAL_Driver/Src\stm32l4xx_hal_uart.c ****   huart->ErrorCode = HAL_UART_ERROR_NONE;
 5520              		.loc 1 3168 0
 5521 000c 7B68     		ldr	r3, [r7, #4]
 5522 000e 0022     		movs	r2, #0
 5523 0010 5A67     		str	r2, [r3, #116]
3169:D:/iot/felix2/targets/Cloud_STM32L431_BearPi/Drivers/STM32L4xx_HAL_Driver/Src\stm32l4xx_hal_uart.c **** 
3170:D:/iot/felix2/targets/Cloud_STM32L431_BearPi/Drivers/STM32L4xx_HAL_Driver/Src\stm32l4xx_hal_uart.c ****   /* Init tickstart for timeout managment*/
3171:D:/iot/felix2/targets/Cloud_STM32L431_BearPi/Drivers/STM32L4xx_HAL_Driver/Src\stm32l4xx_hal_uart.c ****   tickstart = HAL_GetTick();
 5524              		.loc 1 3171 0
 5525 0012 FFF7FEFF 		bl	HAL_GetTick
 5526 0016 F860     		str	r0, [r7, #12]
3172:D:/iot/felix2/targets/Cloud_STM32L431_BearPi/Drivers/STM32L4xx_HAL_Driver/Src\stm32l4xx_hal_uart.c **** 
3173:D:/iot/felix2/targets/Cloud_STM32L431_BearPi/Drivers/STM32L4xx_HAL_Driver/Src\stm32l4xx_hal_uart.c ****   /* Check if the Transmitter is enabled */
3174:D:/iot/felix2/targets/Cloud_STM32L431_BearPi/Drivers/STM32L4xx_HAL_Driver/Src\stm32l4xx_hal_uart.c ****   if ((huart->Instance->CR1 & USART_CR1_TE) == USART_CR1_TE)
 5527              		.loc 1 3174 0
 5528 0018 7B68     		ldr	r3, [r7, #4]
 5529 001a 1B68     		ldr	r3, [r3]
 5530 001c 1B68     		ldr	r3, [r3]
 5531 001e 03F00803 		and	r3, r3, #8
 5532 0022 082B     		cmp	r3, #8
 5533 0024 0ED1     		bne	.L312
3175:D:/iot/felix2/targets/Cloud_STM32L431_BearPi/Drivers/STM32L4xx_HAL_Driver/Src\stm32l4xx_hal_uart.c ****   {
3176:D:/iot/felix2/targets/Cloud_STM32L431_BearPi/Drivers/STM32L4xx_HAL_Driver/Src\stm32l4xx_hal_uart.c ****     /* Wait until TEACK flag is set */
3177:D:/iot/felix2/targets/Cloud_STM32L431_BearPi/Drivers/STM32L4xx_HAL_Driver/Src\stm32l4xx_hal_uart.c ****     if (UART_WaitOnFlagUntilTimeout(huart, USART_ISR_TEACK, RESET, tickstart, HAL_UART_TIMEOUT_VALU
 5534              		.loc 1 3177 0
 5535 0026 6FF07E43 		mvn	r3, #-33554432
 5536 002a 0093     		str	r3, [sp]
 5537 002c FB68     		ldr	r3, [r7, #12]
 5538 002e 0022     		movs	r2, #0
 5539 0030 4FF40011 		mov	r1, #2097152
 5540 0034 7868     		ldr	r0, [r7, #4]
 5541 0036 FFF7FEFF 		bl	UART_WaitOnFlagUntilTimeout
 5542 003a 0346     		mov	r3, r0
 5543 003c 002B     		cmp	r3, #0
 5544 003e 01D0     		beq	.L312
3178:D:/iot/felix2/targets/Cloud_STM32L431_BearPi/Drivers/STM32L4xx_HAL_Driver/Src\stm32l4xx_hal_uart.c ****     {
3179:D:/iot/felix2/targets/Cloud_STM32L431_BearPi/Drivers/STM32L4xx_HAL_Driver/Src\stm32l4xx_hal_uart.c ****       /* Timeout occurred */
3180:D:/iot/felix2/targets/Cloud_STM32L431_BearPi/Drivers/STM32L4xx_HAL_Driver/Src\stm32l4xx_hal_uart.c ****       return HAL_TIMEOUT;
 5545              		.loc 1 3180 0
 5546 0040 0323     		movs	r3, #3
 5547 0042 22E0     		b	.L313
 5548              	.L312:
3181:D:/iot/felix2/targets/Cloud_STM32L431_BearPi/Drivers/STM32L4xx_HAL_Driver/Src\stm32l4xx_hal_uart.c ****     }
3182:D:/iot/felix2/targets/Cloud_STM32L431_BearPi/Drivers/STM32L4xx_HAL_Driver/Src\stm32l4xx_hal_uart.c ****   }
3183:D:/iot/felix2/targets/Cloud_STM32L431_BearPi/Drivers/STM32L4xx_HAL_Driver/Src\stm32l4xx_hal_uart.c ****   /* Check if the Receiver is enabled */
ARM GAS  C:\Users\91458\AppData\Local\Temp\ccrpKNIe.s 			page 153


3184:D:/iot/felix2/targets/Cloud_STM32L431_BearPi/Drivers/STM32L4xx_HAL_Driver/Src\stm32l4xx_hal_uart.c ****   if ((huart->Instance->CR1 & USART_CR1_RE) == USART_CR1_RE)
 5549              		.loc 1 3184 0
 5550 0044 7B68     		ldr	r3, [r7, #4]
 5551 0046 1B68     		ldr	r3, [r3]
 5552 0048 1B68     		ldr	r3, [r3]
 5553 004a 03F00403 		and	r3, r3, #4
 5554 004e 042B     		cmp	r3, #4
 5555 0050 0ED1     		bne	.L314
3185:D:/iot/felix2/targets/Cloud_STM32L431_BearPi/Drivers/STM32L4xx_HAL_Driver/Src\stm32l4xx_hal_uart.c ****   {
3186:D:/iot/felix2/targets/Cloud_STM32L431_BearPi/Drivers/STM32L4xx_HAL_Driver/Src\stm32l4xx_hal_uart.c ****     /* Wait until REACK flag is set */
3187:D:/iot/felix2/targets/Cloud_STM32L431_BearPi/Drivers/STM32L4xx_HAL_Driver/Src\stm32l4xx_hal_uart.c ****     if (UART_WaitOnFlagUntilTimeout(huart, USART_ISR_REACK, RESET, tickstart, HAL_UART_TIMEOUT_VALU
 5556              		.loc 1 3187 0
 5557 0052 6FF07E43 		mvn	r3, #-33554432
 5558 0056 0093     		str	r3, [sp]
 5559 0058 FB68     		ldr	r3, [r7, #12]
 5560 005a 0022     		movs	r2, #0
 5561 005c 4FF48001 		mov	r1, #4194304
 5562 0060 7868     		ldr	r0, [r7, #4]
 5563 0062 FFF7FEFF 		bl	UART_WaitOnFlagUntilTimeout
 5564 0066 0346     		mov	r3, r0
 5565 0068 002B     		cmp	r3, #0
 5566 006a 01D0     		beq	.L314
3188:D:/iot/felix2/targets/Cloud_STM32L431_BearPi/Drivers/STM32L4xx_HAL_Driver/Src\stm32l4xx_hal_uart.c ****     {
3189:D:/iot/felix2/targets/Cloud_STM32L431_BearPi/Drivers/STM32L4xx_HAL_Driver/Src\stm32l4xx_hal_uart.c ****       /* Timeout occurred */
3190:D:/iot/felix2/targets/Cloud_STM32L431_BearPi/Drivers/STM32L4xx_HAL_Driver/Src\stm32l4xx_hal_uart.c ****       return HAL_TIMEOUT;
 5567              		.loc 1 3190 0
 5568 006c 0323     		movs	r3, #3
 5569 006e 0CE0     		b	.L313
 5570              	.L314:
3191:D:/iot/felix2/targets/Cloud_STM32L431_BearPi/Drivers/STM32L4xx_HAL_Driver/Src\stm32l4xx_hal_uart.c ****     }
3192:D:/iot/felix2/targets/Cloud_STM32L431_BearPi/Drivers/STM32L4xx_HAL_Driver/Src\stm32l4xx_hal_uart.c ****   }
3193:D:/iot/felix2/targets/Cloud_STM32L431_BearPi/Drivers/STM32L4xx_HAL_Driver/Src\stm32l4xx_hal_uart.c **** 
3194:D:/iot/felix2/targets/Cloud_STM32L431_BearPi/Drivers/STM32L4xx_HAL_Driver/Src\stm32l4xx_hal_uart.c ****   /* Initialize the UART State */
3195:D:/iot/felix2/targets/Cloud_STM32L431_BearPi/Drivers/STM32L4xx_HAL_Driver/Src\stm32l4xx_hal_uart.c ****   huart->gState = HAL_UART_STATE_READY;
 5571              		.loc 1 3195 0
 5572 0070 7B68     		ldr	r3, [r7, #4]
 5573 0072 2022     		movs	r2, #32
 5574 0074 83F87120 		strb	r2, [r3, #113]
3196:D:/iot/felix2/targets/Cloud_STM32L431_BearPi/Drivers/STM32L4xx_HAL_Driver/Src\stm32l4xx_hal_uart.c ****   huart->RxState = HAL_UART_STATE_READY;
 5575              		.loc 1 3196 0
 5576 0078 7B68     		ldr	r3, [r7, #4]
 5577 007a 2022     		movs	r2, #32
 5578 007c 83F87220 		strb	r2, [r3, #114]
3197:D:/iot/felix2/targets/Cloud_STM32L431_BearPi/Drivers/STM32L4xx_HAL_Driver/Src\stm32l4xx_hal_uart.c **** 
3198:D:/iot/felix2/targets/Cloud_STM32L431_BearPi/Drivers/STM32L4xx_HAL_Driver/Src\stm32l4xx_hal_uart.c ****   /* Process Unlocked */
3199:D:/iot/felix2/targets/Cloud_STM32L431_BearPi/Drivers/STM32L4xx_HAL_Driver/Src\stm32l4xx_hal_uart.c ****   __HAL_UNLOCK(huart);
 5579              		.loc 1 3199 0
 5580 0080 7B68     		ldr	r3, [r7, #4]
 5581 0082 0022     		movs	r2, #0
 5582 0084 83F87020 		strb	r2, [r3, #112]
3200:D:/iot/felix2/targets/Cloud_STM32L431_BearPi/Drivers/STM32L4xx_HAL_Driver/Src\stm32l4xx_hal_uart.c **** 
3201:D:/iot/felix2/targets/Cloud_STM32L431_BearPi/Drivers/STM32L4xx_HAL_Driver/Src\stm32l4xx_hal_uart.c ****   return HAL_OK;
 5583              		.loc 1 3201 0
 5584 0088 0023     		movs	r3, #0
 5585              	.L313:
3202:D:/iot/felix2/targets/Cloud_STM32L431_BearPi/Drivers/STM32L4xx_HAL_Driver/Src\stm32l4xx_hal_uart.c **** }
 5586              		.loc 1 3202 0
ARM GAS  C:\Users\91458\AppData\Local\Temp\ccrpKNIe.s 			page 154


 5587 008a 1846     		mov	r0, r3
 5588 008c 1037     		adds	r7, r7, #16
 5589              	.LCFI229:
 5590              		.cfi_def_cfa_offset 8
 5591 008e BD46     		mov	sp, r7
 5592              	.LCFI230:
 5593              		.cfi_def_cfa_register 13
 5594              		@ sp needed
 5595 0090 80BD     		pop	{r7, pc}
 5596              		.cfi_endproc
 5597              	.LFE174:
 5599              		.section	.text.UART_WaitOnFlagUntilTimeout,"ax",%progbits
 5600              		.align	1
 5601              		.global	UART_WaitOnFlagUntilTimeout
 5602              		.syntax unified
 5603              		.thumb
 5604              		.thumb_func
 5605              		.fpu fpv4-sp-d16
 5607              	UART_WaitOnFlagUntilTimeout:
 5608              	.LFB175:
3203:D:/iot/felix2/targets/Cloud_STM32L431_BearPi/Drivers/STM32L4xx_HAL_Driver/Src\stm32l4xx_hal_uart.c **** 
3204:D:/iot/felix2/targets/Cloud_STM32L431_BearPi/Drivers/STM32L4xx_HAL_Driver/Src\stm32l4xx_hal_uart.c **** /**
3205:D:/iot/felix2/targets/Cloud_STM32L431_BearPi/Drivers/STM32L4xx_HAL_Driver/Src\stm32l4xx_hal_uart.c ****   * @brief  Handle UART Communication Timeout.
3206:D:/iot/felix2/targets/Cloud_STM32L431_BearPi/Drivers/STM32L4xx_HAL_Driver/Src\stm32l4xx_hal_uart.c ****   * @param huart     UART handle.
3207:D:/iot/felix2/targets/Cloud_STM32L431_BearPi/Drivers/STM32L4xx_HAL_Driver/Src\stm32l4xx_hal_uart.c ****   * @param Flag      Specifies the UART flag to check
3208:D:/iot/felix2/targets/Cloud_STM32L431_BearPi/Drivers/STM32L4xx_HAL_Driver/Src\stm32l4xx_hal_uart.c ****   * @param Status    Flag status (SET or RESET)
3209:D:/iot/felix2/targets/Cloud_STM32L431_BearPi/Drivers/STM32L4xx_HAL_Driver/Src\stm32l4xx_hal_uart.c ****   * @param Tickstart Tick start value
3210:D:/iot/felix2/targets/Cloud_STM32L431_BearPi/Drivers/STM32L4xx_HAL_Driver/Src\stm32l4xx_hal_uart.c ****   * @param Timeout   Timeout duration
3211:D:/iot/felix2/targets/Cloud_STM32L431_BearPi/Drivers/STM32L4xx_HAL_Driver/Src\stm32l4xx_hal_uart.c ****   * @retval HAL status
3212:D:/iot/felix2/targets/Cloud_STM32L431_BearPi/Drivers/STM32L4xx_HAL_Driver/Src\stm32l4xx_hal_uart.c ****   */
3213:D:/iot/felix2/targets/Cloud_STM32L431_BearPi/Drivers/STM32L4xx_HAL_Driver/Src\stm32l4xx_hal_uart.c **** HAL_StatusTypeDef UART_WaitOnFlagUntilTimeout(UART_HandleTypeDef *huart, uint32_t Flag, FlagStatus 
3214:D:/iot/felix2/targets/Cloud_STM32L431_BearPi/Drivers/STM32L4xx_HAL_Driver/Src\stm32l4xx_hal_uart.c **** {
 5609              		.loc 1 3214 0
 5610              		.cfi_startproc
 5611              		@ args = 4, pretend = 0, frame = 16
 5612              		@ frame_needed = 1, uses_anonymous_args = 0
 5613 0000 80B5     		push	{r7, lr}
 5614              	.LCFI231:
 5615              		.cfi_def_cfa_offset 8
 5616              		.cfi_offset 7, -8
 5617              		.cfi_offset 14, -4
 5618 0002 84B0     		sub	sp, sp, #16
 5619              	.LCFI232:
 5620              		.cfi_def_cfa_offset 24
 5621 0004 00AF     		add	r7, sp, #0
 5622              	.LCFI233:
 5623              		.cfi_def_cfa_register 7
 5624 0006 F860     		str	r0, [r7, #12]
 5625 0008 B960     		str	r1, [r7, #8]
 5626 000a 3B60     		str	r3, [r7]
 5627 000c 1346     		mov	r3, r2
 5628 000e FB71     		strb	r3, [r7, #7]
3215:D:/iot/felix2/targets/Cloud_STM32L431_BearPi/Drivers/STM32L4xx_HAL_Driver/Src\stm32l4xx_hal_uart.c ****   /* Wait until flag is set */
3216:D:/iot/felix2/targets/Cloud_STM32L431_BearPi/Drivers/STM32L4xx_HAL_Driver/Src\stm32l4xx_hal_uart.c ****   while ((__HAL_UART_GET_FLAG(huart, Flag) ? SET : RESET) == Status)
 5629              		.loc 1 3216 0
 5630 0010 2CE0     		b	.L316
 5631              	.L319:
ARM GAS  C:\Users\91458\AppData\Local\Temp\ccrpKNIe.s 			page 155


3217:D:/iot/felix2/targets/Cloud_STM32L431_BearPi/Drivers/STM32L4xx_HAL_Driver/Src\stm32l4xx_hal_uart.c ****   {
3218:D:/iot/felix2/targets/Cloud_STM32L431_BearPi/Drivers/STM32L4xx_HAL_Driver/Src\stm32l4xx_hal_uart.c ****     /* Check for the Timeout */
3219:D:/iot/felix2/targets/Cloud_STM32L431_BearPi/Drivers/STM32L4xx_HAL_Driver/Src\stm32l4xx_hal_uart.c ****     if (Timeout != HAL_MAX_DELAY)
 5632              		.loc 1 3219 0
 5633 0012 BB69     		ldr	r3, [r7, #24]
 5634 0014 B3F1FF3F 		cmp	r3, #-1
 5635 0018 28D0     		beq	.L316
3220:D:/iot/felix2/targets/Cloud_STM32L431_BearPi/Drivers/STM32L4xx_HAL_Driver/Src\stm32l4xx_hal_uart.c ****     {
3221:D:/iot/felix2/targets/Cloud_STM32L431_BearPi/Drivers/STM32L4xx_HAL_Driver/Src\stm32l4xx_hal_uart.c ****       if ((Timeout == 0U) || ((HAL_GetTick() - Tickstart) > Timeout))
 5636              		.loc 1 3221 0
 5637 001a BB69     		ldr	r3, [r7, #24]
 5638 001c 002B     		cmp	r3, #0
 5639 001e 07D0     		beq	.L317
 5640              		.loc 1 3221 0 is_stmt 0 discriminator 1
 5641 0020 FFF7FEFF 		bl	HAL_GetTick
 5642 0024 0246     		mov	r2, r0
 5643 0026 3B68     		ldr	r3, [r7]
 5644 0028 D31A     		subs	r3, r2, r3
 5645 002a BA69     		ldr	r2, [r7, #24]
 5646 002c 9A42     		cmp	r2, r3
 5647 002e 1DD2     		bcs	.L316
 5648              	.L317:
3222:D:/iot/felix2/targets/Cloud_STM32L431_BearPi/Drivers/STM32L4xx_HAL_Driver/Src\stm32l4xx_hal_uart.c ****       {
3223:D:/iot/felix2/targets/Cloud_STM32L431_BearPi/Drivers/STM32L4xx_HAL_Driver/Src\stm32l4xx_hal_uart.c ****         /* Disable TXE, RXNE, PE and ERR (Frame error, noise error, overrun error) interrupts for t
3224:D:/iot/felix2/targets/Cloud_STM32L431_BearPi/Drivers/STM32L4xx_HAL_Driver/Src\stm32l4xx_hal_uart.c **** #if defined(USART_CR1_FIFOEN)
3225:D:/iot/felix2/targets/Cloud_STM32L431_BearPi/Drivers/STM32L4xx_HAL_Driver/Src\stm32l4xx_hal_uart.c ****         CLEAR_BIT(huart->Instance->CR1, (USART_CR1_RXNEIE_RXFNEIE | USART_CR1_PEIE | USART_CR1_TXEI
3226:D:/iot/felix2/targets/Cloud_STM32L431_BearPi/Drivers/STM32L4xx_HAL_Driver/Src\stm32l4xx_hal_uart.c **** #else
3227:D:/iot/felix2/targets/Cloud_STM32L431_BearPi/Drivers/STM32L4xx_HAL_Driver/Src\stm32l4xx_hal_uart.c ****         CLEAR_BIT(huart->Instance->CR1, (USART_CR1_RXNEIE | USART_CR1_PEIE | USART_CR1_TXEIE));
 5649              		.loc 1 3227 0 is_stmt 1
 5650 0030 FB68     		ldr	r3, [r7, #12]
 5651 0032 1B68     		ldr	r3, [r3]
 5652 0034 1A68     		ldr	r2, [r3]
 5653 0036 FB68     		ldr	r3, [r7, #12]
 5654 0038 1B68     		ldr	r3, [r3]
 5655 003a 22F4D072 		bic	r2, r2, #416
 5656 003e 1A60     		str	r2, [r3]
3228:D:/iot/felix2/targets/Cloud_STM32L431_BearPi/Drivers/STM32L4xx_HAL_Driver/Src\stm32l4xx_hal_uart.c **** #endif
3229:D:/iot/felix2/targets/Cloud_STM32L431_BearPi/Drivers/STM32L4xx_HAL_Driver/Src\stm32l4xx_hal_uart.c ****         CLEAR_BIT(huart->Instance->CR3, USART_CR3_EIE);
 5657              		.loc 1 3229 0
 5658 0040 FB68     		ldr	r3, [r7, #12]
 5659 0042 1B68     		ldr	r3, [r3]
 5660 0044 9A68     		ldr	r2, [r3, #8]
 5661 0046 FB68     		ldr	r3, [r7, #12]
 5662 0048 1B68     		ldr	r3, [r3]
 5663 004a 22F00102 		bic	r2, r2, #1
 5664 004e 9A60     		str	r2, [r3, #8]
3230:D:/iot/felix2/targets/Cloud_STM32L431_BearPi/Drivers/STM32L4xx_HAL_Driver/Src\stm32l4xx_hal_uart.c **** 
3231:D:/iot/felix2/targets/Cloud_STM32L431_BearPi/Drivers/STM32L4xx_HAL_Driver/Src\stm32l4xx_hal_uart.c ****         huart->gState = HAL_UART_STATE_READY;
 5665              		.loc 1 3231 0
 5666 0050 FB68     		ldr	r3, [r7, #12]
 5667 0052 2022     		movs	r2, #32
 5668 0054 83F87120 		strb	r2, [r3, #113]
3232:D:/iot/felix2/targets/Cloud_STM32L431_BearPi/Drivers/STM32L4xx_HAL_Driver/Src\stm32l4xx_hal_uart.c ****         huart->RxState = HAL_UART_STATE_READY;
 5669              		.loc 1 3232 0
 5670 0058 FB68     		ldr	r3, [r7, #12]
 5671 005a 2022     		movs	r2, #32
 5672 005c 83F87220 		strb	r2, [r3, #114]
ARM GAS  C:\Users\91458\AppData\Local\Temp\ccrpKNIe.s 			page 156


3233:D:/iot/felix2/targets/Cloud_STM32L431_BearPi/Drivers/STM32L4xx_HAL_Driver/Src\stm32l4xx_hal_uart.c **** 
3234:D:/iot/felix2/targets/Cloud_STM32L431_BearPi/Drivers/STM32L4xx_HAL_Driver/Src\stm32l4xx_hal_uart.c ****         /* Process Unlocked */
3235:D:/iot/felix2/targets/Cloud_STM32L431_BearPi/Drivers/STM32L4xx_HAL_Driver/Src\stm32l4xx_hal_uart.c ****         __HAL_UNLOCK(huart);
 5673              		.loc 1 3235 0
 5674 0060 FB68     		ldr	r3, [r7, #12]
 5675 0062 0022     		movs	r2, #0
 5676 0064 83F87020 		strb	r2, [r3, #112]
3236:D:/iot/felix2/targets/Cloud_STM32L431_BearPi/Drivers/STM32L4xx_HAL_Driver/Src\stm32l4xx_hal_uart.c **** 
3237:D:/iot/felix2/targets/Cloud_STM32L431_BearPi/Drivers/STM32L4xx_HAL_Driver/Src\stm32l4xx_hal_uart.c ****         return HAL_TIMEOUT;
 5677              		.loc 1 3237 0
 5678 0068 0323     		movs	r3, #3
 5679 006a 0FE0     		b	.L318
 5680              	.L316:
3216:D:/iot/felix2/targets/Cloud_STM32L431_BearPi/Drivers/STM32L4xx_HAL_Driver/Src\stm32l4xx_hal_uart.c ****   {
 5681              		.loc 1 3216 0
 5682 006c FB68     		ldr	r3, [r7, #12]
 5683 006e 1B68     		ldr	r3, [r3]
 5684 0070 DA69     		ldr	r2, [r3, #28]
 5685 0072 BB68     		ldr	r3, [r7, #8]
 5686 0074 1340     		ands	r3, r3, r2
 5687 0076 BA68     		ldr	r2, [r7, #8]
 5688 0078 9A42     		cmp	r2, r3
 5689 007a 0CBF     		ite	eq
 5690 007c 0123     		moveq	r3, #1
 5691 007e 0023     		movne	r3, #0
 5692 0080 DBB2     		uxtb	r3, r3
 5693 0082 1A46     		mov	r2, r3
 5694 0084 FB79     		ldrb	r3, [r7, #7]	@ zero_extendqisi2
 5695 0086 9A42     		cmp	r2, r3
 5696 0088 C3D0     		beq	.L319
3238:D:/iot/felix2/targets/Cloud_STM32L431_BearPi/Drivers/STM32L4xx_HAL_Driver/Src\stm32l4xx_hal_uart.c ****       }
3239:D:/iot/felix2/targets/Cloud_STM32L431_BearPi/Drivers/STM32L4xx_HAL_Driver/Src\stm32l4xx_hal_uart.c ****     }
3240:D:/iot/felix2/targets/Cloud_STM32L431_BearPi/Drivers/STM32L4xx_HAL_Driver/Src\stm32l4xx_hal_uart.c ****   }
3241:D:/iot/felix2/targets/Cloud_STM32L431_BearPi/Drivers/STM32L4xx_HAL_Driver/Src\stm32l4xx_hal_uart.c ****   return HAL_OK;
 5697              		.loc 1 3241 0
 5698 008a 0023     		movs	r3, #0
 5699              	.L318:
3242:D:/iot/felix2/targets/Cloud_STM32L431_BearPi/Drivers/STM32L4xx_HAL_Driver/Src\stm32l4xx_hal_uart.c **** }
 5700              		.loc 1 3242 0
 5701 008c 1846     		mov	r0, r3
 5702 008e 1037     		adds	r7, r7, #16
 5703              	.LCFI234:
 5704              		.cfi_def_cfa_offset 8
 5705 0090 BD46     		mov	sp, r7
 5706              	.LCFI235:
 5707              		.cfi_def_cfa_register 13
 5708              		@ sp needed
 5709 0092 80BD     		pop	{r7, pc}
 5710              		.cfi_endproc
 5711              	.LFE175:
 5713              		.section	.text.UART_EndTxTransfer,"ax",%progbits
 5714              		.align	1
 5715              		.syntax unified
 5716              		.thumb
 5717              		.thumb_func
 5718              		.fpu fpv4-sp-d16
 5720              	UART_EndTxTransfer:
ARM GAS  C:\Users\91458\AppData\Local\Temp\ccrpKNIe.s 			page 157


 5721              	.LFB176:
3243:D:/iot/felix2/targets/Cloud_STM32L431_BearPi/Drivers/STM32L4xx_HAL_Driver/Src\stm32l4xx_hal_uart.c **** 
3244:D:/iot/felix2/targets/Cloud_STM32L431_BearPi/Drivers/STM32L4xx_HAL_Driver/Src\stm32l4xx_hal_uart.c **** 
3245:D:/iot/felix2/targets/Cloud_STM32L431_BearPi/Drivers/STM32L4xx_HAL_Driver/Src\stm32l4xx_hal_uart.c **** /**
3246:D:/iot/felix2/targets/Cloud_STM32L431_BearPi/Drivers/STM32L4xx_HAL_Driver/Src\stm32l4xx_hal_uart.c ****   * @brief  End ongoing Tx transfer on UART peripheral (following error detection or Transmit compl
3247:D:/iot/felix2/targets/Cloud_STM32L431_BearPi/Drivers/STM32L4xx_HAL_Driver/Src\stm32l4xx_hal_uart.c ****   * @param huart UART handle.
3248:D:/iot/felix2/targets/Cloud_STM32L431_BearPi/Drivers/STM32L4xx_HAL_Driver/Src\stm32l4xx_hal_uart.c ****   * @retval None
3249:D:/iot/felix2/targets/Cloud_STM32L431_BearPi/Drivers/STM32L4xx_HAL_Driver/Src\stm32l4xx_hal_uart.c ****   */
3250:D:/iot/felix2/targets/Cloud_STM32L431_BearPi/Drivers/STM32L4xx_HAL_Driver/Src\stm32l4xx_hal_uart.c **** static void UART_EndTxTransfer(UART_HandleTypeDef *huart)
3251:D:/iot/felix2/targets/Cloud_STM32L431_BearPi/Drivers/STM32L4xx_HAL_Driver/Src\stm32l4xx_hal_uart.c **** {
 5722              		.loc 1 3251 0
 5723              		.cfi_startproc
 5724              		@ args = 0, pretend = 0, frame = 8
 5725              		@ frame_needed = 1, uses_anonymous_args = 0
 5726              		@ link register save eliminated.
 5727 0000 80B4     		push	{r7}
 5728              	.LCFI236:
 5729              		.cfi_def_cfa_offset 4
 5730              		.cfi_offset 7, -4
 5731 0002 83B0     		sub	sp, sp, #12
 5732              	.LCFI237:
 5733              		.cfi_def_cfa_offset 16
 5734 0004 00AF     		add	r7, sp, #0
 5735              	.LCFI238:
 5736              		.cfi_def_cfa_register 7
 5737 0006 7860     		str	r0, [r7, #4]
3252:D:/iot/felix2/targets/Cloud_STM32L431_BearPi/Drivers/STM32L4xx_HAL_Driver/Src\stm32l4xx_hal_uart.c **** #if defined(USART_CR1_FIFOEN)
3253:D:/iot/felix2/targets/Cloud_STM32L431_BearPi/Drivers/STM32L4xx_HAL_Driver/Src\stm32l4xx_hal_uart.c ****   /* Disable TXEIE, TCIE, TXFT interrupts */
3254:D:/iot/felix2/targets/Cloud_STM32L431_BearPi/Drivers/STM32L4xx_HAL_Driver/Src\stm32l4xx_hal_uart.c ****   CLEAR_BIT(huart->Instance->CR1, (USART_CR1_TXEIE_TXFNFIE | USART_CR1_TCIE));
3255:D:/iot/felix2/targets/Cloud_STM32L431_BearPi/Drivers/STM32L4xx_HAL_Driver/Src\stm32l4xx_hal_uart.c ****   CLEAR_BIT(huart->Instance->CR3, (USART_CR3_TXFTIE));
3256:D:/iot/felix2/targets/Cloud_STM32L431_BearPi/Drivers/STM32L4xx_HAL_Driver/Src\stm32l4xx_hal_uart.c **** #else
3257:D:/iot/felix2/targets/Cloud_STM32L431_BearPi/Drivers/STM32L4xx_HAL_Driver/Src\stm32l4xx_hal_uart.c ****   /* Disable TXEIE and TCIE interrupts */
3258:D:/iot/felix2/targets/Cloud_STM32L431_BearPi/Drivers/STM32L4xx_HAL_Driver/Src\stm32l4xx_hal_uart.c ****   CLEAR_BIT(huart->Instance->CR1, (USART_CR1_TXEIE | USART_CR1_TCIE));
 5738              		.loc 1 3258 0
 5739 0008 7B68     		ldr	r3, [r7, #4]
 5740 000a 1B68     		ldr	r3, [r3]
 5741 000c 1A68     		ldr	r2, [r3]
 5742 000e 7B68     		ldr	r3, [r7, #4]
 5743 0010 1B68     		ldr	r3, [r3]
 5744 0012 22F0C002 		bic	r2, r2, #192
 5745 0016 1A60     		str	r2, [r3]
3259:D:/iot/felix2/targets/Cloud_STM32L431_BearPi/Drivers/STM32L4xx_HAL_Driver/Src\stm32l4xx_hal_uart.c **** #endif
3260:D:/iot/felix2/targets/Cloud_STM32L431_BearPi/Drivers/STM32L4xx_HAL_Driver/Src\stm32l4xx_hal_uart.c **** 
3261:D:/iot/felix2/targets/Cloud_STM32L431_BearPi/Drivers/STM32L4xx_HAL_Driver/Src\stm32l4xx_hal_uart.c ****   /* At end of Tx process, restore huart->gState to Ready */
3262:D:/iot/felix2/targets/Cloud_STM32L431_BearPi/Drivers/STM32L4xx_HAL_Driver/Src\stm32l4xx_hal_uart.c ****   huart->gState = HAL_UART_STATE_READY;
 5746              		.loc 1 3262 0
 5747 0018 7B68     		ldr	r3, [r7, #4]
 5748 001a 2022     		movs	r2, #32
 5749 001c 83F87120 		strb	r2, [r3, #113]
3263:D:/iot/felix2/targets/Cloud_STM32L431_BearPi/Drivers/STM32L4xx_HAL_Driver/Src\stm32l4xx_hal_uart.c **** }
 5750              		.loc 1 3263 0
 5751 0020 00BF     		nop
 5752 0022 0C37     		adds	r7, r7, #12
 5753              	.LCFI239:
 5754              		.cfi_def_cfa_offset 4
 5755 0024 BD46     		mov	sp, r7
 5756              	.LCFI240:
ARM GAS  C:\Users\91458\AppData\Local\Temp\ccrpKNIe.s 			page 158


 5757              		.cfi_def_cfa_register 13
 5758              		@ sp needed
 5759 0026 5DF8047B 		ldr	r7, [sp], #4
 5760              	.LCFI241:
 5761              		.cfi_restore 7
 5762              		.cfi_def_cfa_offset 0
 5763 002a 7047     		bx	lr
 5764              		.cfi_endproc
 5765              	.LFE176:
 5767              		.section	.text.UART_EndRxTransfer,"ax",%progbits
 5768              		.align	1
 5769              		.syntax unified
 5770              		.thumb
 5771              		.thumb_func
 5772              		.fpu fpv4-sp-d16
 5774              	UART_EndRxTransfer:
 5775              	.LFB177:
3264:D:/iot/felix2/targets/Cloud_STM32L431_BearPi/Drivers/STM32L4xx_HAL_Driver/Src\stm32l4xx_hal_uart.c **** 
3265:D:/iot/felix2/targets/Cloud_STM32L431_BearPi/Drivers/STM32L4xx_HAL_Driver/Src\stm32l4xx_hal_uart.c **** 
3266:D:/iot/felix2/targets/Cloud_STM32L431_BearPi/Drivers/STM32L4xx_HAL_Driver/Src\stm32l4xx_hal_uart.c **** /**
3267:D:/iot/felix2/targets/Cloud_STM32L431_BearPi/Drivers/STM32L4xx_HAL_Driver/Src\stm32l4xx_hal_uart.c ****   * @brief  End ongoing Rx transfer on UART peripheral (following error detection or Reception comp
3268:D:/iot/felix2/targets/Cloud_STM32L431_BearPi/Drivers/STM32L4xx_HAL_Driver/Src\stm32l4xx_hal_uart.c ****   * @param huart UART handle.
3269:D:/iot/felix2/targets/Cloud_STM32L431_BearPi/Drivers/STM32L4xx_HAL_Driver/Src\stm32l4xx_hal_uart.c ****   * @retval None
3270:D:/iot/felix2/targets/Cloud_STM32L431_BearPi/Drivers/STM32L4xx_HAL_Driver/Src\stm32l4xx_hal_uart.c ****   */
3271:D:/iot/felix2/targets/Cloud_STM32L431_BearPi/Drivers/STM32L4xx_HAL_Driver/Src\stm32l4xx_hal_uart.c **** static void UART_EndRxTransfer(UART_HandleTypeDef *huart)
3272:D:/iot/felix2/targets/Cloud_STM32L431_BearPi/Drivers/STM32L4xx_HAL_Driver/Src\stm32l4xx_hal_uart.c **** {
 5776              		.loc 1 3272 0
 5777              		.cfi_startproc
 5778              		@ args = 0, pretend = 0, frame = 8
 5779              		@ frame_needed = 1, uses_anonymous_args = 0
 5780              		@ link register save eliminated.
 5781 0000 80B4     		push	{r7}
 5782              	.LCFI242:
 5783              		.cfi_def_cfa_offset 4
 5784              		.cfi_offset 7, -4
 5785 0002 83B0     		sub	sp, sp, #12
 5786              	.LCFI243:
 5787              		.cfi_def_cfa_offset 16
 5788 0004 00AF     		add	r7, sp, #0
 5789              	.LCFI244:
 5790              		.cfi_def_cfa_register 7
 5791 0006 7860     		str	r0, [r7, #4]
3273:D:/iot/felix2/targets/Cloud_STM32L431_BearPi/Drivers/STM32L4xx_HAL_Driver/Src\stm32l4xx_hal_uart.c ****   /* Disable RXNE, PE and ERR (Frame error, noise error, overrun error) interrupts */
3274:D:/iot/felix2/targets/Cloud_STM32L431_BearPi/Drivers/STM32L4xx_HAL_Driver/Src\stm32l4xx_hal_uart.c **** #if defined(USART_CR1_FIFOEN)
3275:D:/iot/felix2/targets/Cloud_STM32L431_BearPi/Drivers/STM32L4xx_HAL_Driver/Src\stm32l4xx_hal_uart.c ****   CLEAR_BIT(huart->Instance->CR1, (USART_CR1_RXNEIE_RXFNEIE | USART_CR1_PEIE));
3276:D:/iot/felix2/targets/Cloud_STM32L431_BearPi/Drivers/STM32L4xx_HAL_Driver/Src\stm32l4xx_hal_uart.c ****   CLEAR_BIT(huart->Instance->CR3, (USART_CR3_EIE | USART_CR3_RXFTIE));
3277:D:/iot/felix2/targets/Cloud_STM32L431_BearPi/Drivers/STM32L4xx_HAL_Driver/Src\stm32l4xx_hal_uart.c **** #else
3278:D:/iot/felix2/targets/Cloud_STM32L431_BearPi/Drivers/STM32L4xx_HAL_Driver/Src\stm32l4xx_hal_uart.c ****   CLEAR_BIT(huart->Instance->CR1, (USART_CR1_RXNEIE | USART_CR1_PEIE));
 5792              		.loc 1 3278 0
 5793 0008 7B68     		ldr	r3, [r7, #4]
 5794 000a 1B68     		ldr	r3, [r3]
 5795 000c 1A68     		ldr	r2, [r3]
 5796 000e 7B68     		ldr	r3, [r7, #4]
 5797 0010 1B68     		ldr	r3, [r3]
 5798 0012 22F49072 		bic	r2, r2, #288
 5799 0016 1A60     		str	r2, [r3]
3279:D:/iot/felix2/targets/Cloud_STM32L431_BearPi/Drivers/STM32L4xx_HAL_Driver/Src\stm32l4xx_hal_uart.c ****   CLEAR_BIT(huart->Instance->CR3, USART_CR3_EIE);
ARM GAS  C:\Users\91458\AppData\Local\Temp\ccrpKNIe.s 			page 159


 5800              		.loc 1 3279 0
 5801 0018 7B68     		ldr	r3, [r7, #4]
 5802 001a 1B68     		ldr	r3, [r3]
 5803 001c 9A68     		ldr	r2, [r3, #8]
 5804 001e 7B68     		ldr	r3, [r7, #4]
 5805 0020 1B68     		ldr	r3, [r3]
 5806 0022 22F00102 		bic	r2, r2, #1
 5807 0026 9A60     		str	r2, [r3, #8]
3280:D:/iot/felix2/targets/Cloud_STM32L431_BearPi/Drivers/STM32L4xx_HAL_Driver/Src\stm32l4xx_hal_uart.c **** #endif
3281:D:/iot/felix2/targets/Cloud_STM32L431_BearPi/Drivers/STM32L4xx_HAL_Driver/Src\stm32l4xx_hal_uart.c **** 
3282:D:/iot/felix2/targets/Cloud_STM32L431_BearPi/Drivers/STM32L4xx_HAL_Driver/Src\stm32l4xx_hal_uart.c ****   /* At end of Rx process, restore huart->RxState to Ready */
3283:D:/iot/felix2/targets/Cloud_STM32L431_BearPi/Drivers/STM32L4xx_HAL_Driver/Src\stm32l4xx_hal_uart.c ****   huart->RxState = HAL_UART_STATE_READY;
 5808              		.loc 1 3283 0
 5809 0028 7B68     		ldr	r3, [r7, #4]
 5810 002a 2022     		movs	r2, #32
 5811 002c 83F87220 		strb	r2, [r3, #114]
3284:D:/iot/felix2/targets/Cloud_STM32L431_BearPi/Drivers/STM32L4xx_HAL_Driver/Src\stm32l4xx_hal_uart.c **** 
3285:D:/iot/felix2/targets/Cloud_STM32L431_BearPi/Drivers/STM32L4xx_HAL_Driver/Src\stm32l4xx_hal_uart.c ****   /* Reset RxIsr function pointer */
3286:D:/iot/felix2/targets/Cloud_STM32L431_BearPi/Drivers/STM32L4xx_HAL_Driver/Src\stm32l4xx_hal_uart.c ****   huart->RxISR = NULL;
 5812              		.loc 1 3286 0
 5813 0030 7B68     		ldr	r3, [r7, #4]
 5814 0032 0022     		movs	r2, #0
 5815 0034 1A66     		str	r2, [r3, #96]
3287:D:/iot/felix2/targets/Cloud_STM32L431_BearPi/Drivers/STM32L4xx_HAL_Driver/Src\stm32l4xx_hal_uart.c **** }
 5816              		.loc 1 3287 0
 5817 0036 00BF     		nop
 5818 0038 0C37     		adds	r7, r7, #12
 5819              	.LCFI245:
 5820              		.cfi_def_cfa_offset 4
 5821 003a BD46     		mov	sp, r7
 5822              	.LCFI246:
 5823              		.cfi_def_cfa_register 13
 5824              		@ sp needed
 5825 003c 5DF8047B 		ldr	r7, [sp], #4
 5826              	.LCFI247:
 5827              		.cfi_restore 7
 5828              		.cfi_def_cfa_offset 0
 5829 0040 7047     		bx	lr
 5830              		.cfi_endproc
 5831              	.LFE177:
 5833              		.section	.text.UART_DMATransmitCplt,"ax",%progbits
 5834              		.align	1
 5835              		.syntax unified
 5836              		.thumb
 5837              		.thumb_func
 5838              		.fpu fpv4-sp-d16
 5840              	UART_DMATransmitCplt:
 5841              	.LFB178:
3288:D:/iot/felix2/targets/Cloud_STM32L431_BearPi/Drivers/STM32L4xx_HAL_Driver/Src\stm32l4xx_hal_uart.c **** 
3289:D:/iot/felix2/targets/Cloud_STM32L431_BearPi/Drivers/STM32L4xx_HAL_Driver/Src\stm32l4xx_hal_uart.c **** 
3290:D:/iot/felix2/targets/Cloud_STM32L431_BearPi/Drivers/STM32L4xx_HAL_Driver/Src\stm32l4xx_hal_uart.c **** /**
3291:D:/iot/felix2/targets/Cloud_STM32L431_BearPi/Drivers/STM32L4xx_HAL_Driver/Src\stm32l4xx_hal_uart.c ****   * @brief DMA UART transmit process complete callback.
3292:D:/iot/felix2/targets/Cloud_STM32L431_BearPi/Drivers/STM32L4xx_HAL_Driver/Src\stm32l4xx_hal_uart.c ****   * @param hdma DMA handle.
3293:D:/iot/felix2/targets/Cloud_STM32L431_BearPi/Drivers/STM32L4xx_HAL_Driver/Src\stm32l4xx_hal_uart.c ****   * @retval None
3294:D:/iot/felix2/targets/Cloud_STM32L431_BearPi/Drivers/STM32L4xx_HAL_Driver/Src\stm32l4xx_hal_uart.c ****   */
3295:D:/iot/felix2/targets/Cloud_STM32L431_BearPi/Drivers/STM32L4xx_HAL_Driver/Src\stm32l4xx_hal_uart.c **** static void UART_DMATransmitCplt(DMA_HandleTypeDef *hdma)
3296:D:/iot/felix2/targets/Cloud_STM32L431_BearPi/Drivers/STM32L4xx_HAL_Driver/Src\stm32l4xx_hal_uart.c **** {
ARM GAS  C:\Users\91458\AppData\Local\Temp\ccrpKNIe.s 			page 160


 5842              		.loc 1 3296 0
 5843              		.cfi_startproc
 5844              		@ args = 0, pretend = 0, frame = 16
 5845              		@ frame_needed = 1, uses_anonymous_args = 0
 5846 0000 80B5     		push	{r7, lr}
 5847              	.LCFI248:
 5848              		.cfi_def_cfa_offset 8
 5849              		.cfi_offset 7, -8
 5850              		.cfi_offset 14, -4
 5851 0002 84B0     		sub	sp, sp, #16
 5852              	.LCFI249:
 5853              		.cfi_def_cfa_offset 24
 5854 0004 00AF     		add	r7, sp, #0
 5855              	.LCFI250:
 5856              		.cfi_def_cfa_register 7
 5857 0006 7860     		str	r0, [r7, #4]
3297:D:/iot/felix2/targets/Cloud_STM32L431_BearPi/Drivers/STM32L4xx_HAL_Driver/Src\stm32l4xx_hal_uart.c ****   UART_HandleTypeDef *huart = (UART_HandleTypeDef *)(hdma->Parent);
 5858              		.loc 1 3297 0
 5859 0008 7B68     		ldr	r3, [r7, #4]
 5860 000a 9B6A     		ldr	r3, [r3, #40]
 5861 000c FB60     		str	r3, [r7, #12]
3298:D:/iot/felix2/targets/Cloud_STM32L431_BearPi/Drivers/STM32L4xx_HAL_Driver/Src\stm32l4xx_hal_uart.c **** 
3299:D:/iot/felix2/targets/Cloud_STM32L431_BearPi/Drivers/STM32L4xx_HAL_Driver/Src\stm32l4xx_hal_uart.c ****   /* DMA Normal mode */
3300:D:/iot/felix2/targets/Cloud_STM32L431_BearPi/Drivers/STM32L4xx_HAL_Driver/Src\stm32l4xx_hal_uart.c ****   if (HAL_IS_BIT_CLR(hdma->Instance->CCR, DMA_CCR_CIRC))
 5862              		.loc 1 3300 0
 5863 000e 7B68     		ldr	r3, [r7, #4]
 5864 0010 1B68     		ldr	r3, [r3]
 5865 0012 1B68     		ldr	r3, [r3]
 5866 0014 03F02003 		and	r3, r3, #32
 5867 0018 002B     		cmp	r3, #0
 5868 001a 14D1     		bne	.L323
3301:D:/iot/felix2/targets/Cloud_STM32L431_BearPi/Drivers/STM32L4xx_HAL_Driver/Src\stm32l4xx_hal_uart.c ****   {
3302:D:/iot/felix2/targets/Cloud_STM32L431_BearPi/Drivers/STM32L4xx_HAL_Driver/Src\stm32l4xx_hal_uart.c ****     huart->TxXferCount = 0U;
 5869              		.loc 1 3302 0
 5870 001c FB68     		ldr	r3, [r7, #12]
 5871 001e 0022     		movs	r2, #0
 5872 0020 A3F85220 		strh	r2, [r3, #82]	@ movhi
3303:D:/iot/felix2/targets/Cloud_STM32L431_BearPi/Drivers/STM32L4xx_HAL_Driver/Src\stm32l4xx_hal_uart.c **** 
3304:D:/iot/felix2/targets/Cloud_STM32L431_BearPi/Drivers/STM32L4xx_HAL_Driver/Src\stm32l4xx_hal_uart.c ****     /* Disable the DMA transfer for transmit request by resetting the DMAT bit
3305:D:/iot/felix2/targets/Cloud_STM32L431_BearPi/Drivers/STM32L4xx_HAL_Driver/Src\stm32l4xx_hal_uart.c ****        in the UART CR3 register */
3306:D:/iot/felix2/targets/Cloud_STM32L431_BearPi/Drivers/STM32L4xx_HAL_Driver/Src\stm32l4xx_hal_uart.c ****     CLEAR_BIT(huart->Instance->CR3, USART_CR3_DMAT);
 5873              		.loc 1 3306 0
 5874 0024 FB68     		ldr	r3, [r7, #12]
 5875 0026 1B68     		ldr	r3, [r3]
 5876 0028 9A68     		ldr	r2, [r3, #8]
 5877 002a FB68     		ldr	r3, [r7, #12]
 5878 002c 1B68     		ldr	r3, [r3]
 5879 002e 22F08002 		bic	r2, r2, #128
 5880 0032 9A60     		str	r2, [r3, #8]
3307:D:/iot/felix2/targets/Cloud_STM32L431_BearPi/Drivers/STM32L4xx_HAL_Driver/Src\stm32l4xx_hal_uart.c **** 
3308:D:/iot/felix2/targets/Cloud_STM32L431_BearPi/Drivers/STM32L4xx_HAL_Driver/Src\stm32l4xx_hal_uart.c ****     /* Enable the UART Transmit Complete Interrupt */
3309:D:/iot/felix2/targets/Cloud_STM32L431_BearPi/Drivers/STM32L4xx_HAL_Driver/Src\stm32l4xx_hal_uart.c ****     SET_BIT(huart->Instance->CR1, USART_CR1_TCIE);
 5881              		.loc 1 3309 0
 5882 0034 FB68     		ldr	r3, [r7, #12]
 5883 0036 1B68     		ldr	r3, [r3]
 5884 0038 1A68     		ldr	r2, [r3]
 5885 003a FB68     		ldr	r3, [r7, #12]
ARM GAS  C:\Users\91458\AppData\Local\Temp\ccrpKNIe.s 			page 161


 5886 003c 1B68     		ldr	r3, [r3]
 5887 003e 42F04002 		orr	r2, r2, #64
 5888 0042 1A60     		str	r2, [r3]
3310:D:/iot/felix2/targets/Cloud_STM32L431_BearPi/Drivers/STM32L4xx_HAL_Driver/Src\stm32l4xx_hal_uart.c ****   }
3311:D:/iot/felix2/targets/Cloud_STM32L431_BearPi/Drivers/STM32L4xx_HAL_Driver/Src\stm32l4xx_hal_uart.c ****   /* DMA Circular mode */
3312:D:/iot/felix2/targets/Cloud_STM32L431_BearPi/Drivers/STM32L4xx_HAL_Driver/Src\stm32l4xx_hal_uart.c ****   else
3313:D:/iot/felix2/targets/Cloud_STM32L431_BearPi/Drivers/STM32L4xx_HAL_Driver/Src\stm32l4xx_hal_uart.c ****   {
3314:D:/iot/felix2/targets/Cloud_STM32L431_BearPi/Drivers/STM32L4xx_HAL_Driver/Src\stm32l4xx_hal_uart.c **** #if (USE_HAL_UART_REGISTER_CALLBACKS == 1)
3315:D:/iot/felix2/targets/Cloud_STM32L431_BearPi/Drivers/STM32L4xx_HAL_Driver/Src\stm32l4xx_hal_uart.c ****     /*Call registered Tx complete callback*/
3316:D:/iot/felix2/targets/Cloud_STM32L431_BearPi/Drivers/STM32L4xx_HAL_Driver/Src\stm32l4xx_hal_uart.c ****     huart->TxCpltCallback(huart);
3317:D:/iot/felix2/targets/Cloud_STM32L431_BearPi/Drivers/STM32L4xx_HAL_Driver/Src\stm32l4xx_hal_uart.c **** #else
3318:D:/iot/felix2/targets/Cloud_STM32L431_BearPi/Drivers/STM32L4xx_HAL_Driver/Src\stm32l4xx_hal_uart.c ****     /*Call legacy weak Tx complete callback*/
3319:D:/iot/felix2/targets/Cloud_STM32L431_BearPi/Drivers/STM32L4xx_HAL_Driver/Src\stm32l4xx_hal_uart.c ****     HAL_UART_TxCpltCallback(huart);
3320:D:/iot/felix2/targets/Cloud_STM32L431_BearPi/Drivers/STM32L4xx_HAL_Driver/Src\stm32l4xx_hal_uart.c **** #endif /* USE_HAL_UART_REGISTER_CALLBACKS */
3321:D:/iot/felix2/targets/Cloud_STM32L431_BearPi/Drivers/STM32L4xx_HAL_Driver/Src\stm32l4xx_hal_uart.c ****   }
3322:D:/iot/felix2/targets/Cloud_STM32L431_BearPi/Drivers/STM32L4xx_HAL_Driver/Src\stm32l4xx_hal_uart.c **** }
 5889              		.loc 1 3322 0
 5890 0044 02E0     		b	.L325
 5891              	.L323:
3319:D:/iot/felix2/targets/Cloud_STM32L431_BearPi/Drivers/STM32L4xx_HAL_Driver/Src\stm32l4xx_hal_uart.c **** #endif /* USE_HAL_UART_REGISTER_CALLBACKS */
 5892              		.loc 1 3319 0
 5893 0046 F868     		ldr	r0, [r7, #12]
 5894 0048 FFF7FEFF 		bl	HAL_UART_TxCpltCallback
 5895              	.L325:
 5896              		.loc 1 3322 0
 5897 004c 00BF     		nop
 5898 004e 1037     		adds	r7, r7, #16
 5899              	.LCFI251:
 5900              		.cfi_def_cfa_offset 8
 5901 0050 BD46     		mov	sp, r7
 5902              	.LCFI252:
 5903              		.cfi_def_cfa_register 13
 5904              		@ sp needed
 5905 0052 80BD     		pop	{r7, pc}
 5906              		.cfi_endproc
 5907              	.LFE178:
 5909              		.section	.text.UART_DMATxHalfCplt,"ax",%progbits
 5910              		.align	1
 5911              		.syntax unified
 5912              		.thumb
 5913              		.thumb_func
 5914              		.fpu fpv4-sp-d16
 5916              	UART_DMATxHalfCplt:
 5917              	.LFB179:
3323:D:/iot/felix2/targets/Cloud_STM32L431_BearPi/Drivers/STM32L4xx_HAL_Driver/Src\stm32l4xx_hal_uart.c **** 
3324:D:/iot/felix2/targets/Cloud_STM32L431_BearPi/Drivers/STM32L4xx_HAL_Driver/Src\stm32l4xx_hal_uart.c **** /**
3325:D:/iot/felix2/targets/Cloud_STM32L431_BearPi/Drivers/STM32L4xx_HAL_Driver/Src\stm32l4xx_hal_uart.c ****   * @brief DMA UART transmit process half complete callback.
3326:D:/iot/felix2/targets/Cloud_STM32L431_BearPi/Drivers/STM32L4xx_HAL_Driver/Src\stm32l4xx_hal_uart.c ****   * @param hdma DMA handle.
3327:D:/iot/felix2/targets/Cloud_STM32L431_BearPi/Drivers/STM32L4xx_HAL_Driver/Src\stm32l4xx_hal_uart.c ****   * @retval None
3328:D:/iot/felix2/targets/Cloud_STM32L431_BearPi/Drivers/STM32L4xx_HAL_Driver/Src\stm32l4xx_hal_uart.c ****   */
3329:D:/iot/felix2/targets/Cloud_STM32L431_BearPi/Drivers/STM32L4xx_HAL_Driver/Src\stm32l4xx_hal_uart.c **** static void UART_DMATxHalfCplt(DMA_HandleTypeDef *hdma)
3330:D:/iot/felix2/targets/Cloud_STM32L431_BearPi/Drivers/STM32L4xx_HAL_Driver/Src\stm32l4xx_hal_uart.c **** {
 5918              		.loc 1 3330 0
 5919              		.cfi_startproc
 5920              		@ args = 0, pretend = 0, frame = 16
 5921              		@ frame_needed = 1, uses_anonymous_args = 0
 5922 0000 80B5     		push	{r7, lr}
ARM GAS  C:\Users\91458\AppData\Local\Temp\ccrpKNIe.s 			page 162


 5923              	.LCFI253:
 5924              		.cfi_def_cfa_offset 8
 5925              		.cfi_offset 7, -8
 5926              		.cfi_offset 14, -4
 5927 0002 84B0     		sub	sp, sp, #16
 5928              	.LCFI254:
 5929              		.cfi_def_cfa_offset 24
 5930 0004 00AF     		add	r7, sp, #0
 5931              	.LCFI255:
 5932              		.cfi_def_cfa_register 7
 5933 0006 7860     		str	r0, [r7, #4]
3331:D:/iot/felix2/targets/Cloud_STM32L431_BearPi/Drivers/STM32L4xx_HAL_Driver/Src\stm32l4xx_hal_uart.c ****   UART_HandleTypeDef *huart = (UART_HandleTypeDef *)(hdma->Parent);
 5934              		.loc 1 3331 0
 5935 0008 7B68     		ldr	r3, [r7, #4]
 5936 000a 9B6A     		ldr	r3, [r3, #40]
 5937 000c FB60     		str	r3, [r7, #12]
3332:D:/iot/felix2/targets/Cloud_STM32L431_BearPi/Drivers/STM32L4xx_HAL_Driver/Src\stm32l4xx_hal_uart.c **** 
3333:D:/iot/felix2/targets/Cloud_STM32L431_BearPi/Drivers/STM32L4xx_HAL_Driver/Src\stm32l4xx_hal_uart.c **** #if (USE_HAL_UART_REGISTER_CALLBACKS == 1)
3334:D:/iot/felix2/targets/Cloud_STM32L431_BearPi/Drivers/STM32L4xx_HAL_Driver/Src\stm32l4xx_hal_uart.c ****   /*Call registered Tx Half complete callback*/
3335:D:/iot/felix2/targets/Cloud_STM32L431_BearPi/Drivers/STM32L4xx_HAL_Driver/Src\stm32l4xx_hal_uart.c ****   huart->TxHalfCpltCallback(huart);
3336:D:/iot/felix2/targets/Cloud_STM32L431_BearPi/Drivers/STM32L4xx_HAL_Driver/Src\stm32l4xx_hal_uart.c **** #else
3337:D:/iot/felix2/targets/Cloud_STM32L431_BearPi/Drivers/STM32L4xx_HAL_Driver/Src\stm32l4xx_hal_uart.c ****   /*Call legacy weak Tx Half complete callback*/
3338:D:/iot/felix2/targets/Cloud_STM32L431_BearPi/Drivers/STM32L4xx_HAL_Driver/Src\stm32l4xx_hal_uart.c ****   HAL_UART_TxHalfCpltCallback(huart);
 5938              		.loc 1 3338 0
 5939 000e F868     		ldr	r0, [r7, #12]
 5940 0010 FFF7FEFF 		bl	HAL_UART_TxHalfCpltCallback
3339:D:/iot/felix2/targets/Cloud_STM32L431_BearPi/Drivers/STM32L4xx_HAL_Driver/Src\stm32l4xx_hal_uart.c **** #endif /* USE_HAL_UART_REGISTER_CALLBACKS */
3340:D:/iot/felix2/targets/Cloud_STM32L431_BearPi/Drivers/STM32L4xx_HAL_Driver/Src\stm32l4xx_hal_uart.c **** }
 5941              		.loc 1 3340 0
 5942 0014 00BF     		nop
 5943 0016 1037     		adds	r7, r7, #16
 5944              	.LCFI256:
 5945              		.cfi_def_cfa_offset 8
 5946 0018 BD46     		mov	sp, r7
 5947              	.LCFI257:
 5948              		.cfi_def_cfa_register 13
 5949              		@ sp needed
 5950 001a 80BD     		pop	{r7, pc}
 5951              		.cfi_endproc
 5952              	.LFE179:
 5954              		.section	.text.UART_DMAReceiveCplt,"ax",%progbits
 5955              		.align	1
 5956              		.syntax unified
 5957              		.thumb
 5958              		.thumb_func
 5959              		.fpu fpv4-sp-d16
 5961              	UART_DMAReceiveCplt:
 5962              	.LFB180:
3341:D:/iot/felix2/targets/Cloud_STM32L431_BearPi/Drivers/STM32L4xx_HAL_Driver/Src\stm32l4xx_hal_uart.c **** 
3342:D:/iot/felix2/targets/Cloud_STM32L431_BearPi/Drivers/STM32L4xx_HAL_Driver/Src\stm32l4xx_hal_uart.c **** /**
3343:D:/iot/felix2/targets/Cloud_STM32L431_BearPi/Drivers/STM32L4xx_HAL_Driver/Src\stm32l4xx_hal_uart.c ****   * @brief DMA UART receive process complete callback.
3344:D:/iot/felix2/targets/Cloud_STM32L431_BearPi/Drivers/STM32L4xx_HAL_Driver/Src\stm32l4xx_hal_uart.c ****   * @param hdma DMA handle.
3345:D:/iot/felix2/targets/Cloud_STM32L431_BearPi/Drivers/STM32L4xx_HAL_Driver/Src\stm32l4xx_hal_uart.c ****   * @retval None
3346:D:/iot/felix2/targets/Cloud_STM32L431_BearPi/Drivers/STM32L4xx_HAL_Driver/Src\stm32l4xx_hal_uart.c ****   */
3347:D:/iot/felix2/targets/Cloud_STM32L431_BearPi/Drivers/STM32L4xx_HAL_Driver/Src\stm32l4xx_hal_uart.c **** static void UART_DMAReceiveCplt(DMA_HandleTypeDef *hdma)
3348:D:/iot/felix2/targets/Cloud_STM32L431_BearPi/Drivers/STM32L4xx_HAL_Driver/Src\stm32l4xx_hal_uart.c **** {
 5963              		.loc 1 3348 0
ARM GAS  C:\Users\91458\AppData\Local\Temp\ccrpKNIe.s 			page 163


 5964              		.cfi_startproc
 5965              		@ args = 0, pretend = 0, frame = 16
 5966              		@ frame_needed = 1, uses_anonymous_args = 0
 5967 0000 80B5     		push	{r7, lr}
 5968              	.LCFI258:
 5969              		.cfi_def_cfa_offset 8
 5970              		.cfi_offset 7, -8
 5971              		.cfi_offset 14, -4
 5972 0002 84B0     		sub	sp, sp, #16
 5973              	.LCFI259:
 5974              		.cfi_def_cfa_offset 24
 5975 0004 00AF     		add	r7, sp, #0
 5976              	.LCFI260:
 5977              		.cfi_def_cfa_register 7
 5978 0006 7860     		str	r0, [r7, #4]
3349:D:/iot/felix2/targets/Cloud_STM32L431_BearPi/Drivers/STM32L4xx_HAL_Driver/Src\stm32l4xx_hal_uart.c ****   UART_HandleTypeDef *huart = (UART_HandleTypeDef *)(hdma->Parent);
 5979              		.loc 1 3349 0
 5980 0008 7B68     		ldr	r3, [r7, #4]
 5981 000a 9B6A     		ldr	r3, [r3, #40]
 5982 000c FB60     		str	r3, [r7, #12]
3350:D:/iot/felix2/targets/Cloud_STM32L431_BearPi/Drivers/STM32L4xx_HAL_Driver/Src\stm32l4xx_hal_uart.c **** 
3351:D:/iot/felix2/targets/Cloud_STM32L431_BearPi/Drivers/STM32L4xx_HAL_Driver/Src\stm32l4xx_hal_uart.c ****   /* DMA Normal mode */
3352:D:/iot/felix2/targets/Cloud_STM32L431_BearPi/Drivers/STM32L4xx_HAL_Driver/Src\stm32l4xx_hal_uart.c ****   if (HAL_IS_BIT_CLR(hdma->Instance->CCR, DMA_CCR_CIRC))
 5983              		.loc 1 3352 0
 5984 000e 7B68     		ldr	r3, [r7, #4]
 5985 0010 1B68     		ldr	r3, [r3]
 5986 0012 1B68     		ldr	r3, [r3]
 5987 0014 03F02003 		and	r3, r3, #32
 5988 0018 002B     		cmp	r3, #0
 5989 001a 1FD1     		bne	.L328
3353:D:/iot/felix2/targets/Cloud_STM32L431_BearPi/Drivers/STM32L4xx_HAL_Driver/Src\stm32l4xx_hal_uart.c ****   {
3354:D:/iot/felix2/targets/Cloud_STM32L431_BearPi/Drivers/STM32L4xx_HAL_Driver/Src\stm32l4xx_hal_uart.c ****     huart->RxXferCount = 0U;
 5990              		.loc 1 3354 0
 5991 001c FB68     		ldr	r3, [r7, #12]
 5992 001e 0022     		movs	r2, #0
 5993 0020 A3F85A20 		strh	r2, [r3, #90]	@ movhi
3355:D:/iot/felix2/targets/Cloud_STM32L431_BearPi/Drivers/STM32L4xx_HAL_Driver/Src\stm32l4xx_hal_uart.c **** 
3356:D:/iot/felix2/targets/Cloud_STM32L431_BearPi/Drivers/STM32L4xx_HAL_Driver/Src\stm32l4xx_hal_uart.c ****     /* Disable PE and ERR (Frame error, noise error, overrun error) interrupts */
3357:D:/iot/felix2/targets/Cloud_STM32L431_BearPi/Drivers/STM32L4xx_HAL_Driver/Src\stm32l4xx_hal_uart.c ****     CLEAR_BIT(huart->Instance->CR1, USART_CR1_PEIE);
 5994              		.loc 1 3357 0
 5995 0024 FB68     		ldr	r3, [r7, #12]
 5996 0026 1B68     		ldr	r3, [r3]
 5997 0028 1A68     		ldr	r2, [r3]
 5998 002a FB68     		ldr	r3, [r7, #12]
 5999 002c 1B68     		ldr	r3, [r3]
 6000 002e 22F48072 		bic	r2, r2, #256
 6001 0032 1A60     		str	r2, [r3]
3358:D:/iot/felix2/targets/Cloud_STM32L431_BearPi/Drivers/STM32L4xx_HAL_Driver/Src\stm32l4xx_hal_uart.c ****     CLEAR_BIT(huart->Instance->CR3, USART_CR3_EIE);
 6002              		.loc 1 3358 0
 6003 0034 FB68     		ldr	r3, [r7, #12]
 6004 0036 1B68     		ldr	r3, [r3]
 6005 0038 9A68     		ldr	r2, [r3, #8]
 6006 003a FB68     		ldr	r3, [r7, #12]
 6007 003c 1B68     		ldr	r3, [r3]
 6008 003e 22F00102 		bic	r2, r2, #1
 6009 0042 9A60     		str	r2, [r3, #8]
3359:D:/iot/felix2/targets/Cloud_STM32L431_BearPi/Drivers/STM32L4xx_HAL_Driver/Src\stm32l4xx_hal_uart.c **** 
ARM GAS  C:\Users\91458\AppData\Local\Temp\ccrpKNIe.s 			page 164


3360:D:/iot/felix2/targets/Cloud_STM32L431_BearPi/Drivers/STM32L4xx_HAL_Driver/Src\stm32l4xx_hal_uart.c ****     /* Disable the DMA transfer for the receiver request by resetting the DMAR bit
3361:D:/iot/felix2/targets/Cloud_STM32L431_BearPi/Drivers/STM32L4xx_HAL_Driver/Src\stm32l4xx_hal_uart.c ****        in the UART CR3 register */
3362:D:/iot/felix2/targets/Cloud_STM32L431_BearPi/Drivers/STM32L4xx_HAL_Driver/Src\stm32l4xx_hal_uart.c ****     CLEAR_BIT(huart->Instance->CR3, USART_CR3_DMAR);
 6010              		.loc 1 3362 0
 6011 0044 FB68     		ldr	r3, [r7, #12]
 6012 0046 1B68     		ldr	r3, [r3]
 6013 0048 9A68     		ldr	r2, [r3, #8]
 6014 004a FB68     		ldr	r3, [r7, #12]
 6015 004c 1B68     		ldr	r3, [r3]
 6016 004e 22F04002 		bic	r2, r2, #64
 6017 0052 9A60     		str	r2, [r3, #8]
3363:D:/iot/felix2/targets/Cloud_STM32L431_BearPi/Drivers/STM32L4xx_HAL_Driver/Src\stm32l4xx_hal_uart.c **** 
3364:D:/iot/felix2/targets/Cloud_STM32L431_BearPi/Drivers/STM32L4xx_HAL_Driver/Src\stm32l4xx_hal_uart.c ****     /* At end of Rx process, restore huart->RxState to Ready */
3365:D:/iot/felix2/targets/Cloud_STM32L431_BearPi/Drivers/STM32L4xx_HAL_Driver/Src\stm32l4xx_hal_uart.c ****     huart->RxState = HAL_UART_STATE_READY;
 6018              		.loc 1 3365 0
 6019 0054 FB68     		ldr	r3, [r7, #12]
 6020 0056 2022     		movs	r2, #32
 6021 0058 83F87220 		strb	r2, [r3, #114]
 6022              	.L328:
3366:D:/iot/felix2/targets/Cloud_STM32L431_BearPi/Drivers/STM32L4xx_HAL_Driver/Src\stm32l4xx_hal_uart.c ****   }
3367:D:/iot/felix2/targets/Cloud_STM32L431_BearPi/Drivers/STM32L4xx_HAL_Driver/Src\stm32l4xx_hal_uart.c **** 
3368:D:/iot/felix2/targets/Cloud_STM32L431_BearPi/Drivers/STM32L4xx_HAL_Driver/Src\stm32l4xx_hal_uart.c **** #if (USE_HAL_UART_REGISTER_CALLBACKS == 1)
3369:D:/iot/felix2/targets/Cloud_STM32L431_BearPi/Drivers/STM32L4xx_HAL_Driver/Src\stm32l4xx_hal_uart.c ****   /*Call registered Rx complete callback*/
3370:D:/iot/felix2/targets/Cloud_STM32L431_BearPi/Drivers/STM32L4xx_HAL_Driver/Src\stm32l4xx_hal_uart.c ****   huart->RxCpltCallback(huart);
3371:D:/iot/felix2/targets/Cloud_STM32L431_BearPi/Drivers/STM32L4xx_HAL_Driver/Src\stm32l4xx_hal_uart.c **** #else
3372:D:/iot/felix2/targets/Cloud_STM32L431_BearPi/Drivers/STM32L4xx_HAL_Driver/Src\stm32l4xx_hal_uart.c ****   /*Call legacy weak Rx complete callback*/
3373:D:/iot/felix2/targets/Cloud_STM32L431_BearPi/Drivers/STM32L4xx_HAL_Driver/Src\stm32l4xx_hal_uart.c ****   HAL_UART_RxCpltCallback(huart);
 6023              		.loc 1 3373 0
 6024 005c F868     		ldr	r0, [r7, #12]
 6025 005e FFF7FEFF 		bl	HAL_UART_RxCpltCallback
3374:D:/iot/felix2/targets/Cloud_STM32L431_BearPi/Drivers/STM32L4xx_HAL_Driver/Src\stm32l4xx_hal_uart.c **** #endif /* USE_HAL_UART_REGISTER_CALLBACKS */
3375:D:/iot/felix2/targets/Cloud_STM32L431_BearPi/Drivers/STM32L4xx_HAL_Driver/Src\stm32l4xx_hal_uart.c **** }
 6026              		.loc 1 3375 0
 6027 0062 00BF     		nop
 6028 0064 1037     		adds	r7, r7, #16
 6029              	.LCFI261:
 6030              		.cfi_def_cfa_offset 8
 6031 0066 BD46     		mov	sp, r7
 6032              	.LCFI262:
 6033              		.cfi_def_cfa_register 13
 6034              		@ sp needed
 6035 0068 80BD     		pop	{r7, pc}
 6036              		.cfi_endproc
 6037              	.LFE180:
 6039              		.section	.text.UART_DMARxHalfCplt,"ax",%progbits
 6040              		.align	1
 6041              		.syntax unified
 6042              		.thumb
 6043              		.thumb_func
 6044              		.fpu fpv4-sp-d16
 6046              	UART_DMARxHalfCplt:
 6047              	.LFB181:
3376:D:/iot/felix2/targets/Cloud_STM32L431_BearPi/Drivers/STM32L4xx_HAL_Driver/Src\stm32l4xx_hal_uart.c **** 
3377:D:/iot/felix2/targets/Cloud_STM32L431_BearPi/Drivers/STM32L4xx_HAL_Driver/Src\stm32l4xx_hal_uart.c **** /**
3378:D:/iot/felix2/targets/Cloud_STM32L431_BearPi/Drivers/STM32L4xx_HAL_Driver/Src\stm32l4xx_hal_uart.c ****   * @brief DMA UART receive process half complete callback.
3379:D:/iot/felix2/targets/Cloud_STM32L431_BearPi/Drivers/STM32L4xx_HAL_Driver/Src\stm32l4xx_hal_uart.c ****   * @param hdma DMA handle.
3380:D:/iot/felix2/targets/Cloud_STM32L431_BearPi/Drivers/STM32L4xx_HAL_Driver/Src\stm32l4xx_hal_uart.c ****   * @retval None
ARM GAS  C:\Users\91458\AppData\Local\Temp\ccrpKNIe.s 			page 165


3381:D:/iot/felix2/targets/Cloud_STM32L431_BearPi/Drivers/STM32L4xx_HAL_Driver/Src\stm32l4xx_hal_uart.c ****   */
3382:D:/iot/felix2/targets/Cloud_STM32L431_BearPi/Drivers/STM32L4xx_HAL_Driver/Src\stm32l4xx_hal_uart.c **** static void UART_DMARxHalfCplt(DMA_HandleTypeDef *hdma)
3383:D:/iot/felix2/targets/Cloud_STM32L431_BearPi/Drivers/STM32L4xx_HAL_Driver/Src\stm32l4xx_hal_uart.c **** {
 6048              		.loc 1 3383 0
 6049              		.cfi_startproc
 6050              		@ args = 0, pretend = 0, frame = 16
 6051              		@ frame_needed = 1, uses_anonymous_args = 0
 6052 0000 80B5     		push	{r7, lr}
 6053              	.LCFI263:
 6054              		.cfi_def_cfa_offset 8
 6055              		.cfi_offset 7, -8
 6056              		.cfi_offset 14, -4
 6057 0002 84B0     		sub	sp, sp, #16
 6058              	.LCFI264:
 6059              		.cfi_def_cfa_offset 24
 6060 0004 00AF     		add	r7, sp, #0
 6061              	.LCFI265:
 6062              		.cfi_def_cfa_register 7
 6063 0006 7860     		str	r0, [r7, #4]
3384:D:/iot/felix2/targets/Cloud_STM32L431_BearPi/Drivers/STM32L4xx_HAL_Driver/Src\stm32l4xx_hal_uart.c ****   UART_HandleTypeDef *huart = (UART_HandleTypeDef *)(hdma->Parent);
 6064              		.loc 1 3384 0
 6065 0008 7B68     		ldr	r3, [r7, #4]
 6066 000a 9B6A     		ldr	r3, [r3, #40]
 6067 000c FB60     		str	r3, [r7, #12]
3385:D:/iot/felix2/targets/Cloud_STM32L431_BearPi/Drivers/STM32L4xx_HAL_Driver/Src\stm32l4xx_hal_uart.c **** 
3386:D:/iot/felix2/targets/Cloud_STM32L431_BearPi/Drivers/STM32L4xx_HAL_Driver/Src\stm32l4xx_hal_uart.c **** #if (USE_HAL_UART_REGISTER_CALLBACKS == 1)
3387:D:/iot/felix2/targets/Cloud_STM32L431_BearPi/Drivers/STM32L4xx_HAL_Driver/Src\stm32l4xx_hal_uart.c ****   /*Call registered Rx Half complete callback*/
3388:D:/iot/felix2/targets/Cloud_STM32L431_BearPi/Drivers/STM32L4xx_HAL_Driver/Src\stm32l4xx_hal_uart.c ****   huart->RxHalfCpltCallback(huart);
3389:D:/iot/felix2/targets/Cloud_STM32L431_BearPi/Drivers/STM32L4xx_HAL_Driver/Src\stm32l4xx_hal_uart.c **** #else
3390:D:/iot/felix2/targets/Cloud_STM32L431_BearPi/Drivers/STM32L4xx_HAL_Driver/Src\stm32l4xx_hal_uart.c ****   /*Call legacy weak Rx Half complete callback*/
3391:D:/iot/felix2/targets/Cloud_STM32L431_BearPi/Drivers/STM32L4xx_HAL_Driver/Src\stm32l4xx_hal_uart.c ****   HAL_UART_RxHalfCpltCallback(huart);
 6068              		.loc 1 3391 0
 6069 000e F868     		ldr	r0, [r7, #12]
 6070 0010 FFF7FEFF 		bl	HAL_UART_RxHalfCpltCallback
3392:D:/iot/felix2/targets/Cloud_STM32L431_BearPi/Drivers/STM32L4xx_HAL_Driver/Src\stm32l4xx_hal_uart.c **** #endif /* USE_HAL_UART_REGISTER_CALLBACKS */
3393:D:/iot/felix2/targets/Cloud_STM32L431_BearPi/Drivers/STM32L4xx_HAL_Driver/Src\stm32l4xx_hal_uart.c **** }
 6071              		.loc 1 3393 0
 6072 0014 00BF     		nop
 6073 0016 1037     		adds	r7, r7, #16
 6074              	.LCFI266:
 6075              		.cfi_def_cfa_offset 8
 6076 0018 BD46     		mov	sp, r7
 6077              	.LCFI267:
 6078              		.cfi_def_cfa_register 13
 6079              		@ sp needed
 6080 001a 80BD     		pop	{r7, pc}
 6081              		.cfi_endproc
 6082              	.LFE181:
 6084              		.section	.text.UART_DMAError,"ax",%progbits
 6085              		.align	1
 6086              		.syntax unified
 6087              		.thumb
 6088              		.thumb_func
 6089              		.fpu fpv4-sp-d16
 6091              	UART_DMAError:
 6092              	.LFB182:
3394:D:/iot/felix2/targets/Cloud_STM32L431_BearPi/Drivers/STM32L4xx_HAL_Driver/Src\stm32l4xx_hal_uart.c **** 
ARM GAS  C:\Users\91458\AppData\Local\Temp\ccrpKNIe.s 			page 166


3395:D:/iot/felix2/targets/Cloud_STM32L431_BearPi/Drivers/STM32L4xx_HAL_Driver/Src\stm32l4xx_hal_uart.c **** /**
3396:D:/iot/felix2/targets/Cloud_STM32L431_BearPi/Drivers/STM32L4xx_HAL_Driver/Src\stm32l4xx_hal_uart.c ****   * @brief DMA UART communication error callback.
3397:D:/iot/felix2/targets/Cloud_STM32L431_BearPi/Drivers/STM32L4xx_HAL_Driver/Src\stm32l4xx_hal_uart.c ****   * @param hdma DMA handle.
3398:D:/iot/felix2/targets/Cloud_STM32L431_BearPi/Drivers/STM32L4xx_HAL_Driver/Src\stm32l4xx_hal_uart.c ****   * @retval None
3399:D:/iot/felix2/targets/Cloud_STM32L431_BearPi/Drivers/STM32L4xx_HAL_Driver/Src\stm32l4xx_hal_uart.c ****   */
3400:D:/iot/felix2/targets/Cloud_STM32L431_BearPi/Drivers/STM32L4xx_HAL_Driver/Src\stm32l4xx_hal_uart.c **** static void UART_DMAError(DMA_HandleTypeDef *hdma)
3401:D:/iot/felix2/targets/Cloud_STM32L431_BearPi/Drivers/STM32L4xx_HAL_Driver/Src\stm32l4xx_hal_uart.c **** {
 6093              		.loc 1 3401 0
 6094              		.cfi_startproc
 6095              		@ args = 0, pretend = 0, frame = 16
 6096              		@ frame_needed = 1, uses_anonymous_args = 0
 6097 0000 80B5     		push	{r7, lr}
 6098              	.LCFI268:
 6099              		.cfi_def_cfa_offset 8
 6100              		.cfi_offset 7, -8
 6101              		.cfi_offset 14, -4
 6102 0002 84B0     		sub	sp, sp, #16
 6103              	.LCFI269:
 6104              		.cfi_def_cfa_offset 24
 6105 0004 00AF     		add	r7, sp, #0
 6106              	.LCFI270:
 6107              		.cfi_def_cfa_register 7
 6108 0006 7860     		str	r0, [r7, #4]
3402:D:/iot/felix2/targets/Cloud_STM32L431_BearPi/Drivers/STM32L4xx_HAL_Driver/Src\stm32l4xx_hal_uart.c ****   UART_HandleTypeDef *huart = (UART_HandleTypeDef *)(hdma->Parent);
 6109              		.loc 1 3402 0
 6110 0008 7B68     		ldr	r3, [r7, #4]
 6111 000a 9B6A     		ldr	r3, [r3, #40]
 6112 000c FB60     		str	r3, [r7, #12]
3403:D:/iot/felix2/targets/Cloud_STM32L431_BearPi/Drivers/STM32L4xx_HAL_Driver/Src\stm32l4xx_hal_uart.c **** 
3404:D:/iot/felix2/targets/Cloud_STM32L431_BearPi/Drivers/STM32L4xx_HAL_Driver/Src\stm32l4xx_hal_uart.c ****   /* Stop UART DMA Tx request if ongoing */
3405:D:/iot/felix2/targets/Cloud_STM32L431_BearPi/Drivers/STM32L4xx_HAL_Driver/Src\stm32l4xx_hal_uart.c ****   if ((huart->gState == HAL_UART_STATE_BUSY_TX)
 6113              		.loc 1 3405 0
 6114 000e FB68     		ldr	r3, [r7, #12]
 6115 0010 93F87130 		ldrb	r3, [r3, #113]
 6116 0014 DBB2     		uxtb	r3, r3
 6117 0016 212B     		cmp	r3, #33
 6118 0018 0DD1     		bne	.L331
3406:D:/iot/felix2/targets/Cloud_STM32L431_BearPi/Drivers/STM32L4xx_HAL_Driver/Src\stm32l4xx_hal_uart.c ****       && (HAL_IS_BIT_SET(huart->Instance->CR3, USART_CR3_DMAT)))
 6119              		.loc 1 3406 0
 6120 001a FB68     		ldr	r3, [r7, #12]
 6121 001c 1B68     		ldr	r3, [r3]
 6122 001e 9B68     		ldr	r3, [r3, #8]
 6123 0020 03F08003 		and	r3, r3, #128
 6124 0024 802B     		cmp	r3, #128
 6125 0026 06D1     		bne	.L331
3407:D:/iot/felix2/targets/Cloud_STM32L431_BearPi/Drivers/STM32L4xx_HAL_Driver/Src\stm32l4xx_hal_uart.c ****   {
3408:D:/iot/felix2/targets/Cloud_STM32L431_BearPi/Drivers/STM32L4xx_HAL_Driver/Src\stm32l4xx_hal_uart.c ****     huart->TxXferCount = 0U;
 6126              		.loc 1 3408 0
 6127 0028 FB68     		ldr	r3, [r7, #12]
 6128 002a 0022     		movs	r2, #0
 6129 002c A3F85220 		strh	r2, [r3, #82]	@ movhi
3409:D:/iot/felix2/targets/Cloud_STM32L431_BearPi/Drivers/STM32L4xx_HAL_Driver/Src\stm32l4xx_hal_uart.c ****     UART_EndTxTransfer(huart);
 6130              		.loc 1 3409 0
 6131 0030 F868     		ldr	r0, [r7, #12]
 6132 0032 FFF7FEFF 		bl	UART_EndTxTransfer
 6133              	.L331:
3410:D:/iot/felix2/targets/Cloud_STM32L431_BearPi/Drivers/STM32L4xx_HAL_Driver/Src\stm32l4xx_hal_uart.c ****   }
ARM GAS  C:\Users\91458\AppData\Local\Temp\ccrpKNIe.s 			page 167


3411:D:/iot/felix2/targets/Cloud_STM32L431_BearPi/Drivers/STM32L4xx_HAL_Driver/Src\stm32l4xx_hal_uart.c **** 
3412:D:/iot/felix2/targets/Cloud_STM32L431_BearPi/Drivers/STM32L4xx_HAL_Driver/Src\stm32l4xx_hal_uart.c ****   /* Stop UART DMA Rx request if ongoing */
3413:D:/iot/felix2/targets/Cloud_STM32L431_BearPi/Drivers/STM32L4xx_HAL_Driver/Src\stm32l4xx_hal_uart.c ****   if ((huart->RxState == HAL_UART_STATE_BUSY_RX)
 6134              		.loc 1 3413 0
 6135 0036 FB68     		ldr	r3, [r7, #12]
 6136 0038 93F87230 		ldrb	r3, [r3, #114]
 6137 003c DBB2     		uxtb	r3, r3
 6138 003e 222B     		cmp	r3, #34
 6139 0040 0DD1     		bne	.L332
3414:D:/iot/felix2/targets/Cloud_STM32L431_BearPi/Drivers/STM32L4xx_HAL_Driver/Src\stm32l4xx_hal_uart.c ****       && (HAL_IS_BIT_SET(huart->Instance->CR3, USART_CR3_DMAR)))
 6140              		.loc 1 3414 0
 6141 0042 FB68     		ldr	r3, [r7, #12]
 6142 0044 1B68     		ldr	r3, [r3]
 6143 0046 9B68     		ldr	r3, [r3, #8]
 6144 0048 03F04003 		and	r3, r3, #64
 6145 004c 402B     		cmp	r3, #64
 6146 004e 06D1     		bne	.L332
3415:D:/iot/felix2/targets/Cloud_STM32L431_BearPi/Drivers/STM32L4xx_HAL_Driver/Src\stm32l4xx_hal_uart.c ****   {
3416:D:/iot/felix2/targets/Cloud_STM32L431_BearPi/Drivers/STM32L4xx_HAL_Driver/Src\stm32l4xx_hal_uart.c ****     huart->RxXferCount = 0U;
 6147              		.loc 1 3416 0
 6148 0050 FB68     		ldr	r3, [r7, #12]
 6149 0052 0022     		movs	r2, #0
 6150 0054 A3F85A20 		strh	r2, [r3, #90]	@ movhi
3417:D:/iot/felix2/targets/Cloud_STM32L431_BearPi/Drivers/STM32L4xx_HAL_Driver/Src\stm32l4xx_hal_uart.c ****     UART_EndRxTransfer(huart);
 6151              		.loc 1 3417 0
 6152 0058 F868     		ldr	r0, [r7, #12]
 6153 005a FFF7FEFF 		bl	UART_EndRxTransfer
 6154              	.L332:
3418:D:/iot/felix2/targets/Cloud_STM32L431_BearPi/Drivers/STM32L4xx_HAL_Driver/Src\stm32l4xx_hal_uart.c ****   }
3419:D:/iot/felix2/targets/Cloud_STM32L431_BearPi/Drivers/STM32L4xx_HAL_Driver/Src\stm32l4xx_hal_uart.c **** 
3420:D:/iot/felix2/targets/Cloud_STM32L431_BearPi/Drivers/STM32L4xx_HAL_Driver/Src\stm32l4xx_hal_uart.c ****   huart->ErrorCode |= HAL_UART_ERROR_DMA;
 6155              		.loc 1 3420 0
 6156 005e FB68     		ldr	r3, [r7, #12]
 6157 0060 5B6F     		ldr	r3, [r3, #116]
 6158 0062 43F01002 		orr	r2, r3, #16
 6159 0066 FB68     		ldr	r3, [r7, #12]
 6160 0068 5A67     		str	r2, [r3, #116]
3421:D:/iot/felix2/targets/Cloud_STM32L431_BearPi/Drivers/STM32L4xx_HAL_Driver/Src\stm32l4xx_hal_uart.c **** 
3422:D:/iot/felix2/targets/Cloud_STM32L431_BearPi/Drivers/STM32L4xx_HAL_Driver/Src\stm32l4xx_hal_uart.c **** #if (USE_HAL_UART_REGISTER_CALLBACKS == 1)
3423:D:/iot/felix2/targets/Cloud_STM32L431_BearPi/Drivers/STM32L4xx_HAL_Driver/Src\stm32l4xx_hal_uart.c ****   /*Call registered error callback*/
3424:D:/iot/felix2/targets/Cloud_STM32L431_BearPi/Drivers/STM32L4xx_HAL_Driver/Src\stm32l4xx_hal_uart.c ****   huart->ErrorCallback(huart);
3425:D:/iot/felix2/targets/Cloud_STM32L431_BearPi/Drivers/STM32L4xx_HAL_Driver/Src\stm32l4xx_hal_uart.c **** #else
3426:D:/iot/felix2/targets/Cloud_STM32L431_BearPi/Drivers/STM32L4xx_HAL_Driver/Src\stm32l4xx_hal_uart.c ****   /*Call legacy weak error callback*/
3427:D:/iot/felix2/targets/Cloud_STM32L431_BearPi/Drivers/STM32L4xx_HAL_Driver/Src\stm32l4xx_hal_uart.c ****   HAL_UART_ErrorCallback(huart);
 6161              		.loc 1 3427 0
 6162 006a F868     		ldr	r0, [r7, #12]
 6163 006c FFF7FEFF 		bl	HAL_UART_ErrorCallback
3428:D:/iot/felix2/targets/Cloud_STM32L431_BearPi/Drivers/STM32L4xx_HAL_Driver/Src\stm32l4xx_hal_uart.c **** #endif /* USE_HAL_UART_REGISTER_CALLBACKS */
3429:D:/iot/felix2/targets/Cloud_STM32L431_BearPi/Drivers/STM32L4xx_HAL_Driver/Src\stm32l4xx_hal_uart.c **** }
 6164              		.loc 1 3429 0
 6165 0070 00BF     		nop
 6166 0072 1037     		adds	r7, r7, #16
 6167              	.LCFI271:
 6168              		.cfi_def_cfa_offset 8
 6169 0074 BD46     		mov	sp, r7
 6170              	.LCFI272:
 6171              		.cfi_def_cfa_register 13
ARM GAS  C:\Users\91458\AppData\Local\Temp\ccrpKNIe.s 			page 168


 6172              		@ sp needed
 6173 0076 80BD     		pop	{r7, pc}
 6174              		.cfi_endproc
 6175              	.LFE182:
 6177              		.section	.text.UART_DMAAbortOnError,"ax",%progbits
 6178              		.align	1
 6179              		.syntax unified
 6180              		.thumb
 6181              		.thumb_func
 6182              		.fpu fpv4-sp-d16
 6184              	UART_DMAAbortOnError:
 6185              	.LFB183:
3430:D:/iot/felix2/targets/Cloud_STM32L431_BearPi/Drivers/STM32L4xx_HAL_Driver/Src\stm32l4xx_hal_uart.c **** 
3431:D:/iot/felix2/targets/Cloud_STM32L431_BearPi/Drivers/STM32L4xx_HAL_Driver/Src\stm32l4xx_hal_uart.c **** /**
3432:D:/iot/felix2/targets/Cloud_STM32L431_BearPi/Drivers/STM32L4xx_HAL_Driver/Src\stm32l4xx_hal_uart.c ****   * @brief  DMA UART communication abort callback, when initiated by HAL services on Error
3433:D:/iot/felix2/targets/Cloud_STM32L431_BearPi/Drivers/STM32L4xx_HAL_Driver/Src\stm32l4xx_hal_uart.c ****   *         (To be called at end of DMA Abort procedure following error occurrence).
3434:D:/iot/felix2/targets/Cloud_STM32L431_BearPi/Drivers/STM32L4xx_HAL_Driver/Src\stm32l4xx_hal_uart.c ****   * @param hdma DMA handle.
3435:D:/iot/felix2/targets/Cloud_STM32L431_BearPi/Drivers/STM32L4xx_HAL_Driver/Src\stm32l4xx_hal_uart.c ****   * @retval None
3436:D:/iot/felix2/targets/Cloud_STM32L431_BearPi/Drivers/STM32L4xx_HAL_Driver/Src\stm32l4xx_hal_uart.c ****   */
3437:D:/iot/felix2/targets/Cloud_STM32L431_BearPi/Drivers/STM32L4xx_HAL_Driver/Src\stm32l4xx_hal_uart.c **** static void UART_DMAAbortOnError(DMA_HandleTypeDef *hdma)
3438:D:/iot/felix2/targets/Cloud_STM32L431_BearPi/Drivers/STM32L4xx_HAL_Driver/Src\stm32l4xx_hal_uart.c **** {
 6186              		.loc 1 3438 0
 6187              		.cfi_startproc
 6188              		@ args = 0, pretend = 0, frame = 16
 6189              		@ frame_needed = 1, uses_anonymous_args = 0
 6190 0000 80B5     		push	{r7, lr}
 6191              	.LCFI273:
 6192              		.cfi_def_cfa_offset 8
 6193              		.cfi_offset 7, -8
 6194              		.cfi_offset 14, -4
 6195 0002 84B0     		sub	sp, sp, #16
 6196              	.LCFI274:
 6197              		.cfi_def_cfa_offset 24
 6198 0004 00AF     		add	r7, sp, #0
 6199              	.LCFI275:
 6200              		.cfi_def_cfa_register 7
 6201 0006 7860     		str	r0, [r7, #4]
3439:D:/iot/felix2/targets/Cloud_STM32L431_BearPi/Drivers/STM32L4xx_HAL_Driver/Src\stm32l4xx_hal_uart.c ****   UART_HandleTypeDef *huart = (UART_HandleTypeDef *)(hdma->Parent);
 6202              		.loc 1 3439 0
 6203 0008 7B68     		ldr	r3, [r7, #4]
 6204 000a 9B6A     		ldr	r3, [r3, #40]
 6205 000c FB60     		str	r3, [r7, #12]
3440:D:/iot/felix2/targets/Cloud_STM32L431_BearPi/Drivers/STM32L4xx_HAL_Driver/Src\stm32l4xx_hal_uart.c ****   huart->RxXferCount = 0U;
 6206              		.loc 1 3440 0
 6207 000e FB68     		ldr	r3, [r7, #12]
 6208 0010 0022     		movs	r2, #0
 6209 0012 A3F85A20 		strh	r2, [r3, #90]	@ movhi
3441:D:/iot/felix2/targets/Cloud_STM32L431_BearPi/Drivers/STM32L4xx_HAL_Driver/Src\stm32l4xx_hal_uart.c ****   huart->TxXferCount = 0U;
 6210              		.loc 1 3441 0
 6211 0016 FB68     		ldr	r3, [r7, #12]
 6212 0018 0022     		movs	r2, #0
 6213 001a A3F85220 		strh	r2, [r3, #82]	@ movhi
3442:D:/iot/felix2/targets/Cloud_STM32L431_BearPi/Drivers/STM32L4xx_HAL_Driver/Src\stm32l4xx_hal_uart.c **** 
3443:D:/iot/felix2/targets/Cloud_STM32L431_BearPi/Drivers/STM32L4xx_HAL_Driver/Src\stm32l4xx_hal_uart.c **** #if (USE_HAL_UART_REGISTER_CALLBACKS == 1)
3444:D:/iot/felix2/targets/Cloud_STM32L431_BearPi/Drivers/STM32L4xx_HAL_Driver/Src\stm32l4xx_hal_uart.c ****   /*Call registered error callback*/
3445:D:/iot/felix2/targets/Cloud_STM32L431_BearPi/Drivers/STM32L4xx_HAL_Driver/Src\stm32l4xx_hal_uart.c ****   huart->ErrorCallback(huart);
3446:D:/iot/felix2/targets/Cloud_STM32L431_BearPi/Drivers/STM32L4xx_HAL_Driver/Src\stm32l4xx_hal_uart.c **** #else
ARM GAS  C:\Users\91458\AppData\Local\Temp\ccrpKNIe.s 			page 169


3447:D:/iot/felix2/targets/Cloud_STM32L431_BearPi/Drivers/STM32L4xx_HAL_Driver/Src\stm32l4xx_hal_uart.c ****   /*Call legacy weak error callback*/
3448:D:/iot/felix2/targets/Cloud_STM32L431_BearPi/Drivers/STM32L4xx_HAL_Driver/Src\stm32l4xx_hal_uart.c ****   HAL_UART_ErrorCallback(huart);
 6214              		.loc 1 3448 0
 6215 001e F868     		ldr	r0, [r7, #12]
 6216 0020 FFF7FEFF 		bl	HAL_UART_ErrorCallback
3449:D:/iot/felix2/targets/Cloud_STM32L431_BearPi/Drivers/STM32L4xx_HAL_Driver/Src\stm32l4xx_hal_uart.c **** #endif /* USE_HAL_UART_REGISTER_CALLBACKS */
3450:D:/iot/felix2/targets/Cloud_STM32L431_BearPi/Drivers/STM32L4xx_HAL_Driver/Src\stm32l4xx_hal_uart.c **** }
 6217              		.loc 1 3450 0
 6218 0024 00BF     		nop
 6219 0026 1037     		adds	r7, r7, #16
 6220              	.LCFI276:
 6221              		.cfi_def_cfa_offset 8
 6222 0028 BD46     		mov	sp, r7
 6223              	.LCFI277:
 6224              		.cfi_def_cfa_register 13
 6225              		@ sp needed
 6226 002a 80BD     		pop	{r7, pc}
 6227              		.cfi_endproc
 6228              	.LFE183:
 6230              		.section	.text.UART_DMATxAbortCallback,"ax",%progbits
 6231              		.align	1
 6232              		.syntax unified
 6233              		.thumb
 6234              		.thumb_func
 6235              		.fpu fpv4-sp-d16
 6237              	UART_DMATxAbortCallback:
 6238              	.LFB184:
3451:D:/iot/felix2/targets/Cloud_STM32L431_BearPi/Drivers/STM32L4xx_HAL_Driver/Src\stm32l4xx_hal_uart.c **** 
3452:D:/iot/felix2/targets/Cloud_STM32L431_BearPi/Drivers/STM32L4xx_HAL_Driver/Src\stm32l4xx_hal_uart.c **** /**
3453:D:/iot/felix2/targets/Cloud_STM32L431_BearPi/Drivers/STM32L4xx_HAL_Driver/Src\stm32l4xx_hal_uart.c ****   * @brief  DMA UART Tx communication abort callback, when initiated by user
3454:D:/iot/felix2/targets/Cloud_STM32L431_BearPi/Drivers/STM32L4xx_HAL_Driver/Src\stm32l4xx_hal_uart.c ****   *         (To be called at end of DMA Tx Abort procedure following user abort request).
3455:D:/iot/felix2/targets/Cloud_STM32L431_BearPi/Drivers/STM32L4xx_HAL_Driver/Src\stm32l4xx_hal_uart.c ****   * @note   When this callback is executed, User Abort complete call back is called only if no
3456:D:/iot/felix2/targets/Cloud_STM32L431_BearPi/Drivers/STM32L4xx_HAL_Driver/Src\stm32l4xx_hal_uart.c ****   *         Abort still ongoing for Rx DMA Handle.
3457:D:/iot/felix2/targets/Cloud_STM32L431_BearPi/Drivers/STM32L4xx_HAL_Driver/Src\stm32l4xx_hal_uart.c ****   * @param  hdma DMA handle.
3458:D:/iot/felix2/targets/Cloud_STM32L431_BearPi/Drivers/STM32L4xx_HAL_Driver/Src\stm32l4xx_hal_uart.c ****   * @retval None
3459:D:/iot/felix2/targets/Cloud_STM32L431_BearPi/Drivers/STM32L4xx_HAL_Driver/Src\stm32l4xx_hal_uart.c ****   */
3460:D:/iot/felix2/targets/Cloud_STM32L431_BearPi/Drivers/STM32L4xx_HAL_Driver/Src\stm32l4xx_hal_uart.c **** static void UART_DMATxAbortCallback(DMA_HandleTypeDef *hdma)
3461:D:/iot/felix2/targets/Cloud_STM32L431_BearPi/Drivers/STM32L4xx_HAL_Driver/Src\stm32l4xx_hal_uart.c **** {
 6239              		.loc 1 3461 0
 6240              		.cfi_startproc
 6241              		@ args = 0, pretend = 0, frame = 16
 6242              		@ frame_needed = 1, uses_anonymous_args = 0
 6243 0000 80B5     		push	{r7, lr}
 6244              	.LCFI278:
 6245              		.cfi_def_cfa_offset 8
 6246              		.cfi_offset 7, -8
 6247              		.cfi_offset 14, -4
 6248 0002 84B0     		sub	sp, sp, #16
 6249              	.LCFI279:
 6250              		.cfi_def_cfa_offset 24
 6251 0004 00AF     		add	r7, sp, #0
 6252              	.LCFI280:
 6253              		.cfi_def_cfa_register 7
 6254 0006 7860     		str	r0, [r7, #4]
3462:D:/iot/felix2/targets/Cloud_STM32L431_BearPi/Drivers/STM32L4xx_HAL_Driver/Src\stm32l4xx_hal_uart.c ****   UART_HandleTypeDef *huart = (UART_HandleTypeDef *)(hdma->Parent);
 6255              		.loc 1 3462 0
 6256 0008 7B68     		ldr	r3, [r7, #4]
ARM GAS  C:\Users\91458\AppData\Local\Temp\ccrpKNIe.s 			page 170


 6257 000a 9B6A     		ldr	r3, [r3, #40]
 6258 000c FB60     		str	r3, [r7, #12]
3463:D:/iot/felix2/targets/Cloud_STM32L431_BearPi/Drivers/STM32L4xx_HAL_Driver/Src\stm32l4xx_hal_uart.c **** 
3464:D:/iot/felix2/targets/Cloud_STM32L431_BearPi/Drivers/STM32L4xx_HAL_Driver/Src\stm32l4xx_hal_uart.c ****   huart->hdmatx->XferAbortCallback = NULL;
 6259              		.loc 1 3464 0
 6260 000e FB68     		ldr	r3, [r7, #12]
 6261 0010 9B6E     		ldr	r3, [r3, #104]
 6262 0012 0022     		movs	r2, #0
 6263 0014 9A63     		str	r2, [r3, #56]
3465:D:/iot/felix2/targets/Cloud_STM32L431_BearPi/Drivers/STM32L4xx_HAL_Driver/Src\stm32l4xx_hal_uart.c **** 
3466:D:/iot/felix2/targets/Cloud_STM32L431_BearPi/Drivers/STM32L4xx_HAL_Driver/Src\stm32l4xx_hal_uart.c ****   /* Check if an Abort process is still ongoing */
3467:D:/iot/felix2/targets/Cloud_STM32L431_BearPi/Drivers/STM32L4xx_HAL_Driver/Src\stm32l4xx_hal_uart.c ****   if (huart->hdmarx != NULL)
 6264              		.loc 1 3467 0
 6265 0016 FB68     		ldr	r3, [r7, #12]
 6266 0018 DB6E     		ldr	r3, [r3, #108]
 6267 001a 002B     		cmp	r3, #0
 6268 001c 04D0     		beq	.L335
3468:D:/iot/felix2/targets/Cloud_STM32L431_BearPi/Drivers/STM32L4xx_HAL_Driver/Src\stm32l4xx_hal_uart.c ****   {
3469:D:/iot/felix2/targets/Cloud_STM32L431_BearPi/Drivers/STM32L4xx_HAL_Driver/Src\stm32l4xx_hal_uart.c ****     if (huart->hdmarx->XferAbortCallback != NULL)
 6269              		.loc 1 3469 0
 6270 001e FB68     		ldr	r3, [r7, #12]
 6271 0020 DB6E     		ldr	r3, [r3, #108]
 6272 0022 9B6B     		ldr	r3, [r3, #56]
 6273 0024 002B     		cmp	r3, #0
 6274 0026 1AD1     		bne	.L337
 6275              	.L335:
3470:D:/iot/felix2/targets/Cloud_STM32L431_BearPi/Drivers/STM32L4xx_HAL_Driver/Src\stm32l4xx_hal_uart.c ****     {
3471:D:/iot/felix2/targets/Cloud_STM32L431_BearPi/Drivers/STM32L4xx_HAL_Driver/Src\stm32l4xx_hal_uart.c ****       return;
3472:D:/iot/felix2/targets/Cloud_STM32L431_BearPi/Drivers/STM32L4xx_HAL_Driver/Src\stm32l4xx_hal_uart.c ****     }
3473:D:/iot/felix2/targets/Cloud_STM32L431_BearPi/Drivers/STM32L4xx_HAL_Driver/Src\stm32l4xx_hal_uart.c ****   }
3474:D:/iot/felix2/targets/Cloud_STM32L431_BearPi/Drivers/STM32L4xx_HAL_Driver/Src\stm32l4xx_hal_uart.c **** 
3475:D:/iot/felix2/targets/Cloud_STM32L431_BearPi/Drivers/STM32L4xx_HAL_Driver/Src\stm32l4xx_hal_uart.c ****   /* No Abort process still ongoing : All DMA channels are aborted, call user Abort Complete callba
3476:D:/iot/felix2/targets/Cloud_STM32L431_BearPi/Drivers/STM32L4xx_HAL_Driver/Src\stm32l4xx_hal_uart.c ****   huart->TxXferCount = 0U;
 6276              		.loc 1 3476 0
 6277 0028 FB68     		ldr	r3, [r7, #12]
 6278 002a 0022     		movs	r2, #0
 6279 002c A3F85220 		strh	r2, [r3, #82]	@ movhi
3477:D:/iot/felix2/targets/Cloud_STM32L431_BearPi/Drivers/STM32L4xx_HAL_Driver/Src\stm32l4xx_hal_uart.c ****   huart->RxXferCount = 0U;
 6280              		.loc 1 3477 0
 6281 0030 FB68     		ldr	r3, [r7, #12]
 6282 0032 0022     		movs	r2, #0
 6283 0034 A3F85A20 		strh	r2, [r3, #90]	@ movhi
3478:D:/iot/felix2/targets/Cloud_STM32L431_BearPi/Drivers/STM32L4xx_HAL_Driver/Src\stm32l4xx_hal_uart.c **** 
3479:D:/iot/felix2/targets/Cloud_STM32L431_BearPi/Drivers/STM32L4xx_HAL_Driver/Src\stm32l4xx_hal_uart.c ****   /* Reset errorCode */
3480:D:/iot/felix2/targets/Cloud_STM32L431_BearPi/Drivers/STM32L4xx_HAL_Driver/Src\stm32l4xx_hal_uart.c ****   huart->ErrorCode = HAL_UART_ERROR_NONE;
 6284              		.loc 1 3480 0
 6285 0038 FB68     		ldr	r3, [r7, #12]
 6286 003a 0022     		movs	r2, #0
 6287 003c 5A67     		str	r2, [r3, #116]
3481:D:/iot/felix2/targets/Cloud_STM32L431_BearPi/Drivers/STM32L4xx_HAL_Driver/Src\stm32l4xx_hal_uart.c **** 
3482:D:/iot/felix2/targets/Cloud_STM32L431_BearPi/Drivers/STM32L4xx_HAL_Driver/Src\stm32l4xx_hal_uart.c ****   /* Clear the Error flags in the ICR register */
3483:D:/iot/felix2/targets/Cloud_STM32L431_BearPi/Drivers/STM32L4xx_HAL_Driver/Src\stm32l4xx_hal_uart.c ****   __HAL_UART_CLEAR_FLAG(huart, UART_CLEAR_OREF | UART_CLEAR_NEF | UART_CLEAR_PEF | UART_CLEAR_FEF);
 6288              		.loc 1 3483 0
 6289 003e FB68     		ldr	r3, [r7, #12]
 6290 0040 1B68     		ldr	r3, [r3]
 6291 0042 0F22     		movs	r2, #15
 6292 0044 1A62     		str	r2, [r3, #32]
ARM GAS  C:\Users\91458\AppData\Local\Temp\ccrpKNIe.s 			page 171


3484:D:/iot/felix2/targets/Cloud_STM32L431_BearPi/Drivers/STM32L4xx_HAL_Driver/Src\stm32l4xx_hal_uart.c **** 
3485:D:/iot/felix2/targets/Cloud_STM32L431_BearPi/Drivers/STM32L4xx_HAL_Driver/Src\stm32l4xx_hal_uart.c **** #if defined(USART_CR1_FIFOEN)
3486:D:/iot/felix2/targets/Cloud_STM32L431_BearPi/Drivers/STM32L4xx_HAL_Driver/Src\stm32l4xx_hal_uart.c ****   /* Flush the whole TX FIFO (if needed) */
3487:D:/iot/felix2/targets/Cloud_STM32L431_BearPi/Drivers/STM32L4xx_HAL_Driver/Src\stm32l4xx_hal_uart.c ****   if (huart->FifoMode == UART_FIFOMODE_ENABLE)
3488:D:/iot/felix2/targets/Cloud_STM32L431_BearPi/Drivers/STM32L4xx_HAL_Driver/Src\stm32l4xx_hal_uart.c ****   {
3489:D:/iot/felix2/targets/Cloud_STM32L431_BearPi/Drivers/STM32L4xx_HAL_Driver/Src\stm32l4xx_hal_uart.c ****     __HAL_UART_SEND_REQ(huart, UART_TXDATA_FLUSH_REQUEST);
3490:D:/iot/felix2/targets/Cloud_STM32L431_BearPi/Drivers/STM32L4xx_HAL_Driver/Src\stm32l4xx_hal_uart.c ****   }
3491:D:/iot/felix2/targets/Cloud_STM32L431_BearPi/Drivers/STM32L4xx_HAL_Driver/Src\stm32l4xx_hal_uart.c **** #endif
3492:D:/iot/felix2/targets/Cloud_STM32L431_BearPi/Drivers/STM32L4xx_HAL_Driver/Src\stm32l4xx_hal_uart.c **** 
3493:D:/iot/felix2/targets/Cloud_STM32L431_BearPi/Drivers/STM32L4xx_HAL_Driver/Src\stm32l4xx_hal_uart.c ****   /* Restore huart->gState and huart->RxState to Ready */
3494:D:/iot/felix2/targets/Cloud_STM32L431_BearPi/Drivers/STM32L4xx_HAL_Driver/Src\stm32l4xx_hal_uart.c ****   huart->gState  = HAL_UART_STATE_READY;
 6293              		.loc 1 3494 0
 6294 0046 FB68     		ldr	r3, [r7, #12]
 6295 0048 2022     		movs	r2, #32
 6296 004a 83F87120 		strb	r2, [r3, #113]
3495:D:/iot/felix2/targets/Cloud_STM32L431_BearPi/Drivers/STM32L4xx_HAL_Driver/Src\stm32l4xx_hal_uart.c ****   huart->RxState = HAL_UART_STATE_READY;
 6297              		.loc 1 3495 0
 6298 004e FB68     		ldr	r3, [r7, #12]
 6299 0050 2022     		movs	r2, #32
 6300 0052 83F87220 		strb	r2, [r3, #114]
3496:D:/iot/felix2/targets/Cloud_STM32L431_BearPi/Drivers/STM32L4xx_HAL_Driver/Src\stm32l4xx_hal_uart.c **** 
3497:D:/iot/felix2/targets/Cloud_STM32L431_BearPi/Drivers/STM32L4xx_HAL_Driver/Src\stm32l4xx_hal_uart.c ****   /* Call user Abort complete callback */
3498:D:/iot/felix2/targets/Cloud_STM32L431_BearPi/Drivers/STM32L4xx_HAL_Driver/Src\stm32l4xx_hal_uart.c **** #if (USE_HAL_UART_REGISTER_CALLBACKS == 1)
3499:D:/iot/felix2/targets/Cloud_STM32L431_BearPi/Drivers/STM32L4xx_HAL_Driver/Src\stm32l4xx_hal_uart.c ****   /* Call registered Abort complete callback */
3500:D:/iot/felix2/targets/Cloud_STM32L431_BearPi/Drivers/STM32L4xx_HAL_Driver/Src\stm32l4xx_hal_uart.c ****   huart->AbortCpltCallback(huart);
3501:D:/iot/felix2/targets/Cloud_STM32L431_BearPi/Drivers/STM32L4xx_HAL_Driver/Src\stm32l4xx_hal_uart.c **** #else
3502:D:/iot/felix2/targets/Cloud_STM32L431_BearPi/Drivers/STM32L4xx_HAL_Driver/Src\stm32l4xx_hal_uart.c ****   /* Call legacy weak Abort complete callback */
3503:D:/iot/felix2/targets/Cloud_STM32L431_BearPi/Drivers/STM32L4xx_HAL_Driver/Src\stm32l4xx_hal_uart.c ****   HAL_UART_AbortCpltCallback(huart);
 6301              		.loc 1 3503 0
 6302 0056 F868     		ldr	r0, [r7, #12]
 6303 0058 FFF7FEFF 		bl	HAL_UART_AbortCpltCallback
 6304 005c 00E0     		b	.L334
 6305              	.L337:
3471:D:/iot/felix2/targets/Cloud_STM32L431_BearPi/Drivers/STM32L4xx_HAL_Driver/Src\stm32l4xx_hal_uart.c ****     }
 6306              		.loc 1 3471 0
 6307 005e 00BF     		nop
 6308              	.L334:
3504:D:/iot/felix2/targets/Cloud_STM32L431_BearPi/Drivers/STM32L4xx_HAL_Driver/Src\stm32l4xx_hal_uart.c **** #endif /* USE_HAL_UART_REGISTER_CALLBACKS */
3505:D:/iot/felix2/targets/Cloud_STM32L431_BearPi/Drivers/STM32L4xx_HAL_Driver/Src\stm32l4xx_hal_uart.c **** }
 6309              		.loc 1 3505 0
 6310 0060 1037     		adds	r7, r7, #16
 6311              	.LCFI281:
 6312              		.cfi_def_cfa_offset 8
 6313 0062 BD46     		mov	sp, r7
 6314              	.LCFI282:
 6315              		.cfi_def_cfa_register 13
 6316              		@ sp needed
 6317 0064 80BD     		pop	{r7, pc}
 6318              		.cfi_endproc
 6319              	.LFE184:
 6321              		.section	.text.UART_DMARxAbortCallback,"ax",%progbits
 6322              		.align	1
 6323              		.syntax unified
 6324              		.thumb
 6325              		.thumb_func
 6326              		.fpu fpv4-sp-d16
 6328              	UART_DMARxAbortCallback:
ARM GAS  C:\Users\91458\AppData\Local\Temp\ccrpKNIe.s 			page 172


 6329              	.LFB185:
3506:D:/iot/felix2/targets/Cloud_STM32L431_BearPi/Drivers/STM32L4xx_HAL_Driver/Src\stm32l4xx_hal_uart.c **** 
3507:D:/iot/felix2/targets/Cloud_STM32L431_BearPi/Drivers/STM32L4xx_HAL_Driver/Src\stm32l4xx_hal_uart.c **** 
3508:D:/iot/felix2/targets/Cloud_STM32L431_BearPi/Drivers/STM32L4xx_HAL_Driver/Src\stm32l4xx_hal_uart.c **** /**
3509:D:/iot/felix2/targets/Cloud_STM32L431_BearPi/Drivers/STM32L4xx_HAL_Driver/Src\stm32l4xx_hal_uart.c ****   * @brief  DMA UART Rx communication abort callback, when initiated by user
3510:D:/iot/felix2/targets/Cloud_STM32L431_BearPi/Drivers/STM32L4xx_HAL_Driver/Src\stm32l4xx_hal_uart.c ****   *         (To be called at end of DMA Rx Abort procedure following user abort request).
3511:D:/iot/felix2/targets/Cloud_STM32L431_BearPi/Drivers/STM32L4xx_HAL_Driver/Src\stm32l4xx_hal_uart.c ****   * @note   When this callback is executed, User Abort complete call back is called only if no
3512:D:/iot/felix2/targets/Cloud_STM32L431_BearPi/Drivers/STM32L4xx_HAL_Driver/Src\stm32l4xx_hal_uart.c ****   *         Abort still ongoing for Tx DMA Handle.
3513:D:/iot/felix2/targets/Cloud_STM32L431_BearPi/Drivers/STM32L4xx_HAL_Driver/Src\stm32l4xx_hal_uart.c ****   * @param  hdma DMA handle.
3514:D:/iot/felix2/targets/Cloud_STM32L431_BearPi/Drivers/STM32L4xx_HAL_Driver/Src\stm32l4xx_hal_uart.c ****   * @retval None
3515:D:/iot/felix2/targets/Cloud_STM32L431_BearPi/Drivers/STM32L4xx_HAL_Driver/Src\stm32l4xx_hal_uart.c ****   */
3516:D:/iot/felix2/targets/Cloud_STM32L431_BearPi/Drivers/STM32L4xx_HAL_Driver/Src\stm32l4xx_hal_uart.c **** static void UART_DMARxAbortCallback(DMA_HandleTypeDef *hdma)
3517:D:/iot/felix2/targets/Cloud_STM32L431_BearPi/Drivers/STM32L4xx_HAL_Driver/Src\stm32l4xx_hal_uart.c **** {
 6330              		.loc 1 3517 0
 6331              		.cfi_startproc
 6332              		@ args = 0, pretend = 0, frame = 16
 6333              		@ frame_needed = 1, uses_anonymous_args = 0
 6334 0000 80B5     		push	{r7, lr}
 6335              	.LCFI283:
 6336              		.cfi_def_cfa_offset 8
 6337              		.cfi_offset 7, -8
 6338              		.cfi_offset 14, -4
 6339 0002 84B0     		sub	sp, sp, #16
 6340              	.LCFI284:
 6341              		.cfi_def_cfa_offset 24
 6342 0004 00AF     		add	r7, sp, #0
 6343              	.LCFI285:
 6344              		.cfi_def_cfa_register 7
 6345 0006 7860     		str	r0, [r7, #4]
3518:D:/iot/felix2/targets/Cloud_STM32L431_BearPi/Drivers/STM32L4xx_HAL_Driver/Src\stm32l4xx_hal_uart.c ****   UART_HandleTypeDef *huart = (UART_HandleTypeDef *)(hdma->Parent);
 6346              		.loc 1 3518 0
 6347 0008 7B68     		ldr	r3, [r7, #4]
 6348 000a 9B6A     		ldr	r3, [r3, #40]
 6349 000c FB60     		str	r3, [r7, #12]
3519:D:/iot/felix2/targets/Cloud_STM32L431_BearPi/Drivers/STM32L4xx_HAL_Driver/Src\stm32l4xx_hal_uart.c **** 
3520:D:/iot/felix2/targets/Cloud_STM32L431_BearPi/Drivers/STM32L4xx_HAL_Driver/Src\stm32l4xx_hal_uart.c ****   huart->hdmarx->XferAbortCallback = NULL;
 6350              		.loc 1 3520 0
 6351 000e FB68     		ldr	r3, [r7, #12]
 6352 0010 DB6E     		ldr	r3, [r3, #108]
 6353 0012 0022     		movs	r2, #0
 6354 0014 9A63     		str	r2, [r3, #56]
3521:D:/iot/felix2/targets/Cloud_STM32L431_BearPi/Drivers/STM32L4xx_HAL_Driver/Src\stm32l4xx_hal_uart.c **** 
3522:D:/iot/felix2/targets/Cloud_STM32L431_BearPi/Drivers/STM32L4xx_HAL_Driver/Src\stm32l4xx_hal_uart.c ****   /* Check if an Abort process is still ongoing */
3523:D:/iot/felix2/targets/Cloud_STM32L431_BearPi/Drivers/STM32L4xx_HAL_Driver/Src\stm32l4xx_hal_uart.c ****   if (huart->hdmatx != NULL)
 6355              		.loc 1 3523 0
 6356 0016 FB68     		ldr	r3, [r7, #12]
 6357 0018 9B6E     		ldr	r3, [r3, #104]
 6358 001a 002B     		cmp	r3, #0
 6359 001c 04D0     		beq	.L339
3524:D:/iot/felix2/targets/Cloud_STM32L431_BearPi/Drivers/STM32L4xx_HAL_Driver/Src\stm32l4xx_hal_uart.c ****   {
3525:D:/iot/felix2/targets/Cloud_STM32L431_BearPi/Drivers/STM32L4xx_HAL_Driver/Src\stm32l4xx_hal_uart.c ****     if (huart->hdmatx->XferAbortCallback != NULL)
 6360              		.loc 1 3525 0
 6361 001e FB68     		ldr	r3, [r7, #12]
 6362 0020 9B6E     		ldr	r3, [r3, #104]
 6363 0022 9B6B     		ldr	r3, [r3, #56]
 6364 0024 002B     		cmp	r3, #0
 6365 0026 24D1     		bne	.L341
ARM GAS  C:\Users\91458\AppData\Local\Temp\ccrpKNIe.s 			page 173


 6366              	.L339:
3526:D:/iot/felix2/targets/Cloud_STM32L431_BearPi/Drivers/STM32L4xx_HAL_Driver/Src\stm32l4xx_hal_uart.c ****     {
3527:D:/iot/felix2/targets/Cloud_STM32L431_BearPi/Drivers/STM32L4xx_HAL_Driver/Src\stm32l4xx_hal_uart.c ****       return;
3528:D:/iot/felix2/targets/Cloud_STM32L431_BearPi/Drivers/STM32L4xx_HAL_Driver/Src\stm32l4xx_hal_uart.c ****     }
3529:D:/iot/felix2/targets/Cloud_STM32L431_BearPi/Drivers/STM32L4xx_HAL_Driver/Src\stm32l4xx_hal_uart.c ****   }
3530:D:/iot/felix2/targets/Cloud_STM32L431_BearPi/Drivers/STM32L4xx_HAL_Driver/Src\stm32l4xx_hal_uart.c **** 
3531:D:/iot/felix2/targets/Cloud_STM32L431_BearPi/Drivers/STM32L4xx_HAL_Driver/Src\stm32l4xx_hal_uart.c ****   /* No Abort process still ongoing : All DMA channels are aborted, call user Abort Complete callba
3532:D:/iot/felix2/targets/Cloud_STM32L431_BearPi/Drivers/STM32L4xx_HAL_Driver/Src\stm32l4xx_hal_uart.c ****   huart->TxXferCount = 0U;
 6367              		.loc 1 3532 0
 6368 0028 FB68     		ldr	r3, [r7, #12]
 6369 002a 0022     		movs	r2, #0
 6370 002c A3F85220 		strh	r2, [r3, #82]	@ movhi
3533:D:/iot/felix2/targets/Cloud_STM32L431_BearPi/Drivers/STM32L4xx_HAL_Driver/Src\stm32l4xx_hal_uart.c ****   huart->RxXferCount = 0U;
 6371              		.loc 1 3533 0
 6372 0030 FB68     		ldr	r3, [r7, #12]
 6373 0032 0022     		movs	r2, #0
 6374 0034 A3F85A20 		strh	r2, [r3, #90]	@ movhi
3534:D:/iot/felix2/targets/Cloud_STM32L431_BearPi/Drivers/STM32L4xx_HAL_Driver/Src\stm32l4xx_hal_uart.c **** 
3535:D:/iot/felix2/targets/Cloud_STM32L431_BearPi/Drivers/STM32L4xx_HAL_Driver/Src\stm32l4xx_hal_uart.c ****   /* Reset errorCode */
3536:D:/iot/felix2/targets/Cloud_STM32L431_BearPi/Drivers/STM32L4xx_HAL_Driver/Src\stm32l4xx_hal_uart.c ****   huart->ErrorCode = HAL_UART_ERROR_NONE;
 6375              		.loc 1 3536 0
 6376 0038 FB68     		ldr	r3, [r7, #12]
 6377 003a 0022     		movs	r2, #0
 6378 003c 5A67     		str	r2, [r3, #116]
3537:D:/iot/felix2/targets/Cloud_STM32L431_BearPi/Drivers/STM32L4xx_HAL_Driver/Src\stm32l4xx_hal_uart.c **** 
3538:D:/iot/felix2/targets/Cloud_STM32L431_BearPi/Drivers/STM32L4xx_HAL_Driver/Src\stm32l4xx_hal_uart.c ****   /* Clear the Error flags in the ICR register */
3539:D:/iot/felix2/targets/Cloud_STM32L431_BearPi/Drivers/STM32L4xx_HAL_Driver/Src\stm32l4xx_hal_uart.c ****   __HAL_UART_CLEAR_FLAG(huart, UART_CLEAR_OREF | UART_CLEAR_NEF | UART_CLEAR_PEF | UART_CLEAR_FEF);
 6379              		.loc 1 3539 0
 6380 003e FB68     		ldr	r3, [r7, #12]
 6381 0040 1B68     		ldr	r3, [r3]
 6382 0042 0F22     		movs	r2, #15
 6383 0044 1A62     		str	r2, [r3, #32]
3540:D:/iot/felix2/targets/Cloud_STM32L431_BearPi/Drivers/STM32L4xx_HAL_Driver/Src\stm32l4xx_hal_uart.c **** 
3541:D:/iot/felix2/targets/Cloud_STM32L431_BearPi/Drivers/STM32L4xx_HAL_Driver/Src\stm32l4xx_hal_uart.c ****   /* Discard the received data */
3542:D:/iot/felix2/targets/Cloud_STM32L431_BearPi/Drivers/STM32L4xx_HAL_Driver/Src\stm32l4xx_hal_uart.c ****   __HAL_UART_SEND_REQ(huart, UART_RXDATA_FLUSH_REQUEST);
 6384              		.loc 1 3542 0
 6385 0046 FB68     		ldr	r3, [r7, #12]
 6386 0048 1B68     		ldr	r3, [r3]
 6387 004a 1B8B     		ldrh	r3, [r3, #24]	@ movhi
 6388 004c 9AB2     		uxth	r2, r3
 6389 004e FB68     		ldr	r3, [r7, #12]
 6390 0050 1B68     		ldr	r3, [r3]
 6391 0052 42F00802 		orr	r2, r2, #8
 6392 0056 92B2     		uxth	r2, r2
 6393 0058 1A83     		strh	r2, [r3, #24]	@ movhi
3543:D:/iot/felix2/targets/Cloud_STM32L431_BearPi/Drivers/STM32L4xx_HAL_Driver/Src\stm32l4xx_hal_uart.c **** 
3544:D:/iot/felix2/targets/Cloud_STM32L431_BearPi/Drivers/STM32L4xx_HAL_Driver/Src\stm32l4xx_hal_uart.c ****   /* Restore huart->gState and huart->RxState to Ready */
3545:D:/iot/felix2/targets/Cloud_STM32L431_BearPi/Drivers/STM32L4xx_HAL_Driver/Src\stm32l4xx_hal_uart.c ****   huart->gState  = HAL_UART_STATE_READY;
 6394              		.loc 1 3545 0
 6395 005a FB68     		ldr	r3, [r7, #12]
 6396 005c 2022     		movs	r2, #32
 6397 005e 83F87120 		strb	r2, [r3, #113]
3546:D:/iot/felix2/targets/Cloud_STM32L431_BearPi/Drivers/STM32L4xx_HAL_Driver/Src\stm32l4xx_hal_uart.c ****   huart->RxState = HAL_UART_STATE_READY;
 6398              		.loc 1 3546 0
 6399 0062 FB68     		ldr	r3, [r7, #12]
 6400 0064 2022     		movs	r2, #32
 6401 0066 83F87220 		strb	r2, [r3, #114]
ARM GAS  C:\Users\91458\AppData\Local\Temp\ccrpKNIe.s 			page 174


3547:D:/iot/felix2/targets/Cloud_STM32L431_BearPi/Drivers/STM32L4xx_HAL_Driver/Src\stm32l4xx_hal_uart.c **** 
3548:D:/iot/felix2/targets/Cloud_STM32L431_BearPi/Drivers/STM32L4xx_HAL_Driver/Src\stm32l4xx_hal_uart.c ****   /* Call user Abort complete callback */
3549:D:/iot/felix2/targets/Cloud_STM32L431_BearPi/Drivers/STM32L4xx_HAL_Driver/Src\stm32l4xx_hal_uart.c **** #if (USE_HAL_UART_REGISTER_CALLBACKS == 1)
3550:D:/iot/felix2/targets/Cloud_STM32L431_BearPi/Drivers/STM32L4xx_HAL_Driver/Src\stm32l4xx_hal_uart.c ****   /* Call registered Abort complete callback */
3551:D:/iot/felix2/targets/Cloud_STM32L431_BearPi/Drivers/STM32L4xx_HAL_Driver/Src\stm32l4xx_hal_uart.c ****   huart->AbortCpltCallback(huart);
3552:D:/iot/felix2/targets/Cloud_STM32L431_BearPi/Drivers/STM32L4xx_HAL_Driver/Src\stm32l4xx_hal_uart.c **** #else
3553:D:/iot/felix2/targets/Cloud_STM32L431_BearPi/Drivers/STM32L4xx_HAL_Driver/Src\stm32l4xx_hal_uart.c ****   /* Call legacy weak Abort complete callback */
3554:D:/iot/felix2/targets/Cloud_STM32L431_BearPi/Drivers/STM32L4xx_HAL_Driver/Src\stm32l4xx_hal_uart.c ****   HAL_UART_AbortCpltCallback(huart);
 6402              		.loc 1 3554 0
 6403 006a F868     		ldr	r0, [r7, #12]
 6404 006c FFF7FEFF 		bl	HAL_UART_AbortCpltCallback
 6405 0070 00E0     		b	.L338
 6406              	.L341:
3527:D:/iot/felix2/targets/Cloud_STM32L431_BearPi/Drivers/STM32L4xx_HAL_Driver/Src\stm32l4xx_hal_uart.c ****     }
 6407              		.loc 1 3527 0
 6408 0072 00BF     		nop
 6409              	.L338:
3555:D:/iot/felix2/targets/Cloud_STM32L431_BearPi/Drivers/STM32L4xx_HAL_Driver/Src\stm32l4xx_hal_uart.c **** #endif /* USE_HAL_UART_REGISTER_CALLBACKS */
3556:D:/iot/felix2/targets/Cloud_STM32L431_BearPi/Drivers/STM32L4xx_HAL_Driver/Src\stm32l4xx_hal_uart.c **** }
 6410              		.loc 1 3556 0
 6411 0074 1037     		adds	r7, r7, #16
 6412              	.LCFI286:
 6413              		.cfi_def_cfa_offset 8
 6414 0076 BD46     		mov	sp, r7
 6415              	.LCFI287:
 6416              		.cfi_def_cfa_register 13
 6417              		@ sp needed
 6418 0078 80BD     		pop	{r7, pc}
 6419              		.cfi_endproc
 6420              	.LFE185:
 6422              		.section	.text.UART_DMATxOnlyAbortCallback,"ax",%progbits
 6423              		.align	1
 6424              		.syntax unified
 6425              		.thumb
 6426              		.thumb_func
 6427              		.fpu fpv4-sp-d16
 6429              	UART_DMATxOnlyAbortCallback:
 6430              	.LFB186:
3557:D:/iot/felix2/targets/Cloud_STM32L431_BearPi/Drivers/STM32L4xx_HAL_Driver/Src\stm32l4xx_hal_uart.c **** 
3558:D:/iot/felix2/targets/Cloud_STM32L431_BearPi/Drivers/STM32L4xx_HAL_Driver/Src\stm32l4xx_hal_uart.c **** 
3559:D:/iot/felix2/targets/Cloud_STM32L431_BearPi/Drivers/STM32L4xx_HAL_Driver/Src\stm32l4xx_hal_uart.c **** /**
3560:D:/iot/felix2/targets/Cloud_STM32L431_BearPi/Drivers/STM32L4xx_HAL_Driver/Src\stm32l4xx_hal_uart.c ****   * @brief  DMA UART Tx communication abort callback, when initiated by user by a call to
3561:D:/iot/felix2/targets/Cloud_STM32L431_BearPi/Drivers/STM32L4xx_HAL_Driver/Src\stm32l4xx_hal_uart.c ****   *         HAL_UART_AbortTransmit_IT API (Abort only Tx transfer)
3562:D:/iot/felix2/targets/Cloud_STM32L431_BearPi/Drivers/STM32L4xx_HAL_Driver/Src\stm32l4xx_hal_uart.c ****   *         (This callback is executed at end of DMA Tx Abort procedure following user abort reques
3563:D:/iot/felix2/targets/Cloud_STM32L431_BearPi/Drivers/STM32L4xx_HAL_Driver/Src\stm32l4xx_hal_uart.c ****   *         and leads to user Tx Abort Complete callback execution).
3564:D:/iot/felix2/targets/Cloud_STM32L431_BearPi/Drivers/STM32L4xx_HAL_Driver/Src\stm32l4xx_hal_uart.c ****   * @param  hdma DMA handle.
3565:D:/iot/felix2/targets/Cloud_STM32L431_BearPi/Drivers/STM32L4xx_HAL_Driver/Src\stm32l4xx_hal_uart.c ****   * @retval None
3566:D:/iot/felix2/targets/Cloud_STM32L431_BearPi/Drivers/STM32L4xx_HAL_Driver/Src\stm32l4xx_hal_uart.c ****   */
3567:D:/iot/felix2/targets/Cloud_STM32L431_BearPi/Drivers/STM32L4xx_HAL_Driver/Src\stm32l4xx_hal_uart.c **** static void UART_DMATxOnlyAbortCallback(DMA_HandleTypeDef *hdma)
3568:D:/iot/felix2/targets/Cloud_STM32L431_BearPi/Drivers/STM32L4xx_HAL_Driver/Src\stm32l4xx_hal_uart.c **** {
 6431              		.loc 1 3568 0
 6432              		.cfi_startproc
 6433              		@ args = 0, pretend = 0, frame = 16
 6434              		@ frame_needed = 1, uses_anonymous_args = 0
 6435 0000 80B5     		push	{r7, lr}
 6436              	.LCFI288:
 6437              		.cfi_def_cfa_offset 8
ARM GAS  C:\Users\91458\AppData\Local\Temp\ccrpKNIe.s 			page 175


 6438              		.cfi_offset 7, -8
 6439              		.cfi_offset 14, -4
 6440 0002 84B0     		sub	sp, sp, #16
 6441              	.LCFI289:
 6442              		.cfi_def_cfa_offset 24
 6443 0004 00AF     		add	r7, sp, #0
 6444              	.LCFI290:
 6445              		.cfi_def_cfa_register 7
 6446 0006 7860     		str	r0, [r7, #4]
3569:D:/iot/felix2/targets/Cloud_STM32L431_BearPi/Drivers/STM32L4xx_HAL_Driver/Src\stm32l4xx_hal_uart.c ****   UART_HandleTypeDef *huart = (UART_HandleTypeDef *)(hdma->Parent);
 6447              		.loc 1 3569 0
 6448 0008 7B68     		ldr	r3, [r7, #4]
 6449 000a 9B6A     		ldr	r3, [r3, #40]
 6450 000c FB60     		str	r3, [r7, #12]
3570:D:/iot/felix2/targets/Cloud_STM32L431_BearPi/Drivers/STM32L4xx_HAL_Driver/Src\stm32l4xx_hal_uart.c **** 
3571:D:/iot/felix2/targets/Cloud_STM32L431_BearPi/Drivers/STM32L4xx_HAL_Driver/Src\stm32l4xx_hal_uart.c ****   huart->TxXferCount = 0U;
 6451              		.loc 1 3571 0
 6452 000e FB68     		ldr	r3, [r7, #12]
 6453 0010 0022     		movs	r2, #0
 6454 0012 A3F85220 		strh	r2, [r3, #82]	@ movhi
3572:D:/iot/felix2/targets/Cloud_STM32L431_BearPi/Drivers/STM32L4xx_HAL_Driver/Src\stm32l4xx_hal_uart.c **** 
3573:D:/iot/felix2/targets/Cloud_STM32L431_BearPi/Drivers/STM32L4xx_HAL_Driver/Src\stm32l4xx_hal_uart.c **** #if defined(USART_CR1_FIFOEN)
3574:D:/iot/felix2/targets/Cloud_STM32L431_BearPi/Drivers/STM32L4xx_HAL_Driver/Src\stm32l4xx_hal_uart.c ****   /* Flush the whole TX FIFO (if needed) */
3575:D:/iot/felix2/targets/Cloud_STM32L431_BearPi/Drivers/STM32L4xx_HAL_Driver/Src\stm32l4xx_hal_uart.c ****   if (huart->FifoMode == UART_FIFOMODE_ENABLE)
3576:D:/iot/felix2/targets/Cloud_STM32L431_BearPi/Drivers/STM32L4xx_HAL_Driver/Src\stm32l4xx_hal_uart.c ****   {
3577:D:/iot/felix2/targets/Cloud_STM32L431_BearPi/Drivers/STM32L4xx_HAL_Driver/Src\stm32l4xx_hal_uart.c ****     __HAL_UART_SEND_REQ(huart, UART_TXDATA_FLUSH_REQUEST);
3578:D:/iot/felix2/targets/Cloud_STM32L431_BearPi/Drivers/STM32L4xx_HAL_Driver/Src\stm32l4xx_hal_uart.c ****   }
3579:D:/iot/felix2/targets/Cloud_STM32L431_BearPi/Drivers/STM32L4xx_HAL_Driver/Src\stm32l4xx_hal_uart.c **** #endif
3580:D:/iot/felix2/targets/Cloud_STM32L431_BearPi/Drivers/STM32L4xx_HAL_Driver/Src\stm32l4xx_hal_uart.c **** 
3581:D:/iot/felix2/targets/Cloud_STM32L431_BearPi/Drivers/STM32L4xx_HAL_Driver/Src\stm32l4xx_hal_uart.c ****   /* Restore huart->gState to Ready */
3582:D:/iot/felix2/targets/Cloud_STM32L431_BearPi/Drivers/STM32L4xx_HAL_Driver/Src\stm32l4xx_hal_uart.c ****   huart->gState = HAL_UART_STATE_READY;
 6455              		.loc 1 3582 0
 6456 0016 FB68     		ldr	r3, [r7, #12]
 6457 0018 2022     		movs	r2, #32
 6458 001a 83F87120 		strb	r2, [r3, #113]
3583:D:/iot/felix2/targets/Cloud_STM32L431_BearPi/Drivers/STM32L4xx_HAL_Driver/Src\stm32l4xx_hal_uart.c **** 
3584:D:/iot/felix2/targets/Cloud_STM32L431_BearPi/Drivers/STM32L4xx_HAL_Driver/Src\stm32l4xx_hal_uart.c ****   /* Call user Abort complete callback */
3585:D:/iot/felix2/targets/Cloud_STM32L431_BearPi/Drivers/STM32L4xx_HAL_Driver/Src\stm32l4xx_hal_uart.c **** #if (USE_HAL_UART_REGISTER_CALLBACKS == 1)
3586:D:/iot/felix2/targets/Cloud_STM32L431_BearPi/Drivers/STM32L4xx_HAL_Driver/Src\stm32l4xx_hal_uart.c ****   /* Call registered Abort Transmit Complete Callback */
3587:D:/iot/felix2/targets/Cloud_STM32L431_BearPi/Drivers/STM32L4xx_HAL_Driver/Src\stm32l4xx_hal_uart.c ****   huart->AbortTransmitCpltCallback(huart);
3588:D:/iot/felix2/targets/Cloud_STM32L431_BearPi/Drivers/STM32L4xx_HAL_Driver/Src\stm32l4xx_hal_uart.c **** #else
3589:D:/iot/felix2/targets/Cloud_STM32L431_BearPi/Drivers/STM32L4xx_HAL_Driver/Src\stm32l4xx_hal_uart.c ****   /* Call legacy weak Abort Transmit Complete Callback */
3590:D:/iot/felix2/targets/Cloud_STM32L431_BearPi/Drivers/STM32L4xx_HAL_Driver/Src\stm32l4xx_hal_uart.c ****   HAL_UART_AbortTransmitCpltCallback(huart);
 6459              		.loc 1 3590 0
 6460 001e F868     		ldr	r0, [r7, #12]
 6461 0020 FFF7FEFF 		bl	HAL_UART_AbortTransmitCpltCallback
3591:D:/iot/felix2/targets/Cloud_STM32L431_BearPi/Drivers/STM32L4xx_HAL_Driver/Src\stm32l4xx_hal_uart.c **** #endif /* USE_HAL_UART_REGISTER_CALLBACKS */
3592:D:/iot/felix2/targets/Cloud_STM32L431_BearPi/Drivers/STM32L4xx_HAL_Driver/Src\stm32l4xx_hal_uart.c **** }
 6462              		.loc 1 3592 0
 6463 0024 00BF     		nop
 6464 0026 1037     		adds	r7, r7, #16
 6465              	.LCFI291:
 6466              		.cfi_def_cfa_offset 8
 6467 0028 BD46     		mov	sp, r7
 6468              	.LCFI292:
 6469              		.cfi_def_cfa_register 13
 6470              		@ sp needed
ARM GAS  C:\Users\91458\AppData\Local\Temp\ccrpKNIe.s 			page 176


 6471 002a 80BD     		pop	{r7, pc}
 6472              		.cfi_endproc
 6473              	.LFE186:
 6475              		.section	.text.UART_DMARxOnlyAbortCallback,"ax",%progbits
 6476              		.align	1
 6477              		.syntax unified
 6478              		.thumb
 6479              		.thumb_func
 6480              		.fpu fpv4-sp-d16
 6482              	UART_DMARxOnlyAbortCallback:
 6483              	.LFB187:
3593:D:/iot/felix2/targets/Cloud_STM32L431_BearPi/Drivers/STM32L4xx_HAL_Driver/Src\stm32l4xx_hal_uart.c **** 
3594:D:/iot/felix2/targets/Cloud_STM32L431_BearPi/Drivers/STM32L4xx_HAL_Driver/Src\stm32l4xx_hal_uart.c **** /**
3595:D:/iot/felix2/targets/Cloud_STM32L431_BearPi/Drivers/STM32L4xx_HAL_Driver/Src\stm32l4xx_hal_uart.c ****   * @brief  DMA UART Rx communication abort callback, when initiated by user by a call to
3596:D:/iot/felix2/targets/Cloud_STM32L431_BearPi/Drivers/STM32L4xx_HAL_Driver/Src\stm32l4xx_hal_uart.c ****   *         HAL_UART_AbortReceive_IT API (Abort only Rx transfer)
3597:D:/iot/felix2/targets/Cloud_STM32L431_BearPi/Drivers/STM32L4xx_HAL_Driver/Src\stm32l4xx_hal_uart.c ****   *         (This callback is executed at end of DMA Rx Abort procedure following user abort reques
3598:D:/iot/felix2/targets/Cloud_STM32L431_BearPi/Drivers/STM32L4xx_HAL_Driver/Src\stm32l4xx_hal_uart.c ****   *         and leads to user Rx Abort Complete callback execution).
3599:D:/iot/felix2/targets/Cloud_STM32L431_BearPi/Drivers/STM32L4xx_HAL_Driver/Src\stm32l4xx_hal_uart.c ****   * @param  hdma DMA handle.
3600:D:/iot/felix2/targets/Cloud_STM32L431_BearPi/Drivers/STM32L4xx_HAL_Driver/Src\stm32l4xx_hal_uart.c ****   * @retval None
3601:D:/iot/felix2/targets/Cloud_STM32L431_BearPi/Drivers/STM32L4xx_HAL_Driver/Src\stm32l4xx_hal_uart.c ****   */
3602:D:/iot/felix2/targets/Cloud_STM32L431_BearPi/Drivers/STM32L4xx_HAL_Driver/Src\stm32l4xx_hal_uart.c **** static void UART_DMARxOnlyAbortCallback(DMA_HandleTypeDef *hdma)
3603:D:/iot/felix2/targets/Cloud_STM32L431_BearPi/Drivers/STM32L4xx_HAL_Driver/Src\stm32l4xx_hal_uart.c **** {
 6484              		.loc 1 3603 0
 6485              		.cfi_startproc
 6486              		@ args = 0, pretend = 0, frame = 16
 6487              		@ frame_needed = 1, uses_anonymous_args = 0
 6488 0000 80B5     		push	{r7, lr}
 6489              	.LCFI293:
 6490              		.cfi_def_cfa_offset 8
 6491              		.cfi_offset 7, -8
 6492              		.cfi_offset 14, -4
 6493 0002 84B0     		sub	sp, sp, #16
 6494              	.LCFI294:
 6495              		.cfi_def_cfa_offset 24
 6496 0004 00AF     		add	r7, sp, #0
 6497              	.LCFI295:
 6498              		.cfi_def_cfa_register 7
 6499 0006 7860     		str	r0, [r7, #4]
3604:D:/iot/felix2/targets/Cloud_STM32L431_BearPi/Drivers/STM32L4xx_HAL_Driver/Src\stm32l4xx_hal_uart.c ****   UART_HandleTypeDef *huart = (UART_HandleTypeDef *)((DMA_HandleTypeDef *)hdma)->Parent;
 6500              		.loc 1 3604 0
 6501 0008 7B68     		ldr	r3, [r7, #4]
 6502 000a 9B6A     		ldr	r3, [r3, #40]
 6503 000c FB60     		str	r3, [r7, #12]
3605:D:/iot/felix2/targets/Cloud_STM32L431_BearPi/Drivers/STM32L4xx_HAL_Driver/Src\stm32l4xx_hal_uart.c **** 
3606:D:/iot/felix2/targets/Cloud_STM32L431_BearPi/Drivers/STM32L4xx_HAL_Driver/Src\stm32l4xx_hal_uart.c ****   huart->RxXferCount = 0U;
 6504              		.loc 1 3606 0
 6505 000e FB68     		ldr	r3, [r7, #12]
 6506 0010 0022     		movs	r2, #0
 6507 0012 A3F85A20 		strh	r2, [r3, #90]	@ movhi
3607:D:/iot/felix2/targets/Cloud_STM32L431_BearPi/Drivers/STM32L4xx_HAL_Driver/Src\stm32l4xx_hal_uart.c **** 
3608:D:/iot/felix2/targets/Cloud_STM32L431_BearPi/Drivers/STM32L4xx_HAL_Driver/Src\stm32l4xx_hal_uart.c ****   /* Clear the Error flags in the ICR register */
3609:D:/iot/felix2/targets/Cloud_STM32L431_BearPi/Drivers/STM32L4xx_HAL_Driver/Src\stm32l4xx_hal_uart.c ****   __HAL_UART_CLEAR_FLAG(huart, UART_CLEAR_OREF | UART_CLEAR_NEF | UART_CLEAR_PEF | UART_CLEAR_FEF);
 6508              		.loc 1 3609 0
 6509 0016 FB68     		ldr	r3, [r7, #12]
 6510 0018 1B68     		ldr	r3, [r3]
 6511 001a 0F22     		movs	r2, #15
 6512 001c 1A62     		str	r2, [r3, #32]
ARM GAS  C:\Users\91458\AppData\Local\Temp\ccrpKNIe.s 			page 177


3610:D:/iot/felix2/targets/Cloud_STM32L431_BearPi/Drivers/STM32L4xx_HAL_Driver/Src\stm32l4xx_hal_uart.c **** 
3611:D:/iot/felix2/targets/Cloud_STM32L431_BearPi/Drivers/STM32L4xx_HAL_Driver/Src\stm32l4xx_hal_uart.c ****   /* Discard the received data */
3612:D:/iot/felix2/targets/Cloud_STM32L431_BearPi/Drivers/STM32L4xx_HAL_Driver/Src\stm32l4xx_hal_uart.c ****   __HAL_UART_SEND_REQ(huart, UART_RXDATA_FLUSH_REQUEST);
 6513              		.loc 1 3612 0
 6514 001e FB68     		ldr	r3, [r7, #12]
 6515 0020 1B68     		ldr	r3, [r3]
 6516 0022 1B8B     		ldrh	r3, [r3, #24]	@ movhi
 6517 0024 9AB2     		uxth	r2, r3
 6518 0026 FB68     		ldr	r3, [r7, #12]
 6519 0028 1B68     		ldr	r3, [r3]
 6520 002a 42F00802 		orr	r2, r2, #8
 6521 002e 92B2     		uxth	r2, r2
 6522 0030 1A83     		strh	r2, [r3, #24]	@ movhi
3613:D:/iot/felix2/targets/Cloud_STM32L431_BearPi/Drivers/STM32L4xx_HAL_Driver/Src\stm32l4xx_hal_uart.c **** 
3614:D:/iot/felix2/targets/Cloud_STM32L431_BearPi/Drivers/STM32L4xx_HAL_Driver/Src\stm32l4xx_hal_uart.c ****   /* Restore huart->RxState to Ready */
3615:D:/iot/felix2/targets/Cloud_STM32L431_BearPi/Drivers/STM32L4xx_HAL_Driver/Src\stm32l4xx_hal_uart.c ****   huart->RxState = HAL_UART_STATE_READY;
 6523              		.loc 1 3615 0
 6524 0032 FB68     		ldr	r3, [r7, #12]
 6525 0034 2022     		movs	r2, #32
 6526 0036 83F87220 		strb	r2, [r3, #114]
3616:D:/iot/felix2/targets/Cloud_STM32L431_BearPi/Drivers/STM32L4xx_HAL_Driver/Src\stm32l4xx_hal_uart.c **** 
3617:D:/iot/felix2/targets/Cloud_STM32L431_BearPi/Drivers/STM32L4xx_HAL_Driver/Src\stm32l4xx_hal_uart.c ****   /* Call user Abort complete callback */
3618:D:/iot/felix2/targets/Cloud_STM32L431_BearPi/Drivers/STM32L4xx_HAL_Driver/Src\stm32l4xx_hal_uart.c **** #if (USE_HAL_UART_REGISTER_CALLBACKS == 1)
3619:D:/iot/felix2/targets/Cloud_STM32L431_BearPi/Drivers/STM32L4xx_HAL_Driver/Src\stm32l4xx_hal_uart.c ****   /* Call registered Abort Receive Complete Callback */
3620:D:/iot/felix2/targets/Cloud_STM32L431_BearPi/Drivers/STM32L4xx_HAL_Driver/Src\stm32l4xx_hal_uart.c ****   huart->AbortReceiveCpltCallback(huart);
3621:D:/iot/felix2/targets/Cloud_STM32L431_BearPi/Drivers/STM32L4xx_HAL_Driver/Src\stm32l4xx_hal_uart.c **** #else
3622:D:/iot/felix2/targets/Cloud_STM32L431_BearPi/Drivers/STM32L4xx_HAL_Driver/Src\stm32l4xx_hal_uart.c ****   /* Call legacy weak Abort Receive Complete Callback */
3623:D:/iot/felix2/targets/Cloud_STM32L431_BearPi/Drivers/STM32L4xx_HAL_Driver/Src\stm32l4xx_hal_uart.c ****   HAL_UART_AbortReceiveCpltCallback(huart);
 6527              		.loc 1 3623 0
 6528 003a F868     		ldr	r0, [r7, #12]
 6529 003c FFF7FEFF 		bl	HAL_UART_AbortReceiveCpltCallback
3624:D:/iot/felix2/targets/Cloud_STM32L431_BearPi/Drivers/STM32L4xx_HAL_Driver/Src\stm32l4xx_hal_uart.c **** #endif /* USE_HAL_UART_REGISTER_CALLBACKS */
3625:D:/iot/felix2/targets/Cloud_STM32L431_BearPi/Drivers/STM32L4xx_HAL_Driver/Src\stm32l4xx_hal_uart.c **** }
 6530              		.loc 1 3625 0
 6531 0040 00BF     		nop
 6532 0042 1037     		adds	r7, r7, #16
 6533              	.LCFI296:
 6534              		.cfi_def_cfa_offset 8
 6535 0044 BD46     		mov	sp, r7
 6536              	.LCFI297:
 6537              		.cfi_def_cfa_register 13
 6538              		@ sp needed
 6539 0046 80BD     		pop	{r7, pc}
 6540              		.cfi_endproc
 6541              	.LFE187:
 6543              		.section	.text.UART_TxISR_8BIT,"ax",%progbits
 6544              		.align	1
 6545              		.syntax unified
 6546              		.thumb
 6547              		.thumb_func
 6548              		.fpu fpv4-sp-d16
 6550              	UART_TxISR_8BIT:
 6551              	.LFB188:
3626:D:/iot/felix2/targets/Cloud_STM32L431_BearPi/Drivers/STM32L4xx_HAL_Driver/Src\stm32l4xx_hal_uart.c **** 
3627:D:/iot/felix2/targets/Cloud_STM32L431_BearPi/Drivers/STM32L4xx_HAL_Driver/Src\stm32l4xx_hal_uart.c **** /**
3628:D:/iot/felix2/targets/Cloud_STM32L431_BearPi/Drivers/STM32L4xx_HAL_Driver/Src\stm32l4xx_hal_uart.c ****   * @brief TX interrrupt handler for 7 or 8 bits data word length .
3629:D:/iot/felix2/targets/Cloud_STM32L431_BearPi/Drivers/STM32L4xx_HAL_Driver/Src\stm32l4xx_hal_uart.c ****   * @note   Function is called under interruption only, once
ARM GAS  C:\Users\91458\AppData\Local\Temp\ccrpKNIe.s 			page 178


3630:D:/iot/felix2/targets/Cloud_STM32L431_BearPi/Drivers/STM32L4xx_HAL_Driver/Src\stm32l4xx_hal_uart.c ****   *         interruptions have been enabled by HAL_UART_Transmit_IT().
3631:D:/iot/felix2/targets/Cloud_STM32L431_BearPi/Drivers/STM32L4xx_HAL_Driver/Src\stm32l4xx_hal_uart.c ****   * @param huart UART handle.
3632:D:/iot/felix2/targets/Cloud_STM32L431_BearPi/Drivers/STM32L4xx_HAL_Driver/Src\stm32l4xx_hal_uart.c ****   * @retval None
3633:D:/iot/felix2/targets/Cloud_STM32L431_BearPi/Drivers/STM32L4xx_HAL_Driver/Src\stm32l4xx_hal_uart.c ****   */
3634:D:/iot/felix2/targets/Cloud_STM32L431_BearPi/Drivers/STM32L4xx_HAL_Driver/Src\stm32l4xx_hal_uart.c **** static void UART_TxISR_8BIT(UART_HandleTypeDef *huart)
3635:D:/iot/felix2/targets/Cloud_STM32L431_BearPi/Drivers/STM32L4xx_HAL_Driver/Src\stm32l4xx_hal_uart.c **** {
 6552              		.loc 1 3635 0
 6553              		.cfi_startproc
 6554              		@ args = 0, pretend = 0, frame = 8
 6555              		@ frame_needed = 1, uses_anonymous_args = 0
 6556              		@ link register save eliminated.
 6557 0000 80B4     		push	{r7}
 6558              	.LCFI298:
 6559              		.cfi_def_cfa_offset 4
 6560              		.cfi_offset 7, -4
 6561 0002 83B0     		sub	sp, sp, #12
 6562              	.LCFI299:
 6563              		.cfi_def_cfa_offset 16
 6564 0004 00AF     		add	r7, sp, #0
 6565              	.LCFI300:
 6566              		.cfi_def_cfa_register 7
 6567 0006 7860     		str	r0, [r7, #4]
3636:D:/iot/felix2/targets/Cloud_STM32L431_BearPi/Drivers/STM32L4xx_HAL_Driver/Src\stm32l4xx_hal_uart.c ****   /* Check that a Tx process is ongoing */
3637:D:/iot/felix2/targets/Cloud_STM32L431_BearPi/Drivers/STM32L4xx_HAL_Driver/Src\stm32l4xx_hal_uart.c ****   if (huart->gState == HAL_UART_STATE_BUSY_TX)
 6568              		.loc 1 3637 0
 6569 0008 7B68     		ldr	r3, [r7, #4]
 6570 000a 93F87130 		ldrb	r3, [r3, #113]
 6571 000e DBB2     		uxtb	r3, r3
 6572 0010 212B     		cmp	r3, #33
 6573 0012 29D1     		bne	.L347
3638:D:/iot/felix2/targets/Cloud_STM32L431_BearPi/Drivers/STM32L4xx_HAL_Driver/Src\stm32l4xx_hal_uart.c ****   {
3639:D:/iot/felix2/targets/Cloud_STM32L431_BearPi/Drivers/STM32L4xx_HAL_Driver/Src\stm32l4xx_hal_uart.c ****     if (huart->TxXferCount == 0)
 6574              		.loc 1 3639 0
 6575 0014 7B68     		ldr	r3, [r7, #4]
 6576 0016 B3F85230 		ldrh	r3, [r3, #82]	@ movhi
 6577 001a 9BB2     		uxth	r3, r3
 6578 001c 002B     		cmp	r3, #0
 6579 001e 10D1     		bne	.L346
3640:D:/iot/felix2/targets/Cloud_STM32L431_BearPi/Drivers/STM32L4xx_HAL_Driver/Src\stm32l4xx_hal_uart.c ****     {
3641:D:/iot/felix2/targets/Cloud_STM32L431_BearPi/Drivers/STM32L4xx_HAL_Driver/Src\stm32l4xx_hal_uart.c ****       /* Disable the UART Transmit Data Register Empty Interrupt */
3642:D:/iot/felix2/targets/Cloud_STM32L431_BearPi/Drivers/STM32L4xx_HAL_Driver/Src\stm32l4xx_hal_uart.c **** #if defined(USART_CR1_FIFOEN)
3643:D:/iot/felix2/targets/Cloud_STM32L431_BearPi/Drivers/STM32L4xx_HAL_Driver/Src\stm32l4xx_hal_uart.c ****       CLEAR_BIT(huart->Instance->CR1, USART_CR1_TXEIE_TXFNFIE);
3644:D:/iot/felix2/targets/Cloud_STM32L431_BearPi/Drivers/STM32L4xx_HAL_Driver/Src\stm32l4xx_hal_uart.c **** #else
3645:D:/iot/felix2/targets/Cloud_STM32L431_BearPi/Drivers/STM32L4xx_HAL_Driver/Src\stm32l4xx_hal_uart.c ****       CLEAR_BIT(huart->Instance->CR1, USART_CR1_TXEIE);
 6580              		.loc 1 3645 0
 6581 0020 7B68     		ldr	r3, [r7, #4]
 6582 0022 1B68     		ldr	r3, [r3]
 6583 0024 1A68     		ldr	r2, [r3]
 6584 0026 7B68     		ldr	r3, [r7, #4]
 6585 0028 1B68     		ldr	r3, [r3]
 6586 002a 22F08002 		bic	r2, r2, #128
 6587 002e 1A60     		str	r2, [r3]
3646:D:/iot/felix2/targets/Cloud_STM32L431_BearPi/Drivers/STM32L4xx_HAL_Driver/Src\stm32l4xx_hal_uart.c **** #endif
3647:D:/iot/felix2/targets/Cloud_STM32L431_BearPi/Drivers/STM32L4xx_HAL_Driver/Src\stm32l4xx_hal_uart.c **** 
3648:D:/iot/felix2/targets/Cloud_STM32L431_BearPi/Drivers/STM32L4xx_HAL_Driver/Src\stm32l4xx_hal_uart.c ****       /* Enable the UART Transmit Complete Interrupt */
3649:D:/iot/felix2/targets/Cloud_STM32L431_BearPi/Drivers/STM32L4xx_HAL_Driver/Src\stm32l4xx_hal_uart.c ****       SET_BIT(huart->Instance->CR1, USART_CR1_TCIE);
 6588              		.loc 1 3649 0
ARM GAS  C:\Users\91458\AppData\Local\Temp\ccrpKNIe.s 			page 179


 6589 0030 7B68     		ldr	r3, [r7, #4]
 6590 0032 1B68     		ldr	r3, [r3]
 6591 0034 1A68     		ldr	r2, [r3]
 6592 0036 7B68     		ldr	r3, [r7, #4]
 6593 0038 1B68     		ldr	r3, [r3]
 6594 003a 42F04002 		orr	r2, r2, #64
 6595 003e 1A60     		str	r2, [r3]
3650:D:/iot/felix2/targets/Cloud_STM32L431_BearPi/Drivers/STM32L4xx_HAL_Driver/Src\stm32l4xx_hal_uart.c ****     }
3651:D:/iot/felix2/targets/Cloud_STM32L431_BearPi/Drivers/STM32L4xx_HAL_Driver/Src\stm32l4xx_hal_uart.c ****     else
3652:D:/iot/felix2/targets/Cloud_STM32L431_BearPi/Drivers/STM32L4xx_HAL_Driver/Src\stm32l4xx_hal_uart.c ****     {
3653:D:/iot/felix2/targets/Cloud_STM32L431_BearPi/Drivers/STM32L4xx_HAL_Driver/Src\stm32l4xx_hal_uart.c ****       huart->Instance->TDR = (uint8_t)(*huart->pTxBuffPtr++ & (uint8_t)0xFF);
3654:D:/iot/felix2/targets/Cloud_STM32L431_BearPi/Drivers/STM32L4xx_HAL_Driver/Src\stm32l4xx_hal_uart.c ****       huart->TxXferCount--;
3655:D:/iot/felix2/targets/Cloud_STM32L431_BearPi/Drivers/STM32L4xx_HAL_Driver/Src\stm32l4xx_hal_uart.c ****     }
3656:D:/iot/felix2/targets/Cloud_STM32L431_BearPi/Drivers/STM32L4xx_HAL_Driver/Src\stm32l4xx_hal_uart.c ****   }
3657:D:/iot/felix2/targets/Cloud_STM32L431_BearPi/Drivers/STM32L4xx_HAL_Driver/Src\stm32l4xx_hal_uart.c **** }
 6596              		.loc 1 3657 0
 6597 0040 12E0     		b	.L347
 6598              	.L346:
3653:D:/iot/felix2/targets/Cloud_STM32L431_BearPi/Drivers/STM32L4xx_HAL_Driver/Src\stm32l4xx_hal_uart.c ****       huart->TxXferCount--;
 6599              		.loc 1 3653 0
 6600 0042 7B68     		ldr	r3, [r7, #4]
 6601 0044 DB6C     		ldr	r3, [r3, #76]
 6602 0046 591C     		adds	r1, r3, #1
 6603 0048 7A68     		ldr	r2, [r7, #4]
 6604 004a D164     		str	r1, [r2, #76]
 6605 004c 1A78     		ldrb	r2, [r3]	@ zero_extendqisi2
 6606 004e 7B68     		ldr	r3, [r7, #4]
 6607 0050 1B68     		ldr	r3, [r3]
 6608 0052 92B2     		uxth	r2, r2
 6609 0054 1A85     		strh	r2, [r3, #40]	@ movhi
3654:D:/iot/felix2/targets/Cloud_STM32L431_BearPi/Drivers/STM32L4xx_HAL_Driver/Src\stm32l4xx_hal_uart.c ****     }
 6610              		.loc 1 3654 0
 6611 0056 7B68     		ldr	r3, [r7, #4]
 6612 0058 B3F85230 		ldrh	r3, [r3, #82]	@ movhi
 6613 005c 9BB2     		uxth	r3, r3
 6614 005e 013B     		subs	r3, r3, #1
 6615 0060 9AB2     		uxth	r2, r3
 6616 0062 7B68     		ldr	r3, [r7, #4]
 6617 0064 A3F85220 		strh	r2, [r3, #82]	@ movhi
 6618              	.L347:
 6619              		.loc 1 3657 0
 6620 0068 00BF     		nop
 6621 006a 0C37     		adds	r7, r7, #12
 6622              	.LCFI301:
 6623              		.cfi_def_cfa_offset 4
 6624 006c BD46     		mov	sp, r7
 6625              	.LCFI302:
 6626              		.cfi_def_cfa_register 13
 6627              		@ sp needed
 6628 006e 5DF8047B 		ldr	r7, [sp], #4
 6629              	.LCFI303:
 6630              		.cfi_restore 7
 6631              		.cfi_def_cfa_offset 0
 6632 0072 7047     		bx	lr
 6633              		.cfi_endproc
 6634              	.LFE188:
 6636              		.section	.text.UART_TxISR_16BIT,"ax",%progbits
ARM GAS  C:\Users\91458\AppData\Local\Temp\ccrpKNIe.s 			page 180


 6637              		.align	1
 6638              		.syntax unified
 6639              		.thumb
 6640              		.thumb_func
 6641              		.fpu fpv4-sp-d16
 6643              	UART_TxISR_16BIT:
 6644              	.LFB189:
3658:D:/iot/felix2/targets/Cloud_STM32L431_BearPi/Drivers/STM32L4xx_HAL_Driver/Src\stm32l4xx_hal_uart.c **** 
3659:D:/iot/felix2/targets/Cloud_STM32L431_BearPi/Drivers/STM32L4xx_HAL_Driver/Src\stm32l4xx_hal_uart.c **** /**
3660:D:/iot/felix2/targets/Cloud_STM32L431_BearPi/Drivers/STM32L4xx_HAL_Driver/Src\stm32l4xx_hal_uart.c ****   * @brief TX interrrupt handler for 9 bits data word length.
3661:D:/iot/felix2/targets/Cloud_STM32L431_BearPi/Drivers/STM32L4xx_HAL_Driver/Src\stm32l4xx_hal_uart.c ****   * @note   Function is called under interruption only, once
3662:D:/iot/felix2/targets/Cloud_STM32L431_BearPi/Drivers/STM32L4xx_HAL_Driver/Src\stm32l4xx_hal_uart.c ****   *         interruptions have been enabled by HAL_UART_Transmit_IT().
3663:D:/iot/felix2/targets/Cloud_STM32L431_BearPi/Drivers/STM32L4xx_HAL_Driver/Src\stm32l4xx_hal_uart.c ****   * @param huart UART handle.
3664:D:/iot/felix2/targets/Cloud_STM32L431_BearPi/Drivers/STM32L4xx_HAL_Driver/Src\stm32l4xx_hal_uart.c ****   * @retval None
3665:D:/iot/felix2/targets/Cloud_STM32L431_BearPi/Drivers/STM32L4xx_HAL_Driver/Src\stm32l4xx_hal_uart.c ****   */
3666:D:/iot/felix2/targets/Cloud_STM32L431_BearPi/Drivers/STM32L4xx_HAL_Driver/Src\stm32l4xx_hal_uart.c **** static void UART_TxISR_16BIT(UART_HandleTypeDef *huart)
3667:D:/iot/felix2/targets/Cloud_STM32L431_BearPi/Drivers/STM32L4xx_HAL_Driver/Src\stm32l4xx_hal_uart.c **** {
 6645              		.loc 1 3667 0
 6646              		.cfi_startproc
 6647              		@ args = 0, pretend = 0, frame = 16
 6648              		@ frame_needed = 1, uses_anonymous_args = 0
 6649              		@ link register save eliminated.
 6650 0000 80B4     		push	{r7}
 6651              	.LCFI304:
 6652              		.cfi_def_cfa_offset 4
 6653              		.cfi_offset 7, -4
 6654 0002 85B0     		sub	sp, sp, #20
 6655              	.LCFI305:
 6656              		.cfi_def_cfa_offset 24
 6657 0004 00AF     		add	r7, sp, #0
 6658              	.LCFI306:
 6659              		.cfi_def_cfa_register 7
 6660 0006 7860     		str	r0, [r7, #4]
3668:D:/iot/felix2/targets/Cloud_STM32L431_BearPi/Drivers/STM32L4xx_HAL_Driver/Src\stm32l4xx_hal_uart.c ****   uint16_t *tmp;
3669:D:/iot/felix2/targets/Cloud_STM32L431_BearPi/Drivers/STM32L4xx_HAL_Driver/Src\stm32l4xx_hal_uart.c **** 
3670:D:/iot/felix2/targets/Cloud_STM32L431_BearPi/Drivers/STM32L4xx_HAL_Driver/Src\stm32l4xx_hal_uart.c ****   /* Check that a Tx process is ongoing */
3671:D:/iot/felix2/targets/Cloud_STM32L431_BearPi/Drivers/STM32L4xx_HAL_Driver/Src\stm32l4xx_hal_uart.c ****   if (huart->gState == HAL_UART_STATE_BUSY_TX)
 6661              		.loc 1 3671 0
 6662 0008 7B68     		ldr	r3, [r7, #4]
 6663 000a 93F87130 		ldrb	r3, [r3, #113]
 6664 000e DBB2     		uxtb	r3, r3
 6665 0010 212B     		cmp	r3, #33
 6666 0012 2FD1     		bne	.L351
3672:D:/iot/felix2/targets/Cloud_STM32L431_BearPi/Drivers/STM32L4xx_HAL_Driver/Src\stm32l4xx_hal_uart.c ****   {
3673:D:/iot/felix2/targets/Cloud_STM32L431_BearPi/Drivers/STM32L4xx_HAL_Driver/Src\stm32l4xx_hal_uart.c ****     if (huart->TxXferCount == 0)
 6667              		.loc 1 3673 0
 6668 0014 7B68     		ldr	r3, [r7, #4]
 6669 0016 B3F85230 		ldrh	r3, [r3, #82]	@ movhi
 6670 001a 9BB2     		uxth	r3, r3
 6671 001c 002B     		cmp	r3, #0
 6672 001e 10D1     		bne	.L350
3674:D:/iot/felix2/targets/Cloud_STM32L431_BearPi/Drivers/STM32L4xx_HAL_Driver/Src\stm32l4xx_hal_uart.c ****     {
3675:D:/iot/felix2/targets/Cloud_STM32L431_BearPi/Drivers/STM32L4xx_HAL_Driver/Src\stm32l4xx_hal_uart.c ****       /* Disable the UART Transmit Data Register Empty Interrupt */
3676:D:/iot/felix2/targets/Cloud_STM32L431_BearPi/Drivers/STM32L4xx_HAL_Driver/Src\stm32l4xx_hal_uart.c **** #if defined(USART_CR1_FIFOEN)
3677:D:/iot/felix2/targets/Cloud_STM32L431_BearPi/Drivers/STM32L4xx_HAL_Driver/Src\stm32l4xx_hal_uart.c ****       CLEAR_BIT(huart->Instance->CR1, USART_CR1_TXEIE_TXFNFIE);
3678:D:/iot/felix2/targets/Cloud_STM32L431_BearPi/Drivers/STM32L4xx_HAL_Driver/Src\stm32l4xx_hal_uart.c **** #else
3679:D:/iot/felix2/targets/Cloud_STM32L431_BearPi/Drivers/STM32L4xx_HAL_Driver/Src\stm32l4xx_hal_uart.c ****       CLEAR_BIT(huart->Instance->CR1, USART_CR1_TXEIE);
ARM GAS  C:\Users\91458\AppData\Local\Temp\ccrpKNIe.s 			page 181


 6673              		.loc 1 3679 0
 6674 0020 7B68     		ldr	r3, [r7, #4]
 6675 0022 1B68     		ldr	r3, [r3]
 6676 0024 1A68     		ldr	r2, [r3]
 6677 0026 7B68     		ldr	r3, [r7, #4]
 6678 0028 1B68     		ldr	r3, [r3]
 6679 002a 22F08002 		bic	r2, r2, #128
 6680 002e 1A60     		str	r2, [r3]
3680:D:/iot/felix2/targets/Cloud_STM32L431_BearPi/Drivers/STM32L4xx_HAL_Driver/Src\stm32l4xx_hal_uart.c **** #endif
3681:D:/iot/felix2/targets/Cloud_STM32L431_BearPi/Drivers/STM32L4xx_HAL_Driver/Src\stm32l4xx_hal_uart.c **** 
3682:D:/iot/felix2/targets/Cloud_STM32L431_BearPi/Drivers/STM32L4xx_HAL_Driver/Src\stm32l4xx_hal_uart.c ****       /* Enable the UART Transmit Complete Interrupt */
3683:D:/iot/felix2/targets/Cloud_STM32L431_BearPi/Drivers/STM32L4xx_HAL_Driver/Src\stm32l4xx_hal_uart.c ****       SET_BIT(huart->Instance->CR1, USART_CR1_TCIE);
 6681              		.loc 1 3683 0
 6682 0030 7B68     		ldr	r3, [r7, #4]
 6683 0032 1B68     		ldr	r3, [r3]
 6684 0034 1A68     		ldr	r2, [r3]
 6685 0036 7B68     		ldr	r3, [r7, #4]
 6686 0038 1B68     		ldr	r3, [r3]
 6687 003a 42F04002 		orr	r2, r2, #64
 6688 003e 1A60     		str	r2, [r3]
3684:D:/iot/felix2/targets/Cloud_STM32L431_BearPi/Drivers/STM32L4xx_HAL_Driver/Src\stm32l4xx_hal_uart.c ****     }
3685:D:/iot/felix2/targets/Cloud_STM32L431_BearPi/Drivers/STM32L4xx_HAL_Driver/Src\stm32l4xx_hal_uart.c ****     else
3686:D:/iot/felix2/targets/Cloud_STM32L431_BearPi/Drivers/STM32L4xx_HAL_Driver/Src\stm32l4xx_hal_uart.c ****     {
3687:D:/iot/felix2/targets/Cloud_STM32L431_BearPi/Drivers/STM32L4xx_HAL_Driver/Src\stm32l4xx_hal_uart.c ****       tmp = (uint16_t *) huart->pTxBuffPtr;
3688:D:/iot/felix2/targets/Cloud_STM32L431_BearPi/Drivers/STM32L4xx_HAL_Driver/Src\stm32l4xx_hal_uart.c ****       huart->Instance->TDR = (*tmp & (uint16_t)0x01FF);
3689:D:/iot/felix2/targets/Cloud_STM32L431_BearPi/Drivers/STM32L4xx_HAL_Driver/Src\stm32l4xx_hal_uart.c ****       huart->pTxBuffPtr += 2;
3690:D:/iot/felix2/targets/Cloud_STM32L431_BearPi/Drivers/STM32L4xx_HAL_Driver/Src\stm32l4xx_hal_uart.c ****       huart->TxXferCount--;
3691:D:/iot/felix2/targets/Cloud_STM32L431_BearPi/Drivers/STM32L4xx_HAL_Driver/Src\stm32l4xx_hal_uart.c ****     }
3692:D:/iot/felix2/targets/Cloud_STM32L431_BearPi/Drivers/STM32L4xx_HAL_Driver/Src\stm32l4xx_hal_uart.c ****   }
3693:D:/iot/felix2/targets/Cloud_STM32L431_BearPi/Drivers/STM32L4xx_HAL_Driver/Src\stm32l4xx_hal_uart.c **** }
 6689              		.loc 1 3693 0
 6690 0040 18E0     		b	.L351
 6691              	.L350:
3687:D:/iot/felix2/targets/Cloud_STM32L431_BearPi/Drivers/STM32L4xx_HAL_Driver/Src\stm32l4xx_hal_uart.c ****       huart->Instance->TDR = (*tmp & (uint16_t)0x01FF);
 6692              		.loc 1 3687 0
 6693 0042 7B68     		ldr	r3, [r7, #4]
 6694 0044 DB6C     		ldr	r3, [r3, #76]
 6695 0046 FB60     		str	r3, [r7, #12]
3688:D:/iot/felix2/targets/Cloud_STM32L431_BearPi/Drivers/STM32L4xx_HAL_Driver/Src\stm32l4xx_hal_uart.c ****       huart->pTxBuffPtr += 2;
 6696              		.loc 1 3688 0
 6697 0048 FB68     		ldr	r3, [r7, #12]
 6698 004a 1A88     		ldrh	r2, [r3]
 6699 004c 7B68     		ldr	r3, [r7, #4]
 6700 004e 1B68     		ldr	r3, [r3]
 6701 0050 C2F30802 		ubfx	r2, r2, #0, #9
 6702 0054 92B2     		uxth	r2, r2
 6703 0056 1A85     		strh	r2, [r3, #40]	@ movhi
3689:D:/iot/felix2/targets/Cloud_STM32L431_BearPi/Drivers/STM32L4xx_HAL_Driver/Src\stm32l4xx_hal_uart.c ****       huart->TxXferCount--;
 6704              		.loc 1 3689 0
 6705 0058 7B68     		ldr	r3, [r7, #4]
 6706 005a DB6C     		ldr	r3, [r3, #76]
 6707 005c 9A1C     		adds	r2, r3, #2
 6708 005e 7B68     		ldr	r3, [r7, #4]
 6709 0060 DA64     		str	r2, [r3, #76]
3690:D:/iot/felix2/targets/Cloud_STM32L431_BearPi/Drivers/STM32L4xx_HAL_Driver/Src\stm32l4xx_hal_uart.c ****     }
 6710              		.loc 1 3690 0
 6711 0062 7B68     		ldr	r3, [r7, #4]
ARM GAS  C:\Users\91458\AppData\Local\Temp\ccrpKNIe.s 			page 182


 6712 0064 B3F85230 		ldrh	r3, [r3, #82]	@ movhi
 6713 0068 9BB2     		uxth	r3, r3
 6714 006a 013B     		subs	r3, r3, #1
 6715 006c 9AB2     		uxth	r2, r3
 6716 006e 7B68     		ldr	r3, [r7, #4]
 6717 0070 A3F85220 		strh	r2, [r3, #82]	@ movhi
 6718              	.L351:
 6719              		.loc 1 3693 0
 6720 0074 00BF     		nop
 6721 0076 1437     		adds	r7, r7, #20
 6722              	.LCFI307:
 6723              		.cfi_def_cfa_offset 4
 6724 0078 BD46     		mov	sp, r7
 6725              	.LCFI308:
 6726              		.cfi_def_cfa_register 13
 6727              		@ sp needed
 6728 007a 5DF8047B 		ldr	r7, [sp], #4
 6729              	.LCFI309:
 6730              		.cfi_restore 7
 6731              		.cfi_def_cfa_offset 0
 6732 007e 7047     		bx	lr
 6733              		.cfi_endproc
 6734              	.LFE189:
 6736              		.section	.text.UART_EndTransmit_IT,"ax",%progbits
 6737              		.align	1
 6738              		.syntax unified
 6739              		.thumb
 6740              		.thumb_func
 6741              		.fpu fpv4-sp-d16
 6743              	UART_EndTransmit_IT:
 6744              	.LFB190:
3694:D:/iot/felix2/targets/Cloud_STM32L431_BearPi/Drivers/STM32L4xx_HAL_Driver/Src\stm32l4xx_hal_uart.c **** 
3695:D:/iot/felix2/targets/Cloud_STM32L431_BearPi/Drivers/STM32L4xx_HAL_Driver/Src\stm32l4xx_hal_uart.c **** #if defined(USART_CR1_FIFOEN)
3696:D:/iot/felix2/targets/Cloud_STM32L431_BearPi/Drivers/STM32L4xx_HAL_Driver/Src\stm32l4xx_hal_uart.c **** /**
3697:D:/iot/felix2/targets/Cloud_STM32L431_BearPi/Drivers/STM32L4xx_HAL_Driver/Src\stm32l4xx_hal_uart.c ****   * @brief TX interrrupt handler for 7 or 8 bits data word length and FIFO mode is enabled.
3698:D:/iot/felix2/targets/Cloud_STM32L431_BearPi/Drivers/STM32L4xx_HAL_Driver/Src\stm32l4xx_hal_uart.c ****   * @note   Function is called under interruption only, once
3699:D:/iot/felix2/targets/Cloud_STM32L431_BearPi/Drivers/STM32L4xx_HAL_Driver/Src\stm32l4xx_hal_uart.c ****   *         interruptions have been enabled by HAL_UART_Transmit_IT().
3700:D:/iot/felix2/targets/Cloud_STM32L431_BearPi/Drivers/STM32L4xx_HAL_Driver/Src\stm32l4xx_hal_uart.c ****   * @param huart UART handle.
3701:D:/iot/felix2/targets/Cloud_STM32L431_BearPi/Drivers/STM32L4xx_HAL_Driver/Src\stm32l4xx_hal_uart.c ****   * @retval None
3702:D:/iot/felix2/targets/Cloud_STM32L431_BearPi/Drivers/STM32L4xx_HAL_Driver/Src\stm32l4xx_hal_uart.c ****   */
3703:D:/iot/felix2/targets/Cloud_STM32L431_BearPi/Drivers/STM32L4xx_HAL_Driver/Src\stm32l4xx_hal_uart.c **** static void UART_TxISR_8BIT_FIFOEN(UART_HandleTypeDef *huart)
3704:D:/iot/felix2/targets/Cloud_STM32L431_BearPi/Drivers/STM32L4xx_HAL_Driver/Src\stm32l4xx_hal_uart.c **** {
3705:D:/iot/felix2/targets/Cloud_STM32L431_BearPi/Drivers/STM32L4xx_HAL_Driver/Src\stm32l4xx_hal_uart.c ****   uint8_t   nb_tx_data;
3706:D:/iot/felix2/targets/Cloud_STM32L431_BearPi/Drivers/STM32L4xx_HAL_Driver/Src\stm32l4xx_hal_uart.c **** 
3707:D:/iot/felix2/targets/Cloud_STM32L431_BearPi/Drivers/STM32L4xx_HAL_Driver/Src\stm32l4xx_hal_uart.c ****   /* Check that a Tx process is ongoing */
3708:D:/iot/felix2/targets/Cloud_STM32L431_BearPi/Drivers/STM32L4xx_HAL_Driver/Src\stm32l4xx_hal_uart.c ****   if (huart->gState == HAL_UART_STATE_BUSY_TX)
3709:D:/iot/felix2/targets/Cloud_STM32L431_BearPi/Drivers/STM32L4xx_HAL_Driver/Src\stm32l4xx_hal_uart.c ****   {
3710:D:/iot/felix2/targets/Cloud_STM32L431_BearPi/Drivers/STM32L4xx_HAL_Driver/Src\stm32l4xx_hal_uart.c ****     for (nb_tx_data = huart->NbTxDataToProcess ; nb_tx_data > 0 ; nb_tx_data--)
3711:D:/iot/felix2/targets/Cloud_STM32L431_BearPi/Drivers/STM32L4xx_HAL_Driver/Src\stm32l4xx_hal_uart.c ****     {
3712:D:/iot/felix2/targets/Cloud_STM32L431_BearPi/Drivers/STM32L4xx_HAL_Driver/Src\stm32l4xx_hal_uart.c ****       if (huart->TxXferCount == 0U)
3713:D:/iot/felix2/targets/Cloud_STM32L431_BearPi/Drivers/STM32L4xx_HAL_Driver/Src\stm32l4xx_hal_uart.c ****       {
3714:D:/iot/felix2/targets/Cloud_STM32L431_BearPi/Drivers/STM32L4xx_HAL_Driver/Src\stm32l4xx_hal_uart.c ****         /* Disable the TX FIFO threshold interrupt */
3715:D:/iot/felix2/targets/Cloud_STM32L431_BearPi/Drivers/STM32L4xx_HAL_Driver/Src\stm32l4xx_hal_uart.c ****         CLEAR_BIT(huart->Instance->CR3, USART_CR3_TXFTIE);
3716:D:/iot/felix2/targets/Cloud_STM32L431_BearPi/Drivers/STM32L4xx_HAL_Driver/Src\stm32l4xx_hal_uart.c **** 
3717:D:/iot/felix2/targets/Cloud_STM32L431_BearPi/Drivers/STM32L4xx_HAL_Driver/Src\stm32l4xx_hal_uart.c ****         /* Enable the UART Transmit Complete Interrupt */
3718:D:/iot/felix2/targets/Cloud_STM32L431_BearPi/Drivers/STM32L4xx_HAL_Driver/Src\stm32l4xx_hal_uart.c ****         SET_BIT(huart->Instance->CR1, USART_CR1_TCIE);
3719:D:/iot/felix2/targets/Cloud_STM32L431_BearPi/Drivers/STM32L4xx_HAL_Driver/Src\stm32l4xx_hal_uart.c **** 
ARM GAS  C:\Users\91458\AppData\Local\Temp\ccrpKNIe.s 			page 183


3720:D:/iot/felix2/targets/Cloud_STM32L431_BearPi/Drivers/STM32L4xx_HAL_Driver/Src\stm32l4xx_hal_uart.c ****         break; /* force exit loop */
3721:D:/iot/felix2/targets/Cloud_STM32L431_BearPi/Drivers/STM32L4xx_HAL_Driver/Src\stm32l4xx_hal_uart.c ****       }
3722:D:/iot/felix2/targets/Cloud_STM32L431_BearPi/Drivers/STM32L4xx_HAL_Driver/Src\stm32l4xx_hal_uart.c ****       else if (READ_BIT(huart->Instance->ISR, USART_ISR_TXE_TXFNF) != RESET)
3723:D:/iot/felix2/targets/Cloud_STM32L431_BearPi/Drivers/STM32L4xx_HAL_Driver/Src\stm32l4xx_hal_uart.c ****       {
3724:D:/iot/felix2/targets/Cloud_STM32L431_BearPi/Drivers/STM32L4xx_HAL_Driver/Src\stm32l4xx_hal_uart.c ****         huart->Instance->TDR = (uint8_t)(*huart->pTxBuffPtr++ & (uint8_t)0xFF);
3725:D:/iot/felix2/targets/Cloud_STM32L431_BearPi/Drivers/STM32L4xx_HAL_Driver/Src\stm32l4xx_hal_uart.c ****         huart->TxXferCount--;
3726:D:/iot/felix2/targets/Cloud_STM32L431_BearPi/Drivers/STM32L4xx_HAL_Driver/Src\stm32l4xx_hal_uart.c ****       }
3727:D:/iot/felix2/targets/Cloud_STM32L431_BearPi/Drivers/STM32L4xx_HAL_Driver/Src\stm32l4xx_hal_uart.c ****     }
3728:D:/iot/felix2/targets/Cloud_STM32L431_BearPi/Drivers/STM32L4xx_HAL_Driver/Src\stm32l4xx_hal_uart.c ****   }
3729:D:/iot/felix2/targets/Cloud_STM32L431_BearPi/Drivers/STM32L4xx_HAL_Driver/Src\stm32l4xx_hal_uart.c **** }
3730:D:/iot/felix2/targets/Cloud_STM32L431_BearPi/Drivers/STM32L4xx_HAL_Driver/Src\stm32l4xx_hal_uart.c **** 
3731:D:/iot/felix2/targets/Cloud_STM32L431_BearPi/Drivers/STM32L4xx_HAL_Driver/Src\stm32l4xx_hal_uart.c **** /**
3732:D:/iot/felix2/targets/Cloud_STM32L431_BearPi/Drivers/STM32L4xx_HAL_Driver/Src\stm32l4xx_hal_uart.c ****   * @brief TX interrrupt handler for 9 bits data word length and FIFO mode is enabled.
3733:D:/iot/felix2/targets/Cloud_STM32L431_BearPi/Drivers/STM32L4xx_HAL_Driver/Src\stm32l4xx_hal_uart.c ****   * @note   Function is called under interruption only, once
3734:D:/iot/felix2/targets/Cloud_STM32L431_BearPi/Drivers/STM32L4xx_HAL_Driver/Src\stm32l4xx_hal_uart.c ****   *         interruptions have been enabled by HAL_UART_Transmit_IT().
3735:D:/iot/felix2/targets/Cloud_STM32L431_BearPi/Drivers/STM32L4xx_HAL_Driver/Src\stm32l4xx_hal_uart.c ****   * @param huart UART handle.
3736:D:/iot/felix2/targets/Cloud_STM32L431_BearPi/Drivers/STM32L4xx_HAL_Driver/Src\stm32l4xx_hal_uart.c ****   * @retval None
3737:D:/iot/felix2/targets/Cloud_STM32L431_BearPi/Drivers/STM32L4xx_HAL_Driver/Src\stm32l4xx_hal_uart.c ****   */
3738:D:/iot/felix2/targets/Cloud_STM32L431_BearPi/Drivers/STM32L4xx_HAL_Driver/Src\stm32l4xx_hal_uart.c **** static void UART_TxISR_16BIT_FIFOEN(UART_HandleTypeDef *huart)
3739:D:/iot/felix2/targets/Cloud_STM32L431_BearPi/Drivers/STM32L4xx_HAL_Driver/Src\stm32l4xx_hal_uart.c **** {
3740:D:/iot/felix2/targets/Cloud_STM32L431_BearPi/Drivers/STM32L4xx_HAL_Driver/Src\stm32l4xx_hal_uart.c ****   uint16_t *tmp;
3741:D:/iot/felix2/targets/Cloud_STM32L431_BearPi/Drivers/STM32L4xx_HAL_Driver/Src\stm32l4xx_hal_uart.c ****   uint8_t   nb_tx_data;
3742:D:/iot/felix2/targets/Cloud_STM32L431_BearPi/Drivers/STM32L4xx_HAL_Driver/Src\stm32l4xx_hal_uart.c **** 
3743:D:/iot/felix2/targets/Cloud_STM32L431_BearPi/Drivers/STM32L4xx_HAL_Driver/Src\stm32l4xx_hal_uart.c ****   /* Check that a Tx process is ongoing */
3744:D:/iot/felix2/targets/Cloud_STM32L431_BearPi/Drivers/STM32L4xx_HAL_Driver/Src\stm32l4xx_hal_uart.c ****   if (huart->gState == HAL_UART_STATE_BUSY_TX)
3745:D:/iot/felix2/targets/Cloud_STM32L431_BearPi/Drivers/STM32L4xx_HAL_Driver/Src\stm32l4xx_hal_uart.c ****   {
3746:D:/iot/felix2/targets/Cloud_STM32L431_BearPi/Drivers/STM32L4xx_HAL_Driver/Src\stm32l4xx_hal_uart.c ****     for (nb_tx_data = huart->NbTxDataToProcess ; nb_tx_data > 0 ; nb_tx_data--)
3747:D:/iot/felix2/targets/Cloud_STM32L431_BearPi/Drivers/STM32L4xx_HAL_Driver/Src\stm32l4xx_hal_uart.c ****     {
3748:D:/iot/felix2/targets/Cloud_STM32L431_BearPi/Drivers/STM32L4xx_HAL_Driver/Src\stm32l4xx_hal_uart.c ****       if (huart->TxXferCount == 0U)
3749:D:/iot/felix2/targets/Cloud_STM32L431_BearPi/Drivers/STM32L4xx_HAL_Driver/Src\stm32l4xx_hal_uart.c ****       {
3750:D:/iot/felix2/targets/Cloud_STM32L431_BearPi/Drivers/STM32L4xx_HAL_Driver/Src\stm32l4xx_hal_uart.c ****         /* Disable the TX FIFO threshold interrupt */
3751:D:/iot/felix2/targets/Cloud_STM32L431_BearPi/Drivers/STM32L4xx_HAL_Driver/Src\stm32l4xx_hal_uart.c ****         CLEAR_BIT(huart->Instance->CR3, USART_CR3_TXFTIE);
3752:D:/iot/felix2/targets/Cloud_STM32L431_BearPi/Drivers/STM32L4xx_HAL_Driver/Src\stm32l4xx_hal_uart.c **** 
3753:D:/iot/felix2/targets/Cloud_STM32L431_BearPi/Drivers/STM32L4xx_HAL_Driver/Src\stm32l4xx_hal_uart.c ****         /* Enable the UART Transmit Complete Interrupt */
3754:D:/iot/felix2/targets/Cloud_STM32L431_BearPi/Drivers/STM32L4xx_HAL_Driver/Src\stm32l4xx_hal_uart.c ****         SET_BIT(huart->Instance->CR1, USART_CR1_TCIE);
3755:D:/iot/felix2/targets/Cloud_STM32L431_BearPi/Drivers/STM32L4xx_HAL_Driver/Src\stm32l4xx_hal_uart.c **** 
3756:D:/iot/felix2/targets/Cloud_STM32L431_BearPi/Drivers/STM32L4xx_HAL_Driver/Src\stm32l4xx_hal_uart.c ****         break; /* force exit loop */
3757:D:/iot/felix2/targets/Cloud_STM32L431_BearPi/Drivers/STM32L4xx_HAL_Driver/Src\stm32l4xx_hal_uart.c ****       }
3758:D:/iot/felix2/targets/Cloud_STM32L431_BearPi/Drivers/STM32L4xx_HAL_Driver/Src\stm32l4xx_hal_uart.c ****       else if (READ_BIT(huart->Instance->ISR, USART_ISR_TXE_TXFNF) != RESET)
3759:D:/iot/felix2/targets/Cloud_STM32L431_BearPi/Drivers/STM32L4xx_HAL_Driver/Src\stm32l4xx_hal_uart.c ****       {
3760:D:/iot/felix2/targets/Cloud_STM32L431_BearPi/Drivers/STM32L4xx_HAL_Driver/Src\stm32l4xx_hal_uart.c ****         tmp = (uint16_t *) huart->pTxBuffPtr;
3761:D:/iot/felix2/targets/Cloud_STM32L431_BearPi/Drivers/STM32L4xx_HAL_Driver/Src\stm32l4xx_hal_uart.c ****         huart->Instance->TDR = (*tmp & (uint16_t)0x01FFU);
3762:D:/iot/felix2/targets/Cloud_STM32L431_BearPi/Drivers/STM32L4xx_HAL_Driver/Src\stm32l4xx_hal_uart.c ****         huart->pTxBuffPtr += 2U;
3763:D:/iot/felix2/targets/Cloud_STM32L431_BearPi/Drivers/STM32L4xx_HAL_Driver/Src\stm32l4xx_hal_uart.c ****         huart->TxXferCount--;
3764:D:/iot/felix2/targets/Cloud_STM32L431_BearPi/Drivers/STM32L4xx_HAL_Driver/Src\stm32l4xx_hal_uart.c ****       }
3765:D:/iot/felix2/targets/Cloud_STM32L431_BearPi/Drivers/STM32L4xx_HAL_Driver/Src\stm32l4xx_hal_uart.c ****     }
3766:D:/iot/felix2/targets/Cloud_STM32L431_BearPi/Drivers/STM32L4xx_HAL_Driver/Src\stm32l4xx_hal_uart.c ****   }
3767:D:/iot/felix2/targets/Cloud_STM32L431_BearPi/Drivers/STM32L4xx_HAL_Driver/Src\stm32l4xx_hal_uart.c **** }
3768:D:/iot/felix2/targets/Cloud_STM32L431_BearPi/Drivers/STM32L4xx_HAL_Driver/Src\stm32l4xx_hal_uart.c **** #endif
3769:D:/iot/felix2/targets/Cloud_STM32L431_BearPi/Drivers/STM32L4xx_HAL_Driver/Src\stm32l4xx_hal_uart.c **** 
3770:D:/iot/felix2/targets/Cloud_STM32L431_BearPi/Drivers/STM32L4xx_HAL_Driver/Src\stm32l4xx_hal_uart.c **** /**
3771:D:/iot/felix2/targets/Cloud_STM32L431_BearPi/Drivers/STM32L4xx_HAL_Driver/Src\stm32l4xx_hal_uart.c ****   * @brief  Wrap up transmission in non-blocking mode.
3772:D:/iot/felix2/targets/Cloud_STM32L431_BearPi/Drivers/STM32L4xx_HAL_Driver/Src\stm32l4xx_hal_uart.c ****   * @param huart pointer to a UART_HandleTypeDef structure that contains
3773:D:/iot/felix2/targets/Cloud_STM32L431_BearPi/Drivers/STM32L4xx_HAL_Driver/Src\stm32l4xx_hal_uart.c ****   *                the configuration information for the specified UART module.
3774:D:/iot/felix2/targets/Cloud_STM32L431_BearPi/Drivers/STM32L4xx_HAL_Driver/Src\stm32l4xx_hal_uart.c ****   * @retval None
3775:D:/iot/felix2/targets/Cloud_STM32L431_BearPi/Drivers/STM32L4xx_HAL_Driver/Src\stm32l4xx_hal_uart.c ****   */
3776:D:/iot/felix2/targets/Cloud_STM32L431_BearPi/Drivers/STM32L4xx_HAL_Driver/Src\stm32l4xx_hal_uart.c **** static void UART_EndTransmit_IT(UART_HandleTypeDef *huart)
ARM GAS  C:\Users\91458\AppData\Local\Temp\ccrpKNIe.s 			page 184


3777:D:/iot/felix2/targets/Cloud_STM32L431_BearPi/Drivers/STM32L4xx_HAL_Driver/Src\stm32l4xx_hal_uart.c **** {
 6745              		.loc 1 3777 0
 6746              		.cfi_startproc
 6747              		@ args = 0, pretend = 0, frame = 8
 6748              		@ frame_needed = 1, uses_anonymous_args = 0
 6749 0000 80B5     		push	{r7, lr}
 6750              	.LCFI310:
 6751              		.cfi_def_cfa_offset 8
 6752              		.cfi_offset 7, -8
 6753              		.cfi_offset 14, -4
 6754 0002 82B0     		sub	sp, sp, #8
 6755              	.LCFI311:
 6756              		.cfi_def_cfa_offset 16
 6757 0004 00AF     		add	r7, sp, #0
 6758              	.LCFI312:
 6759              		.cfi_def_cfa_register 7
 6760 0006 7860     		str	r0, [r7, #4]
3778:D:/iot/felix2/targets/Cloud_STM32L431_BearPi/Drivers/STM32L4xx_HAL_Driver/Src\stm32l4xx_hal_uart.c ****   /* Disable the UART Transmit Complete Interrupt */
3779:D:/iot/felix2/targets/Cloud_STM32L431_BearPi/Drivers/STM32L4xx_HAL_Driver/Src\stm32l4xx_hal_uart.c ****   CLEAR_BIT(huart->Instance->CR1, USART_CR1_TCIE);
 6761              		.loc 1 3779 0
 6762 0008 7B68     		ldr	r3, [r7, #4]
 6763 000a 1B68     		ldr	r3, [r3]
 6764 000c 1A68     		ldr	r2, [r3]
 6765 000e 7B68     		ldr	r3, [r7, #4]
 6766 0010 1B68     		ldr	r3, [r3]
 6767 0012 22F04002 		bic	r2, r2, #64
 6768 0016 1A60     		str	r2, [r3]
3780:D:/iot/felix2/targets/Cloud_STM32L431_BearPi/Drivers/STM32L4xx_HAL_Driver/Src\stm32l4xx_hal_uart.c **** 
3781:D:/iot/felix2/targets/Cloud_STM32L431_BearPi/Drivers/STM32L4xx_HAL_Driver/Src\stm32l4xx_hal_uart.c ****   /* Tx process is ended, restore huart->gState to Ready */
3782:D:/iot/felix2/targets/Cloud_STM32L431_BearPi/Drivers/STM32L4xx_HAL_Driver/Src\stm32l4xx_hal_uart.c ****   huart->gState = HAL_UART_STATE_READY;
 6769              		.loc 1 3782 0
 6770 0018 7B68     		ldr	r3, [r7, #4]
 6771 001a 2022     		movs	r2, #32
 6772 001c 83F87120 		strb	r2, [r3, #113]
3783:D:/iot/felix2/targets/Cloud_STM32L431_BearPi/Drivers/STM32L4xx_HAL_Driver/Src\stm32l4xx_hal_uart.c **** 
3784:D:/iot/felix2/targets/Cloud_STM32L431_BearPi/Drivers/STM32L4xx_HAL_Driver/Src\stm32l4xx_hal_uart.c ****   /* Cleat TxISR function pointer */
3785:D:/iot/felix2/targets/Cloud_STM32L431_BearPi/Drivers/STM32L4xx_HAL_Driver/Src\stm32l4xx_hal_uart.c ****   huart->TxISR = NULL;
 6773              		.loc 1 3785 0
 6774 0020 7B68     		ldr	r3, [r7, #4]
 6775 0022 0022     		movs	r2, #0
 6776 0024 5A66     		str	r2, [r3, #100]
3786:D:/iot/felix2/targets/Cloud_STM32L431_BearPi/Drivers/STM32L4xx_HAL_Driver/Src\stm32l4xx_hal_uart.c **** 
3787:D:/iot/felix2/targets/Cloud_STM32L431_BearPi/Drivers/STM32L4xx_HAL_Driver/Src\stm32l4xx_hal_uart.c **** #if (USE_HAL_UART_REGISTER_CALLBACKS == 1)
3788:D:/iot/felix2/targets/Cloud_STM32L431_BearPi/Drivers/STM32L4xx_HAL_Driver/Src\stm32l4xx_hal_uart.c ****   /*Call registered Tx complete callback*/
3789:D:/iot/felix2/targets/Cloud_STM32L431_BearPi/Drivers/STM32L4xx_HAL_Driver/Src\stm32l4xx_hal_uart.c ****   huart->TxCpltCallback(huart);
3790:D:/iot/felix2/targets/Cloud_STM32L431_BearPi/Drivers/STM32L4xx_HAL_Driver/Src\stm32l4xx_hal_uart.c **** #else
3791:D:/iot/felix2/targets/Cloud_STM32L431_BearPi/Drivers/STM32L4xx_HAL_Driver/Src\stm32l4xx_hal_uart.c ****   /*Call legacy weak Tx complete callback*/
3792:D:/iot/felix2/targets/Cloud_STM32L431_BearPi/Drivers/STM32L4xx_HAL_Driver/Src\stm32l4xx_hal_uart.c ****   HAL_UART_TxCpltCallback(huart);
 6777              		.loc 1 3792 0
 6778 0026 7868     		ldr	r0, [r7, #4]
 6779 0028 FFF7FEFF 		bl	HAL_UART_TxCpltCallback
3793:D:/iot/felix2/targets/Cloud_STM32L431_BearPi/Drivers/STM32L4xx_HAL_Driver/Src\stm32l4xx_hal_uart.c **** #endif /* USE_HAL_UART_REGISTER_CALLBACKS */
3794:D:/iot/felix2/targets/Cloud_STM32L431_BearPi/Drivers/STM32L4xx_HAL_Driver/Src\stm32l4xx_hal_uart.c **** }
 6780              		.loc 1 3794 0
 6781 002c 00BF     		nop
 6782 002e 0837     		adds	r7, r7, #8
 6783              	.LCFI313:
ARM GAS  C:\Users\91458\AppData\Local\Temp\ccrpKNIe.s 			page 185


 6784              		.cfi_def_cfa_offset 8
 6785 0030 BD46     		mov	sp, r7
 6786              	.LCFI314:
 6787              		.cfi_def_cfa_register 13
 6788              		@ sp needed
 6789 0032 80BD     		pop	{r7, pc}
 6790              		.cfi_endproc
 6791              	.LFE190:
 6793              		.section	.text.UART_RxISR_8BIT,"ax",%progbits
 6794              		.align	1
 6795              		.syntax unified
 6796              		.thumb
 6797              		.thumb_func
 6798              		.fpu fpv4-sp-d16
 6800              	UART_RxISR_8BIT:
 6801              	.LFB191:
3795:D:/iot/felix2/targets/Cloud_STM32L431_BearPi/Drivers/STM32L4xx_HAL_Driver/Src\stm32l4xx_hal_uart.c **** 
3796:D:/iot/felix2/targets/Cloud_STM32L431_BearPi/Drivers/STM32L4xx_HAL_Driver/Src\stm32l4xx_hal_uart.c **** /**
3797:D:/iot/felix2/targets/Cloud_STM32L431_BearPi/Drivers/STM32L4xx_HAL_Driver/Src\stm32l4xx_hal_uart.c ****   * @brief RX interrrupt handler for 7 or 8 bits data word length .
3798:D:/iot/felix2/targets/Cloud_STM32L431_BearPi/Drivers/STM32L4xx_HAL_Driver/Src\stm32l4xx_hal_uart.c ****   * @param huart UART handle.
3799:D:/iot/felix2/targets/Cloud_STM32L431_BearPi/Drivers/STM32L4xx_HAL_Driver/Src\stm32l4xx_hal_uart.c ****   * @retval None
3800:D:/iot/felix2/targets/Cloud_STM32L431_BearPi/Drivers/STM32L4xx_HAL_Driver/Src\stm32l4xx_hal_uart.c ****   */
3801:D:/iot/felix2/targets/Cloud_STM32L431_BearPi/Drivers/STM32L4xx_HAL_Driver/Src\stm32l4xx_hal_uart.c **** static void UART_RxISR_8BIT(UART_HandleTypeDef *huart)
3802:D:/iot/felix2/targets/Cloud_STM32L431_BearPi/Drivers/STM32L4xx_HAL_Driver/Src\stm32l4xx_hal_uart.c **** {
 6802              		.loc 1 3802 0
 6803              		.cfi_startproc
 6804              		@ args = 0, pretend = 0, frame = 16
 6805              		@ frame_needed = 1, uses_anonymous_args = 0
 6806 0000 90B5     		push	{r4, r7, lr}
 6807              	.LCFI315:
 6808              		.cfi_def_cfa_offset 12
 6809              		.cfi_offset 4, -12
 6810              		.cfi_offset 7, -8
 6811              		.cfi_offset 14, -4
 6812 0002 85B0     		sub	sp, sp, #20
 6813              	.LCFI316:
 6814              		.cfi_def_cfa_offset 32
 6815 0004 00AF     		add	r7, sp, #0
 6816              	.LCFI317:
 6817              		.cfi_def_cfa_register 7
 6818 0006 7860     		str	r0, [r7, #4]
3803:D:/iot/felix2/targets/Cloud_STM32L431_BearPi/Drivers/STM32L4xx_HAL_Driver/Src\stm32l4xx_hal_uart.c ****   uint16_t uhMask = huart->Mask;
 6819              		.loc 1 3803 0
 6820 0008 7B68     		ldr	r3, [r7, #4]
 6821 000a B3F85C30 		ldrh	r3, [r3, #92]	@ movhi
 6822 000e FB81     		strh	r3, [r7, #14]	@ movhi
3804:D:/iot/felix2/targets/Cloud_STM32L431_BearPi/Drivers/STM32L4xx_HAL_Driver/Src\stm32l4xx_hal_uart.c ****   uint16_t  uhdata;
3805:D:/iot/felix2/targets/Cloud_STM32L431_BearPi/Drivers/STM32L4xx_HAL_Driver/Src\stm32l4xx_hal_uart.c **** 
3806:D:/iot/felix2/targets/Cloud_STM32L431_BearPi/Drivers/STM32L4xx_HAL_Driver/Src\stm32l4xx_hal_uart.c ****   /* Check that a Rx process is ongoing */
3807:D:/iot/felix2/targets/Cloud_STM32L431_BearPi/Drivers/STM32L4xx_HAL_Driver/Src\stm32l4xx_hal_uart.c ****   if (huart->RxState == HAL_UART_STATE_BUSY_RX)
 6823              		.loc 1 3807 0
 6824 0010 7B68     		ldr	r3, [r7, #4]
 6825 0012 93F87230 		ldrb	r3, [r3, #114]
 6826 0016 DBB2     		uxtb	r3, r3
 6827 0018 222B     		cmp	r3, #34
 6828 001a 36D1     		bne	.L354
3808:D:/iot/felix2/targets/Cloud_STM32L431_BearPi/Drivers/STM32L4xx_HAL_Driver/Src\stm32l4xx_hal_uart.c ****   {
ARM GAS  C:\Users\91458\AppData\Local\Temp\ccrpKNIe.s 			page 186


3809:D:/iot/felix2/targets/Cloud_STM32L431_BearPi/Drivers/STM32L4xx_HAL_Driver/Src\stm32l4xx_hal_uart.c ****     uhdata = (uint16_t) READ_REG(huart->Instance->RDR);
 6829              		.loc 1 3809 0
 6830 001c 7B68     		ldr	r3, [r7, #4]
 6831 001e 1B68     		ldr	r3, [r3]
 6832 0020 9B8C     		ldrh	r3, [r3, #36]	@ movhi
 6833 0022 BB81     		strh	r3, [r7, #12]	@ movhi
3810:D:/iot/felix2/targets/Cloud_STM32L431_BearPi/Drivers/STM32L4xx_HAL_Driver/Src\stm32l4xx_hal_uart.c ****     *huart->pRxBuffPtr++ = (uint8_t)(uhdata & (uint8_t)uhMask);
 6834              		.loc 1 3810 0
 6835 0024 BB89     		ldrh	r3, [r7, #12]	@ movhi
 6836 0026 D9B2     		uxtb	r1, r3
 6837 0028 FB89     		ldrh	r3, [r7, #14]	@ movhi
 6838 002a DAB2     		uxtb	r2, r3
 6839 002c 7B68     		ldr	r3, [r7, #4]
 6840 002e 5B6D     		ldr	r3, [r3, #84]
 6841 0030 5C1C     		adds	r4, r3, #1
 6842 0032 7868     		ldr	r0, [r7, #4]
 6843 0034 4465     		str	r4, [r0, #84]
 6844 0036 0A40     		ands	r2, r2, r1
 6845 0038 D2B2     		uxtb	r2, r2
 6846 003a 1A70     		strb	r2, [r3]
3811:D:/iot/felix2/targets/Cloud_STM32L431_BearPi/Drivers/STM32L4xx_HAL_Driver/Src\stm32l4xx_hal_uart.c **** 
3812:D:/iot/felix2/targets/Cloud_STM32L431_BearPi/Drivers/STM32L4xx_HAL_Driver/Src\stm32l4xx_hal_uart.c ****     if (--huart->RxXferCount == 0)
 6847              		.loc 1 3812 0
 6848 003c 7B68     		ldr	r3, [r7, #4]
 6849 003e B3F85A30 		ldrh	r3, [r3, #90]	@ movhi
 6850 0042 9BB2     		uxth	r3, r3
 6851 0044 013B     		subs	r3, r3, #1
 6852 0046 9BB2     		uxth	r3, r3
 6853 0048 7A68     		ldr	r2, [r7, #4]
 6854 004a 1946     		mov	r1, r3	@ movhi
 6855 004c A2F85A10 		strh	r1, [r2, #90]	@ movhi
 6856 0050 002B     		cmp	r3, #0
 6857 0052 24D1     		bne	.L357
3813:D:/iot/felix2/targets/Cloud_STM32L431_BearPi/Drivers/STM32L4xx_HAL_Driver/Src\stm32l4xx_hal_uart.c ****     {
3814:D:/iot/felix2/targets/Cloud_STM32L431_BearPi/Drivers/STM32L4xx_HAL_Driver/Src\stm32l4xx_hal_uart.c ****       /* Disable the UART Parity Error Interrupt and RXNE interrupts */
3815:D:/iot/felix2/targets/Cloud_STM32L431_BearPi/Drivers/STM32L4xx_HAL_Driver/Src\stm32l4xx_hal_uart.c **** #if defined(USART_CR1_FIFOEN)
3816:D:/iot/felix2/targets/Cloud_STM32L431_BearPi/Drivers/STM32L4xx_HAL_Driver/Src\stm32l4xx_hal_uart.c ****       CLEAR_BIT(huart->Instance->CR1, (USART_CR1_RXNEIE_RXFNEIE | USART_CR1_PEIE));
3817:D:/iot/felix2/targets/Cloud_STM32L431_BearPi/Drivers/STM32L4xx_HAL_Driver/Src\stm32l4xx_hal_uart.c **** #else
3818:D:/iot/felix2/targets/Cloud_STM32L431_BearPi/Drivers/STM32L4xx_HAL_Driver/Src\stm32l4xx_hal_uart.c ****       CLEAR_BIT(huart->Instance->CR1, (USART_CR1_RXNEIE | USART_CR1_PEIE));
 6858              		.loc 1 3818 0
 6859 0054 7B68     		ldr	r3, [r7, #4]
 6860 0056 1B68     		ldr	r3, [r3]
 6861 0058 1A68     		ldr	r2, [r3]
 6862 005a 7B68     		ldr	r3, [r7, #4]
 6863 005c 1B68     		ldr	r3, [r3]
 6864 005e 22F49072 		bic	r2, r2, #288
 6865 0062 1A60     		str	r2, [r3]
3819:D:/iot/felix2/targets/Cloud_STM32L431_BearPi/Drivers/STM32L4xx_HAL_Driver/Src\stm32l4xx_hal_uart.c **** #endif
3820:D:/iot/felix2/targets/Cloud_STM32L431_BearPi/Drivers/STM32L4xx_HAL_Driver/Src\stm32l4xx_hal_uart.c **** 
3821:D:/iot/felix2/targets/Cloud_STM32L431_BearPi/Drivers/STM32L4xx_HAL_Driver/Src\stm32l4xx_hal_uart.c ****       /* Disable the UART Error Interrupt: (Frame error, noise error, overrun error) */
3822:D:/iot/felix2/targets/Cloud_STM32L431_BearPi/Drivers/STM32L4xx_HAL_Driver/Src\stm32l4xx_hal_uart.c ****       CLEAR_BIT(huart->Instance->CR3, USART_CR3_EIE);
 6866              		.loc 1 3822 0
 6867 0064 7B68     		ldr	r3, [r7, #4]
 6868 0066 1B68     		ldr	r3, [r3]
 6869 0068 9A68     		ldr	r2, [r3, #8]
 6870 006a 7B68     		ldr	r3, [r7, #4]
 6871 006c 1B68     		ldr	r3, [r3]
ARM GAS  C:\Users\91458\AppData\Local\Temp\ccrpKNIe.s 			page 187


 6872 006e 22F00102 		bic	r2, r2, #1
 6873 0072 9A60     		str	r2, [r3, #8]
3823:D:/iot/felix2/targets/Cloud_STM32L431_BearPi/Drivers/STM32L4xx_HAL_Driver/Src\stm32l4xx_hal_uart.c **** 
3824:D:/iot/felix2/targets/Cloud_STM32L431_BearPi/Drivers/STM32L4xx_HAL_Driver/Src\stm32l4xx_hal_uart.c ****       /* Rx process is completed, restore huart->RxState to Ready */
3825:D:/iot/felix2/targets/Cloud_STM32L431_BearPi/Drivers/STM32L4xx_HAL_Driver/Src\stm32l4xx_hal_uart.c ****       huart->RxState = HAL_UART_STATE_READY;
 6874              		.loc 1 3825 0
 6875 0074 7B68     		ldr	r3, [r7, #4]
 6876 0076 2022     		movs	r2, #32
 6877 0078 83F87220 		strb	r2, [r3, #114]
3826:D:/iot/felix2/targets/Cloud_STM32L431_BearPi/Drivers/STM32L4xx_HAL_Driver/Src\stm32l4xx_hal_uart.c **** 
3827:D:/iot/felix2/targets/Cloud_STM32L431_BearPi/Drivers/STM32L4xx_HAL_Driver/Src\stm32l4xx_hal_uart.c ****       /* Clear RxISR function pointer */
3828:D:/iot/felix2/targets/Cloud_STM32L431_BearPi/Drivers/STM32L4xx_HAL_Driver/Src\stm32l4xx_hal_uart.c ****       huart->RxISR = NULL;
 6878              		.loc 1 3828 0
 6879 007c 7B68     		ldr	r3, [r7, #4]
 6880 007e 0022     		movs	r2, #0
 6881 0080 1A66     		str	r2, [r3, #96]
3829:D:/iot/felix2/targets/Cloud_STM32L431_BearPi/Drivers/STM32L4xx_HAL_Driver/Src\stm32l4xx_hal_uart.c **** 
3830:D:/iot/felix2/targets/Cloud_STM32L431_BearPi/Drivers/STM32L4xx_HAL_Driver/Src\stm32l4xx_hal_uart.c **** #if (USE_HAL_UART_REGISTER_CALLBACKS == 1)
3831:D:/iot/felix2/targets/Cloud_STM32L431_BearPi/Drivers/STM32L4xx_HAL_Driver/Src\stm32l4xx_hal_uart.c ****       /*Call registered Rx complete callback*/
3832:D:/iot/felix2/targets/Cloud_STM32L431_BearPi/Drivers/STM32L4xx_HAL_Driver/Src\stm32l4xx_hal_uart.c ****       huart->RxCpltCallback(huart);
3833:D:/iot/felix2/targets/Cloud_STM32L431_BearPi/Drivers/STM32L4xx_HAL_Driver/Src\stm32l4xx_hal_uart.c **** #else
3834:D:/iot/felix2/targets/Cloud_STM32L431_BearPi/Drivers/STM32L4xx_HAL_Driver/Src\stm32l4xx_hal_uart.c ****       /*Call legacy weak Rx complete callback*/
3835:D:/iot/felix2/targets/Cloud_STM32L431_BearPi/Drivers/STM32L4xx_HAL_Driver/Src\stm32l4xx_hal_uart.c ****       HAL_UART_RxCpltCallback(huart);
 6882              		.loc 1 3835 0
 6883 0082 7868     		ldr	r0, [r7, #4]
 6884 0084 FFF7FEFF 		bl	HAL_UART_RxCpltCallback
3836:D:/iot/felix2/targets/Cloud_STM32L431_BearPi/Drivers/STM32L4xx_HAL_Driver/Src\stm32l4xx_hal_uart.c **** #endif /* USE_HAL_UART_REGISTER_CALLBACKS */
3837:D:/iot/felix2/targets/Cloud_STM32L431_BearPi/Drivers/STM32L4xx_HAL_Driver/Src\stm32l4xx_hal_uart.c ****     }
3838:D:/iot/felix2/targets/Cloud_STM32L431_BearPi/Drivers/STM32L4xx_HAL_Driver/Src\stm32l4xx_hal_uart.c ****   }
3839:D:/iot/felix2/targets/Cloud_STM32L431_BearPi/Drivers/STM32L4xx_HAL_Driver/Src\stm32l4xx_hal_uart.c ****   else
3840:D:/iot/felix2/targets/Cloud_STM32L431_BearPi/Drivers/STM32L4xx_HAL_Driver/Src\stm32l4xx_hal_uart.c ****   {
3841:D:/iot/felix2/targets/Cloud_STM32L431_BearPi/Drivers/STM32L4xx_HAL_Driver/Src\stm32l4xx_hal_uart.c ****     /* Clear RXNE interrupt flag */
3842:D:/iot/felix2/targets/Cloud_STM32L431_BearPi/Drivers/STM32L4xx_HAL_Driver/Src\stm32l4xx_hal_uart.c ****     __HAL_UART_SEND_REQ(huart, UART_RXDATA_FLUSH_REQUEST);
3843:D:/iot/felix2/targets/Cloud_STM32L431_BearPi/Drivers/STM32L4xx_HAL_Driver/Src\stm32l4xx_hal_uart.c ****   }
3844:D:/iot/felix2/targets/Cloud_STM32L431_BearPi/Drivers/STM32L4xx_HAL_Driver/Src\stm32l4xx_hal_uart.c **** }
 6885              		.loc 1 3844 0
 6886 0088 09E0     		b	.L357
 6887              	.L354:
3842:D:/iot/felix2/targets/Cloud_STM32L431_BearPi/Drivers/STM32L4xx_HAL_Driver/Src\stm32l4xx_hal_uart.c ****   }
 6888              		.loc 1 3842 0
 6889 008a 7B68     		ldr	r3, [r7, #4]
 6890 008c 1B68     		ldr	r3, [r3]
 6891 008e 1B8B     		ldrh	r3, [r3, #24]	@ movhi
 6892 0090 9AB2     		uxth	r2, r3
 6893 0092 7B68     		ldr	r3, [r7, #4]
 6894 0094 1B68     		ldr	r3, [r3]
 6895 0096 42F00802 		orr	r2, r2, #8
 6896 009a 92B2     		uxth	r2, r2
 6897 009c 1A83     		strh	r2, [r3, #24]	@ movhi
 6898              	.L357:
 6899              		.loc 1 3844 0
 6900 009e 00BF     		nop
 6901 00a0 1437     		adds	r7, r7, #20
 6902              	.LCFI318:
 6903              		.cfi_def_cfa_offset 12
 6904 00a2 BD46     		mov	sp, r7
 6905              	.LCFI319:
ARM GAS  C:\Users\91458\AppData\Local\Temp\ccrpKNIe.s 			page 188


 6906              		.cfi_def_cfa_register 13
 6907              		@ sp needed
 6908 00a4 90BD     		pop	{r4, r7, pc}
 6909              		.cfi_endproc
 6910              	.LFE191:
 6912              		.section	.text.UART_RxISR_16BIT,"ax",%progbits
 6913              		.align	1
 6914              		.syntax unified
 6915              		.thumb
 6916              		.thumb_func
 6917              		.fpu fpv4-sp-d16
 6919              	UART_RxISR_16BIT:
 6920              	.LFB192:
3845:D:/iot/felix2/targets/Cloud_STM32L431_BearPi/Drivers/STM32L4xx_HAL_Driver/Src\stm32l4xx_hal_uart.c **** 
3846:D:/iot/felix2/targets/Cloud_STM32L431_BearPi/Drivers/STM32L4xx_HAL_Driver/Src\stm32l4xx_hal_uart.c **** /**
3847:D:/iot/felix2/targets/Cloud_STM32L431_BearPi/Drivers/STM32L4xx_HAL_Driver/Src\stm32l4xx_hal_uart.c ****   * @brief RX interrrupt handler for 9 bits data word length .
3848:D:/iot/felix2/targets/Cloud_STM32L431_BearPi/Drivers/STM32L4xx_HAL_Driver/Src\stm32l4xx_hal_uart.c ****   * @note   Function is called under interruption only, once
3849:D:/iot/felix2/targets/Cloud_STM32L431_BearPi/Drivers/STM32L4xx_HAL_Driver/Src\stm32l4xx_hal_uart.c ****   *         interruptions have been enabled by HAL_UART_Receive_IT()
3850:D:/iot/felix2/targets/Cloud_STM32L431_BearPi/Drivers/STM32L4xx_HAL_Driver/Src\stm32l4xx_hal_uart.c ****   * @param huart UART handle.
3851:D:/iot/felix2/targets/Cloud_STM32L431_BearPi/Drivers/STM32L4xx_HAL_Driver/Src\stm32l4xx_hal_uart.c ****   * @retval None
3852:D:/iot/felix2/targets/Cloud_STM32L431_BearPi/Drivers/STM32L4xx_HAL_Driver/Src\stm32l4xx_hal_uart.c ****   */
3853:D:/iot/felix2/targets/Cloud_STM32L431_BearPi/Drivers/STM32L4xx_HAL_Driver/Src\stm32l4xx_hal_uart.c **** static void UART_RxISR_16BIT(UART_HandleTypeDef *huart)
3854:D:/iot/felix2/targets/Cloud_STM32L431_BearPi/Drivers/STM32L4xx_HAL_Driver/Src\stm32l4xx_hal_uart.c **** {
 6921              		.loc 1 3854 0
 6922              		.cfi_startproc
 6923              		@ args = 0, pretend = 0, frame = 16
 6924              		@ frame_needed = 1, uses_anonymous_args = 0
 6925 0000 80B5     		push	{r7, lr}
 6926              	.LCFI320:
 6927              		.cfi_def_cfa_offset 8
 6928              		.cfi_offset 7, -8
 6929              		.cfi_offset 14, -4
 6930 0002 84B0     		sub	sp, sp, #16
 6931              	.LCFI321:
 6932              		.cfi_def_cfa_offset 24
 6933 0004 00AF     		add	r7, sp, #0
 6934              	.LCFI322:
 6935              		.cfi_def_cfa_register 7
 6936 0006 7860     		str	r0, [r7, #4]
3855:D:/iot/felix2/targets/Cloud_STM32L431_BearPi/Drivers/STM32L4xx_HAL_Driver/Src\stm32l4xx_hal_uart.c ****   uint16_t *tmp;
3856:D:/iot/felix2/targets/Cloud_STM32L431_BearPi/Drivers/STM32L4xx_HAL_Driver/Src\stm32l4xx_hal_uart.c ****   uint16_t uhMask = huart->Mask;
 6937              		.loc 1 3856 0
 6938 0008 7B68     		ldr	r3, [r7, #4]
 6939 000a B3F85C30 		ldrh	r3, [r3, #92]	@ movhi
 6940 000e FB81     		strh	r3, [r7, #14]	@ movhi
3857:D:/iot/felix2/targets/Cloud_STM32L431_BearPi/Drivers/STM32L4xx_HAL_Driver/Src\stm32l4xx_hal_uart.c ****   uint16_t  uhdata;
3858:D:/iot/felix2/targets/Cloud_STM32L431_BearPi/Drivers/STM32L4xx_HAL_Driver/Src\stm32l4xx_hal_uart.c **** 
3859:D:/iot/felix2/targets/Cloud_STM32L431_BearPi/Drivers/STM32L4xx_HAL_Driver/Src\stm32l4xx_hal_uart.c ****   /* Check that a Rx process is ongoing */
3860:D:/iot/felix2/targets/Cloud_STM32L431_BearPi/Drivers/STM32L4xx_HAL_Driver/Src\stm32l4xx_hal_uart.c ****   if (huart->RxState == HAL_UART_STATE_BUSY_RX)
 6941              		.loc 1 3860 0
 6942 0010 7B68     		ldr	r3, [r7, #4]
 6943 0012 93F87230 		ldrb	r3, [r3, #114]
 6944 0016 DBB2     		uxtb	r3, r3
 6945 0018 222B     		cmp	r3, #34
 6946 001a 38D1     		bne	.L359
3861:D:/iot/felix2/targets/Cloud_STM32L431_BearPi/Drivers/STM32L4xx_HAL_Driver/Src\stm32l4xx_hal_uart.c ****   {
3862:D:/iot/felix2/targets/Cloud_STM32L431_BearPi/Drivers/STM32L4xx_HAL_Driver/Src\stm32l4xx_hal_uart.c ****     uhdata = (uint16_t) READ_REG(huart->Instance->RDR);
ARM GAS  C:\Users\91458\AppData\Local\Temp\ccrpKNIe.s 			page 189


 6947              		.loc 1 3862 0
 6948 001c 7B68     		ldr	r3, [r7, #4]
 6949 001e 1B68     		ldr	r3, [r3]
 6950 0020 9B8C     		ldrh	r3, [r3, #36]	@ movhi
 6951 0022 BB81     		strh	r3, [r7, #12]	@ movhi
3863:D:/iot/felix2/targets/Cloud_STM32L431_BearPi/Drivers/STM32L4xx_HAL_Driver/Src\stm32l4xx_hal_uart.c ****     tmp = (uint16_t *) huart->pRxBuffPtr ;
 6952              		.loc 1 3863 0
 6953 0024 7B68     		ldr	r3, [r7, #4]
 6954 0026 5B6D     		ldr	r3, [r3, #84]
 6955 0028 BB60     		str	r3, [r7, #8]
3864:D:/iot/felix2/targets/Cloud_STM32L431_BearPi/Drivers/STM32L4xx_HAL_Driver/Src\stm32l4xx_hal_uart.c ****     *tmp = (uint16_t)(uhdata & uhMask);
 6956              		.loc 1 3864 0
 6957 002a BA89     		ldrh	r2, [r7, #12]	@ movhi
 6958 002c FB89     		ldrh	r3, [r7, #14]	@ movhi
 6959 002e 1340     		ands	r3, r3, r2
 6960 0030 9AB2     		uxth	r2, r3
 6961 0032 BB68     		ldr	r3, [r7, #8]
 6962 0034 1A80     		strh	r2, [r3]	@ movhi
3865:D:/iot/felix2/targets/Cloud_STM32L431_BearPi/Drivers/STM32L4xx_HAL_Driver/Src\stm32l4xx_hal_uart.c ****     huart->pRxBuffPtr += 2;
 6963              		.loc 1 3865 0
 6964 0036 7B68     		ldr	r3, [r7, #4]
 6965 0038 5B6D     		ldr	r3, [r3, #84]
 6966 003a 9A1C     		adds	r2, r3, #2
 6967 003c 7B68     		ldr	r3, [r7, #4]
 6968 003e 5A65     		str	r2, [r3, #84]
3866:D:/iot/felix2/targets/Cloud_STM32L431_BearPi/Drivers/STM32L4xx_HAL_Driver/Src\stm32l4xx_hal_uart.c **** 
3867:D:/iot/felix2/targets/Cloud_STM32L431_BearPi/Drivers/STM32L4xx_HAL_Driver/Src\stm32l4xx_hal_uart.c ****     if (--huart->RxXferCount == 0)
 6969              		.loc 1 3867 0
 6970 0040 7B68     		ldr	r3, [r7, #4]
 6971 0042 B3F85A30 		ldrh	r3, [r3, #90]	@ movhi
 6972 0046 9BB2     		uxth	r3, r3
 6973 0048 013B     		subs	r3, r3, #1
 6974 004a 9BB2     		uxth	r3, r3
 6975 004c 7A68     		ldr	r2, [r7, #4]
 6976 004e 1946     		mov	r1, r3	@ movhi
 6977 0050 A2F85A10 		strh	r1, [r2, #90]	@ movhi
 6978 0054 002B     		cmp	r3, #0
 6979 0056 24D1     		bne	.L362
3868:D:/iot/felix2/targets/Cloud_STM32L431_BearPi/Drivers/STM32L4xx_HAL_Driver/Src\stm32l4xx_hal_uart.c ****     {
3869:D:/iot/felix2/targets/Cloud_STM32L431_BearPi/Drivers/STM32L4xx_HAL_Driver/Src\stm32l4xx_hal_uart.c ****       /* Disable the UART Parity Error Interrupt and RXNE interrupt*/
3870:D:/iot/felix2/targets/Cloud_STM32L431_BearPi/Drivers/STM32L4xx_HAL_Driver/Src\stm32l4xx_hal_uart.c **** #if defined(USART_CR1_FIFOEN)
3871:D:/iot/felix2/targets/Cloud_STM32L431_BearPi/Drivers/STM32L4xx_HAL_Driver/Src\stm32l4xx_hal_uart.c ****       CLEAR_BIT(huart->Instance->CR1, (USART_CR1_RXNEIE_RXFNEIE | USART_CR1_PEIE));
3872:D:/iot/felix2/targets/Cloud_STM32L431_BearPi/Drivers/STM32L4xx_HAL_Driver/Src\stm32l4xx_hal_uart.c **** #else
3873:D:/iot/felix2/targets/Cloud_STM32L431_BearPi/Drivers/STM32L4xx_HAL_Driver/Src\stm32l4xx_hal_uart.c ****       CLEAR_BIT(huart->Instance->CR1, (USART_CR1_RXNEIE | USART_CR1_PEIE));
 6980              		.loc 1 3873 0
 6981 0058 7B68     		ldr	r3, [r7, #4]
 6982 005a 1B68     		ldr	r3, [r3]
 6983 005c 1A68     		ldr	r2, [r3]
 6984 005e 7B68     		ldr	r3, [r7, #4]
 6985 0060 1B68     		ldr	r3, [r3]
 6986 0062 22F49072 		bic	r2, r2, #288
 6987 0066 1A60     		str	r2, [r3]
3874:D:/iot/felix2/targets/Cloud_STM32L431_BearPi/Drivers/STM32L4xx_HAL_Driver/Src\stm32l4xx_hal_uart.c **** #endif
3875:D:/iot/felix2/targets/Cloud_STM32L431_BearPi/Drivers/STM32L4xx_HAL_Driver/Src\stm32l4xx_hal_uart.c **** 
3876:D:/iot/felix2/targets/Cloud_STM32L431_BearPi/Drivers/STM32L4xx_HAL_Driver/Src\stm32l4xx_hal_uart.c ****       /* Disable the UART Error Interrupt: (Frame error, noise error, overrun error) */
3877:D:/iot/felix2/targets/Cloud_STM32L431_BearPi/Drivers/STM32L4xx_HAL_Driver/Src\stm32l4xx_hal_uart.c ****       CLEAR_BIT(huart->Instance->CR3, USART_CR3_EIE);
 6988              		.loc 1 3877 0
ARM GAS  C:\Users\91458\AppData\Local\Temp\ccrpKNIe.s 			page 190


 6989 0068 7B68     		ldr	r3, [r7, #4]
 6990 006a 1B68     		ldr	r3, [r3]
 6991 006c 9A68     		ldr	r2, [r3, #8]
 6992 006e 7B68     		ldr	r3, [r7, #4]
 6993 0070 1B68     		ldr	r3, [r3]
 6994 0072 22F00102 		bic	r2, r2, #1
 6995 0076 9A60     		str	r2, [r3, #8]
3878:D:/iot/felix2/targets/Cloud_STM32L431_BearPi/Drivers/STM32L4xx_HAL_Driver/Src\stm32l4xx_hal_uart.c **** 
3879:D:/iot/felix2/targets/Cloud_STM32L431_BearPi/Drivers/STM32L4xx_HAL_Driver/Src\stm32l4xx_hal_uart.c ****       /* Rx process is completed, restore huart->RxState to Ready */
3880:D:/iot/felix2/targets/Cloud_STM32L431_BearPi/Drivers/STM32L4xx_HAL_Driver/Src\stm32l4xx_hal_uart.c ****       huart->RxState = HAL_UART_STATE_READY;
 6996              		.loc 1 3880 0
 6997 0078 7B68     		ldr	r3, [r7, #4]
 6998 007a 2022     		movs	r2, #32
 6999 007c 83F87220 		strb	r2, [r3, #114]
3881:D:/iot/felix2/targets/Cloud_STM32L431_BearPi/Drivers/STM32L4xx_HAL_Driver/Src\stm32l4xx_hal_uart.c **** 
3882:D:/iot/felix2/targets/Cloud_STM32L431_BearPi/Drivers/STM32L4xx_HAL_Driver/Src\stm32l4xx_hal_uart.c ****       /* Clear RxISR function pointer */
3883:D:/iot/felix2/targets/Cloud_STM32L431_BearPi/Drivers/STM32L4xx_HAL_Driver/Src\stm32l4xx_hal_uart.c ****       huart->RxISR = NULL;
 7000              		.loc 1 3883 0
 7001 0080 7B68     		ldr	r3, [r7, #4]
 7002 0082 0022     		movs	r2, #0
 7003 0084 1A66     		str	r2, [r3, #96]
3884:D:/iot/felix2/targets/Cloud_STM32L431_BearPi/Drivers/STM32L4xx_HAL_Driver/Src\stm32l4xx_hal_uart.c **** 
3885:D:/iot/felix2/targets/Cloud_STM32L431_BearPi/Drivers/STM32L4xx_HAL_Driver/Src\stm32l4xx_hal_uart.c **** #if (USE_HAL_UART_REGISTER_CALLBACKS == 1)
3886:D:/iot/felix2/targets/Cloud_STM32L431_BearPi/Drivers/STM32L4xx_HAL_Driver/Src\stm32l4xx_hal_uart.c ****       /*Call registered Rx complete callback*/
3887:D:/iot/felix2/targets/Cloud_STM32L431_BearPi/Drivers/STM32L4xx_HAL_Driver/Src\stm32l4xx_hal_uart.c ****       huart->RxCpltCallback(huart);
3888:D:/iot/felix2/targets/Cloud_STM32L431_BearPi/Drivers/STM32L4xx_HAL_Driver/Src\stm32l4xx_hal_uart.c **** #else
3889:D:/iot/felix2/targets/Cloud_STM32L431_BearPi/Drivers/STM32L4xx_HAL_Driver/Src\stm32l4xx_hal_uart.c ****       /*Call legacy weak Rx complete callback*/
3890:D:/iot/felix2/targets/Cloud_STM32L431_BearPi/Drivers/STM32L4xx_HAL_Driver/Src\stm32l4xx_hal_uart.c ****       HAL_UART_RxCpltCallback(huart);
 7004              		.loc 1 3890 0
 7005 0086 7868     		ldr	r0, [r7, #4]
 7006 0088 FFF7FEFF 		bl	HAL_UART_RxCpltCallback
3891:D:/iot/felix2/targets/Cloud_STM32L431_BearPi/Drivers/STM32L4xx_HAL_Driver/Src\stm32l4xx_hal_uart.c **** #endif /* USE_HAL_UART_REGISTER_CALLBACKS */
3892:D:/iot/felix2/targets/Cloud_STM32L431_BearPi/Drivers/STM32L4xx_HAL_Driver/Src\stm32l4xx_hal_uart.c ****     }
3893:D:/iot/felix2/targets/Cloud_STM32L431_BearPi/Drivers/STM32L4xx_HAL_Driver/Src\stm32l4xx_hal_uart.c ****   }
3894:D:/iot/felix2/targets/Cloud_STM32L431_BearPi/Drivers/STM32L4xx_HAL_Driver/Src\stm32l4xx_hal_uart.c ****   else
3895:D:/iot/felix2/targets/Cloud_STM32L431_BearPi/Drivers/STM32L4xx_HAL_Driver/Src\stm32l4xx_hal_uart.c ****   {
3896:D:/iot/felix2/targets/Cloud_STM32L431_BearPi/Drivers/STM32L4xx_HAL_Driver/Src\stm32l4xx_hal_uart.c ****     /* Clear RXNE interrupt flag */
3897:D:/iot/felix2/targets/Cloud_STM32L431_BearPi/Drivers/STM32L4xx_HAL_Driver/Src\stm32l4xx_hal_uart.c ****     __HAL_UART_SEND_REQ(huart, UART_RXDATA_FLUSH_REQUEST);
3898:D:/iot/felix2/targets/Cloud_STM32L431_BearPi/Drivers/STM32L4xx_HAL_Driver/Src\stm32l4xx_hal_uart.c ****   }
3899:D:/iot/felix2/targets/Cloud_STM32L431_BearPi/Drivers/STM32L4xx_HAL_Driver/Src\stm32l4xx_hal_uart.c **** }
 7007              		.loc 1 3899 0
 7008 008c 09E0     		b	.L362
 7009              	.L359:
3897:D:/iot/felix2/targets/Cloud_STM32L431_BearPi/Drivers/STM32L4xx_HAL_Driver/Src\stm32l4xx_hal_uart.c ****   }
 7010              		.loc 1 3897 0
 7011 008e 7B68     		ldr	r3, [r7, #4]
 7012 0090 1B68     		ldr	r3, [r3]
 7013 0092 1B8B     		ldrh	r3, [r3, #24]	@ movhi
 7014 0094 9AB2     		uxth	r2, r3
 7015 0096 7B68     		ldr	r3, [r7, #4]
 7016 0098 1B68     		ldr	r3, [r3]
 7017 009a 42F00802 		orr	r2, r2, #8
 7018 009e 92B2     		uxth	r2, r2
 7019 00a0 1A83     		strh	r2, [r3, #24]	@ movhi
 7020              	.L362:
 7021              		.loc 1 3899 0
 7022 00a2 00BF     		nop
ARM GAS  C:\Users\91458\AppData\Local\Temp\ccrpKNIe.s 			page 191


 7023 00a4 1037     		adds	r7, r7, #16
 7024              	.LCFI323:
 7025              		.cfi_def_cfa_offset 8
 7026 00a6 BD46     		mov	sp, r7
 7027              	.LCFI324:
 7028              		.cfi_def_cfa_register 13
 7029              		@ sp needed
 7030 00a8 80BD     		pop	{r7, pc}
 7031              		.cfi_endproc
 7032              	.LFE192:
 7034              		.text
 7035              	.Letext0:
 7036              		.file 2 "d:\\liteos studio\\resources\\arm-none-eabi\\arm-none-eabi\\include\\machine\\_default_ty
 7037              		.file 3 "d:\\liteos studio\\resources\\arm-none-eabi\\arm-none-eabi\\include\\sys\\lock.h"
 7038              		.file 4 "d:\\liteos studio\\resources\\arm-none-eabi\\arm-none-eabi\\include\\sys\\_types.h"
 7039              		.file 5 "d:\\liteos studio\\resources\\arm-none-eabi\\lib\\gcc\\arm-none-eabi\\7.3.1\\include\\std
 7040              		.file 6 "d:\\liteos studio\\resources\\arm-none-eabi\\arm-none-eabi\\include\\sys\\reent.h"
 7041              		.file 7 "D:/iot/felix2/kernel/include/los_typedef.h"
 7042              		.file 8 "d:\\liteos studio\\resources\\arm-none-eabi\\arm-none-eabi\\include\\sys\\_stdint.h"
 7043              		.file 9 "D:/iot/felix2/arch/arm/common/cmsis/core_cm4.h"
 7044              		.file 10 "D:/iot/felix2/targets/Cloud_STM32L431_BearPi/Inc/system_stm32l4xx.h"
 7045              		.file 11 "D:/iot/felix2/targets/Cloud_STM32L431_BearPi/Inc/stm32l431xx.h"
 7046              		.file 12 "D:/iot/felix2/targets/Cloud_STM32L431_BearPi/Inc/stm32l4xx.h"
 7047              		.file 13 "D:/iot/felix2/targets/Cloud_STM32L431_BearPi/OS_CONFIG/target_config.h"
 7048              		.file 14 "D:/iot/felix2/kernel/include/los_config.h"
 7049              		.file 15 "D:/iot/felix2/kernel/include/los_list.h"
 7050              		.file 16 "D:/iot/felix2/kernel/include/los_err.h"
 7051              		.file 17 "D:/iot/felix2/arch/arm/arm-m/include/los_hwi.h"
 7052              		.file 18 "D:/iot/felix2/kernel/include/los_tick.h"
 7053              		.file 19 "D:/iot/felix2/kernel/include/los_event.h"
 7054              		.file 20 "D:/iot/felix2/kernel/include/los_task.h"
 7055              		.file 21 "D:/iot/felix2/kernel/base/include/los_task.ph"
 7056              		.file 22 "D:/iot/felix2/targets/Cloud_STM32L431_BearPi/Inc/main.h"
 7057              		.file 23 "D:/iot/felix2/targets/Cloud_STM32L431_BearPi/Drivers/STM32L4xx_HAL_Driver/Inc/stm32l4xx_
 7058              		.file 24 "D:/iot/felix2/targets/Cloud_STM32L431_BearPi/Drivers/STM32L4xx_HAL_Driver/Inc/stm32l4xx_
 7059              		.file 25 "D:/iot/felix2/targets/Cloud_STM32L431_BearPi/Drivers/STM32L4xx_HAL_Driver/Inc/stm32l4xx_
ARM GAS  C:\Users\91458\AppData\Local\Temp\ccrpKNIe.s 			page 192


DEFINED SYMBOLS
                            *ABS*:00000000 stm32l4xx_hal_uart.c
C:\Users\91458\AppData\Local\Temp\ccrpKNIe.s:18     .text.HAL_UART_Init:00000000 $t
C:\Users\91458\AppData\Local\Temp\ccrpKNIe.s:25     .text.HAL_UART_Init:00000000 HAL_UART_Init
C:\Users\91458\AppData\Local\Temp\ccrpKNIe.s:680    .text.HAL_UART_MspInit:00000000 HAL_UART_MspInit
C:\Users\91458\AppData\Local\Temp\ccrpKNIe.s:4448   .text.UART_SetConfig:00000000 UART_SetConfig
C:\Users\91458\AppData\Local\Temp\ccrpKNIe.s:5296   .text.UART_AdvFeatureConfig:00000000 UART_AdvFeatureConfig
C:\Users\91458\AppData\Local\Temp\ccrpKNIe.s:5499   .text.UART_CheckIdleState:00000000 UART_CheckIdleState
C:\Users\91458\AppData\Local\Temp\ccrpKNIe.s:140    .text.HAL_HalfDuplex_Init:00000000 $t
C:\Users\91458\AppData\Local\Temp\ccrpKNIe.s:147    .text.HAL_HalfDuplex_Init:00000000 HAL_HalfDuplex_Init
C:\Users\91458\AppData\Local\Temp\ccrpKNIe.s:269    .text.HAL_LIN_Init:00000000 $t
C:\Users\91458\AppData\Local\Temp\ccrpKNIe.s:276    .text.HAL_LIN_Init:00000000 HAL_LIN_Init
C:\Users\91458\AppData\Local\Temp\ccrpKNIe.s:427    .text.HAL_MultiProcessor_Init:00000000 $t
C:\Users\91458\AppData\Local\Temp\ccrpKNIe.s:434    .text.HAL_MultiProcessor_Init:00000000 HAL_MultiProcessor_Init
C:\Users\91458\AppData\Local\Temp\ccrpKNIe.s:577    .text.HAL_UART_DeInit:00000000 $t
C:\Users\91458\AppData\Local\Temp\ccrpKNIe.s:584    .text.HAL_UART_DeInit:00000000 HAL_UART_DeInit
C:\Users\91458\AppData\Local\Temp\ccrpKNIe.s:723    .text.HAL_UART_MspDeInit:00000000 HAL_UART_MspDeInit
C:\Users\91458\AppData\Local\Temp\ccrpKNIe.s:673    .text.HAL_UART_MspInit:00000000 $t
C:\Users\91458\AppData\Local\Temp\ccrpKNIe.s:716    .text.HAL_UART_MspDeInit:00000000 $t
C:\Users\91458\AppData\Local\Temp\ccrpKNIe.s:759    .text.HAL_UART_Transmit:00000000 $t
C:\Users\91458\AppData\Local\Temp\ccrpKNIe.s:766    .text.HAL_UART_Transmit:00000000 HAL_UART_Transmit
C:\Users\91458\AppData\Local\Temp\ccrpKNIe.s:5607   .text.UART_WaitOnFlagUntilTimeout:00000000 UART_WaitOnFlagUntilTimeout
C:\Users\91458\AppData\Local\Temp\ccrpKNIe.s:956    .text.HAL_UART_Receive:00000000 $t
C:\Users\91458\AppData\Local\Temp\ccrpKNIe.s:963    .text.HAL_UART_Receive:00000000 HAL_UART_Receive
C:\Users\91458\AppData\Local\Temp\ccrpKNIe.s:1214   .text.HAL_UART_Transmit_IT:00000000 $t
C:\Users\91458\AppData\Local\Temp\ccrpKNIe.s:1221   .text.HAL_UART_Transmit_IT:00000000 HAL_UART_Transmit_IT
C:\Users\91458\AppData\Local\Temp\ccrpKNIe.s:1355   .text.HAL_UART_Transmit_IT:000000b4 $d
C:\Users\91458\AppData\Local\Temp\ccrpKNIe.s:6643   .text.UART_TxISR_16BIT:00000000 UART_TxISR_16BIT
C:\Users\91458\AppData\Local\Temp\ccrpKNIe.s:6550   .text.UART_TxISR_8BIT:00000000 UART_TxISR_8BIT
C:\Users\91458\AppData\Local\Temp\ccrpKNIe.s:1361   .text.HAL_UART_Receive_IT:00000000 $t
C:\Users\91458\AppData\Local\Temp\ccrpKNIe.s:1368   .text.HAL_UART_Receive_IT:00000000 HAL_UART_Receive_IT
C:\Users\91458\AppData\Local\Temp\ccrpKNIe.s:1575   .text.HAL_UART_Receive_IT:00000138 $d
C:\Users\91458\AppData\Local\Temp\ccrpKNIe.s:6919   .text.UART_RxISR_16BIT:00000000 UART_RxISR_16BIT
C:\Users\91458\AppData\Local\Temp\ccrpKNIe.s:6800   .text.UART_RxISR_8BIT:00000000 UART_RxISR_8BIT
C:\Users\91458\AppData\Local\Temp\ccrpKNIe.s:1581   .text.HAL_UART_Transmit_DMA:00000000 $t
C:\Users\91458\AppData\Local\Temp\ccrpKNIe.s:1588   .text.HAL_UART_Transmit_DMA:00000000 HAL_UART_Transmit_DMA
C:\Users\91458\AppData\Local\Temp\ccrpKNIe.s:1730   .text.HAL_UART_Transmit_DMA:000000cc $d
C:\Users\91458\AppData\Local\Temp\ccrpKNIe.s:5840   .text.UART_DMATransmitCplt:00000000 UART_DMATransmitCplt
C:\Users\91458\AppData\Local\Temp\ccrpKNIe.s:5916   .text.UART_DMATxHalfCplt:00000000 UART_DMATxHalfCplt
C:\Users\91458\AppData\Local\Temp\ccrpKNIe.s:6091   .text.UART_DMAError:00000000 UART_DMAError
C:\Users\91458\AppData\Local\Temp\ccrpKNIe.s:1737   .text.HAL_UART_Receive_DMA:00000000 $t
C:\Users\91458\AppData\Local\Temp\ccrpKNIe.s:1744   .text.HAL_UART_Receive_DMA:00000000 HAL_UART_Receive_DMA
C:\Users\91458\AppData\Local\Temp\ccrpKNIe.s:1893   .text.HAL_UART_Receive_DMA:000000dc $d
C:\Users\91458\AppData\Local\Temp\ccrpKNIe.s:5961   .text.UART_DMAReceiveCplt:00000000 UART_DMAReceiveCplt
C:\Users\91458\AppData\Local\Temp\ccrpKNIe.s:6046   .text.UART_DMARxHalfCplt:00000000 UART_DMARxHalfCplt
C:\Users\91458\AppData\Local\Temp\ccrpKNIe.s:1900   .text.HAL_UART_DMAPause:00000000 $t
C:\Users\91458\AppData\Local\Temp\ccrpKNIe.s:1907   .text.HAL_UART_DMAPause:00000000 HAL_UART_DMAPause
C:\Users\91458\AppData\Local\Temp\ccrpKNIe.s:2025   .text.HAL_UART_DMAResume:00000000 $t
C:\Users\91458\AppData\Local\Temp\ccrpKNIe.s:2032   .text.HAL_UART_DMAResume:00000000 HAL_UART_DMAResume
C:\Users\91458\AppData\Local\Temp\ccrpKNIe.s:2139   .text.HAL_UART_DMAStop:00000000 $t
C:\Users\91458\AppData\Local\Temp\ccrpKNIe.s:2146   .text.HAL_UART_DMAStop:00000000 HAL_UART_DMAStop
C:\Users\91458\AppData\Local\Temp\ccrpKNIe.s:5720   .text.UART_EndTxTransfer:00000000 UART_EndTxTransfer
C:\Users\91458\AppData\Local\Temp\ccrpKNIe.s:5774   .text.UART_EndRxTransfer:00000000 UART_EndRxTransfer
C:\Users\91458\AppData\Local\Temp\ccrpKNIe.s:2254   .text.HAL_UART_Abort:00000000 $t
C:\Users\91458\AppData\Local\Temp\ccrpKNIe.s:2261   .text.HAL_UART_Abort:00000000 HAL_UART_Abort
C:\Users\91458\AppData\Local\Temp\ccrpKNIe.s:2408   .text.HAL_UART_AbortTransmit:00000000 $t
C:\Users\91458\AppData\Local\Temp\ccrpKNIe.s:2415   .text.HAL_UART_AbortTransmit:00000000 HAL_UART_AbortTransmit
ARM GAS  C:\Users\91458\AppData\Local\Temp\ccrpKNIe.s 			page 193


C:\Users\91458\AppData\Local\Temp\ccrpKNIe.s:2496   .text.HAL_UART_AbortReceive:00000000 $t
C:\Users\91458\AppData\Local\Temp\ccrpKNIe.s:2503   .text.HAL_UART_AbortReceive:00000000 HAL_UART_AbortReceive
C:\Users\91458\AppData\Local\Temp\ccrpKNIe.s:2607   .text.HAL_UART_Abort_IT:00000000 $t
C:\Users\91458\AppData\Local\Temp\ccrpKNIe.s:2614   .text.HAL_UART_Abort_IT:00000000 HAL_UART_Abort_IT
C:\Users\91458\AppData\Local\Temp\ccrpKNIe.s:3753   .text.HAL_UART_AbortCpltCallback:00000000 HAL_UART_AbortCpltCallback
C:\Users\91458\AppData\Local\Temp\ccrpKNIe.s:2848   .text.HAL_UART_Abort_IT:0000016c $d
C:\Users\91458\AppData\Local\Temp\ccrpKNIe.s:6237   .text.UART_DMATxAbortCallback:00000000 UART_DMATxAbortCallback
C:\Users\91458\AppData\Local\Temp\ccrpKNIe.s:6328   .text.UART_DMARxAbortCallback:00000000 UART_DMARxAbortCallback
C:\Users\91458\AppData\Local\Temp\ccrpKNIe.s:2854   .text.HAL_UART_AbortTransmit_IT:00000000 $t
C:\Users\91458\AppData\Local\Temp\ccrpKNIe.s:2861   .text.HAL_UART_AbortTransmit_IT:00000000 HAL_UART_AbortTransmit_IT
C:\Users\91458\AppData\Local\Temp\ccrpKNIe.s:3796   .text.HAL_UART_AbortTransmitCpltCallback:00000000 HAL_UART_AbortTransmitCpltCallback
C:\Users\91458\AppData\Local\Temp\ccrpKNIe.s:2979   .text.HAL_UART_AbortTransmit_IT:000000ac $d
C:\Users\91458\AppData\Local\Temp\ccrpKNIe.s:6429   .text.UART_DMATxOnlyAbortCallback:00000000 UART_DMATxOnlyAbortCallback
C:\Users\91458\AppData\Local\Temp\ccrpKNIe.s:2984   .text.HAL_UART_AbortReceive_IT:00000000 $t
C:\Users\91458\AppData\Local\Temp\ccrpKNIe.s:2991   .text.HAL_UART_AbortReceive_IT:00000000 HAL_UART_AbortReceive_IT
C:\Users\91458\AppData\Local\Temp\ccrpKNIe.s:3839   .text.HAL_UART_AbortReceiveCpltCallback:00000000 HAL_UART_AbortReceiveCpltCallback
C:\Users\91458\AppData\Local\Temp\ccrpKNIe.s:3137   .text.HAL_UART_AbortReceive_IT:000000e0 $d
C:\Users\91458\AppData\Local\Temp\ccrpKNIe.s:6482   .text.UART_DMARxOnlyAbortCallback:00000000 UART_DMARxOnlyAbortCallback
C:\Users\91458\AppData\Local\Temp\ccrpKNIe.s:3142   .text.HAL_UART_IRQHandler:00000000 $t
C:\Users\91458\AppData\Local\Temp\ccrpKNIe.s:3149   .text.HAL_UART_IRQHandler:00000000 HAL_UART_IRQHandler
C:\Users\91458\AppData\Local\Temp\ccrpKNIe.s:3710   .text.HAL_UART_ErrorCallback:00000000 HAL_UART_ErrorCallback
C:\Users\91458\AppData\Local\Temp\ccrpKNIe.s:6743   .text.UART_EndTransmit_IT:00000000 UART_EndTransmit_IT
C:\Users\91458\AppData\Local\Temp\ccrpKNIe.s:3526   .text.HAL_UART_IRQHandler:00000258 $d
C:\Users\91458\AppData\Local\Temp\ccrpKNIe.s:6184   .text.UART_DMAAbortOnError:00000000 UART_DMAAbortOnError
C:\Users\91458\AppData\Local\Temp\ccrpKNIe.s:3531   .text.HAL_UART_TxCpltCallback:00000000 $t
C:\Users\91458\AppData\Local\Temp\ccrpKNIe.s:3538   .text.HAL_UART_TxCpltCallback:00000000 HAL_UART_TxCpltCallback
C:\Users\91458\AppData\Local\Temp\ccrpKNIe.s:3574   .text.HAL_UART_TxHalfCpltCallback:00000000 $t
C:\Users\91458\AppData\Local\Temp\ccrpKNIe.s:3581   .text.HAL_UART_TxHalfCpltCallback:00000000 HAL_UART_TxHalfCpltCallback
C:\Users\91458\AppData\Local\Temp\ccrpKNIe.s:3617   .text.HAL_UART_RxCpltCallback:00000000 $t
C:\Users\91458\AppData\Local\Temp\ccrpKNIe.s:3624   .text.HAL_UART_RxCpltCallback:00000000 HAL_UART_RxCpltCallback
C:\Users\91458\AppData\Local\Temp\ccrpKNIe.s:3660   .text.HAL_UART_RxHalfCpltCallback:00000000 $t
C:\Users\91458\AppData\Local\Temp\ccrpKNIe.s:3667   .text.HAL_UART_RxHalfCpltCallback:00000000 HAL_UART_RxHalfCpltCallback
C:\Users\91458\AppData\Local\Temp\ccrpKNIe.s:3703   .text.HAL_UART_ErrorCallback:00000000 $t
C:\Users\91458\AppData\Local\Temp\ccrpKNIe.s:3746   .text.HAL_UART_AbortCpltCallback:00000000 $t
C:\Users\91458\AppData\Local\Temp\ccrpKNIe.s:3789   .text.HAL_UART_AbortTransmitCpltCallback:00000000 $t
C:\Users\91458\AppData\Local\Temp\ccrpKNIe.s:3832   .text.HAL_UART_AbortReceiveCpltCallback:00000000 $t
C:\Users\91458\AppData\Local\Temp\ccrpKNIe.s:3875   .text.HAL_MultiProcessor_EnableMuteMode:00000000 $t
C:\Users\91458\AppData\Local\Temp\ccrpKNIe.s:3882   .text.HAL_MultiProcessor_EnableMuteMode:00000000 HAL_MultiProcessor_EnableMuteMode
C:\Users\91458\AppData\Local\Temp\ccrpKNIe.s:3948   .text.HAL_MultiProcessor_DisableMuteMode:00000000 $t
C:\Users\91458\AppData\Local\Temp\ccrpKNIe.s:3955   .text.HAL_MultiProcessor_DisableMuteMode:00000000 HAL_MultiProcessor_DisableMuteMode
C:\Users\91458\AppData\Local\Temp\ccrpKNIe.s:4021   .text.HAL_MultiProcessor_EnterMuteMode:00000000 $t
C:\Users\91458\AppData\Local\Temp\ccrpKNIe.s:4028   .text.HAL_MultiProcessor_EnterMuteMode:00000000 HAL_MultiProcessor_EnterMuteMode
C:\Users\91458\AppData\Local\Temp\ccrpKNIe.s:4074   .text.HAL_HalfDuplex_EnableTransmitter:00000000 $t
C:\Users\91458\AppData\Local\Temp\ccrpKNIe.s:4081   .text.HAL_HalfDuplex_EnableTransmitter:00000000 HAL_HalfDuplex_EnableTransmitter
C:\Users\91458\AppData\Local\Temp\ccrpKNIe.s:4161   .text.HAL_HalfDuplex_EnableReceiver:00000000 $t
C:\Users\91458\AppData\Local\Temp\ccrpKNIe.s:4168   .text.HAL_HalfDuplex_EnableReceiver:00000000 HAL_HalfDuplex_EnableReceiver
C:\Users\91458\AppData\Local\Temp\ccrpKNIe.s:4248   .text.HAL_LIN_SendBreak:00000000 $t
C:\Users\91458\AppData\Local\Temp\ccrpKNIe.s:4255   .text.HAL_LIN_SendBreak:00000000 HAL_LIN_SendBreak
C:\Users\91458\AppData\Local\Temp\ccrpKNIe.s:4329   .text.HAL_UART_GetState:00000000 $t
C:\Users\91458\AppData\Local\Temp\ccrpKNIe.s:4336   .text.HAL_UART_GetState:00000000 HAL_UART_GetState
C:\Users\91458\AppData\Local\Temp\ccrpKNIe.s:4394   .text.HAL_UART_GetError:00000000 $t
C:\Users\91458\AppData\Local\Temp\ccrpKNIe.s:4401   .text.HAL_UART_GetError:00000000 HAL_UART_GetError
C:\Users\91458\AppData\Local\Temp\ccrpKNIe.s:4441   .text.UART_SetConfig:00000000 $t
C:\Users\91458\AppData\Local\Temp\ccrpKNIe.s:4564   .text.UART_SetConfig:000000b0 $d
C:\Users\91458\AppData\Local\Temp\ccrpKNIe.s:4568   .text.UART_SetConfig:000000c0 $t
C:\Users\91458\AppData\Local\Temp\ccrpKNIe.s:4612   .text.UART_SetConfig:00000100 $d
C:\Users\91458\AppData\Local\Temp\ccrpKNIe.s:4625   .text.UART_SetConfig:00000134 $t
ARM GAS  C:\Users\91458\AppData\Local\Temp\ccrpKNIe.s 			page 194


C:\Users\91458\AppData\Local\Temp\ccrpKNIe.s:4775   .text.UART_SetConfig:0000020c $d
C:\Users\91458\AppData\Local\Temp\ccrpKNIe.s:4784   .text.UART_SetConfig:00000230 $t
C:\Users\91458\AppData\Local\Temp\ccrpKNIe.s:4851   .text.UART_SetConfig:0000028c $d
C:\Users\91458\AppData\Local\Temp\ccrpKNIe.s:4860   .text.UART_SetConfig:000002b0 $t
C:\Users\91458\AppData\Local\Temp\ccrpKNIe.s:4896   .text.UART_SetConfig:000002fc $d
C:\Users\91458\AppData\Local\Temp\ccrpKNIe.s:4905   .text.UART_SetConfig:00000318 $t
C:\Users\91458\AppData\Local\Temp\ccrpKNIe.s:5019   .text.UART_SetConfig:00000400 $d
C:\Users\91458\AppData\Local\Temp\ccrpKNIe.s:5028   .text.UART_SetConfig:00000424 $t
C:\Users\91458\AppData\Local\Temp\ccrpKNIe.s:5153   .text.UART_SetConfig:00000500 $d
C:\Users\91458\AppData\Local\Temp\ccrpKNIe.s:5162   .text.UART_SetConfig:00000524 $t
C:\Users\91458\AppData\Local\Temp\ccrpKNIe.s:5284   .text.UART_SetConfig:000005e8 $d
C:\Users\91458\AppData\Local\Temp\ccrpKNIe.s:5289   .text.UART_AdvFeatureConfig:00000000 $t
C:\Users\91458\AppData\Local\Temp\ccrpKNIe.s:5492   .text.UART_CheckIdleState:00000000 $t
C:\Users\91458\AppData\Local\Temp\ccrpKNIe.s:5600   .text.UART_WaitOnFlagUntilTimeout:00000000 $t
C:\Users\91458\AppData\Local\Temp\ccrpKNIe.s:5714   .text.UART_EndTxTransfer:00000000 $t
C:\Users\91458\AppData\Local\Temp\ccrpKNIe.s:5768   .text.UART_EndRxTransfer:00000000 $t
C:\Users\91458\AppData\Local\Temp\ccrpKNIe.s:5834   .text.UART_DMATransmitCplt:00000000 $t
C:\Users\91458\AppData\Local\Temp\ccrpKNIe.s:5910   .text.UART_DMATxHalfCplt:00000000 $t
C:\Users\91458\AppData\Local\Temp\ccrpKNIe.s:5955   .text.UART_DMAReceiveCplt:00000000 $t
C:\Users\91458\AppData\Local\Temp\ccrpKNIe.s:6040   .text.UART_DMARxHalfCplt:00000000 $t
C:\Users\91458\AppData\Local\Temp\ccrpKNIe.s:6085   .text.UART_DMAError:00000000 $t
C:\Users\91458\AppData\Local\Temp\ccrpKNIe.s:6178   .text.UART_DMAAbortOnError:00000000 $t
C:\Users\91458\AppData\Local\Temp\ccrpKNIe.s:6231   .text.UART_DMATxAbortCallback:00000000 $t
C:\Users\91458\AppData\Local\Temp\ccrpKNIe.s:6322   .text.UART_DMARxAbortCallback:00000000 $t
C:\Users\91458\AppData\Local\Temp\ccrpKNIe.s:6423   .text.UART_DMATxOnlyAbortCallback:00000000 $t
C:\Users\91458\AppData\Local\Temp\ccrpKNIe.s:6476   .text.UART_DMARxOnlyAbortCallback:00000000 $t
C:\Users\91458\AppData\Local\Temp\ccrpKNIe.s:6544   .text.UART_TxISR_8BIT:00000000 $t
C:\Users\91458\AppData\Local\Temp\ccrpKNIe.s:6637   .text.UART_TxISR_16BIT:00000000 $t
C:\Users\91458\AppData\Local\Temp\ccrpKNIe.s:6737   .text.UART_EndTransmit_IT:00000000 $t
C:\Users\91458\AppData\Local\Temp\ccrpKNIe.s:6794   .text.UART_RxISR_8BIT:00000000 $t
C:\Users\91458\AppData\Local\Temp\ccrpKNIe.s:6913   .text.UART_RxISR_16BIT:00000000 $t

UNDEFINED SYMBOLS
HAL_GetTick
HAL_DMA_Start_IT
HAL_DMA_Abort
HAL_DMA_Abort_IT
HAL_UARTEx_WakeupCallback
__aeabi_uldivmod
HAL_RCC_GetPCLK1Freq
HAL_RCC_GetSysClockFreq
HAL_RCC_GetPCLK2Freq
